(dp0
S'output'
p1
(lp2
(I350
I1
tp3
a(I579
I1
tp4
a(I245
I1
tp5
a(I980
I1
tp6
a(I337
I1
tp7
a(I48
I1
tp8
a(I568
I1
tp9
a(I731
I1
tp10
a(I586
I1
tp11
a(I983
I1
tp12
a(I51
I1
tp13
a(I993
I1
tp14
a(I589
I1
tp15
a(I730
I1
tp16
a(I244
I1
tp17
a(I336
I1
tp18
a(I733
I1
tp19
a(I247
I1
tp20
a(I60
I1
tp21
a(I982
I1
tp22
a(I339
I1
tp23
a(I50
I1
tp24
a(I992
I1
tp25
a(I877
I1
tp26
a(I588
I1
tp27
a(I53
I1
tp28
a(I995
I1
tp29
a(I59
I1
tp30
a(I732
I1
tp31
a(I246
I1
tp32
a(I338
I1
tp33
a(I735
I1
tp34
a(I341
I1
tp35
a(I52
I1
tp36
a(I994
I1
tp37
a(I879
I1
tp38
a(I590
I1
tp39
a(I889
I1
tp40
a(I567
I1
tp41
a(I997
I1
tp42
a(I575
I1
tp43
a(I65
I1
tp44
a(I734
I1
tp45
a(I265
I1
tp46
a(I340
I1
tp47
a(I721
I1
tp48
a(I878
I1
tp49
a(I343
I1
tp50
a(I888
I1
tp51
a(I54
I1
tp52
a(I996
I1
tp53
a(I353
I1
tp54
a(I64
I1
tp55
a(I891
I1
tp56
a(I999
I1
tp57
a(I264
I1
tp58
a(I67
I1
tp59
a(I720
I1
tp60
a(I267
I1
tp61
a(I342
I1
tp62
a(I723
I1
tp63
a(I897
I1
tp64
a(I352
I1
tp65
a(I985
I1
tp66
a(I890
I1
tp67
a(I998
I1
tp68
a(I55
I1
tp69
a(I66
I1
tp70
a(I893
I1
tp71
a(I578
I1
tp72
a(I266
I1
tp73
a(I581
I1
tp74
a(I722
I1
tp75
a(I896
I1
tp76
a(I725
I1
tp77
a(I899
I1
tp78
a(I577
I1
tp79
a(I413
I1
tp80
a(I331
I1
tp81
a(I892
I1
tp82
a(I249
I1
tp83
a(I984
I1
tp84
a(I68
I1
tp85
a(I895
I1
tp86
a(I45
I1
tp87
a(I987
I1
tp88
a(I268
I1
tp89
a(I583
I1
tp90
a(I724
I1
tp91
a(I898
I1
tp92
a(I412
I1
tp93
a(I727
I1
tp94
a(I248
I1
tp95
a(I901
I1
tp96
a(I737
I1
tp97
a(I333
I1
tp98
a(I894
I1
tp99
a(I251
I1
tp100
a(I44
I1
tp101
a(I570
I1
tp102
a(I986
I1
tp103
a(I582
I1
tp104
a(I881
I1
tp105
a(I47
I1
tp106
a(I989
I1
tp107
a(I57
I1
tp108
a(I726
I1
tp109
a(I900
I1
tp110
a(I257
I1
tp111
a(I569
I1
tp112
a(I736
I1
tp113
a(I332
I1
tp114
a(I250
I1
tp115
a(I739
I1
tp116
a(I62
I1
tp117
a(I335
I1
tp118
a(I880
I1
tp119
a(I253
I1
tp120
a(I46
I1
tp121
a(I988
I1
tp122
a(I345
I1
tp123
a(I56
I1
tp124
a(I883
I1
tp125
a(I991
I1
tp126
a(I256
I1
tp127
a(I571
I1
tp128
a(I573
I1
tp129
a(I259
I1
tp130
a(I738
I1
tp131
a(I334
I1
tp132
a(I252
I1
tp133
a(I981
I1
tp134
a(I344
I1
tp135
a(I882
I1
tp136
a(I255
I1
tp137
a(I990
I1
tp138
a(I347
I1
tp139
a(I58
I1
tp140
a(I885
I1
tp141
a(I258
I1
tp142
a(I61
I1
tp143
a(I261
I1
tp144
a(I740
I1
tp145
a(I566
I1
tp146
a(I717
I1
tp147
a(I254
I1
tp148
a(I346
I1
tp149
a(I884
I1
tp150
a(I349
I1
tp151
a(I572
I1
tp152
a(I887
I1
tp153
a(I260
I1
tp154
a(I63
I1
tp155
a(I576
I1
tp156
a(I716
I1
tp157
a(I585
I1
tp158
a(I263
I1
tp159
a(I719
I1
tp160
a(I348
I1
tp161
a(I729
I1
tp162
a(I886
I1
tp163
a(I351
I1
tp164
a(I574
I1
tp165
a(I584
I1
tp166
a(I580
I1
tp167
a(I262
I1
tp168
a(I49
I1
tp169
a(I718
I1
tp170
a(I587
I1
tp171
a(I728
I1
tp172
asS'runtime'
p173
F0.0013079643249511719
sS'name'
p174
S'["regex", [["provider_number", "[5]", "OM"]]]'
p175
s.