(dp0
S'output'
p1
(lp2
(I378
I17
tp3
a(I769
I17
tp4
a(I411
I17
tp5
a(I506
I17
tp6
a(I860
I17
tp7
a(I426
I17
tp8
a(I888
I17
tp9
a(I256
I17
tp10
a(I187
I17
tp11
a(I711
I17
tp12
a(I488
I17
tp13
a(I163
I17
tp14
a(I336
I17
tp15
a(I718
I17
tp16
a(I252
I17
tp17
a(I698
I17
tp18
a(I514
I17
tp19
a(I208
I17
tp20
a(I238
I17
tp21
a(I120
I17
tp22
a(I237
I17
tp23
a(I158
I17
tp24
a(I405
I17
tp25
asS'runtime'
p26
F0.0008788108825683594
sS'name'
p27
S'["regex", [["score", "[x]", "OM"]]]'
p28
s.