(dp0
S'output'
p1
(lp2
(I450
I7
tp3
a(I445
I7
tp4
a(I447
I7
tp5
a(I440
I7
tp6
a(I433
I7
tp7
a(I435
I7
tp8
a(I448
I7
tp9
a(I441
I7
tp10
a(I434
I7
tp11
a(I443
I7
tp12
a(I436
I7
tp13
a(I438
I7
tp14
a(I449
I7
tp15
a(I442
I7
tp16
a(I451
I7
tp17
a(I444
I7
tp18
a(I437
I7
tp19
a(I446
I7
tp20
a(I439
I7
tp21
a(I432
I7
tp22
asS'runtime'
p23
F0.001055002212524414
sS'name'
p24
S'["regex", [["state", "[k]", "OM"]]]'
p25
s.