(dp0
S'output'
p1
(lp2
(I776
I14
tp3
a(I775
I14
tp4
a(I766
I14
tp5
a(I903
I14
tp6
a(I312
I14
tp7
a(I311
I14
tp8
a(I904
I14
tp9
a(I902
I14
tp10
a(I774
I14
tp11
asS'runtime'
p12
F0.000885009765625
sS'name'
p13
S'["regex", [["condition", "[d]", "OM"]]]'
p14
s.