(dp0
S'output'
p1
(lp2
(I439
I19
tp3
a(I440
I19
tp4
a(I433
I19
tp5
a(I450
I19
tp6
a(I435
I19
tp7
a(I445
I19
tp8
a(I447
I19
tp9
a(I448
I19
tp10
a(I441
I19
tp11
a(I443
I19
tp12
a(I438
I19
tp13
a(I449
I19
tp14
a(I434
I19
tp15
a(I451
I19
tp16
a(I436
I19
tp17
a(I446
I19
tp18
a(I432
I19
tp19
a(I442
I19
tp20
a(I444
I19
tp21
a(I437
I19
tp22
asS'runtime'
p23
F0.0008749961853027344
sS'name'
p24
S'["regex", [["state_average", "[k]", "OM"]]]'
p25
s.