(dp0
S'output'
p1
(lp2
(I139
I16
tp3
a(I665
I16
tp4
a(I343
I16
tp5
a(I686
I16
tp6
a(I293
I16
tp7
a(I353
I16
tp8
a(I118
I16
tp9
a(I68
I16
tp10
a(I114
I16
tp11
a(I640
I16
tp12
a(I7
I16
tp13
a(I661
I16
tp14
a(I268
I16
tp15
a(I611
I16
tp16
a(I872
I16
tp17
a(I93
I16
tp18
a(I929
I16
tp19
a(I43
I16
tp20
a(I590
I16
tp21
a(I636
I16
tp22
a(I851
I16
tp23
a(I586
I16
tp24
a(I769
I16
tp25
a(I897
I16
tp26
a(I740
I16
tp27
a(I411
I16
tp28
a(I950
I16
tp29
a(I39
I16
tp30
a(I797
I16
tp31
a(I565
I16
tp32
a(I3
I16
tp33
a(I826
I16
tp34
a(I561
I16
tp35
a(I264
I16
tp36
a(I847
I16
tp37
a(I801
I16
tp38
a(I765
I16
tp39
a(I715
I16
tp40
a(I89
I16
tp41
a(I540
I16
tp42
a(I243
I16
tp43
a(I490
I16
tp44
a(I289
I16
tp45
a(I511
I16
tp46
a(I822
I16
tp47
a(I374
I16
tp48
a(I515
I16
tp49
a(I64
I16
tp50
a(I711
I16
tp51
a(I954
I16
tp52
a(I218
I16
tp53
a(I465
I16
tp54
a(I168
I16
tp55
a(I239
I16
tp56
a(I486
I16
tp57
a(I413
I16
tp58
a(I925
I16
tp59
a(I761
I16
tp60
a(I901
I16
tp61
a(I773
I16
tp62
a(I690
I16
tp63
a(I975
I16
tp64
a(I193
I16
tp65
a(I536
I16
tp66
a(I214
I16
tp67
a(I461
I16
tp68
a(I164
I16
tp69
a(I347
I16
tp70
a(I979
I16
tp71
a(I736
I16
tp72
a(I615
I16
tp73
a(I445
I16
tp74
a(I876
I16
tp75
a(I378
I16
tp76
a(I143
I16
tp77
a(I449
I16
tp78
a(I189
I16
tp79
asS'runtime'
p80
F0.0009479522705078125
sS'name'
p81
S'["regex", [["measure_name", "[4]", "OM"]]]'
p82
s.