(dp0
S'output'
p1
(lp2
(I7
I3
tp3
a(I621
I3
tp4
a(I201
I3
tp5
a(I43
I3
tp6
a(I870
I3
tp7
a(I33
I3
tp8
a(I899
I3
tp9
a(I528
I3
tp10
a(I380
I3
tp11
a(I738
I3
tp12
a(I121
I3
tp13
a(I987
I3
tp14
a(I534
I3
tp15
a(I616
I3
tp16
a(I212
I3
tp17
a(I783
I3
tp18
a(I622
I3
tp19
a(I202
I3
tp20
a(I871
I3
tp21
a(I405
I3
tp22
a(I34
I3
tp23
a(I900
I3
tp24
a(I861
I3
tp25
a(I739
I3
tp26
a(I122
I3
tp27
a(I988
I3
tp28
a(I535
I3
tp29
a(I729
I3
tp30
a(I525
I3
tp31
a(I623
I3
tp32
a(I400
I3
tp33
a(I203
I3
tp34
a(I774
I3
tp35
a(I856
I3
tp36
a(I406
I3
tp37
a(I488
I3
tp38
a(I193
I3
tp39
a(I35
I3
tp40
a(I862
I3
tp41
a(I740
I3
tp42
a(I25
I3
tp43
a(I123
I3
tp44
a(I520
I3
tp45
a(I730
I3
tp46
a(I526
I3
tp47
a(I204
I3
tp48
a(I775
I3
tp49
a(I407
I3
tp50
a(I194
I3
tp51
a(I36
I3
tp52
a(I863
I3
tp53
a(I801
I3
tp54
a(I397
I3
tp55
a(I26
I3
tp56
a(I124
I3
tp57
a(I853
I3
tp58
a(I889
I3
tp59
a(I731
I3
tp60
a(I485
I3
tp61
a(I980
I3
tp62
a(I527
I3
tp63
a(I721
I3
tp64
a(I517
I3
tp65
a(I392
I3
tp66
a(I195
I3
tp67
a(I848
I3
tp68
a(I398
I3
tp69
a(I480
I3
tp70
a(I185
I3
tp71
a(I27
I3
tp72
a(I854
I3
tp73
a(I890
I3
tp74
a(I732
I3
tp75
a(I486
I3
tp76
a(I722
I3
tp77
a(I518
I3
tp78
a(I196
I3
tp79
a(I399
I3
tp80
a(I186
I3
tp81
a(I28
I3
tp82
a(I855
I3
tp83
a(I793
I3
tp84
a(I891
I3
tp85
a(I389
I3
tp86
a(I487
I3
tp87
a(I845
I3
tp88
a(I881
I3
tp89
a(I723
I3
tp90
a(I477
I3
tp91
a(I519
I3
tp92
a(I309
I3
tp93
a(I384
I3
tp94
a(I187
I3
tp95
a(I840
I3
tp96
a(I141
I3
tp97
a(I794
I3
tp98
a(I892
I3
tp99
a(I390
I3
tp100
a(I472
I3
tp101
a(I177
I3
tp102
a(I19
I3
tp103
a(I846
I3
tp104
a(I633
I3
tp105
a(I882
I3
tp106
a(I724
I3
tp107
a(I478
I3
tp108
a(I304
I3
tp109
a(I310
I3
tp110
a(I136
I3
tp111
a(I188
I3
tp112
a(I142
I3
tp113
a(I795
I3
tp114
a(I391
I3
tp115
a(I178
I3
tp116
a(I20
I3
tp117
a(I847
I3
tp118
a(I634
I3
tp119
a(I785
I3
tp120
a(I883
I3
tp121
a(I479
I3
tp122
a(I837
I3
tp123
a(I873
I3
tp124
a(I469
I3
tp125
a(I301
I3
tp126
a(I143
I3
tp127
a(I796
I3
tp128
a(I179
I3
tp129
a(I832
I3
tp130
a(I537
I3
tp131
a(I635
I3
tp132
a(I133
I3
tp133
a(I786
I3
tp134
a(I884
I3
tp135
a(I169
I3
tp136
a(I838
I3
tp137
a(I625
I3
tp138
a(I874
I3
tp139
a(I716
I3
tp140
a(I470
I3
tp141
a(I296
I3
tp142
a(I1
I3
tp143
a(I302
I3
tp144
a(I128
I3
tp145
a(I180
I3
tp146
a(I538
I3
tp147
a(I636
I3
tp148
a(I134
I3
tp149
a(I216
I3
tp150
a(I787
I3
tp151
a(I170
I3
tp152
a(I997
I3
tp153
a(I839
I3
tp154
a(I626
I3
tp155
a(I777
I3
tp156
a(I875
I3
tp157
a(I471
I3
tp158
a(I2
I3
tp159
a(I829
I3
tp160
a(I409
I3
tp161
a(I865
I3
tp162
a(I303
I3
tp163
a(I992
I3
tp164
a(I539
I3
tp165
a(I135
I3
tp166
a(I788
I3
tp167
a(I171
I3
tp168
a(I998
I3
tp169
a(I529
I3
tp170
a(I627
I3
tp171
a(I381
I3
tp172
a(I778
I3
tp173
a(I876
I3
tp174
a(I3
I3
tp175
a(I830
I3
tp176
a(I617
I3
tp177
a(I410
I3
tp178
a(I213
I3
tp179
a(I866
I3
tp180
a(I540
I3
tp181
a(I294
I3
tp182
a(I172
I3
tp183
a(I901
I3
tp184
a(I999
I3
tp185
a(I530
I3
tp186
a(I628
I3
tp187
a(I382
I3
tp188
a(I208
I3
tp189
a(I779
I3
tp190
a(I4
I3
tp191
a(I989
I3
tp192
a(I831
I3
tp193
a(I618
I3
tp194
a(I411
I3
tp195
a(I214
I3
tp196
a(I40
I3
tp197
a(I867
I3
tp198
a(I401
I3
tp199
a(I896
I3
tp200
a(I857
I3
tp201
a(I295
I3
tp202
a(I489
I3
tp203
a(I984
I3
tp204
a(I531
I3
tp205
a(I383
I3
tp206
a(I780
I3
tp207
a(I990
I3
tp208
a(I521
I3
tp209
a(I619
I3
tp210
a(I215
I3
tp211
a(I868
I3
tp212
a(I402
I3
tp213
a(I205
I3
tp214
a(I858
I3
tp215
a(I736
I3
tp216
a(I490
I3
tp217
a(I37
I3
tp218
a(I532
I3
tp219
a(I125
I3
tp220
a(I991
I3
tp221
a(I522
I3
tp222
a(I620
I3
tp223
a(I200
I3
tp224
a(I981
I3
tp225
a(I403
I3
tp226
a(I206
I3
tp227
a(I32
I3
tp228
a(I859
I3
tp229
a(I393
I3
tp230
a(I38
I3
tp231
a(I120
I3
tp232
a(I849
I3
tp233
a(I481
I3
tp234
a(I126
I3
tp235
a(I523
I3
tp236
a(I733
I3
tp237
a(I982
I3
tp238
a(I404
I3
tp239
a(I207
I3
tp240
a(I860
I3
tp241
a(I640
I3
tp242
a(I394
I3
tp243
a(I197
I3
tp244
a(I39
I3
tp245
a(I850
I3
tp246
a(I728
I3
tp247
a(I482
I3
tp248
a(I29
I3
tp249
a(I127
I3
tp250
a(I524
I3
tp251
a(I734
I3
tp252
a(I983
I3
tp253
a(I192
I3
tp254
a(I395
I3
tp255
a(I198
I3
tp256
a(I24
I3
tp257
a(I851
I3
tp258
a(I385
I3
tp259
a(I483
I3
tp260
a(I30
I3
tp261
a(I841
I3
tp262
a(I893
I3
tp263
a(I735
I3
tp264
a(I473
I3
tp265
a(I725
I3
tp266
a(I305
I3
tp267
a(I800
I3
tp268
a(I396
I3
tp269
a(I199
I3
tp270
a(I852
I3
tp271
a(I137
I3
tp272
a(I888
I3
tp273
a(I386
I3
tp274
a(I484
I3
tp275
a(I189
I3
tp276
a(I31
I3
tp277
a(I842
I3
tp278
a(I894
I3
tp279
a(I720
I3
tp280
a(I474
I3
tp281
a(I21
I3
tp282
a(I119
I3
tp283
a(I516
I3
tp284
a(I726
I3
tp285
a(I306
I3
tp286
a(I184
I3
tp287
a(I138
I3
tp288
a(I387
I3
tp289
a(I190
I3
tp290
a(I843
I3
tp291
a(I797
I3
tp292
a(I895
I3
tp293
a(I475
I3
tp294
a(I22
I3
tp295
a(I833
I3
tp296
a(I885
I3
tp297
a(I727
I3
tp298
a(I307
I3
tp299
a(I717
I3
tp300
a(I297
I3
tp301
a(I139
I3
tp302
a(I792
I3
tp303
a(I388
I3
tp304
a(I191
I3
tp305
a(I844
I3
tp306
a(I129
I3
tp307
a(I798
I3
tp308
a(I880
I3
tp309
a(I476
I3
tp310
a(I181
I3
tp311
a(I23
I3
tp312
a(I834
I3
tp313
a(I637
I3
tp314
a(I217
I3
tp315
a(I886
I3
tp316
a(I466
I3
tp317
a(I308
I3
tp318
a(I718
I3
tp319
a(I298
I3
tp320
a(I140
I3
tp321
a(I176
I3
tp322
a(I632
I3
tp323
a(I130
I3
tp324
a(I799
I3
tp325
a(I182
I3
tp326
a(I993
I3
tp327
a(I835
I3
tp328
a(I638
I3
tp329
a(I218
I3
tp330
a(I789
I3
tp331
a(I887
I3
tp332
a(I467
I3
tp333
a(I877
I3
tp334
a(I719
I3
tp335
a(I299
I3
tp336
a(I131
I3
tp337
a(I784
I3
tp338
a(I183
I3
tp339
a(I994
I3
tp340
a(I836
I3
tp341
a(I639
I3
tp342
a(I790
I3
tp343
a(I872
I3
tp344
a(I468
I3
tp345
a(I173
I3
tp346
a(I629
I3
tp347
a(I209
I3
tp348
a(I878
I3
tp349
a(I300
I3
tp350
a(I5
I3
tp351
a(I41
I3
tp352
a(I536
I3
tp353
a(I132
I3
tp354
a(I897
I3
tp355
a(I995
I3
tp356
a(I624
I3
tp357
a(I791
I3
tp358
a(I174
I3
tp359
a(I0
I3
tp360
a(I985
I3
tp361
a(I827
I3
tp362
a(I630
I3
tp363
a(I210
I3
tp364
a(I781
I3
tp365
a(I879
I3
tp366
a(I6
I3
tp367
a(I42
I3
tp368
a(I869
I3
tp369
a(I898
I3
tp370
a(I996
I3
tp371
a(I379
I3
tp372
a(I776
I3
tp373
a(I737
I3
tp374
a(I175
I3
tp375
a(I986
I3
tp376
a(I828
I3
tp377
a(I533
I3
tp378
a(I631
I3
tp379
a(I408
I3
tp380
a(I211
I3
tp381
a(I782
I3
tp382
a(I864
I3
tp383
asS'runtime'
p384
F0.0011870861053466797
sS'name'
p385
S'["regex", [["address_1", "[l]", "OM"]]]'
p386
s.