(dp0
S'output'
p1
(lp2
(I758
I2
tp3
a(I922
I2
tp4
a(I697
I2
tp5
a(I903
I2
tp6
a(I938
I2
tp7
a(I385
I2
tp8
a(I654
I2
tp9
a(I171
I2
tp10
a(I560
I2
tp11
a(I243
I2
tp12
a(I765
I2
tp13
a(I448
I2
tp14
a(I131
I2
tp15
a(I730
I2
tp16
a(I956
I2
tp17
a(I710
I2
tp18
a(I987
I2
tp19
a(I26
I2
tp20
a(I777
I2
tp21
a(I532
I2
tp22
a(I337
I2
tp23
a(I962
I2
tp24
a(I921
I2
tp25
a(I384
I2
tp26
asS'runtime'
p27
F0.00109100341796875
sS'name'
p28
S'["regex", [["name", "[x]", "OM"]]]'
p29
s.