(dp0
S'output'
p1
(lp2
(I1308
I18
tp3
a(I490
I18
tp4
a(I1949
I18
tp5
a(I608
I18
tp6
a(I1419
I18
tp7
a(I501
I18
tp8
a(I1403
I18
tp9
a(I242
I18
tp10
a(I223
I18
tp11
a(I499
I18
tp12
a(I756
I18
tp13
a(I85
I18
tp14
a(I602
I18
tp15
a(I487
I18
tp16
a(I1418
I18
tp17
a(I1402
I18
tp18
a(I1583
I18
tp19
a(I2100
I18
tp20
a(I71
I18
tp21
a(I521
I18
tp22
a(I261
I18
tp23
a(I1163
I18
tp24
a(I830
I18
tp25
a(I757
I18
tp26
a(I599
I18
tp27
a(I2054
I18
tp28
a(I696
I18
tp29
a(I1415
I18
tp30
a(I1420
I18
tp31
a(I498
I18
tp32
a(I427
I18
tp33
a(I1456
I18
tp34
a(I513
I18
tp35
a(I1406
I18
tp36
a(I70
I18
tp37
a(I601
I18
tp38
a(I2088
I18
tp39
a(I500
I18
tp40
a(I1008
I18
tp41
a(I695
I18
tp42
a(I1894
I18
tp43
a(I1401
I18
tp44
a(I1193
I18
tp45
a(I1040
I18
tp46
a(I1414
I18
tp47
a(I1901
I18
tp48
a(I697
I18
tp49
a(I39
I18
tp50
a(I1226
I18
tp51
a(I1421
I18
tp52
asS'runtime'
p53
F0.14993500709533691
sS'name'
p54
S'["fd_checker", [["region_1", "retired"]]]'
p55
s.