(dp0
S'output'
p1
(lp2
(I1535
I28
tp3
a(I1533
I28
tp4
a(I1538
I28
tp5
a(I1528
I28
tp6
a(I1532
I28
tp7
a(I1530
I28
tp8
a(I1534
I28
tp9
a(I1539
I28
tp10
a(I1537
I28
tp11
a(I1531
I28
tp12
a(I1529
I28
tp13
a(I1536
I28
tp14
asS'runtime'
p15
F0.0018320083618164062
sS'name'
p16
S'["regex", [["bus_import", "[A]", "OM"]]]'
p17
s.