(dp0
S'output'
p1
(lp2
(I2188
I53
tp3
a(I481
I53
tp4
a(I538
I53
tp5
a(I2183
I53
tp6
a(I2068
I53
tp7
a(I2184
I53
tp8
a(I6
I53
tp9
a(I1052
I53
tp10
asS'runtime'
p11
F0.0018961429595947266
sS'name'
p12
S'["regex", [["prmry_bus_function", "[\\ufffd]", "OM"]]]'
p13
s.