(dp0
S'output'
p1
(lp2
(I33782
I3
tp3
a(I75798
I3
tp4
a(I77131
I3
tp5
a(I16421
I3
tp6
a(I69546
I3
tp7
a(I40517
I3
tp8
asS'runtime'
p9
F0.06985688209533691
sS'name'
p10
S'["regex", [["last_name", "[?]", "OM"]]]'
p11
s.