(dp0
S'output'
p1
(lp2
(I48496
I1
tp3
a(I79596
I1
tp4
a(I19322
I1
tp5
a(I55413
I1
tp6
a(I10228
I1
tp7
a(I10352
I1
tp8
a(I32477
I1
tp9
a(I80918
I1
tp10
asS'runtime'
p11
F0.07706904411315918
sS'name'
p12
S'["regex", [["first_name", "[\']", "OM"]]]'
p13
s.