(dp0
S'output'
p1
(lp2
(I66962
I2
tp3
a(I8393
I2
tp4
a(I68459
I2
tp5
a(I73013
I2
tp6
a(I65360
I2
tp7
a(I8312
I2
tp8
a(I83554
I2
tp9
a(I15576
I2
tp10
asS'runtime'
p11
F0.07245802879333496
sS'name'
p12
S'["regex", [["middle_name", "[(]", "OM"]]]'
p13
s.