(dp0
S'output'
p1
(lp2
(I8675
I2
tp3
a(I77971
I2
tp4
a(I18735
I2
tp5
a(I6034
I2
tp6
a(I29865
I2
tp7
a(I38642
I2
tp8
a(I66320
I2
tp9
a(I9591
I2
tp10
a(I51042
I2
tp11
a(I9148
I2
tp12
a(I34515
I2
tp13
a(I83798
I2
tp14
a(I34525
I2
tp15
a(I27831
I2
tp16
a(I34498
I2
tp17
a(I51129
I2
tp18
a(I38077
I2
tp19
a(I59
I2
tp20
a(I15271
I2
tp21
a(I31832
I2
tp22
asS'runtime'
p23
F0.07789087295532227
sS'name'
p24
S'["regex", [["middle_name", "[-]", "OM"]]]'
p25
s.