(dp0
S'output'
p1
(lp2
(I68812
I4
tp3
a(I64967
I4
tp4
a(I25381
I4
tp5
a(I19435
I4
tp6
a(I2809
I4
tp7
a(I20793
I4
tp8
a(I24306
I4
tp9
a(I81880
I4
tp10
a(I4167
I4
tp11
a(I87503
I4
tp12
a(I44140
I4
tp13
a(I75447
I4
tp14
a(I40527
I4
tp15
a(I42539
I4
tp16
a(I47115
I4
tp17
asS'runtime'
p18
F0.08056998252868652
sS'name'
p19
S'["regex", [["address", "[&]", "OM"]]]'
p20
s.