(dp0
S'values'
p1
(dp2
V
p3
F0.41954022988505746
sV3, Year End
p4
F0.0004420866489832007
sVNo
p5
F0.0004420866489832007
sV2- Month-end, year-end
p6
F0.0017683465959328027
sV24X7
p7
F0.0004420866489832007
sV3; no seasonal criticality
p8
F0.0004420866489832007
sV2; year round use
p9
F0.003094606542882405
sVn/a
p10
F0.0004420866489832007
sV* see comment 1
p11
F0.004862953138815208
sVPayroll Cut off
p12
F0.0017683465959328027
sV1  Normal; Peak periods of use and support is during business hrs mentioned.The application webpage is available 24/7
p13
F0.0004420866489832007
sVMonth CUT Off
p14
F0.0035366931918656055
sV2, Year round use
p15
F0.0004420866489832007
sV1- no seasonality
p16
F0.0004420866489832007
sV2; month end and year end
p17
F0.0004420866489832007
sV1. year round use
p18
F0.0004420866489832007
sV3\u000a\u000a\u000a (only for -8 to +6 days)
p19
F0.0004420866489832007
sV2 Normal The application is used at the beginning of each month to record monthly data collections
p20
F0.0004420866489832007
sV3, Month/Year end
p21
F0.0004420866489832007
sV3, Last week of Every Quarter utilization will be more
p22
F0.0004420866489832007
sVN/a
p23
F0.010167992926613616
sVNA
p24
F0.09946949602122016
sV3, During quarterly job
p25
F0.0004420866489832007
sV2; Spotfire will be on-boarded from Dec '12 , ETL from Jan '13
p26
F0.0004420866489832007
sVTibco - 2
p27
F0.0004420866489832007
sV1; no particular seasonal criticality
p28
F0.018125552608311227
sV1 . during audit
p29
F0.0004420866489832007
sV1
p30
F0.05702917771883289
sVMonthly
p31
F0.0004420866489832007
sV2; year end, every month beigining
p32
F0.0004420866489832007
sV2
p33
F0.14456233421750664
sVWP Power Monitoring System project
p34
F0.0004420866489832007
sV3: 2 weeks prior to the end of each Quarter
p35
F0.0004420866489832007
sV3. very critical during product launch and during audit
p36
F0.0004420866489832007
sVQuaryterly criticallity
p37
F0.0004420866489832007
sV2, year round use
p38
F0.01768346595932803
sV3; Gold Level Support
p39
F0.0004420866489832007
sVNot applicable
p40
F0.004420866489832007
sVComposite - NA\u000a\u000a\u000aSpotfire - NA
p41
F0.0004420866489832007
sV3; year round use - no specific seasonal criticality; reports run at end of month
p42
F0.0008841732979664014
sV1 year round use
p43
F0.001326259946949602
sV3, every Morning 8-9 AM IST
p44
F0.0004420866489832007
sV3
p45
F0.021662245800176835
sV2 Normal Used the same year round
p46
F0.0004420866489832007
sV2; critical when there are issues with Microstation drawings.
p47
F0.0004420866489832007
sVN/A
p48
F0.134394341290893
sV3, 2 weeks prior to end of First Month in a Qtr (Jan, Apr, July, Oct) for Qtrly Price Filings to the Federal Government
p49
F0.0004420866489832007
sVNeeds support every Saturday
p50
F0.0004420866489832007
sV1; 2;
p51
F0.0004420866489832007
sVno particular seasonal criticality
p52
F0.0004420866489832007
sVInformatica - 3\u000a\u000a\u000aBI - 3\u000a\u000a\u000aSAP - 2\u000a\u000a\u000aTIBCO - 2
p53
F0.0004420866489832007
sV3, During Half yearly operations
p54
F0.0004420866489832007
sV2; during Q1 & Q4 the usage of EMS increases due to event creation (Q1) and event closing (Q4)
p55
F0.0004420866489832007
sV3: 24x7
p56
F0.0004420866489832007
sVIn case of recall
p57
F0.0004420866489832007
sV3, During MR evaluation
p58
F0.0004420866489832007
sV1, year round use
p59
F0.008841732979664015
sV3: Ist Business day of the month
p60
F0.0004420866489832007
sV3, 1st-10th business day of the month for financial close
p61
F0.0004420866489832007
sV3; year round use
p62
F0.0022104332449160036
sV2- No seasonality
p63
F0.0004420866489832007
sV2; the close timeline ( days\ufffd\ufffd minus 1- plus 4) and 48 hours outside the close window
p64
F0.0004420866489832007
sV3: Regulatory submission dates
p65
F0.0004420866489832007
sV7:00 AM (EST) _ 11:00 (PM) Monday through Friday during the Close Period (-2 -> +8)
p66
F0.0017683465959328027
sV3, 1st-7th business day of the month for financial close
p67
F0.0008841732979664014
sV3. during audit
p68
F0.001326259946949602
sVComposite - NA
p69
F0.0004420866489832007
sV3, Last week of Every month
p70
F0.0004420866489832007
sV3, year round use
p71
F0.016799292661361626
sV2; no particular seasonal criticality
p72
F0.001326259946949602
sV2, (year round use)
p73
F0.0004420866489832007
sV1- No seasonality
p74
F0.0004420866489832007
sV1,  year round use
p75
F0.0004420866489832007
sVComposite - NA\u000a\u000a\u000aCognos - 2
p76
F0.0004420866489832007
sVAt the half year operation, criticality becomes 3
p77
F0.0004420866489832007
ssS'characters'
p78
(dp79
V\u000a
p80
F0.0017683465959328027
sV 
p81
F0.11140583554376658
sV'
p82
F0.0004420866489832007
sV&
p83
F0.0004420866489832007
sV)
p84
F0.003978779840848806
sV(
p85
F0.003978779840848806
sV+
p86
F0.0022104332449160036
sV*
p87
F0.004862953138815208
sV-
p88
F0.011052166224580018
sV,
p89
F0.05305039787798409
sV/
p90
F0.14588859416445624
sV.
p91
F0.0035366931918656055
sg30
F0.09770114942528736
sV0
p92
F0.0022104332449160036
sg45
F0.05305039787798409
sg33
F0.17904509283819628
sV4
p93
F0.0022104332449160036
sV7
p94
F0.003978779840848806
sV6
p95
F0.0004420866489832007
sV9
p96
F0.0004420866489832007
sV8
p97
F0.003094606542882405
sV;
p98
F0.030061892130857647
sV:
p99
F0.0035366931918656055
sV>
p100
F0.0017683465959328027
sVA
p101
F0.23872679045092837
sVC
p102
F0.008841732979664015
sVB
p103
F0.0008841732979664014
sVE
p104
F0.003978779840848806
sVD
p105
F0.0017683465959328027
sVG
p106
F0.0008841732979664014
sVF
p107
F0.0022104332449160036
sVI
p108
F0.0017683465959328027
sVH
p109
F0.0004420866489832007
sVJ
p110
F0.0008841732979664014
sVM
p111
F0.010610079575596816
sVL
p112
F0.0017683465959328027
sVO
p113
F0.004420866489832007
sVN
p114
F0.25287356321839083
sVQ
p115
F0.0022104332449160036
sVP
p116
F0.005305039787798408
sVS
p117
F0.005305039787798408
sVR
p118
F0.0008841732979664014
sVU
p119
F0.003978779840848806
sVT
p120
F0.007957559681697613
sVW
p121
F0.0004420866489832007
sVY
p122
F0.001326259946949602
sVX
p123
F0.0004420866489832007
sV_
p124
F0.0017683465959328027
sVa
p125
F0.10963748894783377
sVc
p126
F0.038461538461538464
sVb
p127
F0.009725906277630416
sVe
p128
F0.10212201591511937
sVd
p129
F0.06763925729442971
sVg
p130
F0.009725906277630416
sVf
p131
F0.014146772767462422
sVi
p132
F0.04288240495137047
sVh
p133
F0.016357206012378427
sVk
p134
F0.0022104332449160036
sVj
p135
F0.0008841732979664014
sVm
p136
F0.015030946065428824
sVl
p137
F0.040671971706454466
sVo
p138
F0.10875331564986737
sVn
p139
F0.10256410256410256
sVq
p140
F0.0004420866489832007
sVp
p141
F0.03183023872679045
sVs
p142
F0.09151193633952255
sVr
p143
F0.09460654288240496
sVu
p144
F0.08709106984969053
sVt
p145
F0.05747126436781609
sVw
p146
F0.003978779840848806
sVv
p147
F0.004862953138815208
sVy
p148
F0.08930150309460655
sVx
p149
F0.0004420866489832007
sVz
p150
F0.0004420866489832007
sV\ufffd
p151
F0.0004420866489832007
ss.