(dp0
S'values'
p1
(dp2
VSIS
p3
F0.0004420866489832007
sVPharmaceutical R&D Atlas Terminal Server
p4
F0.0004420866489832007
sVSwords-Vitek2 compact Microbiology ID System
p5
F0.0004420866489832007
sVCOGNOS - HHE - SALNAT.AT
p6
F0.0004420866489832007
sVDLC Upload Assistant
p7
F0.0004420866489832007
sVVideo Surveillance System-Trenton, NJ
p8
F0.0004420866489832007
sViMEDMaxall
p9
F0.0004420866489832007
sVG5
p10
F0.0004420866489832007
sVGlobal Meeting Management Technology Platform
p11
F0.0004420866489832007
sVBI_Cognos_GHH - CMR
p12
F0.0004420866489832007
sVISS_COMET_STS10
p13
F0.0004420866489832007
sVEmployee Giving Web Logon Page
p14
F0.0004420866489832007
sVAP-China Medicine Distribution System(cncms)
p15
F0.0004420866489832007
sVBI_Cognos_ HHE_SNA_Combine_Dashboard
p16
F0.0004420866489832007
sVExpensys
p17
F0.0004420866489832007
sVfields.merck.com/ Web application
p18
F0.0004420866489832007
sVCDB Subscriber
p19
F0.0004420866489832007
sVCOGNOS - GHH Align
p20
F0.0004420866489832007
sVLA-MEX FoliosPap
p21
F0.0004420866489832007
sVGHH - Formulary
p22
F0.0004420866489832007
sVAP-HRonDemand
p23
F0.0004420866489832007
sVheist - empower(heist - empower)
p24
F0.0004420866489832007
sVLive Virus Vaccine System
p25
F0.0004420866489832007
sVDLC2 Resolver
p26
F0.0004420866489832007
sVMSTR Infrastructure
p27
F0.0004420866489832007
sVTravel?\u0322\ufffd\ufffds profile management system.
p28
F0.0004420866489832007
sVLA-Encriptacion Payments
p29
F0.0004420866489832007
sVLibrary Management
p30
F0.0004420866489832007
sVDLC Utility Service
p31
F0.0004420866489832007
sVCOGNOS - CORP - OBSWH_Archive
p32
F0.0004420866489832007
sVPDAM Hosting
p33
F0.0004420866489832007
sVsap_bo_lead_time_mmd
p34
F0.0004420866489832007
sVAP-KOR-Marketing Information System(apkormar)
p35
F0.0004420866489832007
sVGCS Vendor Management Database
p36
F0.0004420866489832007
sVACS Interface
p37
F0.0004420866489832007
sVRepository of Authoritative Data Source
p38
F0.0004420866489832007
sVTAIWAN Master DB(twnmdb)
p39
F0.0004420866489832007
sVSPOTFIRE - Westpoint Invitro HCS
p40
F0.0004420866489832007
sVGHH - Franchise Dashboard
p41
F0.0004420866489832007
sVEMEAC-GBR-Reportive
p42
F0.0004420866489832007
sVXTP (SAIS Interaface)
p43
F0.0004420866489832007
sVLA-ECU Event Merck System
p44
F0.0004420866489832007
sVHtR Mobile
p45
F0.0004420866489832007
sVOne Minute NMR Application
p46
F0.0004420866489832007
sViPipe Product Life Cycle Governance Team Site
p47
F0.0004420866489832007
sVMerck Intranet Enterprise Search
p48
F0.0004420866489832007
sVBI Cognos HHE_SNA_GR
p49
F0.0004420866489832007
sVTIBCO_COMET_SCM_JulyRel_Liquent
p50
F0.0004420866489832007
sVBasic Research People, Projects and Assays Database
p51
F0.0004420866489832007
sVExpense Reporting system
p52
F0.0004420866489832007
sVRecords retention - Records Management System (RMS)
p53
F0.0004420866489832007
sVReporting Support, Web Support
p54
F0.0004420866489832007
sVProduct Information Management System
p55
F0.0004420866489832007
sVMIDAS Common Document Services
p56
F0.0004420866489832007
sVBATCH SHEET GENERATION MACROS
p57
F0.0004420866489832007
sVCOGNOS - HHE - SALES.NO
p58
F0.0004420866489832007
sVInformatica - EMEA A&XF - South Africa
p59
F0.0004420866489832007
sVOSS-PO Miniload
p60
F0.0004420866489832007
sVMCC Global Demand Planning
p61
F0.0004420866489832007
sVISS_TRANSIT_PASXSiteService_Brazil
p62
F0.0004420866489832007
sVOSS-PO MRO Spare parts registration system
p63
F0.0004420866489832007
sVClinical Schedule Generation System
p64
F0.0004420866489832007
sVVantage Plant Design Management System
p65
F0.0004420866489832007
sVMVD Miscellaneous Data Loads
p66
F0.0004420866489832007
sVProMat(promat)
p67
F0.0004420866489832007
sVItaly Customer
p68
F0.0004420866489832007
sVMerck Culture Collection System
p69
F0.0004420866489832007
sVBI_Cognos_GHH Canada BI
p70
F0.0004420866489832007
sVROME_CODS
p71
F0.0004420866489832007
sVSafety Assessment Pharmacokinetic Data Repository
p72
F0.0004420866489832007
sVCOMET- ISS_COMET_HTR_DEGeneralDataSub
p73
F0.0004420866489832007
sVLA-BRA-Controle de Amostras
p74
F0.0004420866489832007
sVAnimal Procedure Statement System
p75
F0.0004420866489832007
sVDrug Metabolism Data
p76
F0.0004420866489832007
sVHireRight
p77
F0.0004420866489832007
sVBI_Cognos_MMD - Supply Chain Metrics VCM
p78
F0.0004420866489832007
sVEMEAC-Car Fleet Management
p79
F0.0004420866489832007
sVStructured Authoring
p80
F0.0004420866489832007
sVGovernment Rebating System
p81
F0.0004420866489832007
sVDocvadis
p82
F0.0004420866489832007
sVBI_Cognos_IBM_Optim_Archive(Granit)
p83
F0.0004420866489832007
sVBarcode Printer Mgmt
p84
F0.0004420866489832007
sVEMEAC-NL DocBase
p85
F0.0004420866489832007
sVEMEAC-GBR-KPI Dashboard Reports
p86
F0.0004420866489832007
sVEMEAC-PT GP400
p87
F0.0004420866489832007
sVCLOUD_COMPOSITE_LKR
p88
F0.0004420866489832007
sVASCOT CTMS
p89
F0.0004420866489832007
sVEDM
p90
F0.0004420866489832007
sVLA-ECU-SQL Nomina
p91
F0.0004420866489832007
sVTrack-IT--Italy ( Pc Inventory Management )
p92
F0.0004420866489832007
sVAP-JPN Wholesaler Incentive Plan Support
p93
F0.0004420866489832007
sVCase Report Form
p94
F0.0004420866489832007
sVconnectivity mobile
p95
F0.0004420866489832007
sVAPCubed - Taiwan
p96
F0.0004420866489832007
sVGHH Align RME
p97
F0.0004420866489832007
sVmsdproduct.co.uk
p98
F0.0004420866489832007
sVBI_Cognos_LAS
p99
F0.0004420866489832007
sVRahway Package Tracking System
p100
F0.0004420866489832007
sVGCSO Forecasting
p101
F0.0004420866489832007
sVUSHH Supply Chain Management
p102
F0.0004420866489832007
sVETL-PSR_GHH
p103
F0.0004420866489832007
sVAP-TWN-Targeting & Classification System
p104
F0.0004420866489832007
sVInterfaces SAP - HtR to  Payroll HRIS Repository
p105
F0.0004420866489832007
sVResource Management Tool
p106
F0.0004420866489832007
sVFeed to First to File
p107
F0.0004420866489832007
sVCOGNOS - HHE - SNA.SA
p108
F0.0004420866489832007
sVIntegrated Medical Education Decision Support System
p109
F0.0004420866489832007
sVTIBCO - DEC14_OTC_Nfe
p110
F0.0004420866489832007
sVLAHH BILA Costa Rica
p111
F0.0004420866489832007
sVUSHH Employee Information Management System
p112
F0.0004420866489832007
sVRtReports Singapore
p113
F0.0004420866489832007
sVGesicon
p114
F0.0004420866489832007
sVCOMET- Org Structure
p115
F0.0004420866489832007
sVClinical Data Management System for Japan(ct4cdms)
p116
F0.0004420866489832007
sVDigitalPage
p117
F0.0004420866489832007
sVOSI PI - Haarlem
p118
F0.0004420866489832007
sVBI Cognos HHE_SNA_RU_NAT
p119
F0.0004420866489832007
sVGPIR to FACTS
p120
F0.0004420866489832007
sVCOMET 2.0B  Cost Center Heirarchy
p121
F0.0004420866489832007
sVADMET Workbench
p122
F0.0004420866489832007
sVMerck Manual
p123
F0.0004420866489832007
sVEnterprise Shared Architecture
p124
F0.0008841732979664014
sVcomet_sap_bi_due_to_price_bridges
p125
F0.0004420866489832007
sVBI_Cognos_HHE_SNA_LB
p126
F0.0004420866489832007
sVInstruction Manuals
p127
F0.0004420866489832007
sVGlobal Procurement Dashboard
p128
F0.0004420866489832007
sVEMEAC-DEU Clinical Trial
p129
F0.0004420866489832007
sVTIBCO_COMET-G4_COMMON SERVICES
p130
F0.0004420866489832007
sVBI_Spotfire_Merck Application Repository
p131
F0.0004420866489832007
sVBI_Cognos_LAHH - ITLS_BR_SEA
p132
F0.0004420866489832007
sVPND
p133
F0.0004420866489832007
sVOSS-PO pagina number system-pyv(pyv)
p134
F0.0004420866489832007
sVRapid Intake UNISON
p135
F0.0004420866489832007
sVTopview for PI
p136
F0.0004420866489832007
sVMerckOnCall Video Detailing System
p137
F0.0004420866489832007
sVG3A_TRANSIT
p138
F0.0004420866489832007
sVPMA/PRA
p139
F0.0004420866489832007
sVPRM
p140
F0.0004420866489832007
sVRegulatory & Analytical Sciences Stat and Code Number Approval and Request
p141
F0.0004420866489832007
sVdrug metabolism
p142
F0.0004420866489832007
sVCONTROL OF MANUFACTURERS
p143
F0.0004420866489832007
sVJD Edwards--EMEA
p144
F0.0004420866489832007
sVTransaction Reporting Service
p145
F0.0004420866489832007
sVISS_COMET_OTC2
p146
F0.0004420866489832007
sVLAHH BR Training
p147
F0.0004420866489832007
sVISS_COMET_SCM_EMEA(AMSBSvcs,AMSBService,QualStatus)
p148
F0.0004420866489832007
sVSpain
p149
F0.0004420866489832007
sVETL_BI_China_Training_Dashboard
p150
F0.0004420866489832007
sVeVOC (MedDRA versioning SMQ)
p151
F0.0004420866489832007
sVPI Data Historian Cramlington
p152
F0.0004420866489832007
sVLaboratory PC Systems
p153
F0.0004420866489832007
sVShare Plus
p154
F0.0004420866489832007
sVEMEAC-GBR-Creative Services Database
p155
F0.0004420866489832007
sVTIBCO_COMET-MES_Rainbow_Singapore_MMD
p156
F0.0004420866489832007
sVSAP HtR
p157
F0.0004420866489832007
sVETL_China_Veeva_DI
p158
F0.0004420866489832007
sVETL_INFORMATICA_HHE_SNA_IL360_GHH
p159
F0.0004420866489832007
sVAP-KOR-Online Order System(apkoroos)
p160
F0.0004420866489832007
sVENGINEERED SOFTWARE PIPE-FLO
p161
F0.0004420866489832007
sVCOGNOS  - LAHH BILA
p162
F0.0004420866489832007
sVLDIS
p163
F0.0004420866489832007
sVBI_Cognos_GHH_Spain_CRM
p164
F0.0004420866489832007
sVManufacturing Resource Planning Lot Genealogy Application
p165
F0.0004420866489832007
sVRetained Samples Database
p166
F0.0004420866489832007
sVSAP_BW_Accounts_Payable_Dashboard_APAC
p167
F0.0004420866489832007
sVRT Reports - Heist
p168
F0.0004420866489832007
sVWSCA
p169
F0.0004420866489832007
sVReview Reality
p170
F0.0004420866489832007
sVTIBCO_COMET-G4_SCM_Data3_Granville_MMD
p171
F0.0004420866489832007
sVAP-JPN Sales Data Cleansing
p172
F0.0004420866489832007
sVICD Schema
p173
F0.0004420866489832007
sVInformatica - EMEA S&A - Lebanon
p174
F0.0004420866489832007
sVETL_BI_AP MSE_GHH
p175
F0.0004420866489832007
sVNGLDSS
p176
F0.0008841732979664014
sVWebmetrix
p177
F0.0004420866489832007
sVAP-MSD-HUB(msdhub)
p178
F0.0004420866489832007
sVEMEAC-GBR-PS Assessa
p179
F0.0004420866489832007
sVAmegaview
p180
F0.0008841732979664014
sVBI_COGNOS_HHE_SNA_PT
p181
F0.0004420866489832007
sVOSS/GLOBAL - QUEST
p182
F0.0004420866489832007
sVBI_COGNOS_HHE_SNA_PL
p183
F0.0004420866489832007
sVEZBUY Load Manager
p184
F0.0004420866489832007
sVSPE ECM-Tax
p185
F0.0004420866489832007
sVCOMMET FBM PRODUC COST BOM
p186
F0.0004420866489832007
sVSAPPI_STS_ORDERPROCESSING_MMD
p187
F0.0004420866489832007
sVENERCALC STRUCTURAL ENGINEERING LIBRARY
p188
F0.0004420866489832007
sVProject Accounting System
p189
F0.0004420866489832007
sVMaterials and Operation Support Facility Chemical Management System
p190
F0.0004420866489832007
sVLA-Callnotes
p191
F0.0004420866489832007
sVMedDRA Browser
p192
F0.0004420866489832007
sVEPDS
p193
F0.0004420866489832007
sVLA-COL Travel and Event Tracking System Intranet Website
p194
F0.0004420866489832007
sVmvp
p195
F0.0004420866489832007
sVAH 3PL Next Pharma LSP SAP PIInterfaces
p196
F0.0004420866489832007
sVChemical Registration Tool kit
p197
F0.0004420866489832007
sVSPOTFIRE - China Performance Tracker
p198
F0.0004420866489832007
sVMedical Evaluation Tool for Exploring
p199
F0.0004420866489832007
sVLSP SAP PI: G3B - OTC - Sentipharm  - COMET,MMD \u000a\u000a\u000a(Interfaces: DOTC593,DOTC594,DOTC595,DOTC596,DOTC597,DOTC598)
p200
F0.0004420866489832007
sVAP-CHN UNIVADIS
p201
F0.0004420866489832007
sVAssay Workflow Manager
p202
F0.0004420866489832007
sVBridges
p203
F0.0004420866489832007
sVeCompliance Tool
p204
F0.0004420866489832007
sVAP-CHN-Innovation Website(chninweb)
p205
F0.0004420866489832007
sVInformatica - EMEA A&XF -Ukraine
p206
F0.0004420866489832007
sVACCTS PAYABLE - GRANTS
p207
F0.0004420866489832007
sVProcess Research Services and Information Request System
p208
F0.0004420866489832007
sVChemCart for Excel Lite
p209
F0.0004420866489832007
sVCORP_ITSM
p210
F0.0004420866489832007
sVLabware LIMS(bdlblims)
p211
F0.0004420866489832007
sVSonic
p212
F0.0004420866489832007
sVADP-W2 Services
p213
F0.0004420866489832007
sVseverance reporting tool - (srt)
p214
F0.0004420866489832007
sVTIBCO_COMET-G4_STS_PO_Granville_MMD
p215
F0.0004420866489832007
sVBusiness Research
p216
F0.0004420866489832007
sVEMEAC-DEU Segment Interchange Reporting
p217
F0.0004420866489832007
sVGovernment Pricing System
p218
F0.0004420866489832007
sVSafety Assessment Developmental and Reproductive Toxicology Behavioral Systems
p219
F0.0004420866489832007
sVOSS/API&BT-AIDA
p220
F0.0004420866489832007
sVETL_ESDA_MCC
p221
F0.0004420866489832007
sVAP-JPN Wholesaler Inventory
p222
F0.0004420866489832007
sVGlobal Mobility
p223
F0.0004420866489832007
sVAP-JADE(apjade)
p224
F0.0004420866489832007
sVModeling & Simulation Workbench
p225
F0.0004420866489832007
sVCOMET- ISS_COMET_HTR_HewittBenefitsSub
p226
F0.0004420866489832007
sVDLC Queues
p227
F0.0004420866489832007
sVCOMMET DOTC147
p228
F0.0004420866489832007
sVStability Database Haarlem
p229
F0.0004420866489832007
sVTIBCO - DEC14_EPICS_Event
p230
F0.0004420866489832007
sVMRL Intranet Metrics Platform
p231
F0.0004420866489832007
sVCOMET ETL Interface FINKIT (DOTC397)
p232
F0.0004420866489832007
sVcanada starfor
p233
F0.0004420866489832007
sVRtReports Durham
p234
F0.0004420866489832007
sVBI_SPOTFIRE_China_CRM_Tracker
p235
F0.0004420866489832007
sVBasic Research Chemical Information Systems
p236
F0.0008841732979664014
sVPago A Medicos (Medic?s Payments)--Mexico
p237
F0.0004420866489832007
sVTRANSFER OF INDUSTRIALIZED PRODUCTS
p238
F0.0004420866489832007
sVAH Animal Facility System (AFS)
p239
F0.0004420866489832007
sVETL_CAAMS_CORP
p240
F0.0004420866489832007
sVBRECGEN(bdbrecg)
p241
F0.0004420866489832007
sVBI_Cognos_LAHH - ITLS_BR_Sales
p242
F0.0004420866489832007
sVElectronic Vocabularies
p243
F0.001326259946949602
sVMerck Animal Health Agreements
p244
F0.0004420866489832007
sVSafety Assessment Data Repository Reporting Subsystem-Toxicology Queries
p245
F0.0004420866489832007
sVINTERGRAPH SMARTPLANT FOUNDATION
p246
F0.0004420866489832007
sVMerck Manufacturing Rollup Reporting Application
p247
F0.0004420866489832007
sVComprehensive Strategic Marketing Operations System
p248
F0.0004420866489832007
sVBioInventory
p249
F0.0004420866489832007
sVTIBCO_COMET_STS_JulyRel_ProcessOrders_MMD
p250
F0.0004420866489832007
sVCharge Backs
p251
F0.0004420866489832007
sVOne Regulatory Information Online Network
p252
F0.0008841732979664014
sVAP-Daily Sales
p253
F0.0004420866489832007
sVAP-KOR Medical Information Services System (misos)
p254
F0.0004420866489832007
sVPI DATA HISTORIAN
p255
F0.0004420866489832007
sVCatering
p256
F0.0004420866489832007
sVEnterprise Web Infrastructure Static Intranet Sites
p257
F0.0017683465959328027
sVLAHH BILA Colombia
p258
F0.0004420866489832007
sVVector NTI
p259
F0.0004420866489832007
sVMerck Sigma Dashboard
p260
F0.0004420866489832007
sVSQL-LIMS
p261
F0.0004420866489832007
sVMMD Worldwide Atypical Tracking System
p262
F0.0004420866489832007
sVVCO
p263
F0.0004420866489832007
sVAP-AUS ANZ Intranet Website(anzintra)
p264
F0.0004420866489832007
sVISS_COMET_SCM10
p265
F0.0004420866489832007
sVISS_COMET_SCM11
p266
F0.0004420866489832007
sVISS_COMET_SCM12
p267
F0.0004420866489832007
sVISS_COMET_SCM13
p268
F0.0004420866489832007
sVMerck Polytechnic Institute
p269
F0.0004420866489832007
sVBI_Cognos_IBM_Optim_Archive
p270
F0.0004420866489832007
sVPSDPDC-WML
p271
F0.0004420866489832007
sVClockwise
p272
F0.0004420866489832007
sVSAP_BW_Non_Comet_Lead_time
p273
F0.0004420866489832007
sVspudl
p274
F0.0004420866489832007
sVTIBCO-AmexSoftLaunch_CORP
p275
F0.0004420866489832007
sVTIBCO-G3-B_SCM(DSCM559-2,560-2,561-2)_COMET
p276
F0.0004420866489832007
sVLas Piedras EFTPC
p277
F0.0004420866489832007
sVActivityBase XE
p278
F0.0004420866489832007
sVUnemployment claim - AR117
p279
F0.0004420866489832007
sVSales Information Management Online
p280
F0.0004420866489832007
sVappstore.merck.com
p281
F0.0004420866489832007
sVLA-Web Auditoria Intranet Website
p282
F0.0004420866489832007
sVPDAMPub
p283
F0.0004420866489832007
sVcomet_sap_bi_optic_scm
p284
F0.0004420866489832007
sVSite Security System EAL
p285
F0.0004420866489832007
sVSolicitacoes de Pagamentos
p286
F0.0004420866489832007
sVATLAS -  PP & QM
p287
F0.0004420866489832007
sVEMEAC-BI-PECT Reporting
p288
F0.0004420866489832007
sVAHBOE
p289
F0.0004420866489832007
sVPublic Affairs Document Management System
p290
F0.0004420866489832007
sVCOMET 2.0B  HR Interface
p291
F0.0004420866489832007
sVCramlington Dispensary Management System
p292
F0.0004420866489832007
sVEventRouter 1.0  and 2.0
p293
F0.0004420866489832007
sVOne Regulatory Information Online
p294
F0.0004420866489832007
sVsap_pi_brazil_nfe_comet_sts
p295
F0.0004420866489832007
sVVideo Surveillance System-Branchburg, NJ
p296
F0.0004420866489832007
sVXTS (SAIS Interface)
p297
F0.0004420866489832007
sVSAP_PI_RAINBOW_MES_SINGAPORE_MMD
p298
F0.0004420866489832007
sVNon-Monetary Incentive Program
p299
F0.0004420866489832007
sVPayroll--Italy
p300
F0.0004420866489832007
sVATP Navigator
p301
F0.0004420866489832007
sVCOMPOSITE_Informatica_Spotfire_Internal Supplier Score Card_MMD
p302
F0.0004420866489832007
sVUnivadis Portal (Univadis - 2065911)
p303
F0.0004420866489832007
sVCorp - Master Data Stewardship
p304
F0.0004420866489832007
sVLA-VEN-Patrocinios
p305
F0.0004420866489832007
sVMMD-HSC-MRP
p306
F0.0004420866489832007
sVDaily Sales Report
p307
F0.0004420866489832007
sVEMEAC-ITA-Product traceability System
p308
F0.0004420866489832007
sVBanyu
p309
F0.0004420866489832007
sVTechnical Knowledge for Active Pharmaceutical Ingredients (API)
p310
F0.0004420866489832007
sVInformation for Pipeline Planning and Execution
p311
F0.0008841732979664014
sVG3A_OTC
p312
F0.0004420866489832007
sVSolids Dosage PilotPlant Scheduling System
p313
F0.0004420866489832007
sVRep Finder
p314
F0.0004420866489832007
sVWeb-Based Model Deployment Tool
p315
F0.0004420866489832007
sVGlobal Application Change Control System
p316
F0.0004420866489832007
sVPARIS
p317
F0.0004420866489832007
sVInformatica - EMEA A&XF -Jordan
p318
F0.0004420866489832007
sVETL_HHE_SNA_EED_EGYPT
p319
F0.0004420866489832007
sVadviceonhairloss.co.uk--UK
p320
F0.0004420866489832007
sVSPOTFIRE - HHE_SnA_ZA_EXM
p321
F0.0004420866489832007
sVMDM US Prod Master
p322
F0.0004420866489832007
sVEMEAC-ESP-DAWA-Local Data Warehouse
p323
F0.0004420866489832007
sVProd cost
p324
F0.0004420866489832007
sVMerckSpeakerServices
p325
F0.0008841732979664014
sVProject Master
p326
F0.0004420866489832007
sVAppian Business Process Management - EMEA Procure to Pay
p327
F0.0004420866489832007
sVOneNote Structure Editor
p328
F0.0004420866489832007
sVAVEVA CLASH MANAGER
p329
F0.0004420866489832007
sVVisionTracker
p330
F0.0004420866489832007
sVSPOTFIRE - Merck SBS EEM
p331
F0.0004420866489832007
sVMMD-HSC-SPIES
p332
F0.0004420866489832007
sVFADO (RIA)
p333
F0.0004420866489832007
sVALEXX
p334
F0.0004420866489832007
sVGHH - SGBI
p335
F0.0004420866489832007
sVTRANSOFT AUTOTURN
p336
F0.0004420866489832007
sVCOGNOS - HHE - SALAN.AT
p337
F0.0004420866489832007
sVBI_COMET_OPA_CORP
p338
F0.0004420866489832007
sVAutomated Molecular Biology Research Linking Application
p339
F0.0004420866489832007
sVMRL External Records Center Inventory Application
p340
F0.0004420866489832007
sVRegulatory Inspection System-Oss (BIO)
p341
F0.0004420866489832007
sVAP-Company Internet Sites
p342
F0.0004420866489832007
sVGOOGLE SKETCHUP
p343
F0.0004420866489832007
sVISS_COMET_OTC_EMEA_EDI
p344
F0.0004420866489832007
sVRecibos de Nomina MSD
p345
F0.0004420866489832007
sVCRM-MDM
p346
F0.0004420866489832007
sVTransborder Sales
p347
F0.0004420866489832007
sVBI_COGNOS_HHE_SNA_RU_SUB
p348
F0.0004420866489832007
sVMerck Research Lab Data Service Layer
p349
F0.0004420866489832007
sVMRL NG QT
p350
F0.0004420866489832007
sVCoupon Release Notifications
p351
F0.0008841732979664014
sVCorporate LawPack
p352
F0.0004420866489832007
sVRtReports Carlow
p353
F0.0004420866489832007
sVUSHH Customer Consent Profile Manager
p354
F0.0004420866489832007
sVCTS Monthly reporting
p355
F0.0004420866489832007
sVISIS Schema
p356
F0.0004420866489832007
sVEMEAC-TUR Business Intelligence Reporting Tool Intranet website
p357
F0.0004420866489832007
sVCOGNOS - HHE_SNA.RS
p358
F0.0004420866489832007
sVEMEAC-NL EventPlanner
p359
F0.0004420866489832007
sVATLAS- SD
p360
F0.0004420866489832007
sVCanada sms shipment management system-freight carrier selection
p361
F0.0004420866489832007
sVAgile-1
p362
F0.0004420866489832007
sVMacro-Cleaning Setup(bdmaccl)
p363
F0.0004420866489832007
sVGlobal Merck Manufacturing Execution System-Campinas
p364
F0.0004420866489832007
sVAppian Business Process Management - Master Data Stewardship
p365
F0.0004420866489832007
sVKEY WIZARD
p366
F0.0004420866489832007
sVsap_pi_brazil_nfe_comet_otc
p367
F0.0004420866489832007
sVMerck Optical Online Source
p368
F0.0004420866489832007
sVMELMIL_LSP
p369
F0.0004420866489832007
sVBanyu Seminar Support System
p370
F0.0004420866489832007
sVJODX(Documentum)
p371
F0.0004420866489832007
sVLA-ExpenSys macro
p372
F0.0004420866489832007
sVG3A_STS
p373
F0.0004420866489832007
sVCOMET BI 3.0 - Hire to Retire
p374
F0.0004420866489832007
sVInterfaces from Ipharmacy Order collection to Comet (OTC)
p375
F0.0004420866489832007
sVSAP Comet
p376
F0.003094606542882405
sVProject Engagement & Financial Tracking System
p377
F0.0004420866489832007
sVEA Modeler
p378
F0.0004420866489832007
sVEz-Buy
p379
F0.0004420866489832007
sVswords-clockwise
p380
F0.0004420866489832007
sVEMEAC-GBR-Internet Site
p381
F0.0004420866489832007
sVAP-CHN Contact Center(chncca)
p382
F0.0004420866489832007
sVMSD Japan
p383
F0.0004420866489832007
sVCycle Count Haarlem
p384
F0.0004420866489832007
sVgastro plus and related suite of products
p385
F0.0004420866489832007
sVPermanent Staging
p386
F0.0004420866489832007
sV00 - PPRS Reports (Replacing EIS)
p387
F0.0004420866489832007
sVManaging @ Merck Progress SiteManaging At Merck
p388
F0.0004420866489832007
sVInterface Sales force Time Attend System to Payroll
p389
F0.0004420866489832007
sVVaccine and Sterile Operations Can Database
p390
F0.0004420866489832007
sVGlobal Competitive Intelligence Portal
p391
F0.0004420866489832007
sVBI Cognos_HHE_SNA_IMTM
p392
F0.0004420866489832007
sVpsqts (pharmsci quality tracking system)
p393
F0.0004420866489832007
sVATLAS- FICO
p394
F0.0004420866489832007
sVContact Center CTI
p395
F0.0004420866489832007
sVAH Veeva(ahmxveva)
p396
F0.0004420866489832007
sVEMEAC-GBR-Maxalt e.Detail
p397
F0.0004420866489832007
sVPeopleSearch
p398
F0.0004420866489832007
sVDocumentum Transfer Services
p399
F0.0004420866489832007
sVMIDAS-COMET Integration
p400
F0.0004420866489832007
sVCOMET_SAP_BI_TRAMS
p401
F0.0004420866489832007
sVSafety Assessment Data Archiving System
p402
F0.0004420866489832007
sVBrinny-DIS (Datasheet Issuance System)(bricdis)
p403
F0.0004420866489832007
sVGEARS
p404
F0.0004420866489832007
sVThermo Watson LIMS
p405
F0.0017683465959328027
sVLas Piedras-Infinity QS
p406
F0.0004420866489832007
sVBI Cognos_HHE_SNA_XFORCE
p407
F0.0004420866489832007
sVCSC Release C/S/C
p408
F0.0004420866489832007
sVHHE MCC_FR
p409
F0.0004420866489832007
sVWinNonlin PK/PD Modeling Tool
p410
F0.0004420866489832007
sVBI_Cognos_USHH IMED DSS
p411
F0.0004420866489832007
sVETL_Russia_National_Sales_GHH
p412
F0.0004420866489832007
sVBrinny-Capital Planning(bricplan)
p413
F0.0004420866489832007
sVPCD Scientific Work Management System
p414
F0.0008841732979664014
sVEthics Administration System
p415
F0.0004420866489832007
sVSAP PI: - SCM -MMD(Interfaces RICEFID : DSCM632,DSCM638,DSCM639,DSCM640,DSCM641,DSCM642,DSCM643,DSCM644,DSCM646,DSCM665)
p416
F0.0004420866489832007
sVAP-SGP-Business Information-Cognos
p417
F0.0004420866489832007
sVrite-insight
p418
F0.0004420866489832007
sVTransfer MRP G/L transactions to Bridge, once a month,
p419
F0.0004420866489832007
sVPayment & Invoice Status Lookup
p420
F0.0004420866489832007
sVWaste Treatment & Environmental Results System
p421
F0.0004420866489832007
sVPROMODEL
p422
F0.0004420866489832007
sVCOGNOS - GHH - APCubed Korea
p423
F0.0004420866489832007
sVETL_SnA Greece_GHH
p424
F0.0004420866489832007
sVCorp - GS Competency
p425
F0.0004420866489832007
sVG2 Provisioning
p426
F0.0004420866489832007
sVBI_Cognos_SNA_EED_HHE
p427
F0.0004420866489832007
sVHHE_OASIS
p428
F0.0004420866489832007
sVEMEAC-CRO-Expense Reporting
p429
F0.0004420866489832007
sVELMK
p430
F0.0004420866489832007
sVMCC Veeva(cctgveva)
p431
F0.0004420866489832007
sVMSD Singapore-Sample Management System(sgsample)
p432
F0.0004420866489832007
sVCOGNOS - CORP - Axentis_Archive
p433
F0.0004420866489832007
sVDiscoveryQuant
p434
F0.0004420866489832007
sVBiomarker LIMS
p435
F0.0004420866489832007
sVMy PMP
p436
F0.0004420866489832007
sVESTSYS
p437
F0.0004420866489832007
sVISS_COMET_STS9
p438
F0.0004420866489832007
sVISS_COMET_STS8
p439
F0.0004420866489832007
sVISS_COMET_STS7
p440
F0.0004420866489832007
sVISS_COMET_STS6
p441
F0.0004420866489832007
sVISS_COMET_STS5
p442
F0.0004420866489832007
sVISS_COMET_STS4
p443
F0.0004420866489832007
sVISS_COMET_STS3
p444
F0.0008841732979664014
sVISS_COMET_STS2
p445
F0.0004420866489832007
sVISS_COMET_STS1
p446
F0.0004420866489832007
sVMap Point
p447
F0.0004420866489832007
sVBatch Process Management
p448
F0.0004420866489832007
sVInternational Trading System
p449
F0.0004420866489832007
sVHR TCP Batch Processes
p450
F0.0004420866489832007
sVEmpower 3
p451
F0.0004420866489832007
sVcomet_sap_bi_grc_reporting
p452
F0.0004420866489832007
sVAppian Platform Support
p453
F0.0004420866489832007
sVCOMET HTR  Interfaces,Europe,LA/SA,NA
p454
F0.0004420866489832007
sVJD Edwards--EMEA India
p455
F0.0004420866489832007
sVGHH - BiAP
p456
F0.0004420866489832007
sVEnhanced Task Management
p457
F0.0004420866489832007
sVMMD E2E (End to End Master Data)
p458
F0.0004420866489832007
sVAP-MYS MSD Travel Request Website(mystrs)
p459
F0.0004420866489832007
sVEDI_LSP
p460
F0.0004420866489832007
sVSPOTFIRE - Supplier Management Data Analytics
p461
F0.0004420866489832007
sVCOGNOS - Corp Optim Archive
p462
F0.0004420866489832007
sVMerck IT Service Marketplace Web Site
p463
F0.0004420866489832007
sVLAHH - LAMSDCBI
p464
F0.0004420866489832007
sVBI_Spotfire_China Credit Card Monitoring Tool
p465
F0.0004420866489832007
sVIDP CRF Submit
p466
F0.0004420866489832007
sVWebview
p467
F0.0004420866489832007
sVNMIP
p468
F0.0004420866489832007
sVIDP Central Designer
p469
F0.0004420866489832007
sVEMIE
p470
F0.0004420866489832007
sVCliqbook Feed
p471
F0.0004420866489832007
sVETL_Informatica_Spotfire_Automate Buyer Guide_MMD
p472
F0.0004420866489832007
sVAP-JPN Banyu Literature Information Center
p473
F0.0004420866489832007
sVLA-ARG-Facturacion electronica
p474
F0.0004420866489832007
sVAmes
p475
F0.0004420866489832007
sVBI_Cognos_IBM_Optim_Archive(SPERAplus)
p476
F0.0004420866489832007
sVClinical Drug Metabolism Pharmacokinetic Data Repository
p477
F0.0004420866489832007
sVAddressNameCleanser
p478
F0.0004420866489832007
sVJob Processor System (JPS)
p479
F0.0004420866489832007
sVBrinny-LIS (Logbook Issuance System)(brilis)
p480
F0.0004420866489832007
sVGlobal Laboratory Informtion Management System
p481
F0.0004420866489832007
sVETL_COMPOSITE_BI Transit Phase 2
p482
F0.0004420866489832007
sVInterfafaces CRMU (CC) to Univadis
p483
F0.0004420866489832007
sVAP-AUS-KOFAX
p484
F0.0004420866489832007
sVCASA (OEG)
p485
F0.0004420866489832007
sVHHP Demographic Info To Medstat-Support Lead Role
p486
F0.0004420866489832007
sVAP-THA-Customer Targeting & Validation(TCTV)(apthatct)
p487
F0.0004420866489832007
sVTIBCO_COMET_HTR_CignaToSAPInbound_CORP
p488
F0.0004420866489832007
sVTIBCO_COMET-G4_SCM_Data3_Herouville_MMD
p489
F0.0004420866489832007
sVBI Cognos HHE_SNA_DZ
p490
F0.0004420866489832007
sVTime Phase
p491
F0.0004420866489832007
sVLA-COL Health Club
p492
F0.0004420866489832007
sVETL Finance - WFRS
p493
F0.0004420866489832007
sVCORP BISS
p494
F0.0004420866489832007
sVR2 Core Service
p495
F0.0004420866489832007
sVWhere Used Product Database for FDA-Regulated Sites(L-SP only)
p496
F0.0004420866489832007
sVCOMPOSITE_MSDIS
p497
F0.0004420866489832007
sVDevlab Intranet Site
p498
F0.0004420866489832007
sVWorld Product and Trademark Directory System
p499
F0.0004420866489832007
sVMDM to CRM Sweden
p500
F0.0004420866489832007
sVMiddleware/TIBCO - ADP Canada
p501
F0.0004420866489832007
sVQuality Standard System
p502
F0.0004420866489832007
sVTK Kapow (subcomponent of TK-CPS)
p503
F0.0004420866489832007
sVMEDCO Pull
p504
F0.0004420866489832007
sVmyMerck Intranet Portal
p505
F0.0008841732979664014
sVISS_COMET_SCM_MFC
p506
F0.0004420866489832007
sVScaffold Tree Viewer
p507
F0.0004420866489832007
sVEMEAC-GBR-WH Meetings Manager Tool
p508
F0.0004420866489832007
sVDMU (Utility between GMS And Docman)
p509
F0.0004420866489832007
sVInformatica - ESA to MMS
p510
F0.0004420866489832007
sVElectronic Procurement
p511
F0.0004420866489832007
sVLA-CARD Event Merck System
p512
F0.0004420866489832007
sVSAPPI_EHS_ERD_INTEGRATION
p513
F0.0004420866489832007
sVResearch LIMS
p514
F0.0004420866489832007
sVTIBCO_COMET-TOPAZ_WP_Boston_Mirabel_Kenilworth_PaloAlto_MRL
p515
F0.0004420866489832007
sVSPOTFIRE - AuditReport
p516
F0.0004420866489832007
sVLA-MEX Hotel Venues
p517
F0.0004420866489832007
sVAppian Business Process Management -Customer Membership & Eligilibit
p518
F0.0004420866489832007
sVmaximo - Cherokee
p519
F0.0004420866489832007
sVMolecular Profiling Data Manager
p520
F0.0004420866489832007
sVWork Place Enablement
p521
F0.0004420866489832007
sVEnvironment Health Safety Suite
p522
F0.0004420866489832007
sVsap_bo_ismart_CIT
p523
F0.0004420866489832007
sVAH Calculation Biological Assays (CBA)
p524
F0.0004420866489832007
sVTridion-Amazon Cloud
p525
F0.0004420866489832007
sVAP-SPARTA(apspt)
p526
F0.0004420866489832007
sVWebTrends
p527
F0.0004420866489832007
sVProduct Franchise Reporting / Inventory Management
p528
F0.0004420866489832007
sVCOGNOS - HHE_SNA.EG
p529
F0.0004420866489832007
sVGrievance Tracking System
p530
F0.0004420866489832007
sVMAQS for Lab Notebook System
p531
F0.0004420866489832007
sVSample Account Management (SAM)
p532
F0.0004420866489832007
sVMRL Transferable Individual Identifier (TID)
p533
F0.0004420866489832007
sVExternal Data Integrations  (EDCommon services,EDIARY, LABS, ECG, IVRS, PFT)
p534
F0.0004420866489832007
sVViaPeople
p535
F0.0004420866489832007
sVSUPPORT SYSTEM
p536
F0.0004420866489832007
sVBI_Cognos_HHE_SNA_IL
p537
F0.0004420866489832007
sVMVD Customer Integrated Database Middle Tier
p538
F0.0004420866489832007
sVAP-KOR MSDeHR Intranet Website(korehr)
p539
F0.0004420866489832007
sVHotelling
p540
F0.0004420866489832007
sVG3A_Common_Services
p541
F0.0004420866489832007
sVACD/Labs
p542
F0.0004420866489832007
sVsap_pi_brazil_nfe_comet_scm
p543
F0.0004420866489832007
sVACD Labs IUPAC
p544
F0.0004420866489832007
sVUSHH Customer Information Management System
p545
F0.0004420866489832007
sVRAMP
p546
F0.0004420866489832007
sVChina Veeva(hhcnveva)
p547
F0.0004420866489832007
sVETL _BI_MMD_BR_KPI
p548
F0.0004420866489832007
sVPayroll Dataview
p549
F0.0004420866489832007
sVHtR Axentis
p550
F0.0004420866489832007
sVAUDIT
p551
F0.0004420866489832007
sVPanlabs
p552
F0.0004420866489832007
sVHTR Post Compensation
p553
F0.0004420866489832007
sVMMD Laboratory Execution System (Montreal, add Mirabel)
p554
F0.0004420866489832007
sVmyLearning Mobile
p555
F0.0004420866489832007
sVPreclinical Drug Metabolism Pharmacokinetic Laboratory Information Management System
p556
F0.0004420866489832007
sVEmitPlus System
p557
F0.0004420866489832007
sVBI_COGNOS_ETL_CORP - GCO MyLearning
p558
F0.0004420866489832007
sVFinancial Local Repository
p559
F0.0004420866489832007
sVISS_COMMON_JournalEntry_Invoice_GKO_Pub
p560
F0.0004420866489832007
sVLas Piedras-EBRIS
p561
F0.0004420866489832007
sVCORP Genesys
p562
F0.0004420866489832007
sVISS_COMET_SCM_EMEA(DATA3InvReconPub,SAPMaterialMasterPublisher,ATA3RetrivelNUpdate,DATA3POStatusPublisher)
p563
F0.0004420866489832007
sVInventory Management System-Italy
p564
F0.0004420866489832007
sVfinancial reporting system (frs)
p565
F0.0004420866489832007
sVLA-VEN Sales & Inventory Statistics System
p566
F0.0004420866489832007
sVchemstation
p567
F0.0004420866489832007
sVMerck Global Packaging and Device System (Items & Assemblies)
p568
F0.0004420866489832007
sVCMS
p569
F0.0004420866489832007
sVBiospecimen and Biorepository Management System
p570
F0.0004420866489832007
sVETL_SnA Ireland
p571
F0.0004420866489832007
sVOpendeploy
p572
F0.0004420866489832007
sVAddRep
p573
F0.0004420866489832007
sVPharm R&D LIMS Cognos Reports
p574
F0.0004420866489832007
sVOSTIC SAM
p575
F0.0004420866489832007
sVOneSource Tax Provision
p576
F0.0004420866489832007
sVAccelrys Biological Registration System
p577
F0.0004420866489832007
sVcomet_sap_bi_supply_chain_management
p578
F0.0004420866489832007
sVSPOTFIRE - SBS Americas Analytics
p579
F0.0004420866489832007
sVInsight for Excel
p580
F0.0004420866489832007
sVcomet_sap_bi_lpt_bridges
p581
F0.0004420866489832007
sVEMEAC-ITA Congress Management System
p582
F0.0004420866489832007
sVAutomated Purification
p583
F0.0004420866489832007
sVETL_INFORMATICA_EED_EG_UA_GHH
p584
F0.0004420866489832007
sVA&XF Tunesia
p585
F0.0004420866489832007
sVETL_INFORMATICA_HHE_SNA_XFORCE_GHH
p586
F0.0004420866489832007
sVSAP_BW_BO_MYPEOPLE
p587
F0.0004420866489832007
sVCOGNOS - HHE - MCC_EMEAC_ACT
p588
F0.0004420866489832007
sVETL_Informatica_Cloud_Pulse_Sandbox_CORP
p589
F0.0004420866489832007
sVBI_Composite_Spotfire_Global Product Rationalization System
p590
F0.0004420866489832007
sVBARDS Epidemiology Computing Platform
p591
F0.0004420866489832007
sVeVOC (including Umbrella service)
p592
F0.0004420866489832007
sVhyperion diosynth-oed
p593
F0.0004420866489832007
sVGlobal Trade Automation System
p594
F0.0004420866489832007
sVGlobal Procurement Tool Haarlem
p595
F0.0004420866489832007
sVCARS / SAP Synch
p596
F0.0004420866489832007
sVSPOTFIRE - RED Compass
p597
F0.0004420866489832007
sVASPEN SUITE: INCLUDES ASPEN PLUS; ASPEN BATCH PLUS; ASPEN PROPERTIES; ASPEN BATCH SEP; ASPEN RATE SEP; ASPEN TASC+ (HETRAN); ASPEN SPLIT; ASPEN SIMULATION WORKBOOK
p598
F0.0004420866489832007
sVEnterprise Resource Planning Worldwide Clinical Supply Operations Software
p599
F0.0004420866489832007
sVecrem:  pks  winnonlin and modeling
p600
F0.0004420866489832007
sVEMEAC-ITA-Export DAL data
p601
F0.0004420866489832007
sVLAHH SPAR
p602
F0.0004420866489832007
sVAP-JPN Medical Sample Inventory
p603
F0.0004420866489832007
sVEMEAC-GBR-Paper Based Calls
p604
F0.0004420866489832007
sVOpenLAB Solution for Primary Electronic Lab Data Management and Archiving
p605
F0.0004420866489832007
sVLAHH Ptp Candean Reports
p606
F0.0004420866489832007
sVLA-MEX Event Merck System
p607
F0.0004420866489832007
sVWritten Standards Intranet Website
p608
F0.0004420866489832007
sVbrinny - kronos(brinny - kronos)
p609
F0.0004420866489832007
sVInterim Customer Operational Data Store
p610
F0.0004420866489832007
sVLAHH Planning Reports
p611
F0.0004420866489832007
sVCOMMET FBM 158  PRODUCt COST WORK CENTER
p612
F0.0004420866489832007
sVTIBCO-G3-B_OTC(DOTC572,573,574,599)_COMET
p613
F0.0004420866489832007
sVGlobal Merck Manufacturing Execution System-Singapore
p614
F0.0004420866489832007
sVClinical Trial Registration and Results Posting Reports
p615
F0.0004420866489832007
sVHHE_SNA_SL_CLM
p616
F0.0004420866489832007
sVMDS Business Process Modeling Support (iProcess)
p617
F0.0004420866489832007
sVBSA
p618
F0.0004420866489832007
sVCOGNOS - HHE - SNA.HR
p619
F0.0004420866489832007
sVmyCareer System
p620
F0.0004420866489832007
sVEMEAC-DOCVADIS
p621
F0.0004420866489832007
sVInterface Product Traceability System--Italy to Minister of Health Italy
p622
F0.0004420866489832007
sVMAS Label Printing
p623
F0.0004420866489832007
sVCOMET_SAPBI_Informatica_IVP_EIM
p624
F0.0004420866489832007
sVBI_Cognos_LAHH - ITLS_BR_Effectiveness Portal
p625
F0.0004420866489832007
sVEMEAC-DEU-Analysis Portfolio
p626
F0.0004420866489832007
sVAP-CHN-ETMS(apchnetm)
p627
F0.0004420866489832007
sVSPOTFIRE - Where's My Time
p628
F0.0004420866489832007
sVUS Customer Connect CRM(uscccrm)
p629
F0.0004420866489832007
sVComposite - Infrastructure
p630
F0.0004420866489832007
sVVideo Surveillance System-Montreal, Canada
p631
F0.0004420866489832007
sVAnimal Health Generic Database
p632
F0.0004420866489832007
sVmasslynx
p633
F0.0004420866489832007
sVBI Cognos HHE_SNA_SL_CLM
p634
F0.0004420866489832007
sVAutomated Global Clinical Supplies Operation Clinical Labeling Proof Generator
p635
F0.0004420866489832007
sVTrillium Platform Support
p636
F0.0004420866489832007
sVGlobal Security Incident Reporting and Investigation Management
p637
F0.0004420866489832007
sVCorePay/Payroll(bdcorepa)
p638
F0.0004420866489832007
sVSPIES Panama
p639
F0.0004420866489832007
sVValuation for Customs Tool
p640
F0.0004420866489832007
sVTAB FusionRMS
p641
F0.0004420866489832007
sVEnterprise Architecture Framework
p642
F0.0004420866489832007
sVSPOTFIRE - EIM AP
p643
F0.0004420866489832007
sVSwords CAMO Unscrambler
p644
F0.0004420866489832007
sVRegional BI - Korea
p645
F0.0004420866489832007
sVBI Cognos HHE_SNA_IE
p646
F0.0004420866489832007
sVBI_Cognos_Informatica_Tibco_Orion_MRL
p647
F0.0004420866489832007
sVWest Point Refrigerant Compliance Manager
p648
F0.0004420866489832007
sVHR Datawarehouse repository
p649
F0.0004420866489832007
sVGrant of Authority
p650
F0.0004420866489832007
sVapproveIT
p651
F0.0004420866489832007
sVSAP xMII Infrastructure
p652
F0.0004420866489832007
sVUS Analytics
p653
F0.0004420866489832007
sVSPOTFIRE - EIM Global Logistics
p654
F0.0004420866489832007
sVMerck Subsite Wrappers
p655
F0.0004420866489832007
sVSTA
p656
F0.0004420866489832007
sVEMEAC-BI-Country Capabilities
p657
F0.0004420866489832007
sVBI_Cognos_LAHH - ITLS_BR_Easy One
p658
F0.0004420866489832007
sVSPOTFIRE - SCMCE
p659
F0.0004420866489832007
sVSPOTFIRE - SBS Reporting Transition
p660
F0.0004420866489832007
sVTIBCO_C3i_TicketExchange_MRL
p661
F0.0004420866489832007
sVCanada Reporting Suite(f1)
p662
F0.0004420866489832007
sVLaboratory Notebook System
p663
F0.0004420866489832007
sVConsolidation Entry Converter
p664
F0.0004420866489832007
sVCOMET- ISS_COMET_HTR_CAPS_Indicative
p665
F0.0004420866489832007
sVEMEAC-GBR-DSL(Decision Script Live)
p666
F0.0004420866489832007
sVUSHH_Field_Trip_Reporting
p667
F0.0004420866489832007
sVExternal PK Upload Process
p668
F0.0004420866489832007
sVBI_Spotfire_ iPrice - Hybrid Project
p669
F0.0004420866489832007
sVSPOTFIRE - My Project
p670
F0.0004420866489832007
sVMarketing Operations Management
p671
F0.0004420866489832007
sVAP-ANZ Document IT
p672
F0.0004420866489832007
sVUSHH Sample Account Management System
p673
F0.0004420866489832007
sVSPEND
p674
F0.0004420866489832007
sVTIBCO_COMET-G4_SCM_VMI_MMDA_COMET
p675
F0.0004420866489832007
sVElectronic Lab Notebook(ELN)(bdeln)
p676
F0.0004420866489832007
sVBiAP China
p677
F0.0004420866489832007
sVSPOTFIRE - EIM BAM
p678
F0.0004420866489832007
sVSWSSRV04 Winsotax
p679
F0.0004420866489832007
sVPCR WEB
p680
F0.0004420866489832007
sVSAP XI/PI - Vet Point to ECAG SAP Interface - MMD
p681
F0.0004420866489832007
sVBioprocess QbD Risk Assessment-QbD RA
p682
F0.0004420866489832007
sVLA-LPO Documentation Right First Time
p683
F0.0004420866489832007
sVBottles and Culture Media Plates to HanDEL
p684
F0.0004420866489832007
sVFLA (Country Info)
p685
F0.0004420866489832007
sVIntegration Services Digital Library Development Common Code
p686
F0.0004420866489832007
sVEMEAC-GBR-Adverse Events Reporting & Medical Information Request System
p687
F0.0004420866489832007
sVSAP_BO_Admin_Services
p688
F0.0004420866489832007
sVSequence Dependent Setup
p689
F0.0004420866489832007
sVLPO-SP Library
p690
F0.0004420866489832007
sVSciex Analyst Instrument Control SystemDiscoveryQuant
p691
F0.0004420866489832007
sVSPOTFIRE_AMS_Ticket_Analysis
p692
F0.0004420866489832007
sVPI Data Historian Las Piedras
p693
F0.0004420866489832007
sVPharmaceutical R&D Clinical Supplies Labeling System
p694
F0.0004420866489832007
sVtridion
p695
F0.0004420866489832007
sVGlobal Expatriate Management System
p696
F0.0004420866489832007
sVEMEAC-PT Financial Hospital Agreements Management
p697
F0.0004420866489832007
sVGCM for MDM
p698
F0.0004420866489832007
sVMCC Enginuity PLM
p699
F0.0004420866489832007
sVMERCK TUBE
p700
F0.0004420866489832007
sVGeneral Physics Data Feed-Support Lead Role
p701
F0.0004420866489832007
sVMass Spec Performance Reporting
p702
F0.0004420866489832007
sVPeopleCube
p703
F0.0004420866489832007
sVwwwmerck
p704
F0.0004420866489832007
sVEmpower2
p705
F0.0004420866489832007
sVPayroll and Expense Report Maintenance
p706
F0.0004420866489832007
sVReval connect
p707
F0.0004420866489832007
sVETL_BI_Composite_EUCAN_CRM_GHH
p708
F0.0004420866489832007
sVBrinny-Forecast Enquiry(briforen)
p709
F0.0004420866489832007
sVBasic Research Registration Service
p710
F0.0004420866489832007
sVcolombia - electronic cash receipts
p711
F0.0004420866489832007
sVAP-China eFLOW platform(chneflow)
p712
F0.0004420866489832007
sVActivityMArt
p713
F0.0004420866489832007
sVAMS Data Modeling Support
p714
F0.0004420866489832007
sVISS_COMET_SCM_EMEA(ReplenishmentForecast,PlannedOrders,Quality statusserv,Data3POPub))
p715
F0.0004420866489832007
sVVaricella Potency Tool
p716
F0.0004420866489832007
sVUS Veeva(hhusveva)
p717
F0.0004420866489832007
sVTrackWise(dvptw)
p718
F0.0004420866489832007
sVCOMET- HtR Europe Payroll
p719
F0.0004420866489832007
sVASCOT WMS
p720
F0.0004420866489832007
sVAdverse Event Management System for Japan(pcvae)
p721
F0.0004420866489832007
sVETL_OSTICSAM_MRL
p722
F0.0004420866489832007
sVSearch-FAST Search for SharePoint
p723
F0.0004420866489832007
sVInformatica - China MDM Hub
p724
F0.0004420866489832007
sVGlobal Imaging Management & Archive System
p725
F0.0004420866489832007
sVMerck Supplier Registration System
p726
F0.0004420866489832007
sVDesign Expert
p727
F0.0004420866489832007
sVlts (Label Tracking System)
p728
F0.0004420866489832007
sVEMEAC-BI-MCM-CI Multi-Channel Marketing Customer Intelligence
p729
F0.0004420866489832007
sVProofware
p730
F0.0004420866489832007
sVTeam Site
p731
F0.0004420866489832007
sVP-to-P
p732
F0.0004420866489832007
sVInvoice Status Service (ASP)
p733
F0.0004420866489832007
sVInventory Fiscal Value-Italy
p734
F0.0004420866489832007
sVEMEAC-GBR-Local NHS Guidance
p735
F0.0004420866489832007
sVAP-IND-SMS Application-Valuefirst
p736
F0.0004420866489832007
sVHungary
p737
F0.0004420866489832007
sVCentral Engineering Projects Administration System
p738
F0.0004420866489832007
sVFederal and State Reporting
p739
F0.0004420866489832007
sVMKN Roles Manager
p740
F0.0004420866489832007
sVETL_Career Maps_CORP
p741
F0.0004420866489832007
sVBI Cognos HHE_SNA_TN
p742
F0.0004420866489832007
sVIn-Vivo Monkey CANTAB Data Processing and Analysis
p743
F0.0004420866489832007
sVETL_Vaccines MII Elkton_MMD
p744
F0.0004420866489832007
sVCorp - EMEA PTP
p745
F0.0004420866489832007
sVEmployee Global Data for Brazil Employees
p746
F0.0004420866489832007
sVSPE ECM-LCPS
p747
F0.0004420866489832007
sVFinance Activity Analysis (FAA)
p748
F0.0004420866489832007
sVBPM CME
p749
F0.0004420866489832007
sVTIBCO-CID_Mobile_ActiveDirectory_Integration Service_MRL
p750
F0.0004420866489832007
sVFINISHED GOODS TRACEABILITY
p751
F0.0004420866489832007
sVInformatica - EMEA A&XF - Russia
p752
F0.0004420866489832007
sVSPARTA
p753
F0.0004420866489832007
sVEMEAC-GBR-Data Store
p754
F0.0004420866489832007
sVMSD China Home Page(china)
p755
F0.0004420866489832007
sVTIBCO_COMET_SCM_JulyRel_PlannedOrders_MMD
p756
F0.0004420866489832007
sVdatavision
p757
F0.0004420866489832007
sVNonlinear Mixed Effects Modeling tool
p758
F0.0004420866489832007
sVSAP_PI_Integrichain_OTC_COMET(iss_comet_otc_global_pricing_publisher_sappi )
p759
F0.0004420866489832007
sVActive Strategy
p760
F0.0004420866489832007
sVInformatica - EMEA S&A - Gulf
p761
F0.0004420866489832007
sVEMEAC-CHE-Datawarehouse EIS Business Intelligence
p762
F0.0004420866489832007
sVMMD Product Sourcing Application
p763
F0.0004420866489832007
sVCHEMICALS CONTROLLED
p764
F0.0004420866489832007
sVMerck Electronic Trading System
p765
F0.0004420866489832007
sVChemical and Manufacturing Stability
p766
F0.0004420866489832007
sVMSD Thailand
p767
F0.0004420866489832007
sVBI_Cognos_LAHH - ITLS_BR_Help Desk
p768
F0.0004420866489832007
sVFAQ (Transfer prices)
p769
F0.0004420866489832007
sVToolbox
p770
F0.0004420866489832007
sVETL_INFORMATICA_CATCHFIRE_CORP
p771
F0.0004420866489832007
sVSafety Assessment Sample Tracking System
p772
F0.0004420866489832007
sViri apollo planogram software
p773
F0.0004420866489832007
sVISS_SGP
p774
F0.0004420866489832007
sVMilestone Preparation Report
p775
F0.0004420866489832007
sVAspera Enterprise Server
p776
F0.0004420866489832007
sVTIBCO_COMET_STS_G5_Invoices_HT_Menuma_MMD
p777
F0.0004420866489832007
sVEMAC-ITA-Customer Master Essex
p778
F0.0004420866489832007
sVLA-CRO Event Merck System
p779
F0.0004420866489832007
sVPayroll Labor Distribution System
p780
F0.0004420866489832007
sVCOMET SAP PI: G3B - STS - AMEX BIP  - COMET,SBS  (Interfaces: DSTS384,DSTS383)
p781
F0.0004420866489832007
sVStandard Operating Procedure/Flowchart Repository System
p782
F0.0004420866489832007
sVETL_CMR8.1_GHH
p783
F0.0004420866489832007
sVUSHH - CME
p784
F0.0004420866489832007
sVswords - documentation archive management
p785
F0.0004420866489832007
sVMiddleware/TIBCO - ISS_COMET_HTR_MSSB
p786
F0.0004420866489832007
sVFinancial Analytics and Consolidation System
p787
F0.0004420866489832007
sVChina - Sample Management
p788
F0.0004420866489832007
sVCorpTAX ASP
p789
F0.0004420866489832007
sVGenCord Contract Management
p790
F0.0004420866489832007
sVProduct Numbering System
p791
F0.0004420866489832007
sVProduct Claim Application Tracking
p792
F0.0004420866489832007
sVETL_Composite_Spotfire_Supplier_Change_Control_MMD
p793
F0.0004420866489832007
sVHospital Sales NL
p794
F0.0004420866489832007
sVConflict of Interest Certification Process
p795
F0.0004420866489832007
sVBI_Cognos_HHE_SNA_GU
p796
F0.0004420866489832007
sVEpicor
p797
F0.0004420866489832007
sVChemDraw Basic Research Pharmacokinetic Administration Application
p798
F0.0004420866489832007
sVCapacity Planning and Management System
p799
F0.0004420866489832007
sVEMEAC-ITA-Tool Agent Fees
p800
F0.0004420866489832007
sVData Sharing Analytics
p801
F0.0004420866489832007
sVLA-PRI-IFP Demand & Financial Planning & Forecasting
p802
F0.0004420866489832007
sVHuman Resources Benefits Outsourcing
p803
F0.0004420866489832007
sVPI Data Historian Arecibo
p804
F0.0004420866489832007
sVRegional BI - India
p805
F0.0004420866489832007
sVMerck Project Site Security
p806
F0.0004420866489832007
sVMerit
p807
F0.0004420866489832007
sVReceipe Management system I
p808
F0.0004420866489832007
sVBI_COGNOS_HHE_SNA_BE
p809
F0.0004420866489832007
sVJD Edwards--USA
p810
F0.0004420866489832007
sVCBER
p811
F0.0004420866489832007
sVConsumer Marketing Consumer Information Database
p812
F0.0004420866489832007
sVJanuvia.co.uk
p813
F0.0004420866489832007
sVMLS Feedback Process
p814
F0.0004420866489832007
sVTIBCO_G3-B_OTC_SCM_HH
p815
F0.0004420866489832007
sVSPOTFIRE - IVAT
p816
F0.0004420866489832007
sVheist-db document numbering(numdb)
p817
F0.0004420866489832007
sVAP-CHN HR+ System(chnhrs)
p818
F0.0004420866489832007
sVTMF MVR Import interface
p819
F0.0004420866489832007
sVSecurity - Onsight
p820
F0.0004420866489832007
sVConsumer Research Laboratory Information Management System
p821
F0.0004420866489832007
sVMCC CI Docvadis Log2.1
p822
F0.0004420866489832007
sVINCIDENT DATABASE
p823
F0.0004420866489832007
sVPegasus
p824
F0.0004420866489832007
sVCDRServices A
p825
F0.0004420866489832007
sVCDRServices B
p826
F0.0004420866489832007
sVBPM MDS
p827
F0.0004420866489832007
sVMMD - ETS Ballydine
p828
F0.0004420866489832007
sVEMEAC-GBR-Speaker Meeting Effectiveness
p829
F0.0004420866489832007
sVVisitor Watch
p830
F0.0004420866489832007
sVTIBCO Error Remediation
p831
F0.0004420866489832007
sVETL_BI_Cognos_SAP_BW_TIBCO_CIM_MCCIM_MCC
p832
F0.0004420866489832007
sVSoftware Configuration Management Version Control System-Subversion
p833
F0.0004420866489832007
sVMerck Optical ONline Source
p834
F0.0004420866489832007
sVDAWA Data Planning Management
p835
F0.0004420866489832007
sVCanada purchasing
p836
F0.0004420866489832007
sVSwords-OPUS FTIR
p837
F0.0004420866489832007
sVMacro-Mechanical Setup(bdmcms)
p838
F0.0004420866489832007
sVCOMET HTR Point to Point
p839
F0.0004420866489832007
sVAP-JPN Wholesaler Information Network
p840
F0.0004420866489832007
sVLegal Employee Tools
p841
F0.0004420866489832007
sVEMEAC-GBR-Pool/Ace Car Booking System
p842
F0.0004420866489832007
sVAP-Integrated Data Warehouse(apintgdw)
p843
F0.0004420866489832007
sVOFAC
p844
F0.0004420866489832007
sVServices and Information Request System
p845
F0.0004420866489832007
sVETL_China Veev DI Integration_GHH
p846
F0.0004420866489832007
sVInventory
p847
F0.0004420866489832007
sVCOMET-  HtR AP Payroll
p848
F0.0004420866489832007
sVTIBCO_Getronics_Remedy_TicketExchange
p849
F0.0004420866489832007
sVUS Customer Connect Analytics
p850
F0.0004420866489832007
sVBrinny-EBRIS (Electronic Batch Record Issuance System)(bricebrs)
p851
F0.0004420866489832007
sVBI_Spotfire_GPV - TSS_AH
p852
F0.0004420866489832007
sVMerck Knowledge Net Search Center
p853
F0.0004420866489832007
sVTaiwan Data Warehouse (DWH)
p854
F0.0004420866489832007
sVGPM 2.0 (Comet)
p855
F0.0004420866489832007
sVRegulatory and Analytical Sciences Audit System
p856
F0.0004420866489832007
sVIpharmacy Sales Order process and Sales Products Commercial  Company Essex
p857
F0.0004420866489832007
sVLA-PER Beverages Tracking System Intranet
p858
F0.0004420866489832007
sVCOMPOSITE_OTIF
p859
F0.0004420866489832007
sVLA-MEX Ipro
p860
F0.0004420866489832007
sVFinancial Disclosure Tracking System
p861
F0.0004420866489832007
sVMES
p862
F0.0004420866489832007
sVAH-NL Project Hours Registration (PHR)
p863
F0.0004420866489832007
sVsparc
p864
F0.0004420866489832007
sVTIBCO - DEC14_OTC_BR_Tenders_DirectSalesSub
p865
F0.0004420866489832007
sVRegulatory Inspection System-Heist
p866
F0.0004420866489832007
sVBI_Cognos_IBM_Optim_Archive(Data3AU)
p867
F0.0004420866489832007
sVProcure To Pay Application
p868
F0.0004420866489832007
sVISS_COMET_FBM_EMEA(JournalEntryServices,PayrollJEPublisher,HRInterface,GlobeInterface)
p869
F0.0004420866489832007
sVExternal Vendors E-login Component
p870
F0.0004420866489832007
sVuk sparchivist
p871
F0.0004420866489832007
sVIdentifies where products & components are used.  Sends FTP files to US.
p872
F0.0004420866489832007
sVLA-PRI-Trusted Link Software-MSD Carolina
p873
F0.0004420866489832007
sVHP QualityCenter
p874
F0.0004420866489832007
sVMSD Australia General Practitioners E-Business Services Web Application
p875
F0.0004420866489832007
sVOSS-PO Calc(calcspl)
p876
F0.0004420866489832007
sVMMD CAPACITY PLANNING
p877
F0.0004420866489832007
sVOSS/API - LIMS
p878
F0.0004420866489832007
sVDrivingLicenceControl
p879
F0.0004420866489832007
sVComsorter Suite
p880
F0.0004420866489832007
sVGHH - CPS
p881
F0.0004420866489832007
sVClinical Pharmacology Collector
p882
F0.0004420866489832007
sVCOGNOS - HHE_SNA.MA
p883
F0.0004420866489832007
sVService Request and Demand Tracker
p884
F0.0004420866489832007
sVOSS/BT - PFRI
p885
F0.0004420866489832007
sVISS_COMET_SCM_EMEA(Process order,DoSubscriber,DATA3Batchstatus,Invadjpub)
p886
F0.0004420866489832007
sVClinical Portal & Collaboration
p887
F0.0008841732979664014
sVPET
p888
F0.0004420866489832007
sVLAHH BILA Brazil
p889
F0.0004420866489832007
sVSPOTFIRE - Global Time Tracking
p890
F0.0004420866489832007
sVCOGNOS - HHE - SALAN.IL
p891
F0.0004420866489832007
sVBrinny-Prism ERP System (Enterprise Requirement Planning System)(bricprsm)
p892
F0.0004420866489832007
sVEMEAC-GBR-Unipay
p893
F0.0004420866489832007
sVFinance Organizational Learning & Development
p894
F0.0004420866489832007
sVGovernment Reporting DSS
p895
F0.0004420866489832007
sVMerck Canada Pubweb
p896
F0.0004420866489832007
sVVision Chain
p897
F0.0004420866489832007
sVEMEAC-GBR-Forecast Pro
p898
F0.0004420866489832007
sVLA-MEX-New Commercial Model-NCM
p899
F0.0004420866489832007
sVIsentress.co.uk
p900
F0.0004420866489832007
sVSPOTFIRE - JV Error Mitigation
p901
F0.0004420866489832007
sVMerck CMO Education Website
p902
F0.0004420866489832007
sVpuerto rico - mobile sales force system
p903
F0.0004420866489832007
sVStudy Optimizer Product Suite
p904
F0.0004420866489832007
sVAMRS Reports
p905
F0.0004420866489832007
sVwercs studio suite
p906
F0.0004420866489832007
sVPI Data Historian West Point
p907
F0.0004420866489832007
sVBrinny-PAS (Proceedure Access System)(bricpas)
p908
F0.0004420866489832007
sVEMEAC-GBR-GeneSys-UK look-up tool
p909
F0.0004420866489832007
sVSwords-WinCats PCDS
p910
F0.0004420866489832007
sVBatch Harmonization System
p911
F0.0004420866489832007
sVGood Manufacturing Practices Compound Ordering System
p912
F0.0004420866489832007
sVHybrid Electronic Notebooks
p913
F0.0004420866489832007
sVETL_Russia Sub National Sales_GHH
p914
F0.0004420866489832007
sVTibco CIM is part of the Tibco suite of products
p915
F0.0004420866489832007
sVEMEAC-ITA-IMS Direct Hospital Sales Service
p916
F0.0004420866489832007
sVMobile MIDAS Workflow Approvals
p917
F0.0004420866489832007
sVETL_BI_Spotfire_GMAX_GHH
p918
F0.0004420866489832007
sVExpert Searcher Platform
p919
F0.0004420866489832007
sVNeotrak
p920
F0.0004420866489832007
sVGHH PMR (Performance Master Repository)
p921
F0.0004420866489832007
sVAnimal Medical Records System
p922
F0.0004420866489832007
sVAP-China Next Generation Business Intelligence System
p923
F0.0004420866489832007
sVUS-USA Merck Privacy Policy Opt-Out Request
p924
F0.0004420866489832007
sVBranch Volume Maintenance
p925
F0.0004420866489832007
sVComposite_Informatica_Global_Spend_Analytics_Automation_MMD
p926
F0.0004420866489832007
sVGHH Align Managed Markets Data Mart
p927
F0.0004420866489832007
sVCanada stability study program
p928
F0.0004420866489832007
sVUSHH - Foresight
p929
F0.0004420866489832007
sVTIBCO_COMET-G4_SCM_Data3_Heist_MMD
p930
F0.0004420866489832007
sVAP-PHL SPICA BI
p931
F0.0004420866489832007
sVBloomberg
p932
F0.0004420866489832007
sVGlobal Intranet Delivery Schedule
p933
F0.0004420866489832007
sVCTDB
p934
F0.0004420866489832007
sVISS_COMET_OTC_France(Euridyce,SAPInterface,InvSalesElecInfoSub_FR,TOCREATE)
p935
F0.0004420866489832007
sVAH SAS
p936
F0.0004420866489832007
sVPreclinical Drug Metabolism Pharmacokinetic LIMS Report
p937
F0.0004420866489832007
sVData Management Research
p938
F0.0004420866489832007
sVOSS-PO Vergunningen management systeem
p939
F0.0004420866489832007
sVInfocenter Customer Request Form
p940
F0.0004420866489832007
sVExchange Rate Divisional Trends Report
p941
F0.0004420866489832007
sVConfiguration Item List Tool
p942
F0.0004420866489832007
sVAP-KOR-Sales Forecasting & Inventory Reporting System(apkorsfi)
p943
F0.0004420866489832007
sVISS_COMET_SCM8
p944
F0.0004420866489832007
sVISS_COMET_SCM6
p945
F0.0004420866489832007
sVISS_COMET_SCM7
p946
F0.0004420866489832007
sVISS_COMET_SCM4
p947
F0.0004420866489832007
sVISS_COMET_SCM5
p948
F0.0004420866489832007
sVISS_COMET_SCM2
p949
F0.0004420866489832007
sVISS_COMET_SCM1
p950
F0.0004420866489832007
sVMRL MouseTrap Database
p951
F0.0004420866489832007
sVBEA Weblogic
p952
F0.0004420866489832007
sVWP Mailing List  - AR64/65
p953
F0.0004420866489832007
sVMRL - PharmSci
p954
F0.0004420866489832007
sVGHH Align Reporting
p955
F0.0004420866489832007
sVInternational Product Formulary Database(L-SP only)
p956
F0.0004420866489832007
sVDenied Party Screening System (DPSS)
p957
F0.0004420866489832007
sVChemcart external
p958
F0.0004420866489832007
sVFinance Information and Treasury System Application
p959
F0.0004420866489832007
sVGTAS
p960
F0.0004420866489832007
sVETL_Global_MAXX_GHH
p961
F0.0004420866489832007
sVCOGNOS - HHE - SALES.DK
p962
F0.0004420866489832007
sVSPOTFIRE - Deuce Visualization Project
p963
F0.0004420866489832007
sVIPE Sales Inventory
p964
F0.0004420866489832007
sVBI_Cognos_Canada BI_MCC
p965
F0.0004420866489832007
sVBI_China_Call/China_SIP_Query
p966
F0.0004420866489832007
sVIFP latin America
p967
F0.0004420866489832007
sVVendor Conditioning Tool
p968
F0.0004420866489832007
sVSPOTFIRE - Taiwan BI
p969
F0.0004420866489832007
sVWERCSmart
p970
F0.0004420866489832007
sVHHE_UK
p971
F0.0004420866489832007
sVMSD Brazil
p972
F0.0004420866489832007
sVGlobal Merck Manufacturing Execution System-HEDA
p973
F0.0004420866489832007
sVOSS-API&BT Classbase
p974
F0.0004420866489832007
sVFinance Employee Development System
p975
F0.0004420866489832007
sVEMEAC-FI eZ Publish
p976
F0.0004420866489832007
sVAP-JPN Hoken Yakkyoku
p977
F0.0004420866489832007
sVClinical Assay Laboratory Management System
p978
F0.0004420866489832007
sVHHE_PORTAL
p979
F0.0004420866489832007
sVeCME
p980
F0.0004420866489832007
sVFastLook Plus
p981
F0.0004420866489832007
sVLAHH - BILA LA
p982
F0.0004420866489832007
sVPIEVO
p983
F0.0004420866489832007
sVA&XF-Turkey
p984
F0.0004420866489832007
sVEDIX
p985
F0.0004420866489832007
sVAniDB
p986
F0.0004420866489832007
sVGSMPL
p987
F0.0004420866489832007
sVBrinny-PO Inquiry (Purchase Order Inquiry)(bricpo)
p988
F0.0004420866489832007
sVCOMMET FBM PRODUC COST ROUTINGS
p989
F0.0004420866489832007
sVmexico - dpss
p990
F0.0004420866489832007
sVManaged Care Claims Decision Support System
p991
F0.0004420866489832007
sVTIBCO - DEC14_STS_NFEInbound
p992
F0.0004420866489832007
sVTIBCO - DEC14_OTC_Products_MDSub
p993
F0.0004420866489832007
sVGMP SYSTEMS AND COMPLIANCE TRACKING DB
p994
F0.0004420866489832007
sVMRL Time Tracking System
p995
F0.0004420866489832007
sVTIBCO - DEC14_OTC_Customer_MDSub
p996
F0.0004420866489832007
sVCTS vs NWAES MAPP13 Events Exception Report
p997
F0.0004420866489832007
sVISS_COMMON_EMEA(File_JMS_Extractor,HRInterface)
p998
F0.0004420866489832007
sVEMEAC-BI-Activity and X-Force Dashboard
p999
F0.0004420866489832007
sVETL_INFORMATICA_GMAX_IPRICE_GHH
p1000
F0.0004420866489832007
sVInterface Payroll and SAP HTR  Common Repository - Italy  to Payroll System
p1001
F0.0004420866489832007
sVSiperian MDM
p1002
F0.0004420866489832007
sVAnalysis Portfolio
p1003
F0.0004420866489832007
sVsplus
p1004
F0.0004420866489832007
sVAnalysis Retrieve
p1005
F0.0004420866489832007
sVAP-PHL-MSDConnect CRM Siebel-On-Demand(apphlsod)
p1006
F0.0004420866489832007
sVManagement service Fee
p1007
F0.0004420866489832007
sVLeak Detection and Repair System
p1008
F0.0004420866489832007
sVMMD Pharmaceutical Stability Management
p1009
F0.0004420866489832007
sVUSHH - PDPCM
p1010
F0.0004420866489832007
sVHHE_EIS_NL
p1011
F0.0004420866489832007
sVLA-Cashflow macro
p1012
F0.0004420866489832007
sVMerck Adverse Event Reporting and Review System
p1013
F0.0008841732979664014
sVMedical/Legal Schedule and Review
p1014
F0.0004420866489832007
sVService Tools ( store Italy procedure documentation and Booking Meeting Room Intranet Activity tools,ecc)
p1015
F0.0004420866489832007
sVISS_COMET_STS_InvoiceServices_GKO
p1016
F0.0004420866489832007
sVcanada scotia systems
p1017
F0.0004420866489832007
sVETL_SnA Slovenia
p1018
F0.0004420866489832007
sVPAC feeds to VOCUS (AR 72- Grass root)
p1019
F0.0004420866489832007
sVcomet_sap_bi_animal_health_otif_mmd(This is also includes error forecate reporting for OPA)
p1020
F0.0004420866489832007
sVSPIES
p1021
F0.0004420866489832007
sVBI_Cognos_LAHH - ITLS_BR_PPV
p1022
F0.0004420866489832007
sVEMEAC-ESP-Hospital mapping
p1023
F0.0004420866489832007
sVInformatica - EMEA S&A - CIS
p1024
F0.0004420866489832007
sVETL_BI_Cognos_SAP_TIBCO_ALIGN_GHH
p1025
F0.0004420866489832007
sVSPOTFIRE - Steve's Playground
p1026
F0.0004420866489832007
sVLA-MEX Vendor Payments Portal
p1027
F0.0004420866489832007
sVMMD Process Change Request Tracking System
p1028
F0.0004420866489832007
sVAccelrys ISIS/Desktop
p1029
F0.0004420866489832007
sVSAP XI
p1030
F0.0004420866489832007
sVEMEAC-FI Webropol
p1031
F0.0004420866489832007
sVRT Reports Oss
p1032
F0.0004420866489832007
sVSeagate Crystal Info Server Application Meta Database
p1033
F0.0004420866489832007
sVBrinny-Visual Suppy Chain(brivsc)
p1034
F0.0004420866489832007
sVtarget partners on-line
p1035
F0.0004420866489832007
sVShop Floor Paperwork
p1036
F0.0004420866489832007
sVMMD Quality Operations Next Generation Laboratory Information Management System Implementation Project
p1037
F0.0004420866489832007
sVRR Donnelley Vendor Hosted System (CustomPoint-ByDesign)
p1038
F0.0004420866489832007
sVETL_ARIS_CORP
p1039
F0.0004420866489832007
sVBI_Spotfire_CIT_BRIDGES_BPC
p1040
F0.0004420866489832007
sVCustomer Relation Conctat Web Page
p1041
F0.0004420866489832007
sVMMD Stability Laboratory Information Management System Data Management System
p1042
F0.0004420866489832007
sVBrinny-Compucal(briccomp)
p1043
F0.0004420866489832007
sVBI Cognos HHE_SNA_ZA_EXM
p1044
F0.0004420866489832007
sVECRM MarketGate
p1045
F0.0004420866489832007
sVTOX Application
p1046
F0.0004420866489832007
sVOSS-PO NOG Niet Ordergebonden Goederen
p1047
F0.0004420866489832007
sVJP Morgan Chase Insight - Web version
p1048
F0.0004420866489832007
sVInformatica - EMEA A&XF -Egypt
p1049
F0.0004420866489832007
sVDataScape
p1050
F0.0004420866489832007
sVInterfaces DAL to Sample Monitor Italy
p1051
F0.0004420866489832007
sVSPOTFIRE - China Risk Prevention Tool
p1052
F0.0004420866489832007
sVETL_SBS_ERP_Analytic_CORP
p1053
F0.0004420866489832007
sVMMD Global Procurement Desktop
p1054
F0.0004420866489832007
sVCGDP-US Coverage Gap Discount Program
p1055
F0.0004420866489832007
sVInformatica - EMEA A&XF -Israel
p1056
F0.0004420866489832007
sVTissue/Cell Request management System
p1057
F0.0004420866489832007
sVETL_SnA Dashboard_Saudi_GHH
p1058
F0.0004420866489832007
sVAP Product.com sites
p1059
F0.0004420866489832007
sVDMTools
p1060
F0.0004420866489832007
sVAP-JPN Bayer Co-marketing
p1061
F0.0004420866489832007
sVEMEAC-ITA-Ricerca Vendite
p1062
F0.0004420866489832007
sVMedstate
p1063
F0.0004420866489832007
sVETL_ZEUS_ETAS
p1064
F0.0004420866489832007
sVEMEAC-ITA-JDE Journal Entry
p1065
F0.0004420866489832007
sViHealthEx
p1066
F0.0004420866489832007
sVAP-JPN General Common Master
p1067
F0.0004420866489832007
sVFPG
p1068
F0.0004420866489832007
sVClinical Trial Registration PharmaCM System
p1069
F0.0004420866489832007
sVGMP Validation Services
p1070
F0.0004420866489832007
sVGlobal Labeling-WPL Search
p1071
F0.0004420866489832007
sVICM
p1072
F0.0004420866489832007
sVPR&D Website
p1073
F0.0004420866489832007
sVMRL CTRRP
p1074
F0.0004420866489832007
sVInformatica - MRL_RIDE
p1075
F0.0004420866489832007
sVMatch m?dicos internet
p1076
F0.0004420866489832007
sVnucleus
p1077
F0.0004420866489832007
sVOSS-PO imba-otd
p1078
F0.0004420866489832007
sVNorth Wales Automated Plate Storage and Retrieval System for High Throughput Screening Operations
p1079
F0.0004420866489832007
sVEMEAC-GBR-Medical Licence Tracking
p1080
F0.0004420866489832007
sVSPOTFIRE - ETAS Engagement Agreements
p1081
F0.0004420866489832007
sVMRL CTDB
p1082
F0.0004420866489832007
sVprofessional flight management (pfm)
p1083
F0.0004420866489832007
sVExternal Basic Research Portfolio Planner
p1084
F0.0004420866489832007
sVProcess Control Limits and Annual Product Review Application
p1085
F0.0004420866489832007
sVText Verification System
p1086
F0.0004420866489832007
sVBI_Cognos_IBM_Optim_Archive(GL LR)
p1087
F0.0004420866489832007
sVTIBCO - DEC14_OTC_BR_COGNOS_OrdersPublisher
p1088
F0.0004420866489832007
sVCOARSEGRAINED 1.0B
p1089
F0.0004420866489832007
sVCOGNOS - HHE - SALAN.TR
p1090
F0.0004420866489832007
sVAmex Web Services
p1091
F0.0004420866489832007
sVvss-vqy
p1092
F0.0004420866489832007
sVStatistical Analysis Software
p1093
F0.0004420866489832007
sVInput Accel
p1094
F0.0004420866489832007
sVPriceMaster/WebReport (Sales/Call Report)
p1095
F0.0004420866489832007
sVEMEAC-CAN iDart
p1096
F0.0004420866489832007
sVAP-JPN Data Warehouse
p1097
F0.0004420866489832007
sVETL Infra
p1098
F0.0004420866489832007
sVUnemployement Claims Interface-Support Lead Role
p1099
F0.0004420866489832007
sVRtR Account Reconciliation-BlackLine
p1100
F0.0004420866489832007
sVInformation Access and Security Program
p1101
F0.0004420866489832007
sVSPOTFIRE - EIM Global Logistics - Test
p1102
F0.0004420866489832007
sVBloomberg Anywhere And Terminal
p1103
F0.0004420866489832007
sVBI_Spotfire_China Financial Analysis Tool
p1104
F0.0004420866489832007
sVsap_bw_head_count_salary_planning_cit
p1105
F0.0004420866489832007
sVSupply Chain
p1106
F0.0004420866489832007
sVETL_China_MDM
p1107
F0.0004420866489832007
sVRegional BI
p1108
F0.0004420866489832007
sVSafety Assessment Alkaline Elution - Database
p1109
F0.0004420866489832007
sVLA-VEN-Sales Order Retained Approval Module
p1110
F0.0004420866489832007
sVBioprocess & Bioanalytical Research Laboratory Information Management System
p1111
F0.0004420866489832007
sVMerck Canada Extra (canextra)
p1112
F0.0004420866489832007
sVPI Data Historian Durham
p1113
F0.0004420866489832007
sVEquipment Tracking System Application
p1114
F0.0004420866489832007
sVID Business Solutions Biobook
p1115
F0.0004420866489832007
sVETL_Informatica_Cloud_Infrastructure
p1116
F0.0004420866489832007
sVEMEAC-GRC-softone inventories, greece-softone inventories
p1117
F0.0004420866489832007
sVEMEAC-GBR-UDG-Promotional Ordering System
p1118
F0.0004420866489832007
sVEMEAC-ESP-Executive Information System
p1119
F0.0004420866489832007
sVBrinny-Contractor Database(bricondb)
p1120
F0.0004420866489832007
sVOSS-API&BT HSR Hazardous Substance Registration
p1121
F0.0004420866489832007
sVProfitable Market Access Analytics
p1122
F0.0004420866489832007
sVMMD Quality Manual Table of Contents Web Site
p1123
F0.0004420866489832007
sVTime and Access EBI Security--Italy ( Working time Collector data , Permission,vacation, Access Control request ) ( Legal)
p1124
F0.0004420866489832007
sVETL_Cognos_Next_Gen_BI
p1125
F0.0004420866489832007
sVempower r&d
p1126
F0.0004420866489832007
sVAP-TWN-Sample Management System(aptwnsms)
p1127
F0.0004420866489832007
sVLabel Design & Printing Package.   Different than labels printed from MRPII app.
p1128
F0.0004420866489832007
sVSAP_PI_STS_COMET G4 Release(RICEFID:DSTS388,DSTS389,DSTS391,DSTS392,DSTS393,DSTS395,DSTS396,DSTS399,DSTS400,DSTS401,Top GUN to COMET PO)
p1129
F0.0004420866489832007
sVGeneral Physics
p1130
F0.0004420866489832007
sVMRL Wiki & MRL Request
p1131
F0.0004420866489832007
sVEMEAC-GBR-Product Shortages
p1132
F0.0004420866489832007
sVCOMPOSITE_JVFIN
p1133
F0.0004420866489832007
sVData 3
p1134
F0.0004420866489832007
sVLA-MEX-Sistema de Reconocimientos
p1135
F0.0004420866489832007
sVAP-JPN Corporate Site
p1136
F0.0004420866489832007
sVADP Enterprise eTime
p1137
F0.0004420866489832007
sVJ.D.Edwards
p1138
F0.0004420866489832007
sVUS Customer Connect Account Management
p1139
F0.0004420866489832007
sVNonGXP TracKWise applications - ATS, SIRS, ITS
p1140
F0.0004420866489832007
sVBPM PTP
p1141
F0.0004420866489832007
sVTIBCO - DEC14_OTC_BRAZILNFE
p1142
F0.0004420866489832007
sVthink-cell
p1143
F0.0004420866489832007
sVATLAS - SCM
p1144
F0.0004420866489832007
sVIDTA-Spanish Web Application to Run in the Corporate Web Environment
p1145
F0.0004420866489832007
sVGHH Align Revenue Management Intelligence
p1146
F0.0004420866489832007
sVBrinny-Document Numbering System(bridns)
p1147
F0.0004420866489832007
sVDiapason Online
p1148
F0.0004420866489832007
sVThe SIAM (Standards for Information Asset Management) Application System is used to Store & Manage Merck's Retention Schedule Information.
p1149
F0.0004420866489832007
sVAutomated Release Control System(Process Control System)
p1150
F0.0004420866489832007
sVBI_Cognos_HHE_SNA_CIS
p1151
F0.0004420866489832007
sVMerck Adverse event Reporting and Review System
p1152
F0.0004420866489832007
sVSafety Assessment Biochemical Toxicology Laboratory Information Management System
p1153
F0.0004420866489832007
sVeTranslations
p1154
F0.0004420866489832007
sVSAIS
p1155
F0.0004420866489832007
sVProwa Projects Warehouse
p1156
F0.0008841732979664014
sVAP-JPN Zero Risk System
p1157
F0.0004420866489832007
sVDPS Project Team Space
p1158
F0.0004420866489832007
sVADP Print Services
p1159
F0.0004420866489832007
sVConnotate
p1160
F0.0004420866489832007
sVGencord Decision Support System
p1161
F0.0004420866489832007
sVARIS Business Process Management
p1162
F0.0004420866489832007
sVSafety Assessment Data Repository
p1163
F0.0004420866489832007
sVETL_BI_China_Customer_Master
p1164
F0.0004420866489832007
sVDomestic General Accounting General Upload Utility
p1165
F0.0004420866489832007
sVeDossiers Regulatory Submissions Archive
p1166
F0.0004420866489832007
sVCIP BIC Integration
p1167
F0.0004420866489832007
sViLinks
p1168
F0.0004420866489832007
sVMiddleware/TIBCO-ESA Interface to CIGNA and ESA Interface to Broadspire
p1169
F0.0004420866489832007
sVE-STAR
p1170
F0.0004420866489832007
sVSales Force Time Attendance System
p1171
F0.0004420866489832007
sVLas Piedras Operations Reports
p1172
F0.0004420866489832007
sVActiveHealth
p1173
F0.0004420866489832007
sVPropecia Website
p1174
F0.0004420866489832007
sVCampaign Management System
p1175
F0.0004420866489832007
sVSequential Database Barcode Belgium
p1176
F0.0004420866489832007
sVCOMET 2.0B  ESAC and Peoplesoft Journal Entry
p1177
F0.0004420866489832007
sVSPOTFIRE - HR Region-Country Dashboard
p1178
F0.0004420866489832007
sVFleet
p1179
F0.0004420866489832007
sVEMEAC-ESP SGH
p1180
F0.0004420866489832007
sVInterfaces Sales Force Time Attendance System to EBI Payroll
p1181
F0.0004420866489832007
sVCOARSEGRAINED 1.0
p1182
F0.0004420866489832007
sVLatin America-Fast
p1183
F0.0004420866489832007
sVEMEAC-DEU-MSD360
p1184
F0.0004420866489832007
sVMedifit
p1185
F0.0004420866489832007
sVGlobal Safety and Environment Toxic Chemical System
p1186
F0.0004420866489832007
sVACDLabs Log D
p1187
F0.0004420866489832007
sVClinical Data Repository
p1188
F0.0004420866489832007
sVGCIP
p1189
F0.0004420866489832007
sVISS_COMET_SCM_EMEA(PO_VMSService,PO_VMSSvcs,MH_InventorySvcsInbound,GlobalRepoSvcs)
p1190
F0.0004420866489832007
sVCOMET HTR Buck & Taleo Interfaces
p1191
F0.0004420866489832007
sVMMD Manufacturing Resource Planning Repository
p1192
F0.0004420866489832007
sVBI_Cognos_Composite_TMF_MRL
p1193
F0.0004420866489832007
sVRomania sales and activities
p1194
F0.0004420866489832007
sVG3A_SCM
p1195
F0.0004420866489832007
sVMMD LIMSLink Laboratory Information Management System/Chromatography Data System Interface
p1196
F0.0004420866489832007
sVBI_COGNOS_HHE_SNA_IL_NAT
p1197
F0.0004420866489832007
sVHuman Health Incentive Compensation
p1198
F0.0004420866489832007
sVLSP SOX Monitoring
p1199
F0.0004420866489832007
sVProduct Donation System
p1200
F0.0004420866489832007
sVEMEAC-GBR-Legal Contracts tracking DB
p1201
F0.0004420866489832007
sVCAM
p1202
F0.0004420866489832007
sVMVID Sales Processing
p1203
F0.0004420866489832007
sVEHS
p1204
F0.0004420866489832007
sVMRL CDAS
p1205
F0.0004420866489832007
sVCOGNOS - MRL sCDAS
p1206
F0.0004420866489832007
sVAP-JPN Pharmaco Vigilance Tracer(jpnpvt)
p1207
F0.0004420866489832007
sVMMD Label Component Number System
p1208
F0.0004420866489832007
sVCOMMET DHTR185
p1209
F0.0004420866489832007
sVWPS Method for Calculating COT
p1210
F0.0004420866489832007
sVMRL CTRRP R2 (Clinical Trial Results and Registration Posting R2)
p1211
F0.0004420866489832007
sVETL_BI_MyPeople_CORP
p1212
F0.0004420866489832007
sVm&s cost est system
p1213
F0.0004420866489832007
sVEMEAC-ESP-BI Cognos Cubes
p1214
F0.0004420866489832007
sVETL_GRES_CORP
p1215
F0.0004420866489832007
sVBiologics Registration
p1216
F0.0004420866489832007
sVPI Data Historian Singapore
p1217
F0.0008841732979664014
sVSPOTFIRE - Self Imposed Tax Analysis
p1218
F0.0004420866489832007
sVCPAC (including MIDAS Provisioning)
p1219
F0.0004420866489832007
sVProject View Manager Research
p1220
F0.0004420866489832007
sVCACM
p1221
F0.0004420866489832007
sVETL_BI_Informatica_Spotfire_Launch_Excellence_Lifecycle_Optimization_GHH
p1222
F0.0004420866489832007
sVHTR to COM2
p1223
F0.0004420866489832007
sVClinical Supplies Order Processing system
p1224
F0.0004420866489832007
sVAIP Modeler
p1225
F0.0004420866489832007
sVPeopleSoft Domestic
p1226
F0.0004420866489832007
sVDMSS
p1227
F0.0004420866489832007
sVAudit Reporting System
p1228
F0.0004420866489832007
sVBentley Viewer
p1229
F0.0004420866489832007
sVCOGNOS - GHH - CoP
p1230
F0.0004420866489832007
sVCOMMET FBM PRODUC COST ITEM MASTER
p1231
F0.0004420866489832007
sVElectronic Campaign Management Program
p1232
F0.0004420866489832007
sVSAP MDM
p1233
F0.0004420866489832007
sVTIBCO_COMET-G4_STS_PO_Herouville_MMD
p1234
F0.0004420866489832007
sVRosetta Resolver
p1235
F0.0004420866489832007
sVSPM Spend Analytics
p1236
F0.0004420866489832007
sVETL_BI_China_Commercial_Management_Cube
p1237
F0.0004420866489832007
sVVisitor Watch Management System
p1238
F0.0004420866489832007
sVSolarto PSI
p1239
F0.0004420866489832007
sVbrinny - einfotree (Einfotree Access Module)(brinny - einfotree)
p1240
F0.0004420866489832007
sVSPOTFIRE - IBI
p1241
F0.0004420866489832007
sVEnd to End Provisioning
p1242
F0.0004420866489832007
sVSwords tiamo
p1243
F0.0004420866489832007
sVPOSTIER, Post Marketing Surveillance tracking and reporting system(postr)
p1244
F0.0004420866489832007
sVETL_SnA  Israel 360_GHH
p1245
F0.0004420866489832007
sVLA-CHL Event Merck System
p1246
F0.0004420866489832007
sVStore Management
p1247
F0.0004420866489832007
sVInternal Control Tracking System
p1248
F0.0004420866489832007
sVSample Compound Browser
p1249
F0.0004420866489832007
sVGlobal Spend Analytics Automation
p1250
F0.0004420866489832007
sVComposite_Cognos_SRR_USHH
p1251
F0.0004420866489832007
sVe-Event(echina)
p1252
F0.0004420866489832007
sVPDAM AE Reconcillation Tool
p1253
F0.0004420866489832007
sVREGDAT
p1254
F0.0004420866489832007
sVPRISYM32
p1255
F0.0004420866489832007
sVGTO Communication Tool
p1256
F0.0004420866489832007
sVMerck Unstructured Data Archiving
p1257
F0.0004420866489832007
sVMerck Travel Services Card Data Reporting Tool
p1258
F0.0004420866489832007
sVMarketing Planning and Control
p1259
F0.0004420866489832007
sVJD Edwards--Singapore HH
p1260
F0.0004420866489832007
sVCOGNOS - HHE - SNA.TR
p1261
F0.0004420866489832007
sVEMEAC-GBR-International Meetings Management
p1262
F0.0004420866489832007
sVNational Data Exchange
p1263
F0.0004420866489832007
sVsap_bw_app_support_mcc
p1264
F0.0004420866489832007
sVNice Label Pro
p1265
F0.0004420866489832007
sVRosetta Syllego
p1266
F0.0004420866489832007
sVMS Dynamics
p1267
F0.0004420866489832007
sVPrimavera Project Management
p1268
F0.0004420866489832007
sVWest Point Package Tracking System
p1269
F0.0004420866489832007
sVSafety Assessment Pathology Data System
p1270
F0.0004420866489832007
sVCOMET BI 2.0A - Source to Settle
p1271
F0.0004420866489832007
sVETL_Informatica_HR_Ex_US_Payroll_GHH
p1272
F0.0004420866489832007
sVCytogenetics Information Management System
p1273
F0.0004420866489832007
sVMFCL EMPLOYEE DATABASE
p1274
F0.0004420866489832007
sVAP-THA-Marketing Investment Tracking-TMIT(apthatmi)
p1275
F0.0004420866489832007
sVEMEAC-DK PC Medical Legal
p1276
F0.0004420866489832007
sVIS Application Developer Environment
p1277
F0.0004420866489832007
sVComputing Environment Tracking System
p1278
F0.0004420866489832007
sVLA-PER Compliance Tracking System Intranet
p1279
F0.0004420866489832007
sV10 Step Supplier Management Project-Performance Management
p1280
F0.0004420866489832007
sVVISION 94
p1281
F0.0004420866489832007
sVCOGNOS - HHE_SNA.JO
p1282
F0.0004420866489832007
sVhivaccess
p1283
F0.0004420866489832007
sVhCue
p1284
F0.0004420866489832007
sVMerck Vaccine Savings Plan Analysis Tool
p1285
F0.0004420866489832007
sVPharmaceutical R&D Chromatography Data System
p1286
F0.0004420866489832007
sVGHH - FSR
p1287
F0.0004420866489832007
sVInterfaces Payroll--Italy to Comet FBM JE
p1288
F0.0004420866489832007
sVtimelink
p1289
F0.0004420866489832007
sVEMMCON - Paperless Manufacturing Operations
p1290
F0.0008841732979664014
sVAP-JPN RINGI
p1291
F0.0004420866489832007
sVNMR Schema
p1292
F0.0004420866489832007
sVWorldwide Product Labeling Department Website
p1293
F0.0004420866489832007
sVMRL Supply Ordering System
p1294
F0.0004420866489832007
sVMLS Feed Back
p1295
F0.0004420866489832007
sVEUCAN CORE Veeva(hhucveva)
p1296
F0.0004420866489832007
sVGeneSys Adapter--Germany
p1297
F0.0004420866489832007
sVISS_COMET_OTC_EMEA_3PL_DL,Stockstatus & MatMas)
p1298
F0.0004420866489832007
sVCOMET HTR SmithBarney,Fidelity & ES/IT
p1299
F0.0004420866489832007
sVEMEAC-ESP-MCC environment-Multichannel Systems
p1300
F0.0004420866489832007
sVETL_SnA Poland_GHH
p1301
F0.0004420866489832007
sVContrate
p1302
F0.0004420866489832007
sVTIBCO - DEC14_OTC_GKO_InboundPOD
p1303
F0.0004420866489832007
sVCerity(BTE)(bdcerity)
p1304
F0.0004420866489832007
sVSafety Assessment Toxicology Dictionary Maintenance Application
p1305
F0.0004420866489832007
sVGHH - S&OP
p1306
F0.0004420866489832007
sVCOMET ETL Interfaces Eurydice and Product Cost
p1307
F0.0004420866489832007
sVB2BWebServiceFramework
p1308
F0.0004420866489832007
sVCOARSEGRAINED 4.0
p1309
F0.0004420866489832007
sVLAHH BILA Puerto Rico
p1310
F0.0004420866489832007
sVData Life Cycle Project Metadata Service
p1311
F0.0004420866489832007
sVVacation Management
p1312
F0.0004420866489832007
sVOne Merck Digital Library
p1313
F0.0004420866489832007
sVCOGNOS - HHE - MCC_EMEAC_DOCV
p1314
F0.0004420866489832007
sVWILSON TRACKWISE
p1315
F0.0004420866489832007
sVShipping Details Database
p1316
F0.0004420866489832007
sVheist-db complaint handling(compldb)
p1317
F0.0004420866489832007
sVSALES FORECAST UPLOAD TO DATA3
p1318
F0.0004420866489832007
sVBelgium
p1319
F0.0004420866489832007
sVMandatoryRebate
p1320
F0.0004420866489832007
sVReference Management
p1321
F0.0004420866489832007
sVLocal Financial Reporting System Website
p1322
F0.0004420866489832007
sVUnivadis
p1323
F0.0004420866489832007
sVMRL Partner Repository Master
p1324
F0.0004420866489832007
sVATLAS-Basis
p1325
F0.0004420866489832007
sVGHH BigTinCan hub App for iPad
p1326
F0.0004420866489832007
sVTWN Price Master(twnpms)
p1327
F0.0004420866489832007
sVCRTK/CHEMCART ADMIN Tool
p1328
F0.0004420866489832007
sVSymyx MDL Available Chemicals (3D) Database
p1329
F0.0004420866489832007
sVAP-JPN Fee For Performance
p1330
F0.0004420866489832007
sVComposite_ETAS_FIN_ETAS
p1331
F0.0004420866489832007
sVMDM to CRM Italy
p1332
F0.0004420866489832007
sVETL_NATLIMS_GHH
p1333
F0.0004420866489832007
sVLA-MEX Backorder
p1334
F0.0004420866489832007
sVmylearning
p1335
F0.0004420866489832007
sVAccusizer Particle Analysers
p1336
F0.0004420866489832007
sVSPOTFIRE NA Infrastructure
p1337
F0.0004420866489832007
sVExternal Data Capability (Start,CDAS,EPM, EDC File Collector)
p1338
F0.0004420866489832007
sVOC Tanner
p1339
F0.0004420866489832007
sVBrinny-Rightfax 400(brirf400)
p1340
F0.0004420866489832007
sVInternal Portal Framework
p1341
F0.0004420866489832007
sVPtP Imaging System
p1342
F0.0004420866489832007
sVPI Data Historian Elkton 4
p1343
F0.0004420866489832007
sVAdverse Experience Reporting Interface between Edc and Safety
p1344
F0.0004420866489832007
sVMMD Quality Compliance Tracking System
p1345
F0.0004420866489832007
sVMMD Quality Modules
p1346
F0.0004420866489832007
sVPRISM
p1347
F0.0004420866489832007
sVETL_COMET_DSCM635_ReplenishmentForecast Interface_CORP
p1348
F0.0004420866489832007
sVAVEVA IMPLANT I
p1349
F0.0004420866489832007
sVAP Sales/P&L Planning and Analysis by IFP
p1350
F0.0004420866489832007
sVISG
p1351
F0.0004420866489832007
sVBO Infrastructure
p1352
F0.0004420866489832007
sVMerckPAC
p1353
F0.0004420866489832007
sVMRL - EVOC
p1354
F0.0004420866489832007
sVClinical Drug Metabolism Simulated PK Transfer System
p1355
F0.0004420866489832007
sVPreclinical Drug Metabolism Pharmacokinetic Laboratory Information Management System Explorer
p1356
F0.001326259946949602
sVPLANTSPACE AFD
p1357
F0.0004420866489832007
sVBallydine Intranet
p1358
F0.0004420866489832007
sVGTA Net Cramlington
p1359
F0.0004420866489832007
sVETL Finance - ETLP
p1360
F0.0004420866489832007
sVCommunities of Practice
p1361
F0.0004420866489832007
sVASCOT JDE
p1362
F0.0004420866489832007
sVCOMET BI 2.0A - Financial Business Management
p1363
F0.0004420866489832007
sVTAIWAN Inventory Product Forecast(twnipf)
p1364
F0.0004420866489832007
sVSimcyp Simulator
p1365
F0.0004420866489832007
sVISS_TRANSIT_EMEA(LIMSService,VMS Service)
p1366
F0.0004420866489832007
sVeResource Calls Information
p1367
F0.0004420866489832007
sVWebservices
p1368
F0.0004420866489832007
sVInterfaces SAP  - Comet to Product Traceability system Italy
p1369
F0.0004420866489832007
sVBrinny-Expense Master(briexpm)
p1370
F0.0004420866489832007
sVPAGEGATE
p1371
F0.0004420866489832007
sVeMLE Mobile Solutions
p1372
F0.0004420866489832007
sVMass Efficiency
p1373
F0.0004420866489832007
sVChemStock Manager
p1374
F0.0004420866489832007
sVMMD AMS Blue KPI
p1375
F0.0004420866489832007
sVHHE_PMPT
p1376
F0.0004420866489832007
sVETL_CognosBI_Reg_ Thailand_GHH
p1377
F0.0004420866489832007
sVCFM Monitoring
p1378
F0.0004420866489832007
sVmyEtrip
p1379
F0.0004420866489832007
sVSwords-Microscope Imaging System(Analytical Lab)
p1380
F0.0004420866489832007
sVCOGNOS - HHE - SNA.UA
p1381
F0.0004420866489832007
sVLA-Spreadsheet server
p1382
F0.0004420866489832007
sVPI Data HHistorian - Heist
p1383
F0.0004420866489832007
sVPCCD
p1384
F0.0004420866489832007
sVPaperlessPayslip
p1385
F0.0004420866489832007
sVSPOTFIRE - Global S&OP
p1386
F0.0004420866489832007
sVgrants management system (gms)
p1387
F0.0004420866489832007
sVDPS COMPOUND SHIPMENT
p1388
F0.0004420866489832007
sVLA-Contracts
p1389
F0.0004420866489832007
sVCasewise
p1390
F0.0004420866489832007
sVCRM to UNIVADIS
p1391
F0.0004420866489832007
sVImmigration Tracker
p1392
F0.0004420866489832007
sVGDAM Pub and Tool Box Sub services
p1393
F0.0004420866489832007
sVMRL Library Functions Tool
p1394
F0.0004420866489832007
sVSPOTFIRE - SBS Data Validation
p1395
F0.0004420866489832007
sVeLogs
p1396
F0.0004420866489832007
sVCOMPOSITE_OPA
p1397
F0.0004420866489832007
sVclinpro
p1398
F0.0004420866489832007
sVEMEAC-GRC-visits, greece-visits
p1399
F0.0004420866489832007
sVAutonomy Records Manager
p1400
F0.0004420866489832007
sVElectronic product data repository
p1401
F0.0008841732979664014
sVINFORMATICA_CLOUD_COMPOSITE_TAPN_CORP
p1402
F0.0004420866489832007
sViFind Marketing Resource Search Tool
p1403
F0.0008841732979664014
sVCOGNOS - MMD Asia Pacific Hub Reporting
p1404
F0.0004420866489832007
sVETL_BI_Cognos_Profitable_Market_Access_Analytics_HELIX_GHH
p1405
F0.0004420866489832007
sVCheck Reconciliation System
p1406
F0.0004420866489832007
sVMSD Direct
p1407
F0.0004420866489832007
sVMIDAS R&D
p1408
F0.0004420866489832007
sVACOM Check Printing
p1409
F0.0004420866489832007
sVMerck Reputation Dashboards
p1410
F0.0004420866489832007
sVCOMET- ISS_COMET_HTR_JDEGlobalSub
p1411
F0.0004420866489832007
sVTsunami/SmartLink-Connect
p1412
F0.0004420866489832007
sVcompass
p1413
F0.0004420866489832007
sVeRDR
p1414
F0.0004420866489832007
sVSwords-Data Guard / Data Pro TOC System
p1415
F0.0004420866489832007
sVAutoCAD
p1416
F0.0004420866489832007
sVenginuity
p1417
F0.0004420866489832007
sVPHY
p1418
F0.0004420866489832007
sVLA-Mapper
p1419
F0.0004420866489832007
sVNerthlands/ NL R2
p1420
F0.0004420866489832007
sVJapan BI
p1421
F0.0004420866489832007
sVJDE--Italy for company Merck Sharp & Dohme Italy SPA .
p1422
F0.0004420866489832007
sVLink-GlobalFarm
p1423
F0.0004420866489832007
sVPatent Paperless Office
p1424
F0.0004420866489832007
sVLas Piedras-JD Edwards Financial System
p1425
F0.0004420866489832007
sVAkamai
p1426
F0.0004420866489832007
sVEMEAC-EST-Baltic Sales Reports
p1427
F0.0004420866489832007
sVTCP
p1428
F0.0004420866489832007
sVRMC (MRL Operations Reviews) Team Site Research Management Committee
p1429
F0.0004420866489832007
sVMIDAS Trial Master File
p1430
F0.0008841732979664014
sVAVEVA IMPLANT STL
p1431
F0.0004420866489832007
sVEMEAC PT-GALP
p1432
F0.0004420866489832007
sVInformatica Admin support for CDA POC and Breakfix environment
p1433
F0.0004420866489832007
sVMRL Biological Sample Store
p1434
F0.0004420866489832007
sVLIMS
p1435
F0.0004420866489832007
sVEMEAC-GBR-Ireland Intranet
p1436
F0.0004420866489832007
sVIncident Reporting and Investigation Management Software
p1437
F0.0004420866489832007
sVEZReq
p1438
F0.0004420866489832007
sVCanada mrp(manufacturing requirement planning)
p1439
F0.0004420866489832007
sVGlobal Merck Manufacturing Execution System - Ballydine(mesbal)
p1440
F0.0004420866489832007
sVheist-db asset management(spl tree)(spltree)
p1441
F0.0004420866489832007
sVWorldwide Financial Reporting System
p1442
F0.0004420866489832007
sVAP-JPN Emergency Fax
p1443
F0.0004420866489832007
sVSPRDR
p1444
F0.0004420866489832007
sVPlural Reports
p1445
F0.0004420866489832007
sVMetabolator
p1446
F0.0004420866489832007
sVCEPV (French Safety Department)
p1447
F0.0004420866489832007
sVBrinny-Spend Enquiry(brispenq)
p1448
F0.0004420866489832007
sVCorp - BPM Reporting
p1449
F0.0004420866489832007
sVMMD Weighment Dispensing System
p1450
F0.0004420866489832007
sVTrackWise-Audit Management System
p1451
F0.0004420866489832007
sVProduct Launch Requirements Tool
p1452
F0.0004420866489832007
sVProcess R&D Information System
p1453
F0.0004420866489832007
sVQSAR Workbench
p1454
F0.0004420866489832007
sVCIMS Schema
p1455
F0.0004420866489832007
sVTMC
p1456
F0.0004420866489832007
sVSPOTFIRE - SBS Reporting Transition (2)
p1457
F0.0004420866489832007
sVMerck Manufacturing Division-Merck Production System
p1458
F0.0004420866489832007
sVGeneral Ledger
p1459
F0.0004420866489832007
sVLAHH BILA Ecuador
p1460
F0.0004420866489832007
sVChemical and Other Supplies-Management, Inventory and Compliance
p1461
F0.0004420866489832007
sVGood Clinical Practice System for Japan(cw4gcps)
p1462
F0.0004420866489832007
sVeDiscovery
p1463
F0.0004420866489832007
sVOracle Schemata
p1464
F0.0004420866489832007
sVSAPBI_CCF
p1465
F0.0004420866489832007
sVCanada Electronic Data Interchange System
p1466
F0.0004420866489832007
sVEMEAC PT-LOGIFARMA-POD
p1467
F0.0004420866489832007
sVMolecular Profiling Plan, Execute and Track
p1468
F0.0004420866489832007
sVInternal Control and Compliance System
p1469
F0.0004420866489832007
sVTravel and Expense Mobile
p1470
F0.0004420866489832007
sVHtR Comp planning
p1471
F0.0004420866489832007
sVBiosolve Process and Biosolve PLM-BNET, RY and WP
p1472
F0.0004420866489832007
sVDPSS Brazil
p1473
F0.0004420866489832007
sVBI_Spotfire_CLIS
p1474
F0.0004420866489832007
sVETL_Turkey_National_Sales_GHH
p1475
F0.0004420866489832007
sVShared Web Content Deployment Service
p1476
F0.0004420866489832007
sVAP-TWN-MSD Connect(aptwncon)
p1477
F0.0004420866489832007
sVUSHH - ROME
p1478
F0.0004420866489832007
sVOSS-API & BT Casco Registration System
p1479
F0.0004420866489832007
sVprospace planogram software
p1480
F0.0004420866489832007
sVGladson Web PlaNOgram Images
p1481
F0.0004420866489832007
sVTIBCO - DEC14_OTC_BROutboundNFECOGNOS
p1482
F0.0004420866489832007
sVThomson One Investor Relations (formerly IR Channel)
p1483
F0.0004420866489832007
sVNavigate-Vaccine Analytics(navigat)
p1484
F0.0004420866489832007
sVSARView
p1485
F0.0004420866489832007
sVheist-zyimage imaging system(zyimage)
p1486
F0.0004420866489832007
sVSPICA (sales planning incentive computation automation)
p1487
F0.0004420866489832007
sVToll Free Manager
p1488
F0.0004420866489832007
sVGHH US Divisional Data Warehouse(ghhusdw)
p1489
F0.0004420866489832007
sVWebtrends
p1490
F0.0004420866489832007
sVETL_Informatica_IT Value Transparency_Showback_GHH
p1491
F0.0004420866489832007
sVMerck Capital Information Management System
p1492
F0.0004420866489832007
sVISS_CORP
p1493
F0.0004420866489832007
sVFeed to Heritage Werks
p1494
F0.0004420866489832007
sVEMEAC-GBR-Walsh Link
p1495
F0.0004420866489832007
sVMarket Master
p1496
F0.0004420866489832007
sVBI_China_CI_Tracker
p1497
F0.0004420866489832007
sVOrchestrate Shop Floor Scheduling System
p1498
F0.0004420866489832007
sVISS_COMET_OTC_EMEA_(Cust Inv DE,MR Pub,Tocreate)
p1499
F0.0004420866489832007
sVEnhanced Counterscreening and Weekly Submission
p1500
F0.0004420866489832007
sVResearch Animal Information Management System
p1501
F0.0004420866489832007
sVMSD Korea Information Sharing System(msdkiss)
p1502
F0.0004420866489832007
sVAcces Revoke
p1503
F0.0004420866489832007
sVCustomer Membership and Eligibility
p1504
F0.0004420866489832007
sVETL_ESA/SWN Daily Feed_CORP
p1505
F0.0004420866489832007
sVFTP-Windows Services Associated With PeopleSoft
p1506
F0.0004420866489832007
sVBrinny-Authority Broker(briab)
p1507
F0.0004420866489832007
sVETL_Informatica_Italy_Customer_Master_GHH
p1508
F0.0004420866489832007
sVGeneSys
p1509
F0.0004420866489832007
sVPublications
p1510
F0.0004420866489832007
sVBARDS-Computing Integration Platform
p1511
F0.0004420866489832007
sVTime Outof Refregerator
p1512
F0.0004420866489832007
sVTIBCO-BAM_Deliveries_PGI_Invoices
p1513
F0.0004420866489832007
sVAsia Pacific online expense reimbursement system
p1514
F0.0004420866489832007
sVCOMET_SAP_BI_CORI
p1515
F0.0004420866489832007
sVShowCase strategy
p1516
F0.0004420866489832007
sVEMEAC-GBR-Multi-View
p1517
F0.0004420866489832007
sVAVEVA EXPLANT
p1518
F0.0004420866489832007
sVn.a.w.-fdh
p1519
F0.0004420866489832007
sVGHH - Global Customer Master
p1520
F0.0004420866489832007
sVCOSC
p1521
F0.0004420866489832007
sVOSS-PO Apollo
p1522
F0.0004420866489832007
sVSQL LIMS
p1523
F0.0004420866489832007
sVMRL Project Accounting System
p1524
F0.0004420866489832007
sVGRES
p1525
F0.0004420866489832007
sVBI_China_Financial_Analysis_Tool
p1526
F0.0004420866489832007
sVEMEAC-GBR-Holiday/Annual Leave Booking
p1527
F0.0004420866489832007
sVDEUCE
p1528
F0.0004420866489832007
sVETL_MerckMedicus_GHH
p1529
F0.0004420866489832007
sVETL_HHE_SNA_EED_Algeria_GHH
p1530
F0.0004420866489832007
sVTIBCO_COMET_JulyRel_Global_PlannedOrder_ProcessOrder_Sub
p1531
F0.0004420866489832007
sVETL_BI_China_T&E_Report
p1532
F0.0004420866489832007
sVHHE DEMU
p1533
F0.0004420866489832007
sVProperty Tax Management System
p1534
F0.0004420866489832007
sVHHE_ARGUS_BE
p1535
F0.0004420866489832007
sVEMEAC-ITA GMP Software
p1536
F0.0004420866489832007
sVSAPPI_ORION_TO_SAP
p1537
F0.0004420866489832007
sVAP-China Customer Information Center(chncic)
p1538
F0.0004420866489832007
sVBrinny-Order Enquiry System(briorens)
p1539
F0.0004420866489832007
sVCall Center Plus
p1540
F0.0004420866489832007
sVSPOTFIRE EMEA Infrastructure
p1541
F0.0004420866489832007
sVSample Ordering thru Logical Allocation Rules
p1542
F0.0004420866489832007
sVPI Data Historian Ballydine
p1543
F0.0004420866489832007
sVTrace IT
p1544
F0.0004420866489832007
sVSafety, Health and Environmental Management Information System
p1545
F0.0004420866489832007
sVLA-LPO Commercial Products Lead Times
p1546
F0.0004420866489832007
sVComposite_Informatica Cloud- BBMS_MRL
p1547
F0.0004420866489832007
sVTM1 CHC
p1548
F0.0004420866489832007
sVETL_BI_China_Speaker_analysis
p1549
F0.0004420866489832007
sVPI Data Historian Carlow
p1550
F0.0004420866489832007
sVEMEAC-BI- Veeva BI Reports
p1551
F0.0004420866489832007
sVISIS Host
p1552
F0.0004420866489832007
sVscrip
p1553
F0.0004420866489832007
sVAP-TWN ePP
p1554
F0.0004420866489832007
sVBasic Research Account
p1555
F0.0004420866489832007
sVJDE
p1556
F0.0004420866489832007
sVCriterion Affirmative Action Management System
p1557
F0.0004420866489832007
sVMerck DevStore
p1558
F0.0004420866489832007
sVGHH Align Managed Markets Warehous
p1559
F0.0004420866489832007
sVClaims Data Validation System
p1560
F0.0004420866489832007
sVAP-China Pegintron Game(apcnpeg)
p1561
F0.0004420866489832007
sVCTDMPub
p1562
F0.0004420866489832007
sVBI_Cognos_LAHH - ITLS_BR_Telephony
p1563
F0.0004420866489832007
sVMomentum
p1564
F0.0004420866489832007
sVLinguamatics I2E
p1565
F0.0004420866489832007
sVRosetta Elucidator
p1566
F0.0004420866489832007
sVqsert
p1567
F0.0004420866489832007
sVSafety Assessment Integrated System
p1568
F0.0004420866489832007
sVAP-THA-Price Proposal System-TPPP(apthatpp)
p1569
F0.0004420866489832007
sVEMEAC-NL Physician Selection for Direct Mail Campaigns
p1570
F0.0004420866489832007
sVCMAS
p1571
F0.0004420866489832007
sVGHH - Sweep Letter
p1572
F0.0004420866489832007
sVAP-JPN Bio Origin System
p1573
F0.0004420866489832007
sVInformatica_SAP BW_ ETL Finance_Composite_Compass1B_MMD
p1574
F0.0004420866489832007
sVBI_Cognos_iMAP_GHH (Canada Mobile BI)
p1575
F0.0004420866489832007
sVCompany which sends invoices and the statements to customers
p1576
F0.0004420866489832007
sVAudit Tracking System
p1577
F0.0004420866489832007
sVInterfaces JDE--Italy to Data3-Italy
p1578
F0.0004420866489832007
sVInformatica - SPECTRUM - RDR
p1579
F0.0004420866489832007
sVBI_SPOTFIRE_ETL_MCCCFO_MCC
p1580
F0.0004420866489832007
sVRECOMMENDATION TRACKING SYSTEM CANADA S&E
p1581
F0.0004420866489832007
sVBI Cognos HHE_SNA_TR_NAT
p1582
F0.0004420866489832007
sVBI_Spotfire_MSDIS_MMD
p1583
F0.0004420866489832007
sVBI Cognos HHE_SNA_SI
p1584
F0.0004420866489832007
sVSAP_PI_CARS_LEGACY(2 interfaces)\u000a\u000a\u000aiss_sc_z_int043_cars_chargeback_request_lsp_sappi\u000a\u000a\u000aiss_sc_z_int043_cars_chargeback_ack_lsp_sappi
p1585
F0.0004420866489832007
sVCIM Reporting
p1586
F0.0004420866489832007
sVBI_SPOTFIRE_Risk_Indicators_Clinical_PULSE_MRL
p1587
F0.0004420866489832007
sVEMEAC-ESP-Conventho
p1588
F0.0004420866489832007
sVLegacy SP - ECAG (Essex Chemi AG)\u000a\u000a\u000aBelow are the Seven interfaces1. \u000a\u000a\u000a1. iss_sc_z_int045_ecag_stablization_ecag_france_po_create_lsp_sappi\u000a\u000a\u000a2. iss_sc_z_int045_ecag_stablization_ecag_france_po_change_lsp_sappi\u000a\u000a\u000a3. iss_sc_z_int045_ecag_stablization_ecag_spain_po_create_lsp_sappi\u000a\u000a\u000a4. iss_sc_z_int045_ecag_stablization_ecag_spain_po_change_lsp_sappi\u000a\u000a\u000a5. iSS_sc_z_int045_ecag_stablization_spain_ecag_po_confirmation_lsp_sappi\u000a\u000a\u000a6. iss_sc_z_int045_ecag_stablization_france_ecag_po_confirmation_lsp_sappi\u000a\u000a\u000a7. iss_sc_z_ecag_stablization_ecag_po_change_ReplenForecast_lsp_sappi
p1589
F0.0004420866489832007
sVInformatica - EPBU_integration_with_SAM
p1590
F0.0004420866489832007
sVPhysical Property Application
p1591
F0.0004420866489832007
sVComposite_EII_MRL (Enterprise Information Integration  Service)
p1592
F0.0004420866489832007
sVChina AE Case Reporting and Tracking System
p1593
F0.0004420866489832007
sVComposite_Spotfire_Informatica_MDM_AH
p1594
F0.0004420866489832007
sVSmall Molecule Sample Management System
p1595
F0.0004420866489832007
sVSPOTFIRE - Spotfire Auditing
p1596
F0.0004420866489832007
sVAP-AUS-LEX for Contract Management(apauslex)
p1597
F0.0004420866489832007
sVETL_SAP_BW_Cognos_MRL Connect_MRL
p1598
F0.0004420866489832007
sVAP-JPN Telephone Book
p1599
F0.0004420866489832007
sVFleet Web Site
p1600
F0.0004420866489832007
sVEMEAC-GBR-Fitness and Lifestyle Centre Class Booking System
p1601
F0.0004420866489832007
sVAPR (Advertising Promotion Review)
p1602
F0.0004420866489832007
sVACT
p1603
F0.0004420866489832007
sVC.D.S. (TRACE - T700 & ACOUSTICS)
p1604
F0.0004420866489832007
sVSPOTFIRE - Korea Market Performance
p1605
F0.0004420866489832007
sVDocumentum Content Server
p1606
F0.0004420866489832007
sVIH LIMS
p1607
F0.0004420866489832007
sVMerck External Partner Portal
p1608
F0.0004420866489832007
sVBatch Record Release tool Chopper
p1609
F0.0004420866489832007
sVETL_Sportfire_SAPBI_WSQMA_GHH
p1610
F0.0004420866489832007
sVComputer Based Testing System-Program Evaluations(cbts)
p1611
F0.0004420866489832007
sVapplication authorization system aas-zaa
p1612
F0.0004420866489832007
sVAIP Data Validation Tool Application
p1613
F0.0004420866489832007
sVISS_COMET_OTC_EMEA(InvSalesElecInfoSub_FR,DirectSales_JDEAustria,E-Invoicing,Eurydice_SAP
p1614
F0.0004420866489832007
sVFinland Migration
p1615
F0.0004420866489832007
sVBartender
p1616
F0.0004420866489832007
sVPlant Health OPAS
p1617
F0.0004420866489832007
sVSPOTFIRE - MRL GSIP
p1618
F0.0004420866489832007
sVEDI/Gentran
p1619
F0.0004420866489832007
sVXLFit
p1620
F0.0004420866489832007
sVAP-JPN Daiichi-Sankyo
p1621
F0.0004420866489832007
sVLIBRIS - Horizon Product
p1622
F0.0004420866489832007
sVACD (Available Chemical Dir.) Schema
p1623
F0.0004420866489832007
sVETL_Informatica_AHMCM
p1624
F0.0004420866489832007
sViss_comet_global_product_serialization_sappi
p1625
F0.0004420866489832007
sVPerspective
p1626
F0.0004420866489832007
sVETL_Accts_Payable_Dashboards_AP_Corp
p1627
F0.0004420866489832007
sVCOGNOS - HHE_SNA.ZA
p1628
F0.0004420866489832007
sVHPVPPM - Durham MES Interface
p1629
F0.0004420866489832007
sVAP-JPN Sales Force Evaluation System
p1630
F0.0004420866489832007
sVAP-KOR-Online Accounting System-E Accounting(apkoroas)
p1631
F0.0004420866489832007
sVMMD Absence Monitoring System
p1632
F0.0004420866489832007
sVWestlaw Legal Apps
p1633
F0.0004420866489832007
sVDLC / ECDS / MCIDB
p1634
F0.0004420866489832007
sVOSS-PO Jobsheet application (Access)
p1635
F0.0004420866489832007
sVElearning management system (Informatica)
p1636
F0.0004420866489832007
sVSales Transfer from AH
p1637
F0.0004420866489832007
sVRegulatory Inspection System-Durham
p1638
F0.0004420866489832007
sVESA Autonomy
p1639
F0.0004420866489832007
sVValidation of Handheld Devices
p1640
F0.0004420866489832007
sVProocure to Pay - latin America
p1641
F0.0004420866489832007
sVCommon Finance Language Tool
p1642
F0.0008841732979664014
sVCOGNOS - HHE_EXPONENT_BE
p1643
F0.0004420866489832007
sVAnalysis Request
p1644
F0.0004420866489832007
sVAudit
p1645
F0.0004420866489832007
sVCOGNOS - HHE - MCC_EMEAC_ECME
p1646
F0.0004420866489832007
sVSales and Marketing Information
p1647
F0.0004420866489832007
sVRegulatory Content Authoring & Management System
p1648
F0.0008841732979664014
sVETL_SnA Portugal_GHH
p1649
F0.0004420866489832007
sVImage Management Repository System
p1650
F0.0004420866489832007
sVGlobal Product Rationalization
p1651
F0.0004420866489832007
sVSales, cost Inventory
p1652
F0.0004420866489832007
sVTIBCO-G3-B_FBM_JournalEntry_HH
p1653
F0.0004420866489832007
sVUPS Interfaces
p1654
F0.0004420866489832007
sVBrinny-PIQS Module (Product Inspection Quality System)(bripiqs)
p1655
F0.0004420866489832007
sVAgile Feed
p1656
F0.0004420866489832007
sVMRL-Global Study Planner
p1657
F0.0004420866489832007
sVOSS-PO MI-Labels
p1658
F0.0004420866489832007
sVChange over parts Tool for the packaging lines at Haarlem IPT's
p1659
F0.0004420866489832007
sVMerck Animal Health Global Marketing Intelligence
p1660
F0.0004420866489832007
sVCPM
p1661
F0.0004420866489832007
sVEMEAC-NL Dutch Drug Prices Database(KNMP Taxe)
p1662
F0.0004420866489832007
sVMRL Basic Research Electronic Laboratory Data Management
p1663
F0.0004420866489832007
sVPRISM Warehouse Barcode Print & Scan System(lotscan)
p1664
F0.0004420866489832007
sVHealth Services Case Management System
p1665
F0.0004420866489832007
sVDrug Metabolism Pharmacokinetic Data Repository
p1666
F0.0004420866489832007
sVBart - Application
p1667
F0.0004420866489832007
sVETL_INFORMATICA_MCC_TOP_GEAR_GHH
p1668
F0.0004420866489832007
sVISS_COMET_SCM_EMEA(BankStatement,ProcessOrder,DeliveryOrderSubscriber,DATA3BatchStatus)
p1669
F0.0004420866489832007
sVSampleability Operational Data Store
p1670
F0.0004420866489832007
sVISS_TRANSIT_PASXSiteService_LasPiedras
p1671
F0.0004420866489832007
sVRT REPORTS Ballydine
p1672
F0.0004420866489832007
sVMRL Pipeline Pilot
p1673
F0.0004420866489832007
sVMiddleware/TIBCO - Merck Red Project
p1674
F0.0004420866489832007
sVNext Generation Laboratory Information Management System Decision Support System
p1675
F0.0004420866489832007
sVSubsidiary Profile Database and Web Application
p1676
F0.0004420866489832007
sVLA-Sungard Integrity Cash Management
p1677
F0.0004420866489832007
sVBI_Cognos_CORP Conflict of Interest
p1678
F0.0004420866489832007
sVbrinny - zyimage(brinny - zyimage)
p1679
F0.0004420866489832007
sVGMMS project (include 3 below): HR Feed daily, Org full monthly, exrates full monthly
p1680
F0.0004420866489832007
sVEMEAC-GBR-Promotional Items Withdrawals
p1681
F0.0004420866489832007
sVOSS-PO stammenkollektie-pas(pas-spl)
p1682
F0.0004420866489832007
sVAspen Stratech SPS
p1683
F0.0004420866489832007
sVGlobal Customer Connect CRM(globalcc)
p1684
F0.0004420866489832007
sVAP-AUS Chris Payroll System(payaus)
p1685
F0.0004420866489832007
sVField Sales Customer Finder Website(custsfa)
p1686
F0.0004420866489832007
sVAP-MSD Assist
p1687
F0.0004420866489832007
sVComet FKIT and FWA
p1688
F0.0004420866489832007
sVBI_Cognos_LAHH - ITLS_BR_Finance
p1689
F0.0004420866489832007
sVEMEAC-GBR-Improving Ophthalmic Practice(IOP) Northwest Web Site
p1690
F0.0004420866489832007
sVMMD Global Supply Path
p1691
F0.0004420866489832007
sVP6-Primavera
p1692
F0.0004420866489832007
sVAVEVA AREA BASED AUTOMATIC DRAWING PRODUCTION
p1693
F0.0004420866489832007
sVHost Based Intrusion Detection
p1694
F0.0004420866489832007
sVJDE Inventory(bdjdeinv)
p1695
F0.0004420866489832007
sVUSHH - Customer Master Internal Customer Reports
p1696
F0.0004420866489832007
sVMerck Consumer Care Information Management Data Warehouse
p1697
F0.0004420866489832007
sVInformatica - EMEA A&XF - Morocco
p1698
F0.0004420866489832007
sVNorway
p1699
F0.0004420866489832007
sVETL Finance - JPS
p1700
F0.0004420866489832007
sVCOMPOSITE_Spotfire_Informatica_12-Step Process_MMD
p1701
F0.0004420866489832007
sVSPOTFIRE APAC Infrastructure
p1702
F0.0004420866489832007
sVJBOSS Shared Service
p1703
F0.0004420866489832007
sVCOMPOSITE_BRIDGES_MMD
p1704
F0.0004420866489832007
sVETL_SnA Belgium_GHH
p1705
F0.0004420866489832007
sVInfolinx
p1706
F0.0004420866489832007
sVCorp - Legal Ad Hoc Reporting
p1707
F0.0004420866489832007
sVGHH - MYBI
p1708
F0.0004420866489832007
sVSft Axway
p1709
F0.0004420866489832007
sVCS Release Global
p1710
F0.0004420866489832007
sVVideo Surveillance System-Unterschleissen, Germany
p1711
F0.0004420866489832007
sVEMEAC-UK IFP2000
p1712
F0.0004420866489832007
sVBI_Cognos_HHE_SNA_ZA_SAL
p1713
F0.0004420866489832007
sVMexico Sales Force Structure Support
p1714
F0.0004420866489832007
sVSPSS Advanced Statistics
p1715
F0.0004420866489832007
sVETL_INFORMATICA_Third Party Due Diligence
p1716
F0.0004420866489832007
sVMMD End-to-End Cycle Time Reporting
p1717
F0.0004420866489832007
sVINJURY ILLNESS DATABASE
p1718
F0.0004420866489832007
sVIMAX
p1719
F0.0004420866489832007
sVSampleInventoryControl
p1720
F0.0004420866489832007
sVDPS Site Sourcing Application
p1721
F0.0004420866489832007
sVExcel Tool
p1722
F0.0004420866489832007
sVICD Intervet Chemicals Directory
p1723
F0.0004420866489832007
sVISS_COMET_OTC_GTSExpImp_Inbound
p1724
F0.0004420866489832007
sVBI_China_IMS_Detail_Report
p1725
F0.0004420866489832007
sVPK Report System
p1726
F0.0004420866489832007
sVLAHH Ventas
p1727
F0.0004420866489832007
sVGlobal Competitive Intelligence
p1728
F0.0004420866489832007
sVPreview Draft Site
p1729
F0.0004420866489832007
sVBrinny-pemac(bricpmc)
p1730
F0.0004420866489832007
sVuk sphere
p1731
F0.0004420866489832007
sVGlobal Market View
p1732
F0.0004420866489832007
sVForeign Policy Curruption Act
p1733
F0.0008841732979664014
sVGHH - APCubed - India
p1734
F0.0004420866489832007
sVMerck Online Field Resource Ordering System
p1735
F0.0004420866489832007
sVAmegaview freezer monitoring system in Kenilworth for BioProcess Non-GLP
p1736
F0.0004420866489832007
sVTeam Site Internet Content Management by Interwoven
p1737
F0.0004420866489832007
sVOffice of Foreign Assets Compliance Search Tool
p1738
F0.0004420866489832007
sVSPOTFIRE - SBS DPO Analytics
p1739
F0.0004420866489832007
sVETL_BI_China_Expense_Audit_Report
p1740
F0.0004420866489832007
sVAP-JPN-Clinical Seminar-SLIM
p1741
F0.0004420866489832007
sVDictionary Management and Reportability
p1742
F0.0004420866489832007
sVFARAO (PAO) and "NAW" (FDH)
p1743
F0.0004420866489832007
sVSPOTFIRE - Spotfire Demonstrations
p1744
F0.0004420866489832007
sVIReview
p1745
F0.0004420866489832007
sVLaboratory Execution Analysis
p1746
F0.0004420866489832007
sVMDS
p1747
F0.0004420866489832007
sVCustomer Communication and Support Application
p1748
F0.0004420866489832007
sVEMEAC-ESP-SIMA-Medical Information System
p1749
F0.0004420866489832007
sVCrop Product Donations
p1750
F0.0004420866489832007
sVWorkshare Professional
p1751
F0.0004420866489832007
sVGlobal Review
p1752
F0.0004420866489832007
sVTIBCO_COMET-G4_SCM_Data3_Menuma_MMD
p1753
F0.0004420866489832007
sVLA-MEX-Cambios A Precios
p1754
F0.0004420866489832007
sVwinnonmix
p1755
F0.0004420866489832007
sViri syndicated market data
p1756
F0.0004420866489832007
sVETL_Informatica_Sample_Logstics_Trade Automation_MRL
p1757
F0.0004420866489832007
sVETL_CMR8.0_GHH
p1758
F0.0004420866489832007
sVCOMET HTR Point to Point -Dec
p1759
F0.0004420866489832007
sVTIBCO_COMET-Integrichain_GlobalPub_GHH
p1760
F0.0004420866489832007
sVcanada dpss
p1761
F0.0004420866489832007
sVTIBCO - DEC14_FBM_GKO_JEPublisher
p1762
F0.0004420866489832007
sVAnti-Bribery and Corruption(abc)
p1763
F0.0004420866489832007
sVSG Antares GTS PROD
p1764
F0.0004420866489832007
sVCOMET Indicative Publisher & CAPS
p1765
F0.0004420866489832007
sVHCV Tracker
p1766
F0.0004420866489832007
sVsrl (sas reporting for lims)
p1767
F0.0004420866489832007
sVSQL Server 2005 Enterprise
p1768
F0.0004420866489832007
sVEMEAC-ITA-Customer Relationship Management
p1769
F0.0004420866489832007
sVLAHH Viajes
p1770
F0.0004420866489832007
sVcomet_sap_bi_std_cost_sts
p1771
F0.0004420866489832007
sVGlobal Merck Manufacturing System-Las Piedras
p1772
F0.0004420866489832007
sVMARS
p1773
F0.0004420866489832007
sVMRL Integrated Document Architecture and Services
p1774
F0.0004420866489832007
sVEmployee Time Scheduling System
p1775
F0.0004420866489832007
sVSafety Assessment Toxicology and Necropsy System
p1776
F0.0004420866489832007
sVCOGNOS - HHE - SALDAI.FI
p1777
F0.0004420866489832007
sVSciFinder
p1778
F0.0004420866489832007
sVAlignment Operational Data Store(aods)
p1779
F0.0004420866489832007
sVAH Controlled Document System (CDS)
p1780
F0.0004420866489832007
sVPartner ELN
p1781
F0.0004420866489832007
sVAHM Feeds
p1782
F0.0004420866489832007
sVRahway Chemical Management System
p1783
F0.0004420866489832007
sVGenevadis
p1784
F0.0004420866489832007
sVSweden Product
p1785
F0.0004420866489832007
sVdocumentum webtop services-rea
p1786
F0.0004420866489832007
sVMerck Records Management System
p1787
F0.0004420866489832007
sVDrug Metabolism Radio-Labeled Compound LIMS
p1788
F0.0004420866489832007
sVEMEAC-ITA-Promotion Sample Sales
p1789
F0.0004420866489832007
sVLA-ARG Travel and Event Tracking System Intranet Website
p1790
F0.0004420866489832007
sVInterplX Expense Querying Tool
p1791
F0.0004420866489832007
sVCAS Application
p1792
F0.0004420866489832007
sVMVD Business Analysis Systems
p1793
F0.0004420866489832007
sVMerck Aviation Web Site
p1794
F0.0004420866489832007
sVHHE_MCC_EMEAC
p1795
F0.0004420866489832007
sVMilieu Database-Haarlem
p1796
F0.0004420866489832007
sVTRACKWISE TWRY SYSTEM
p1797
F0.0004420866489832007
sVRegulatory Inspection System
p1798
F0.0004420866489832007
sVsim
p1799
F0.0004420866489832007
sVcomet_sap_bi_oasis_fbm
p1800
F0.0004420866489832007
sVEMEAC-GBR-Validation
p1801
F0.0004420866489832007
sVETL_TIBCO_Sesame_GHH
p1802
F0.0004420866489832007
sVLAHH BILA Mexico
p1803
F0.0004420866489832007
sVEMEAC-ITA-CMS Inbound Customer Connect
p1804
F0.0004420866489832007
sVOSS-PO Squash
p1805
F0.0004420866489832007
sViMAP Canada
p1806
F0.0004420866489832007
sVShare point Integration
p1807
F0.0004420866489832007
sVPDF Generator
p1808
F0.0004420866489832007
sVMRL - Enterprise Resource Planning
p1809
F0.0004420866489832007
sVTIBCO_COMET-Integrichain_Sub_GHH
p1810
F0.0004420866489832007
sVSAP Comet, SAP Applications worldwide for Legacy Schering\u000a\u000a\u000aGroup 5, HANA, BOBJ, Serialization
p1811
F0.0004420866489832007
sVMatter Management System
p1812
F0.0004420866489832007
sVClinical Drug Metabolism Specimen Label Requests
p1813
F0.0004420866489832007
sVVertex - Sales Tax Returns Q Series
p1814
F0.0004420866489832007
sVADP Tax Services
p1815
F0.0004420866489832007
sVProsoft
p1816
F0.0004420866489832007
sVAutomated Library Design
p1817
F0.0004420866489832007
sVCOGNOS - HHE - SALREG.AT
p1818
F0.0004420866489832007
sVMSD Singapore-e-Incentive System
p1819
F0.0008841732979664014
sVAS/400 interfaces for CRM system
p1820
F0.0004420866489832007
sVISS_COMET_OTC_GTSExpImp_Outbound
p1821
F0.0004420866489832007
sVEMEAC-BI-Sales & Activity Dashboard
p1822
F0.0004420866489832007
sVSymx draw
p1823
F0.0004420866489832007
sVPERTMASTER
p1824
F0.0004420866489832007
sVLA-PER Travel and Event Tracking System Intranet
p1825
F0.0004420866489832007
sVCOGNOS - MSD Korea
p1826
F0.0004420866489832007
sVSPOTFIRE - EIM Platform Engineering
p1827
F0.0004420866489832007
sVClintrial
p1828
F0.0004420866489832007
sVISS_COMET_OTC10
p1829
F0.0004420866489832007
sVuk paybase
p1830
F0.0004420866489832007
sVCMM Lookup Info Tool
p1831
F0.0004420866489832007
sVMMD Wilson Maintenance Management System Archive
p1832
F0.0004420866489832007
sVQuality Assurance Travel Database
p1833
F0.0004420866489832007
sVNew Worldwide Adverse Experience System Product Family
p1834
F0.0004420866489832007
sVMSA GEAC Accounts Payable, Purchasing, Fixed Assets & Project Tracking
p1835
F0.0004420866489832007
sVMILKEY-WAY_Medical Information for safety by Lateral communication to MR and the KEY WAY(m-way)
p1836
F0.0004420866489832007
sVBI_Cognos_MYBI_DSM_Simplication_GHH
p1837
F0.0004420866489832007
sVTIBCO_ NONCOMET_RemedyApproveIT
p1838
F0.0004420866489832007
sVLA-PRI-Job Jacket ID Request System-MSD Carolina
p1839
F0.0004420866489832007
sVTIBCO_COMET-G4_OTC_3PL_APHUB_MMD
p1840
F0.0004420866489832007
sVDisplay Forecasting
p1841
F0.0004420866489832007
sVFIRST
p1842
F0.0004420866489832007
sVTIBCO_ABC_GCM_EICC
p1843
F0.0004420866489832007
sVeContracts Internet Application
p1844
F0.0004420866489832007
sVManaged Markets Forecasting
p1845
F0.0004420866489832007
sVTIBCO_COMET-G4_STS_PO_Heist_MMD
p1846
F0.0004420866489832007
sVCOMET SAP PI: G3B - OTC, SCM - Sentipharm, BAM - COMET (Interfaces: DOTC53,DOTC52,DOTC39,DSCM250,DSCM320,DSCM250)
p1847
F0.0004420866489832007
sVGHH - COSMOS
p1848
F0.0004420866489832007
sVclinical trial simulator (ts)
p1849
F0.0004420866489832007
sVArtwork Management System Blue- Schawk Systems
p1850
F0.0004420866489832007
sVLA-BRA Classificador de Riscos
p1851
F0.0004420866489832007
sVPharmaceutical R&D Laboratory Information Management System Client/Server
p1852
F0.0004420866489832007
sVWorksite (formerly iManage)
p1853
F0.0004420866489832007
sVPreven
p1854
F0.0004420866489832007
sVClinical Development Laboratory Information Management System
p1855
F0.0004420866489832007
sVCMO Web
p1856
F0.0004420866489832007
sVGHH - BDR
p1857
F0.0004420866489832007
sVSPOTFIRE - OPA
p1858
F0.0004420866489832007
sVDatastream 7i(CMMS)
p1859
F0.0004420866489832007
sVStability DSS reporting application
p1860
F0.0004420866489832007
sVOMDB Product Suite
p1861
F0.0004420866489832007
sVGraphpad Prism
p1862
F0.0004420866489832007
sVDrug Metabolism InVitro Laboratory Information Management System
p1863
F0.0004420866489832007
sVPKS
p1864
F0.0004420866489832007
sVMerck Forms
p1865
F0.0004420866489832007
sVproduct reporting application pra-zap
p1866
F0.0004420866489832007
sVAP-Health Assist(aphltas)
p1867
F0.0004420866489832007
sVRegulatory Inspection System-Carlow
p1868
F0.0004420866489832007
sVSurveillance and Trend Analysis
p1869
F0.0004420866489832007
sVAP-JPN exSPKK DWH of Field Sales
p1870
F0.0004420866489832007
sVAnalysis Batch
p1871
F0.0004420866489832007
sVActivityBase
p1872
F0.001326259946949602
sVSafety Assessment Genetic Toxicology Computer System - Database
p1873
F0.0004420866489832007
sVETL_HHE_SNA_EED_Ukraine_GHH
p1874
F0.0004420866489832007
sVCommon Web Platform
p1875
F0.0004420866489832007
sVBrinny-Batch Allocation system(bribas)
p1876
F0.0004420866489832007
sVClassBase (EHS)
p1877
F0.0004420866489832007
sVCTMSService
p1878
F0.0004420866489832007
sVShebs
p1879
F0.0004420866489832007
sVCustomer Marketing
p1880
F0.0004420866489832007
sVAP-JPN-Promotional Material
p1881
F0.0004420866489832007
sVBulgaria
p1882
F0.0004420866489832007
sVSemaphore Platform
p1883
F0.0004420866489832007
sVOSS-PO SPI-index
p1884
F0.0004420866489832007
sVNetwork Links
p1885
F0.0004420866489832007
sVChemcart
p1886
F0.0004420866489832007
sVICPS-Interaffiliate pricing
p1887
F0.0004420866489832007
sVBiological Inventory System BIS
p1888
F0.0004420866489832007
sVISS_COMET_OTC9
p1889
F0.0004420866489832007
sVISS_COMET_OTC8
p1890
F0.0004420866489832007
sVExternal Portal Framework
p1891
F0.0004420866489832007
sVISS_COMET_OTC3
p1892
F0.0004420866489832007
sVFinancial Activity Analysis
p1893
F0.0004420866489832007
sVISS_COMET_OTC1
p1894
F0.0004420866489832007
sVCOMPOSITE_OSTIC_SAM_GHH
p1895
F0.0004420866489832007
sVISS_COMET_OTC7
p1896
F0.0004420866489832007
sVISS_COMET_OTC6
p1897
F0.0004420866489832007
sVISS_COMET_OTC5
p1898
F0.0004420866489832007
sVISS_COMET_OTC4
p1899
F0.0004420866489832007
sVapex(apex)
p1900
F0.0004420866489832007
sVSYSTEM SECURITY
p1901
F0.0004420866489832007
sVOffice of Foreign Asset Control
p1902
F0.0004420866489832007
sVCOGNOS - HHE - SNA.BG
p1903
F0.0004420866489832007
sVSAP Comet, SAP Applications worldwide for Legacy Schering
p1904
F0.0004420866489832007
sVOSS-PO UVR Uitvalregistratie
p1905
F0.0004420866489832007
sVISS_COMET_FBM_EMEA(ProductCostInterface,JDE_JEPublisher,JournalEntryPub,GroupValueFeed,PSOFT_Payroll)
p1906
F0.0004420866489832007
sVLab Analytics Reporting
p1907
F0.0004420866489832007
sVUSHH - MAX Reporting
p1908
F0.0004420866489832007
sVMSD Infocenter
p1909
F0.0004420866489832007
sVCOGNOS - HHE - SNA.HU
p1910
F0.0004420866489832007
sVBio-Marker
p1911
F0.0004420866489832007
sVGlobal Professional Information Request Management System
p1912
F0.0004420866489832007
sVMRL LKR
p1913
F0.0004420866489832007
sVSOP Management System
p1914
F0.0004420866489832007
sVSPOTFIRE - MMD Strategy and Integration
p1915
F0.0004420866489832007
sVCustomer Account Team Administration Tool
p1916
F0.0004420866489832007
sVMerck Consumer Care Information Management Performance Management
p1917
F0.0004420866489832007
sVBrinny-Months of Supply(brimos)
p1918
F0.0004420866489832007
sVEzetrol.co.uk
p1919
F0.0004420866489832007
sVCIMS Empty Bottles
p1920
F0.0004420866489832007
sVBI_Cognos_MCC - Top Gear BI_MCC
p1921
F0.0004420866489832007
sVDistribution Systems Query Database
p1922
F0.0004420866489832007
sVjira-pki
p1923
F0.0004420866489832007
sVDocument URL Redirection Tool
p1924
F0.0004420866489832007
sVAccelrys Draw
p1925
F0.0004420866489832007
sVCanada warehouse management system
p1926
F0.0004420866489832007
sVMiscellaneous Cash Receipts
p1927
F0.0004420866489832007
sVIntegrated Medical Education (iMED)
p1928
F0.0004420866489832007
sVETL_CognosBI_Reg_JAPAN_GHH
p1929
F0.0004420866489832007
sVPerformance Master Repository
p1930
F0.0004420866489832007
sVEmployee Resource Groups
p1931
F0.0004420866489832007
sVMerck Canada Intranet
p1932
F0.0004420866489832007
sVMRL_PRD_LIMS
p1933
F0.0004420866489832007
sVCIMS
p1934
F0.0004420866489832007
sVSARGen
p1935
F0.0004420866489832007
sVcanada spies - local
p1936
F0.0004420866489832007
sVWells Fargo
p1937
F0.0004420866489832007
sVETL_SnA_South Africa_GHH
p1938
F0.0004420866489832007
sVProtocol Generator Application
p1939
F0.0004420866489832007
sVEMEAC-New Gesicon, esma-ngesicon
p1940
F0.0004420866489832007
sVMMD - PRO
p1941
F0.0004420866489832007
sVJD Edwards-Italy
p1942
F0.0004420866489832007
sVMISEERS
p1943
F0.0004420866489832007
sVETL_BI_China_Call/China_Call_Cube
p1944
F0.0004420866489832007
sVDC Safe Rx Reporting System
p1945
F0.0004420866489832007
sVQuosa Virtual Library
p1946
F0.0004420866489832007
sVAccelrys Chemical Registration (ChemReg)
p1947
F0.0004420866489832007
sVComputerized Calibration Management System
p1948
F0.0004420866489832007
sVPackage Tracking System Application (PTS).
p1949
F0.0004420866489832007
sVLidding Foil Robot for IPT Blister in Haarlem
p1950
F0.0004420866489832007
sVAtR Workflow
p1951
F0.0004420866489832007
sVINFORM Integration Repository
p1952
F0.0004420866489832007
sVR9Metrics
p1953
F0.0004420866489832007
sVInternational Tender System(its)
p1954
F0.0004420866489832007
sVBudget & Expense Tracking System
p1955
F0.0004420866489832007
sVElearning management system (Tibco)
p1956
F0.0004420866489832007
sVError Handler
p1957
F0.0004420866489832007
sVETL_China_EDI
p1958
F0.0004420866489832007
sVSnA Turkey Sales
p1959
F0.0004420866489832007
sVeSOPs
p1960
F0.0004420866489832007
sVuk evolve
p1961
F0.0004420866489832007
sVSPOTFIRE - DKM
p1962
F0.0004420866489832007
sVAP-JPN Patient Management
p1963
F0.0004420866489832007
sVETL_Informatica_Spend_Analyzer_AH
p1964
F0.0004420866489832007
sVMMD Handheld Data Entry to LIMS System
p1965
F0.0004420866489832007
sVComposite_MyWork_EICC
p1966
F0.0004420866489832007
sVBI_Cognos_Optim Archive_CLSS
p1967
F0.0004420866489832007
sVLA-BRA Sponsorship Control
p1968
F0.0004420866489832007
sVCommon Adjustment Module
p1969
F0.0004420866489832007
sVCustomer Connect
p1970
F0.0004420866489832007
sVPI Data Historian Rahway
p1971
F0.0004420866489832007
sVLA-Check Bank
p1972
F0.0004420866489832007
sVcomet_sap_bi_order_to_cash
p1973
F0.0004420866489832007
sVGlobal Marketing Services Merck Sales & Operations Reporting
p1974
F0.0004420866489832007
sVpharmacokinetics/biostatistics interface
p1975
F0.0004420866489832007
sVMRL Records Retention and Management System
p1976
F0.0004420866489832007
sVMaximo 7.5
p1977
F0.0004420866489832007
sVSpiglass
p1978
F0.0004420866489832007
sVBI_China_Performance_Tracker_Risk_prevention_tool
p1979
F0.0004420866489832007
sVKnowledge Repository
p1980
F0.0004420866489832007
sVA&XF Algeria
p1981
F0.0004420866489832007
sVOneView
p1982
F0.0004420866489832007
sVThe Management Console Generation 2
p1983
F0.0004420866489832007
sVAP-TWN TW Data Warehouse System
p1984
F0.0004420866489832007
sVCOMET- HtR NA Payroll
p1985
F0.0004420866489832007
sVWATS Report
p1986
F0.0004420866489832007
sVUSHH Time Information Management System
p1987
F0.0004420866489832007
sVETL_FCPA_ABC_Composite_GHH
p1988
F0.0004420866489832007
sVDocuProof
p1989
F0.0004420866489832007
sVFixed Assests
p1990
F0.0004420866489832007
sVJD Edwards--China
p1991
F0.0004420866489832007
sVMerck Adverse Event Reporting
p1992
F0.0004420866489832007
sVmeetings.merck.com
p1993
F0.0004420866489832007
sVFDA
p1994
F0.0004420866489832007
sVmyMouse Website
p1995
F0.0004420866489832007
sVInformatica - EMEA S&A - Austria
p1996
F0.0004420866489832007
sVMMD Web Portal Reporting
p1997
F0.0004420866489832007
sVBrinny-Datathread(bricdata)
p1998
F0.0004420866489832007
sVETL_BI_China_Weekly_Sales_Report
p1999
F0.0004420866489832007
sVPI Divisional North America
p2000
F0.0004420866489832007
sVMerckVaccines.com
p2001
F0.0004420866489832007
sVPayroll Check Reconciliation System
p2002
F0.0004420866489832007
sVseescan
p2003
F0.0004420866489832007
sVAurora
p2004
F0.0004420866489832007
sVUSHH Customer Contract Management Application Launcher
p2005
F0.0004420866489832007
sVGlobal Market Access Information System
p2006
F0.0004420866489832007
sVSPOTFIRE - Global Real Estate Portfolio
p2007
F0.0004420866489832007
sVC3i ESA Feed to MRL SD
p2008
F0.0004420866489832007
sVAntibody Workbench
p2009
F0.0004420866489832007
sVEMEAC-GBR-IRC Information Request System
p2010
F0.0004420866489832007
sVTrademark Alternatives and Linguistic Survey System
p2011
F0.0004420866489832007
sVEMEA A&XF -Saudi Arabia
p2012
F0.0004420866489832007
sVApache Web Server
p2013
F0.0004420866489832007
sVUSHH - Customer Master Operational Reports
p2014
F0.0004420866489832007
sVMy Samples
p2015
F0.0004420866489832007
sVETL_BI_GOAD
p2016
F0.0004420866489832007
sVDrug Model Explorer
p2017
F0.0004420866489832007
sVSHOP FLOOR DOCUMENTATION
p2018
F0.0004420866489832007
sVEMEAC-GRC-CYCOM Promotional
p2019
F0.0004420866489832007
sVWorldwide Atypical Tracking System APP
p2020
F0.0004420866489832007
sVETL_GSIP_ISE_MRL
p2021
F0.0004420866489832007
sVBEA CDB JMS Service
p2022
F0.0004420866489832007
sVCorp - Legal Reporting Data Warehouse
p2023
F0.0004420866489832007
sVEnterprise Project and Portfolio Management
p2024
F0.0004420866489832007
sVAP-KOR Corporate Internet Website(korcorp)
p2025
F0.0004420866489832007
sVPQ Systems License Manager
p2026
F0.0004420866489832007
sVCOMET_BI_LEAD_TIME_REPORTING(SCM)
p2027
F0.0004420866489832007
sVGet-a-Code Intranet Website
p2028
F0.0004420866489832007
sVDPS Logistics System
p2029
F0.0004420866489832007
sVOSS/BT - PFUP
p2030
F0.0004420866489832007
sVuk intranet
p2031
F0.0004420866489832007
sVExternal Learning Management System Provisioning
p2032
F0.0004420866489832007
sVHTS Mobile
p2033
F0.0004420866489832007
sVUS Javelin(javelin)
p2034
F0.0004420866489832007
sVUSHH - ALIGN BPM
p2035
F0.0004420866489832007
sVISS_COMET_SCM_EMEA(PEMH_DATA3GIGRPub,SITE_Services,TransferOrder,LIMSSiteServiceHaarlem)
p2036
F0.0004420866489832007
sVflexible work arrangement tool
p2037
F0.0004420866489832007
sVSchneider StruxureWare Power Monitoring Software (SPM)
p2038
F0.0004420866489832007
sVTechnical Knowledge for Drug Product
p2039
F0.0004420866489832007
sVETL_INFORMATICA_ Merck Vaccines Contract Administrator Portal
p2040
F0.0004420866489832007
sVKM Portals
p2041
F0.0004420866489832007
sVETL_APCubed - TH_Opeational_Activities_GHH
p2042
F0.0004420866489832007
sVc3
p2043
F0.0004420866489832007
sVTIBCO_COMET-LIMS_Durham_MMD
p2044
F0.0004420866489832007
sVEnterprise Web Infrastructure Web Content Management System
p2045
F0.0004420866489832007
sVEMEAC-BI-GeneSys Ad-Hoc Reporting
p2046
F0.0004420866489832007
sVverisign (cvs store sales data)
p2047
F0.0004420866489832007
sVInternet Product Pages Data Operations and Administration Processes Web Application
p2048
F0.0004420866489832007
sVEtor
p2049
F0.0004420866489832007
sVUSHH - PSR
p2050
F0.0004420866489832007
sVBPM Business Meetings over Meals Tracking
p2051
F0.0004420866489832007
sVMerck?\u0322\ufffd\ufffds Automated Reconciliation System
p2052
F0.0004420866489832007
sVPortfolio Rationalization System
p2053
F0.0004420866489832007
sVTest Request Application
p2054
F0.0004420866489832007
sVSPOTFIRE - EIM Global Logistics - Development
p2055
F0.0004420866489832007
sVRegistration & Results Posting
p2056
F0.0004420866489832007
sVETL_EEMS_GHH
p2057
F0.0004420866489832007
sVSwords-GRAMS AI Portable NIR
p2058
F0.0004420866489832007
sVCOMMET DHTR1079
p2059
F0.0004420866489832007
sVBI_Spotfire_Apollo LIMS
p2060
F0.0004420866489832007
sVAP-TWN-Salary on Line(aptwnsol)
p2061
F0.0004420866489832007
sVMRL Analytics Platform
p2062
F0.0004420866489832007
sVSOM
p2063
F0.0004420866489832007
sVLA-Gov
p2064
F0.0004420866489832007
sVnielsen nitro (consumer market data)
p2065
F0.0004420866489832007
sVGHH - MDM_US_PM
p2066
F0.0004420866489832007
sVETL_BI_Global Indirect Tax (GIT)_CORP
p2067
F0.0004420866489832007
sVBI_Cognos_GHH_MVCAP
p2068
F0.0004420866489832007
sVHHE_PECT_EMEAC
p2069
F0.0004420866489832007
sVSeparation Management System
p2070
F0.0004420866489832007
sVCA Records Management
p2071
F0.0004420866489832007
sVAP-TWN-Territory Assignment and Sales Budget System
p2072
F0.0004420866489832007
sVIRI Impact
p2073
F0.0004420866489832007
sVIntegrated Workplace Mgmt Sys
p2074
F0.0004420866489832007
sVCDAS
p2075
F0.0004420866489832007
sVRecipe Management System II
p2076
F0.0004420866489832007
sVSP Spend tracking
p2077
F0.0004420866489832007
sVPublishRedemptionDataService\ufffd\ufffd\ufffd\ufffd
p2078
F0.0004420866489832007
sVCognos Infrastructure
p2079
F0.0004420866489832007
sVRegulatory Inspection System-Elkton
p2080
F0.0004420866489832007
sVHuman Resources Security Application
p2081
F0.0004420866489832007
sVSales Load
p2082
F0.0004420866489832007
sVBrinny-J.D.Edwards(bricjde)
p2083
F0.0004420866489832007
sVMiddleware/TIBCO-Tymetrics
p2084
F0.0004420866489832007
sVPolicy-Merck
p2085
F0.0004420866489832007
sVBI_Cognos_LAHH - ITLS_BR_Samples
p2086
F0.0004420866489832007
sVBI_China_Inmarket_sales_Detail_Report
p2087
F0.0004420866489832007
sVReaxys
p2088
F0.0004420866489832007
sVJDE to SAP CrossReference Tool
p2089
F0.0004420866489832007
sVMyWork
p2090
F0.0004420866489832007
sVETL_BI_China_Commercial_Management_Report
p2091
F0.0004420866489832007
sVJDOX-document management system for Japanese regulatory documents(jdox2)
p2092
F0.0004420866489832007
sVAS400 job scheduler
p2093
F0.0004420866489832007
sVMRL Grants and Consultants System
p2094
F0.0004420866489832007
sVHHE ZABIS
p2095
F0.0004420866489832007
sVMatching Gifts - AR63
p2096
F0.0004420866489832007
sVMexico-Novatek international Environmental Monitoring
p2097
F0.0004420866489832007
sVimplanon training tracking system (itts)
p2098
F0.0004420866489832007
sVSPOTFIRE - China CI Tracker
p2099
F0.0004420866489832007
sVMerck Frosst Exploring Data & Generate Excellence(mfedge) using Cognos software
p2100
F0.0004420866489832007
sVOneSource Global access
p2101
F0.0004420866489832007
sVMSF applications
p2102
F0.0004420866489832007
sVAlignment Master Plus(amplus)
p2103
F0.0004420866489832007
sVTIBCO-G3-B_STS_SCM_HH_MMD
p2104
F0.0004420866489832007
sVComposite_CODS_GHH
p2105
F0.0004420866489832007
sVGeneral Ledger Object Account Balance Extraction System
p2106
F0.0004420866489832007
sVBI_Spotfire_GHH_Customer_Centricity_Mexico
p2107
F0.0004420866489832007
sVPLANNING
p2108
F0.0004420866489832007
sVLSP SAP PI: G3B - SCM - Sentipharm  -COMET, MMD (Interfaces : DSCM595,DSCM596,DSCM597.DSCM473)
p2109
F0.0004420866489832007
sVCOMPOSITE_LMS_CORP
p2110
F0.0004420866489832007
sVCransoft reporting
p2111
F0.0004420866489832007
sVPROMODEL OPTIMIZATION SUITE
p2112
F0.0004420866489832007
sVEndoscan V LAL Reader
p2113
F0.0004420866489832007
sVEMEAC-ESP OCS
p2114
F0.0004420866489832007
sVApptio
p2115
F0.0004420866489832007
sVSQS
p2116
F0.0004420866489832007
sVBENTLEY REDLINE
p2117
F0.0004420866489832007
sVWORKSPACE INFORMATION DATABASE
p2118
F0.0004420866489832007
sVPitch Charts Haarlem
p2119
F0.0004420866489832007
sVMacro-Drying Batch Sheet(bdmacdry)
p2120
F0.0004420866489832007
sVEMEAC-GBR-Desktop Report(SPSS Dimensions)
p2121
F0.0004420866489832007
sVuk ses request
p2122
F0.0004420866489832007
sVAutomatic Labelling System for SAP/COMET (ALS)
p2123
F0.0004420866489832007
sVStudy Optimizer
p2124
F0.0004420866489832007
sVApollo LIMS
p2125
F0.0004420866489832007
sVMiddleware/TIBCO - Enginuity Release( ISS_MCC_FBOM,ISS_CHC_GLBL_PUB ,ISS_MCC_ENGN_SUB )
p2126
F0.0004420866489832007
sVSmith Barney Grant file generation
p2127
F0.0004420866489832007
sVIHQ Field Alignments
p2128
F0.0004420866489832007
sVMIDAS CDS Transactional
p2129
F0.0004420866489832007
sVBrazil SPE Site
p2130
F0.0004420866489832007
sVReevaluation Dating
p2131
F0.0004420866489832007
sVTIBCO_COMET_SCM_GLIMS_MMD
p2132
F0.0004420866489832007
sVMeridian
p2133
F0.0004420866489832007
sVVeeva CLM EUCAN
p2134
F0.0004420866489832007
sVHPV PPM
p2135
F0.0004420866489832007
sVCOMET 2.0B GL Accounts
p2136
F0.0004420866489832007
sVFood & Drug Administration Reporting Tool
p2137
F0.0004420866489832007
sVAHC DB Scheme
p2138
F0.0004420866489832007
sVRT REPORTS
p2139
F0.0004420866489832007
sVSmith Barney
p2140
F0.0004420866489832007
sVECKM Collaboration Platform
p2141
F0.0004420866489832007
sVEMEAC-NOR PC Medical Legal
p2142
F0.0004420866489832007
sVCustomer Master
p2143
F0.0004420866489832007
sVRNA Website
p2144
F0.0004420866489832007
sVSPOTFIRE_ETAS_FIN
p2145
F0.0004420866489832007
sVSAP_BW_MMD_SELFSERVICE_BACKEND
p2146
F0.0004420866489832007
sVEPP PRM Partner Master Enterprise Alignment & Data Integration
p2147
F0.0004420866489832007
sVGMP Material Inventory Tracking System
p2148
F0.0004420866489832007
sVSPOTFIRE - HR Talent Management
p2149
F0.0004420866489832007
sVBI_Cognos_MMD_CMS
p2150
F0.0004420866489832007
sVReference Manager
p2151
F0.0008841732979664014
sVFinance Training Information and Registration Access System Application
p2152
F0.0004420866489832007
sVCTRRP R2
p2153
F0.0004420866489832007
sVCOGNOS - HHE_SNA.AT
p2154
F0.0004420866489832007
sVGHH - Managed Care
p2155
F0.0004420866489832007
sVPRESTO GDAM
p2156
F0.0004420866489832007
sVAdvanced Documentum Transfer Services
p2157
F0.0004420866489832007
sVTIBCO Infra/Deploy
p2158
F0.0004420866489832007
sVBI_China_Talent_Retention_Tool
p2159
F0.0004420866489832007
sVPreview Draft Site-Admin
p2160
F0.0004420866489832007
sVCOGNOS - HHE - ACTIVITIES
p2161
F0.0004420866489832007
sVmyANIWIN
p2162
F0.0004420866489832007
sVFIFO Mark-up Accounting
p2163
F0.0004420866489832007
sVOSS-PO mas discoverer-ota
p2164
F0.0004420866489832007
sVAudit Classification, Tracking and Information Coordinating System
p2165
F0.0004420866489832007
sVAnalytical Natural products Sample Evaluation and reporting System
p2166
F0.0004420866489832007
sVMMD Standard Data Order Writing Replacement System
p2167
F0.0004420866489832007
sVCOMET 2.0B Manage Cost Center
p2168
F0.0004420866489832007
sVHHE_SA_SWEDEN
p2169
F0.0004420866489832007
sVAtlas-ABAP
p2170
F0.0004420866489832007
sVSPOTFIRE - HtR
p2171
F0.0004420866489832007
sVOSS-PO Archiving MMS
p2172
F0.0004420866489832007
sVAP-JPN Sales Expense Management System
p2173
F0.0004420866489832007
sVCPM Add/Update
p2174
F0.0004420866489832007
sVIProveedor
p2175
F0.0004420866489832007
sVETL_CCMS_CORP
p2176
F0.0004420866489832007
sVIndigo-DMPK High Throughput Analytical Research
p2177
F0.0004420866489832007
sVWest Point GMP Compliance Statistical Analysis Tool
p2178
F0.0004420866489832007
sVMMD Bulk Process Chemical Label Printing System
p2179
F0.0004420866489832007
sVWHHM Communities of Practice
p2180
F0.0004420866489832007
sVCIR Add/Update
p2181
F0.0004420866489832007
sVTravel profile
p2182
F0.0004420866489832007
sVCroatia
p2183
F0.0004420866489832007
sVMerck Frosst ETL
p2184
F0.0004420866489832007
sVAP-THA Business Intelligence Center Intranet Website
p2185
F0.0004420866489832007
sVETL_BI_China_Field_Force_Analysis_Tool
p2186
F0.0004420866489832007
sVETL_Informatica_CDAS_MRL
p2187
F0.0004420866489832007
sVMMD Laboratory Data Management System
p2188
F0.0004420866489832007
sVGETIT
p2189
F0.0004420866489832007
sVEMEAC-GBR-Sales Force Directory
p2190
F0.0004420866489832007
sVETL_INFORMATICA_ESA_ThemisAnalytics_GHH
p2191
F0.0004420866489832007
sVVirscidian
p2192
F0.0004420866489832007
sVCIM
p2193
F0.0004420866489832007
sVESA to MyLearning
p2194
F0.0004420866489832007
sVAP-TWN-Targeting & Classification System(Offline Data Collection Tool+Back-end Simulation Tool)
p2195
F0.0004420866489832007
sVData3
p2196
F0.0004420866489832007
sVExecutive Mail Automated System
p2197
F0.0004420866489832007
sVAVANTs database-PPD, RY and UN
p2198
F0.0004420866489832007
sVCOMET SAP PI:  G3B - OTC, SCM - New Interfaces  - COMET (Interfaces : DOTC609,DOCT610,DSCM559,DSCM560,DSCM561)
p2199
F0.0004420866489832007
sVProcess Order Trigger Tool
p2200
F0.0004420866489832007
sVEMEAC-NL Farminform Sales Reporting
p2201
F0.0004420866489832007
sVFXAll
p2202
F0.0004420866489832007
sVi-Expense(Everest)
p2203
F0.0004420866489832007
sVHHE SFSS
p2204
F0.0004420866489832007
sVETL_Informatica_sCDAS_MRL
p2205
F0.0004420866489832007
sVAppian Business Process Management - Business Meeting Over Meals
p2206
F0.0004420866489832007
sVManaged Market Forcasting (TM1)
p2207
F0.0004420866489832007
sVEMEAC-ITA-IMS Marketing and Sales
p2208
F0.0004420866489832007
sVlaboratory?\ufffd\ufffdanimal?\ufffd\ufffdresources?\ufffd\ufffdsystems: granite
p2209
F0.0004420866489832007
sVcomet_sap_bi_planit
p2210
F0.0004420866489832007
sVBI_Cognos_ETL_Integrated Data Warehouse_AP_GHH
p2211
F0.0004420866489832007
sVCOGNOS - HHE - SNA.RU
p2212
F0.0004420866489832007
sVsphinx
p2213
F0.0004420866489832007
sVAP-China Data Integration(cndi)
p2214
F0.0004420866489832007
sVIn-Vitro Pharmacology Sample Management System
p2215
F0.0004420866489832007
sVV7/V8 TOOLKIT; CELL MANAGER
p2216
F0.0004420866489832007
sVOSS-API&BT ANS
p2217
F0.0004420866489832007
sVOee Overall Equipment Effectiveness
p2218
F0.0004420866489832007
sVCOGNOS - HHE - SNA.RO
p2219
F0.0004420866489832007
sVEMEAC-ITA-Samples Monitor
p2220
F0.0004420866489832007
sVETL_Vaccines MII_Brinny_GHH
p2221
F0.0004420866489832007
sVAP-BiAP
p2222
F0.0004420866489832007
ssS'characters'
p2223
(dp2224
Vr
p2225
F0.6215738284703802
sV\u000a
p2226
F0.0017683465959328027
sV 
p2227
F0.7590627763041556
sV"
p2228
F0.0004420866489832007
sV'
p2229
F0.0017683465959328027
sV&
p2230
F0.03359858532272325
sV)
p2231
F0.10742705570291777
sV(
p2232
F0.10742705570291777
sV+
p2233
F0.001326259946949602
sV-
p2234
F0.29398762157382846
sV,
p2235
F0.02431476569407604
sV/
p2236
F0.022104332449160036
sV.
p2237
F0.027851458885941646
sV1
p2238
F0.019451812555260833
sV0
p2239
F0.017241379310344827
sV3
p2240
F0.02431476569407604
sV2
p2241
F0.019451812555260833
sV5
p2242
F0.009725906277630416
sV4
p2243
F0.019451812555260833
sV7
p2244
F0.007073386383731211
sV6
p2245
F0.007957559681697613
sV9
p2246
F0.006631299734748011
sV8
p2247
F0.005305039787798408
sV;
p2248
F0.0008841732979664014
sV:
p2249
F0.004862953138815208
sV?
p2250
F0.0022104332449160036
sVA
p2251
F0.41732979664014147
sV@
p2252
F0.0004420866489832007
sVC
p2253
F0.4244031830238727
sVB
p2254
F0.21485411140583555
sVE
p2255
F0.3629531388152078
sVD
p2256
F0.2595048629531388
sVG
p2257
F0.1768346595932803
sVF
p2258
F0.1198054818744474
sVI
p2259
F0.3704686118479222
sVH
p2260
F0.16534040671971706
sVK
p2261
F0.028735632183908046
sVJ
p2262
F0.03580901856763926
sVM
p2263
F0.4385499557913351
sVL
p2264
F0.21927497789566755
sVO
p2265
F0.22723253757736517
sVN
p2266
F0.1290893015030946
sVQ
p2267
F0.015915119363395226
sVP
p2268
F0.3770999115826702
sVS
p2269
F0.5486295313881521
sV\u0322
p2270
F0.0008841732979664014
sVU
p2271
F0.05702917771883289
sVT
p2272
F0.3191865605658709
sVW
p2273
F0.08001768346595933
sVV
p2274
F0.05526083112290009
sVY
p2275
F0.01282051282051282
sVX
p2276
F0.023872679045092837
sVZ
p2277
F0.007957559681697613
sV_
p2278
F0.16534040671971706
sVa
p2279
F0.6503094606542882
sVc
p2280
F0.46153846153846156
sVb
p2281
F0.1861184792219275
sVe
p2282
F0.6998231653404067
sVd
p2283
F0.2630415561450044
sVg
p2284
F0.3178603006189213
sVf
p2285
F0.17329796640141468
sVi
p2286
F0.6043324491600354
sVh
p2287
F0.1887709991158267
sVk
p2288
F0.134394341290893
sVj
p2289
F0.015473032714412025
sVm
p2290
F0.3912466843501326
sVl
p2291
F0.4305923961096375
sVo
p2292
F0.5941644562334217
sVn
p2293
F0.6162687886825818
sVq
p2294
F0.017241379310344827
sVp
p2295
F0.28868258178603007
sVs
p2296
F0.5455349248452697
sVR
p2297
F0.3103448275862069
sVu
p2298
F0.28824049513704686
sVt
p2299
F0.6312997347480106
sVw
p2300
F0.07382847038019452
sVv
p2301
F0.14854111405835543
sVy
p2302
F0.2988505747126437
sVx
p2303
F0.05791335101679929
sVz
p2304
F0.015915119363395226
sV\ufffd
p2305
F0.0017683465959328027
ss.