(dp0
S'values'
p1
(dp2
V
p3
F0.0618921308576481
sVAxway Automator
p4
F0.0004420866489832007
sVMRL Transferable Individual Identifier (TID)
p5
F0.0004420866489832007
sVMyLearning Mobile
p6
F0.0004420866489832007
sVVendor Management Database
p7
F0.0004420866489832007
sVEMEAC-NL Dutch Drug Prices Database(KNMP Taxe)
p8
F0.0004420866489832007
sVCARTS
p9
F0.0004420866489832007
sVSTAR
p10
F0.0004420866489832007
sVAP-PHL-MSDConnect CRM Siebel-On-Demand
p11
F0.0004420866489832007
sVMVD Customer Integrated Database Middle Tier
p12
F0.0004420866489832007
sVTiamo
p13
F0.0004420866489832007
sVThomson One Investor Relations
p14
F0.0004420866489832007
sVNG LIMS Ad Hoc Reporting Tool
p15
F0.0004420866489832007
sVApproveIT
p16
F0.0004420866489832007
sVGlobal Repository
p17
F0.003094606542882405
sVJPMogan Access
p18
F0.0004420866489832007
sVPACKAGE TRACKING SYSTEM
p19
F0.0004420866489832007
sVInput Accel
p20
F0.0008841732979664014
sVMOUSETRAP
p21
F0.0004420866489832007
sVAP-JPN Corporate Site
p22
F0.0004420866489832007
sVimmigration tracker
p23
F0.0004420866489832007
sVG5
p24
F0.0004420866489832007
sVEMEAC-CAN iDart
p25
F0.0004420866489832007
sVAP-JPN Data Warehouse
p26
F0.0004420866489832007
sVAccelrys Chem Reg
p27
F0.0004420866489832007
sVEmpower R&D
p28
F0.0004420866489832007
sVeTranslations
p29
F0.0004420866489832007
sVUSHH Customer Information Management System
p30
F0.0004420866489832007
sVMVD Miscellaneous Data Loads
p31
F0.0004420866489832007
sVMRL Pipeline Pilot
p32
F0.0004420866489832007
sVAuthority Broker
p33
F0.0004420866489832007
sVAERECON
p34
F0.0004420866489832007
sVConsumer Marketing Campaign Management System
p35
F0.0004420866489832007
sVOPAS
p36
F0.0004420866489832007
sVDis
p37
F0.0004420866489832007
sVNucleus
p38
F0.0004420866489832007
sVPayroll Dataview
p39
F0.0004420866489832007
sVExpensys
p40
F0.0004420866489832007
sVSPF
p41
F0.0004420866489832007
sVUS Customer Connect CRM
p42
F0.0004420866489832007
sVPanlabs
p43
F0.0004420866489832007
sVumbrela
p44
F0.0004420866489832007
sVi-Expense
p45
F0.0004420866489832007
sVSIGMA PLOT
p46
F0.0004420866489832007
sVFS4SP
p47
F0.0004420866489832007
sVAP-HRonDemand
p48
F0.0004420866489832007
sVGlobal Time Tracking
p49
F0.0004420866489832007
sVLA-VEN-Sales Order Retained Approval Module
p50
F0.0004420866489832007
sVINCIDENT DB
p51
F0.0004420866489832007
sVMedgate
p52
F0.0004420866489832007
sVEMEAC-GBR-Promotional Items Withdrawals
p53
F0.0004420866489832007
sVIndigo
p54
F0.0004420866489832007
sVPRADIS
p55
F0.0004420866489832007
sVPAS / RDE
p56
F0.0004420866489832007
sVAppian BPM
p57
F0.001326259946949602
sVEMEAC-PT GP400
p58
F0.0004420866489832007
sVVss
p59
F0.0004420866489832007
sVPDMS
p60
F0.0008841732979664014
sVREVIEW
p61
F0.0004420866489832007
sVAP-MSD Assist
p62
F0.0004420866489832007
sVActivityBase XE
p63
F0.0008841732979664014
sVFastlook
p64
F0.0004420866489832007
sVMapPoint
p65
F0.0004420866489832007
sVAP-THA-Price Proposal System-TPPP
p66
F0.0004420866489832007
sVS-PLUS
p67
F0.0004420866489832007
sVEMEAC-ESP-Executive Information System
p68
F0.0004420866489832007
sVAxway/SFT
p69
F0.0004420866489832007
sVFidelity
p70
F0.0004420866489832007
sVDeuce
p71
F0.0004420866489832007
sVDocumentation Archive Management
p72
F0.0008841732979664014
sVCRTK
p73
F0.0004420866489832007
sVDLC
p74
F0.001326259946949602
sVLA-Encriptacion Payments
p75
F0.0004420866489832007
sVMassLynx
p76
F0.0004420866489832007
sVProfessional Flight Management
p77
F0.0004420866489832007
sVIReview / JReview
p78
F0.0004420866489832007
sVProfitable Market Access Analytics
p79
F0.0008841732979664014
sVSemaphore
p80
F0.0004420866489832007
sVSQUASH
p81
F0.0004420866489832007
sVFast
p82
F0.0004420866489832007
sViMed Decision Support System
p83
F0.0004420866489832007
sVChemDraw Pro
p84
F0.0004420866489832007
sVLA-VEN Sales & Inventory Statistics System
p85
F0.0004420866489832007
sVNMR Reservation
p86
F0.0004420866489832007
sVLIMS - Pharm R&D - Labware
p87
F0.0008841732979664014
sVAP-Integrated Data Warehouse
p88
F0.0008841732979664014
sVAgreements
p89
F0.0004420866489832007
sVPCL
p90
F0.0004420866489832007
sVLA-ExpenSys macro
p91
F0.0004420866489832007
sVTIARAS
p92
F0.0004420866489832007
sVHR TCP Batch Process
p93
F0.0004420866489832007
sVCanada Intranet
p94
F0.0004420866489832007
sVDatathread
p95
F0.0004420866489832007
sVOpendeploy
p96
F0.0004420866489832007
sVTasker
p97
F0.0004420866489832007
sVKDKM Connotate
p98
F0.0004420866489832007
sVEMEAC-GBR-Product Shortages
p99
F0.0004420866489832007
sVInformatica
p100
F0.001326259946949602
sVEMEAC-GBR-UDG - Promotional Ordering System
p101
F0.0004420866489832007
sVLA-Spreadsheet server
p102
F0.0004420866489832007
sVMerckVaccines Contract Admin Portal
p103
F0.0004420866489832007
sVOneSource Tax Provision
p104
F0.0004420866489832007
sVEMEAC-GBR-Reportive
p105
F0.0004420866489832007
sVExpense Master
p106
F0.0004420866489832007
sVLA-ECU Event Merck System
p107
F0.0004420866489832007
sVHtR Mobile
p108
F0.0004420866489832007
sVMiscellaneous Cash Receipts
p109
F0.0004420866489832007
sVDocumentum Repository
p110
F0.0004420866489832007
sVAP-SGP-Business Information-Cognos
p111
F0.0004420866489832007
sVCommon Web Platform
p112
F0.0004420866489832007
sVWWWMERCK
p113
F0.0004420866489832007
sVHR Exit Interview Survey
p114
F0.0004420866489832007
sVCellijnen Opslag Systeem
p115
F0.0004420866489832007
sVInsight for Excel
p116
F0.0004420866489832007
sVFTP
p117
F0.0004420866489832007
sVMexico Sales Force Structure Support
p118
F0.0004420866489832007
sVETLP
p119
F0.0004420866489832007
sVEMEAC-ITA Congress Management System
p120
F0.0004420866489832007
sVAP-JPN Patient Management
p121
F0.0004420866489832007
sVMerck Intranet Enterprise Search
p122
F0.0004420866489832007
sVLFRS
p123
F0.0004420866489832007
sVRecords Management
p124
F0.0004420866489832007
sVRepliweb
p125
F0.0004420866489832007
sVFG TRACEABILITY
p126
F0.0004420866489832007
sVFinance Resources for Employee Development
p127
F0.0004420866489832007
sVE-Login
p128
F0.0004420866489832007
sVApache Tomcat
p129
F0.0008841732979664014
sVMas Discoverer
p130
F0.0004420866489832007
sVProduct Information Management System
p131
F0.0004420866489832007
sVD7i
p132
F0.0004420866489832007
sVJPS (Job Processor System)
p133
F0.0008841732979664014
sVDiapason Online
p134
F0.0004420866489832007
sVAP-China eFLOW platform
p135
F0.0004420866489832007
sVSampleInventoryControl
p136
F0.0004420866489832007
sVCisco Information Server
p137
F0.0004420866489832007
sVGlobal Trade Automation System
p138
F0.0008841732979664014
sVLA-MEX Hotel Venues
p139
F0.0004420866489832007
sVActivityMart
p140
F0.0004420866489832007
sVMRLDATA
p141
F0.0004420866489832007
sVInterface Service (Silver 8-5x5)
p142
F0.016799292661361626
sVAlignment Operational Data Store
p143
F0.0004420866489832007
sVMSD China Home Page
p144
F0.0004420866489832007
sVUvr
p145
F0.0004420866489832007
sVExcel Tool
p146
F0.0004420866489832007
sVproject registration pd api/bt
p147
F0.0004420866489832007
sVMCC Global Demand Planning
p148
F0.0004420866489832007
sVEMEAC-GBR-DSL (Decision Script Live)
p149
F0.0004420866489832007
sVAldata Apollo Planogram
p150
F0.0004420866489832007
sVChopper
p151
F0.0004420866489832007
sVeCounsel
p152
F0.0004420866489832007
sVMRPR
p153
F0.0004420866489832007
sVOther Business Application
p154
F0.0017683465959328027
sVEstimation System (ESTSYS)
p155
F0.0004420866489832007
sVDPS Project Team Space
p156
F0.0004420866489832007
sVPreview Draft Site
p157
F0.0004420866489832007
sVCEPAS
p158
F0.0004420866489832007
sVAP-JPN Medical Sample Inventory
p159
F0.0004420866489832007
sVEMEAC-GBR-Paper Based Calls
p160
F0.0004420866489832007
sVCOSC
p161
F0.0004420866489832007
sVGencord Decision Support System
p162
F0.0004420866489832007
sVLA-MEX Event Merck System
p163
F0.0004420866489832007
sVWritten Standards Intranet Website
p164
F0.0004420866489832007
sVuk sphere
p165
F0.0004420866489832007
sVARIS Business Process Management
p166
F0.0004420866489832007
sVACIS
p167
F0.0004420866489832007
sVCANTAB
p168
F0.0004420866489832007
sVNuGenesis SDMS
p169
F0.0004420866489832007
sVAspera
p170
F0.0004420866489832007
sVMRL Library
p171
F0.0004420866489832007
sVThink Cell
p172
F0.0004420866489832007
sVLVVS
p173
F0.0004420866489832007
sVDomestic General Accounting General Upload Utility
p174
F0.0004420866489832007
sVEnginuity PLM
p175
F0.0008841732979664014
sVLA-BRA-Controle de Amostras
p176
F0.0004420866489832007
sVgmpcos
p177
F0.0004420866489832007
sVSoftware Interface
p178
F0.08974358974358974
sVBridgeway - Suite Manager
p179
F0.0004420866489832007
sVNWAES
p180
F0.0004420866489832007
sVMacro - Drying Batch Sheet
p181
F0.0004420866489832007
sVEMEAC-BI-PECT Reporting
p182
F0.0004420866489832007
sVLab Notebook System
p183
F0.0004420866489832007
sViLinks
p184
F0.0004420866489832007
sVToll Free Manager
p185
F0.0004420866489832007
sVAH Product Reporting Application
p186
F0.0004420866489832007
sVLA-COL Travel and Event Tracking System Intranet Website
p187
F0.0004420866489832007
sVTOR
p188
F0.0004420866489832007
sVSPARC
p189
F0.0004420866489832007
sVSAPECC
p190
F0.0017683465959328027
sVCustomer Communication and Support Application
p191
F0.0004420866489832007
sVEMEAC-ESP-SIMA-Medical Information System
p192
F0.0004420866489832007
sVePDR
p193
F0.0004420866489832007
sVPharmaco Vigilance Tracer
p194
F0.0004420866489832007
sVDocument Management Application
p195
F0.0008841732979664014
sVGlobal Review
p196
F0.0004420866489832007
sVAP-China Customer Information Center
p197
F0.0004420866489832007
sVAP-AUS-LEX for Contract Management
p198
F0.0004420866489832007
sVPerceive AE
p199
F0.0004420866489832007
sVLA-MEX-Cambios A Precios
p200
F0.0004420866489832007
sVcsgs
p201
F0.0004420866489832007
sVFMS
p202
F0.0004420866489832007
sVStructured Authoring
p203
F0.0004420866489832007
sVEMEAC-GBR-GeneSys - UK look-up tool
p204
F0.0004420866489832007
sVGovernment Rebating System
p205
F0.0004420866489832007
sVEKB Purification
p206
F0.0004420866489832007
sVWATS
p207
F0.0008841732979664014
sVAutonomy Records Manager
p208
F0.0004420866489832007
sVFleet
p209
F0.0004420866489832007
sVSFRS
p210
F0.0004420866489832007
sVSampleability Operational Data Store
p211
F0.0004420866489832007
sVMANUFACTURING ROLLUP REPORTING
p212
F0.0004420866489832007
sVF1
p213
F0.0004420866489832007
sVEMEAC-NL DocBase
p214
F0.0004420866489832007
sVEMEAC-GBR-KPI Dashboard Reports
p215
F0.0004420866489832007
sVImba
p216
F0.0004420866489832007
sVRCM
p217
F0.0004420866489832007
sVHCV Tracker
p218
F0.0004420866489832007
sVsrl (sas reporting for lims)
p219
F0.0004420866489832007
sVEMEAC-DEU-MSD360
p220
F0.0004420866489832007
sVInventory Management System-Italy
p221
F0.0004420866489832007
sVContractor Database
p222
F0.0004420866489832007
sVDocument Numbering System
p223
F0.0004420866489832007
sVQUOSA
p224
F0.0004420866489832007
sVProduct Donation System
p225
F0.0004420866489832007
sVUnemployement Claims Interface
p226
F0.0004420866489832007
sVEMEAC-UK IFP2000
p227
F0.0004420866489832007
sVcdmPKS
p228
F0.0004420866489832007
sVLA-ECU-SQL Nomina
p229
F0.0004420866489832007
sVROADS
p230
F0.0004420866489832007
sVAP-TWN-Sample Management System
p231
F0.0004420866489832007
sVAP-JPN Wholesaler Incentive Plan Support
p232
F0.0008841732979664014
sVGenevadis
p233
F0.0004420866489832007
sVe-Event
p234
F0.0004420866489832007
sVUS-USA Merck Privacy Policy Opt-Out Request
p235
F0.0004420866489832007
sVSciFinder
p236
F0.0004420866489832007
sVEMEAC-GBR-Speaker Meeting Effectiveness
p237
F0.0004420866489832007
sVReporting Services
p238
F0.0004420866489832007
sVDb Complaint Handling
p239
F0.0004420866489832007
sVSwords CAMO Unscrambler
p240
F0.0004420866489832007
sVAP-JPN Sales Data Cleansing
p241
F0.0004420866489832007
sVLSP SOX Monitoring
p242
F0.0004420866489832007
sVNielsen Nitro
p243
F0.0004420866489832007
sVEMEAC-GBR-Legal Contracts tracking DB
p244
F0.0004420866489832007
sVGOA Administration
p245
F0.0004420866489832007
sVCAM
p246
F0.0008841732979664014
sVUSHH Supply Chain Management
p247
F0.0004420866489832007
sVISIS Desktop
p248
F0.0004420866489832007
sVDisplay Forecaster
p249
F0.0004420866489832007
sVInventory Fiscal Value-Italy
p250
F0.0004420866489832007
sVRite Insight
p251
F0.0004420866489832007
sVMIDAS CTR
p252
F0.0004420866489832007
sVxmii
p253
F0.0004420866489832007
sVEMEAC-ESP-MCC environment-Multichannel Systems
p254
F0.0004420866489832007
sVEMEAC-ITA-Promotion Sample Sales
p255
F0.0004420866489832007
sVLA-ARG Travel and Event Tracking System Intranet Website
p256
F0.0004420866489832007
sVResource Management Tool
p257
F0.0004420866489832007
sVInterplX Expense Querying Tool
p258
F0.0008841732979664014
sVMVD Business Analysis Systems
p259
F0.0004420866489832007
sVLA-MEX FoliosPap
p260
F0.0008841732979664014
sVTwqor
p261
F0.0004420866489832007
sVEMEAC-GBR-Medical Licence Tracking
p262
F0.0004420866489832007
sVEMEAC-FI eZ Publish
p263
F0.0004420866489832007
sVTwqow
p264
F0.0004420866489832007
sVCompass (MCC)
p265
F0.0004420866489832007
sVFinancial Disclosure Application - FDA
p266
F0.0008841732979664014
sVMVID Sales Processing
p267
F0.0004420866489832007
sVDISPENSARY MANAGEMENT SYSTEM
p268
F0.0004420866489832007
sVWPS Method for Calculating COT
p269
F0.0004420866489832007
sVUSHH Employee Information Management System
p270
F0.0004420866489832007
sVSpend Enquiry
p271
F0.0004420866489832007
sVAP-Health Assist
p272
F0.0004420866489832007
sVclinical trial simulator (ts)
p273
F0.0004420866489832007
sVVeriSign
p274
F0.0004420866489832007
sVUS Analytics
p275
F0.0004420866489832007
sVSADA
p276
F0.0004420866489832007
sVDigitalPage
p277
F0.0004420866489832007
sVPKLIMRPT
p278
F0.0004420866489832007
sVTACTICS
p279
F0.0004420866489832007
sVEMEAC-GBR-Pool / Ace Car Booking System
p280
F0.0004420866489832007
sVEMEAC-ESP-BI Cognos Cubes
p281
F0.0004420866489832007
sVRDRSP
p282
F0.0008841732979664014
sVEMEAC-BI-Country Capabilities
p283
F0.0004420866489832007
sVRAIMS
p284
F0.0004420866489832007
sVGlobal Labeling Search
p285
F0.0004420866489832007
sVDesign Expert
p286
F0.0004420866489832007
sVSADR
p287
F0.0004420866489832007
sVLA-Contrate
p288
F0.0004420866489832007
sViMAP Canada
p289
F0.0004420866489832007
sVMOONS
p290
F0.0008841732979664014
sVslc.merck.com
p291
F0.0004420866489832007
sVPKADMINPDM
p292
F0.0004420866489832007
sVGraphPad Prism
p293
F0.0004420866489832007
sVGlobal Procurement Dashboard
p294
F0.0004420866489832007
sVEMEAC-DEU Clinical Trial
p295
F0.0008841732979664014
sVGlobal Professional Information Request Management System
p296
F0.0004420866489832007
sVAIP Modeler
p297
F0.0008841732979664014
sVHanDEL
p298
F0.0004420866489832007
sVElectronic Data Interchange System
p299
F0.0004420866489832007
sVMerck Culture Collection Sys
p300
F0.0004420866489832007
sVInterface Service (Gold 24x5)
p301
F0.0004420866489832007
sVVertex - Sales Tax Returns Q Series
p302
F0.0004420866489832007
sVMUDA
p303
F0.0004420866489832007
sVCALM
p304
F0.0004420866489832007
sVElectronic Campaign Management Program
p305
F0.0004420866489832007
sVComputer Based Testing System
p306
F0.0004420866489832007
sVProsoft
p307
F0.0004420866489832007
sVCapital Planning
p308
F0.0004420866489832007
sVEmpower
p309
F0.0017683465959328027
sVBIOBOOK
p310
F0.0004420866489832007
sVWMMSA
p311
F0.0004420866489832007
sVPtP Reprt/Knowledge Repository
p312
F0.0004420866489832007
sVSWMS
p313
F0.0008841732979664014
sVFAQ
p314
F0.0004420866489832007
sVGCI Plaza
p315
F0.0004420866489832007
sVNEOTRAK
p316
F0.0004420866489832007
sVCustomer Connect Web Site
p317
F0.0004420866489832007
sVAP-ANZ Document IT
p318
F0.0004420866489832007
sVMerck Tube
p319
F0.0004420866489832007
sVTIBCOCIM
p320
F0.0008841732979664014
sVADP Tax Services
p321
F0.0004420866489832007
sVMSD Singapore-e-Incentive System
p322
F0.0008841732979664014
sVAssay Management Console
p323
F0.0004420866489832007
sVTopview for PI
p324
F0.0004420866489832007
sVAtlas
p325
F0.0004420866489832007
sVAH GENERAL DATABASE
p326
F0.0004420866489832007
sVUSHH Sample Account Management System
p327
F0.0004420866489832007
sVDURT
p328
F0.0004420866489832007
sVEMEAC-BI-Sales & Activity Dashboard
p329
F0.0008841732979664014
sVMerckOnCall Video Detailing System
p330
F0.0004420866489832007
sVPERTMASTER
p331
F0.0004420866489832007
sVLA-PER Travel and Event Tracking System Intranet
p332
F0.0004420866489832007
sVFinance 101(FOLDFIN)
p333
F0.0004420866489832007
sVLA-CHL Event Merck System
p334
F0.0004420866489832007
sVDrivingLicenceControl
p335
F0.0004420866489832007
sVApplication Environment
p336
F0.001326259946949602
sVM-way
p337
F0.0004420866489832007
sVAP-THA-Marketing Investment Tracking-TMIT
p338
F0.0004420866489832007
sVSUBVERSION
p339
F0.0004420866489832007
sVGet-a-Code Intranet Website
p340
F0.0004420866489832007
sVQuest
p341
F0.0004420866489832007
sVGPD-Global Procurement Desktop
p342
F0.0004420866489832007
sVMMD Inventory
p343
F0.0004420866489832007
sVInternational Product Formulary Database (L-SP only)
p344
F0.0004420866489832007
sVLA-Gov
p345
F0.0004420866489832007
sVcog10
p346
F0.0004420866489832007
sVIntercompany Pricing
p347
F0.0008841732979664014
sVClintrial_LSP
p348
F0.0004420866489832007
sVAP-AP-CHN-ETMS
p349
F0.0004420866489832007
sVAPPTIO
p350
F0.0008841732979664014
sVR2
p351
F0.0004420866489832007
sVPRISYM32
p352
F0.0004420866489832007
sVGTO Communication Tool
p353
F0.0004420866489832007
sVREGDATA
p354
F0.0004420866489832007
sVgastro plus and related suite
p355
F0.0004420866489832007
sVMRP
p356
F0.0004420866489832007
sVTRANE
p357
F0.0004420866489832007
sVSymyx Draw
p358
F0.0008841732979664014
sVALSHAN
p359
F0.0004420866489832007
sVEMEAC-ITA- JDE Journal Entry
p360
F0.0004420866489832007
sVEMEAC-GBR-Creative Services Database
p361
F0.0004420866489832007
sVStammenkollektie
p362
F0.0004420866489832007
sVAP-China Pegintron Game
p363
F0.0004420866489832007
sVEMEAC-GBR-International Meetings Management
p364
F0.0004420866489832007
sVAUTOTURN
p365
F0.0004420866489832007
sVLA-PRI-Job Jacket ID Request System-MSD Carolina
p366
F0.0004420866489832007
sVNational Data Exchange
p367
F0.0004420866489832007
sVPagina Number System
p368
F0.0004420866489832007
sVFIRST
p369
F0.001326259946949602
sVMerck Employee Resource Groups
p370
F0.0004420866489832007
sVSES Work Request
p371
F0.0004420866489832007
sVNice Label Pro
p372
F0.0004420866489832007
sVGesicon
p373
F0.0004420866489832007
sVEMEAC-PT Financial Hospital Agreements Management
p374
F0.0004420866489832007
sVApollo LIMS
p375
F0.0004420866489832007
sVUNISON
p376
F0.0004420866489832007
sVMSD Australia (msdonline.com.au)
p377
F0.0004420866489832007
sVeContracts Internet Application
p378
F0.0004420866489832007
sVCMOEDU
p379
F0.0004420866489832007
sVAP-China Data Integration
p380
F0.0008841732979664014
sVCustomer Master
p381
F0.0004420866489832007
sVMass Spec Performance Reporting
p382
F0.0004420866489832007
sVSwords-OPUS FTIR
p383
F0.0004420866489832007
sVLA-BRA Classificador de Riscos
p384
F0.0004420866489832007
sVGlobal Tracking System
p385
F0.0004420866489832007
sVIP Manager
p386
F0.0008841732979664014
sVAP-AUS ANZ Intranet Website
p387
F0.0004420866489832007
sVRTREPORTS
p388
F0.0004420866489832007
sVATS
p389
F0.0004420866489832007
sVGTA Net
p390
F0.0004420866489832007
sVACD LABS
p391
F0.0017683465959328027
sVIFP
p392
F0.0008841732979664014
sVPayroll and Expense Report Maintenance
p393
F0.0004420866489832007
sVCMO Web
p394
F0.0004420866489832007
sVEMEAC-GBR-Validation
p395
F0.0004420866489832007
sVSPIES
p396
F0.001326259946949602
sVEMEAC-DK PC Medical Legal
p397
F0.0004420866489832007
sVRADLIMS
p398
F0.0004420866489832007
sVTravel and Card Data Reporting
p399
F0.0004420866489832007
sVCustomer Membership and Eligibility
p400
F0.0008841732979664014
sVAlignment Master Plus
p401
F0.0004420866489832007
sVmdmcdh
p402
F0.0004420866489832007
sVpolicy.merck.com
p403
F0.0004420866489832007
sVALDaS
p404
F0.0004420866489832007
sVTrackWise
p405
F0.0004420866489832007
sVSA DART Instrument Interface
p406
F0.0004420866489832007
sVCompucal
p407
F0.0004420866489832007
sVRegulatory Inspection System
p408
F0.002652519893899204
sVHIVAccess
p409
F0.0004420866489832007
sVMerck Forms
p410
F0.0004420866489832007
sVAmegaview
p411
F0.0008841732979664014
sVVendor Conditioning Tool (VC)
p412
F0.0004420866489832007
sVMerck Vaccine Savings Plan Analysis Tool
p413
F0.0004420866489832007
sVGIMAS
p414
F0.0004420866489832007
sVBioMarker LIMS
p415
F0.0004420866489832007
sVLA-MEX Recibos de Nomina LMSD
p416
F0.0004420866489832007
sVAP-JPN exSPKK DWH of Field Sales
p417
F0.0004420866489832007
sVRecommendation Tracking System
p418
F0.0004420866489832007
sVAnalysis Batch
p419
F0.0004420866489832007
sVTox Dictionary
p420
F0.0004420866489832007
sVEZBUY Load Manager
p421
F0.0008841732979664014
sVIMPLANT STL
p422
F0.0004420866489832007
sVSPE ECM-Tax
p423
F0.0004420866489832007
sVAlkaline Elution
p424
F0.0004420866489832007
sVClassbase
p425
F0.0008841732979664014
sVPRM
p426
F0.0004420866489832007
sVAFD
p427
F0.0004420866489832007
sVSmith Barney Interface
p428
F0.0004420866489832007
sVSolid Dosage Pilot Plant Scheduling System
p429
F0.0004420866489832007
sVEVOC
p430
F0.0008841732979664014
sVLA-MEX Facturacion Electronica
p431
F0.0004420866489832007
sVRAS Audit System
p432
F0.0004420866489832007
sVBioprocess QbD Risk Assessment
p433
F0.0004420866489832007
sVAudit Management System
p434
F0.0004420866489832007
sVSKETCHUP
p435
F0.0004420866489832007
sVAP-KOR-Sales Forecasting & Inventory Reporting System
p436
F0.0004420866489832007
sVQUALITY PORTAL
p437
F0.0004420866489832007
sVMIDAS
p438
F0.0004420866489832007
sVLA-Callnotes
p439
F0.0004420866489832007
sVElectronic Laboratory Notebook
p440
F0.0008841732979664014
sVMedDRA Browser
p441
F0.0004420866489832007
sVMacro - Mechanical Setup
p442
F0.0004420866489832007
sVECKMCP
p443
F0.0004420866489832007
sVMyCareer
p444
F0.0004420866489832007
sVAP-JPN Wholesaler Information Network
p445
F0.0004420866489832007
sVCERTIFICATE AUTHORITY SERVICES
p446
F0.0004420866489832007
sVSAP Xmii Reports
p447
F0.0008841732979664014
sVSHIPPING DETAILS DB
p448
F0.0004420866489832007
sVProofware
p449
F0.0004420866489832007
sVNavigate
p450
F0.0004420866489832007
sVHHP Demographic Info to Medstat
p451
F0.0004420866489832007
sVSA Pathology and Toxicology
p452
F0.0008841732979664014
sVSync
p453
F0.0004420866489832007
sVGlobal Customer Connect CRM
p454
F0.0004420866489832007
sVCognos CRN Reports
p455
F0.0017683465959328027
sVAPRMCC
p456
F0.0004420866489832007
sVEFTPC
p457
F0.0004420866489832007
sVR9 Metrics
p458
F0.0004420866489832007
sVSPArchivist
p459
F0.0004420866489832007
sVNetwork Links
p460
F0.0004420866489832007
sVPlanning Model
p461
F0.0004420866489832007
sVEMEAC-GBR-Local NHS Guidance
p462
F0.0004420866489832007
sVseverance reporting tool
p463
F0.0004420866489832007
sVAP-IND-SMS Application-Valuefirst
p464
F0.0004420866489832007
sVEBRIS
p465
F0.0008841732979664014
sVAP-CHN UNIVADIS
p466
F0.0004420866489832007
sVDMWE
p467
F0.0004420866489832007
sVFederal and State Reporting
p468
F0.0008841732979664014
sVgreece-visits
p469
F0.0004420866489832007
sVJIRA
p470
F0.0004420866489832007
sVeCompliance Tool
p471
F0.0004420866489832007
sVEMEAC-GBR-Data Store
p472
F0.0004420866489832007
sVExternal Portal Framework
p473
F0.0004420866489832007
sVFlexible Work Arrangement Tool
p474
F0.0004420866489832007
sVCalc V1.32
p475
F0.0004420866489832007
sVProject View Manager Research
p476
F0.0004420866489832007
sVPSM (Pharmaceutical Stability Management)
p477
F0.0004420866489832007
sVInfoLinx
p478
F0.0004420866489832007
sVAgile1
p479
F0.0004420866489832007
sVLaboratory Execution and Analysis
p480
F0.0004420866489832007
sVEmployee Global Data for Brazil Employees
p481
F0.0004420866489832007
sVVacation Management
p482
F0.0004420866489832007
sVECRM MarketGate
p483
F0.0004420866489832007
sVSPE ECM-LCPS
p484
F0.0004420866489832007
sVMRP\ufffd_ 1.2
p485
F0.0004420866489832007
sVADP iPay
p486
F0.0004420866489832007
sVSonic
p487
F0.0004420866489832007
sVPCR TRACKING SYSTEM
p488
F0.0004420866489832007
sVchemlite
p489
F0.0004420866489832007
sVADP-W2 Services
p490
F0.0004420866489832007
sVTotal Compensation Planner
p491
F0.0004420866489832007
sVAP-JPN Banyu Literature Information Center
p492
F0.0004420866489832007
sVCPAC
p493
F0.0008841732979664014
sVGovernment Pricing System
p494
F0.0004420866489832007
sVRLA-MEX-Sistema de econocimientos
p495
F0.0004420866489832007
sVPLANET
p496
F0.0004420866489832007
sVMaster Data Stewardship Approval Management
p497
F0.0004420866489832007
sVSEC
p498
F0.0004420866489832007
sVVeeva
p499
F0.002652519893899204
sVFRECON
p500
F0.0004420866489832007
sVSEL
p501
F0.0004420866489832007
sVEMITPLUS
p502
F0.0004420866489832007
sVReference Management
p503
F0.0004420866489832007
sVAP-JPN Wholesaler Inventory
p504
F0.0004420866489832007
sVActive Strategy
p505
F0.0004420866489832007
sVComprehensive Strategic Marketing Operations System
p506
F0.0004420866489832007
sVAP-JADE
p507
F0.0004420866489832007
sVMSD Infocenter
p508
F0.0004420866489832007
sVNMR Request
p509
F0.0008841732979664014
sVTibco Spotfire
p510
F0.002652519893899204
sVMRL PPM Application
p511
F0.0004420866489832007
sVGHH BigTinCan hub App for iPad
p512
F0.0004420866489832007
sVeLMK
p513
F0.0004420866489832007
sVeStar
p514
F0.0004420866489832007
sVBRPDS
p515
F0.0004420866489832007
sVCARM
p516
F0.0004420866489832007
sVCustomer Account Team Administration Tool
p517
F0.0004420866489832007
sVMerck Consumer Care Information Management Performance Management
p518
F0.0004420866489832007
sVTime Clock
p519
F0.0004420866489832007
sVStability Database Haarlem
p520
F0.0004420866489832007
sVEquipNet
p521
F0.0004420866489832007
sVEnterprise Trillium
p522
F0.0004420866489832007
sVConsolidation Entry Converter
p523
F0.0004420866489832007
sVMandatoryRebate
p524
F0.0004420866489832007
sVOMDL
p525
F0.0004420866489832007
sVABSENCE MONITORING SYSTEM
p526
F0.0004420866489832007
sVNONMEM
p527
F0.0004420866489832007
sVPrimavera
p528
F0.0008841732979664014
sVOMDB
p529
F0.0004420866489832007
sVLA-MEX Backorder
p530
F0.0004420866489832007
sVwebmetrix
p531
F0.0004420866489832007
sVJde Inventory
p532
F0.0004420866489832007
sVCSOPS
p533
F0.0004420866489832007
sVKR
p534
F0.0008841732979664014
sVCognos 10 Reports
p535
F0.08532272325375774
sVLA-CRO Event Merck System
p536
F0.0004420866489832007
sVMerckSpeakerServices
p537
F0.0008841732979664014
sVOC Tanner
p538
F0.0004420866489832007
sVALEXX
p539
F0.0004420866489832007
sVBiological Inventory System Bis
p540
F0.0004420866489832007
sVCGDP-US Coverage Gap Discount Program
p541
F0.0004420866489832007
sVSPIES-Canada
p542
F0.0008841732979664014
sVPas
p543
F0.0004420866489832007
sVGlass Event Tracking In Mii
p544
F0.0004420866489832007
sVClinical Other Application
p545
F0.0004420866489832007
sVShowcase Strategy Reports
p546
F0.0004420866489832007
sVCanada Purchasing System
p547
F0.0004420866489832007
sVCoupon Release Notifications
p548
F0.0008841732979664014
sVHR Security Tracking Tool
p549
F0.0004420866489832007
sVPago Medicos
p550
F0.0004420866489832007
sVDMX
p551
F0.0004420866489832007
sVfinancial reporting system(frs)
p552
F0.0004420866489832007
sVExchange Rate Divisional Trends Report
p553
F0.0004420866489832007
sVEMEAC-EST-Baltic Sales Reports
p554
F0.0004420866489832007
sVCLASH MANAGER
p555
F0.0004420866489832007
sVPuerto Rico Moble Sales Force System
p556
F0.0004420866489832007
sVNiet Ordergebonden Goederen [Nog]
p557
F0.0004420866489832007
sVFado
p558
F0.0004420866489832007
sVFinancial Analytics and Consolidation System
p559
F0.0004420866489832007
sVOrchestrate
p560
F0.0004420866489832007
sVINJURY ILLNESS DB
p561
F0.0004420866489832007
sVPerformance Master Repository
p562
F0.0004420866489832007
sVVirscidian
p563
F0.0004420866489832007
sVPI Monitoring
p564
F0.0004420866489832007
sVMAXIMO
p565
F0.0004420866489832007
sVCorpTAX ASP
p566
F0.0004420866489832007
sVAP-Daily Sales
p567
F0.0004420866489832007
sVClintrial_JPN
p568
F0.0004420866489832007
sVsigninonce
p569
F0.0004420866489832007
sVGaccs
p570
F0.0004420866489832007
sVStudy Planner
p571
F0.0004420866489832007
sVCatering
p572
F0.0004420866489832007
sVCalculation Business Assay
p573
F0.0004420866489832007
sVJobapps
p574
F0.0004420866489832007
sVTraceIT
p575
F0.0004420866489832007
sVMerckVaccines.com
p576
F0.0004420866489832007
sVEMEAC-New Gesicon
p577
F0.0004420866489832007
sVLabware Lims
p578
F0.0004420866489832007
sVPCR WEB
p579
F0.0004420866489832007
sVCasa
p580
F0.0004420866489832007
sVMRLAP
p581
F0.0004420866489832007
sVGenCord Contract Management
p582
F0.0004420866489832007
sVSyncMobile
p583
F0.0004420866489832007
sVLA-ARG Facturacion Electronica
p584
F0.0004420866489832007
sVEXPLANT
p585
F0.0004420866489832007
sVAP-JPN-Promotional Material
p586
F0.0004420866489832007
sVETSA
p587
F0.0004420866489832007
sVProduct Claim Application Tracking
p588
F0.0004420866489832007
sVLinguamatics I2E
p589
F0.0004420866489832007
sVMRLSOS
p590
F0.0004420866489832007
sVJD Edwards-Italy
p591
F0.0004420866489832007
sVMISEERS
p592
F0.0004420866489832007
sVBBR-LIMS
p593
F0.0004420866489832007
sVpharmacokinetics/biostatistics interface
p594
F0.0004420866489832007
sVDC Safe Rx Reporting System
p595
F0.0004420866489832007
sVSubsite Wrappers
p596
F0.0004420866489832007
sVEMEAC-ITA-Tool Agent Fees
p597
F0.0004420866489832007
sVeResource Calls Information
p598
F0.0004420866489832007
sVVCT
p599
F0.0004420866489832007
sVM&S Cost Est. Sys
p600
F0.0004420866489832007
sVUK Paybase
p601
F0.0004420866489832007
sVAddRep
p602
F0.0004420866489832007
sVCorporate Lawpack
p603
F0.0004420866489832007
sVPAGEGATE
p604
F0.0004420866489832007
sVBHS
p605
F0.0004420866489832007
sVLA-PRI-IFP Demand & Financial Planning & Forecasting
p606
F0.0004420866489832007
sVEMEAC-GBR-Internet Site (msd-uk.co.uk)
p607
F0.0004420866489832007
sVSCRIP
p608
F0.0004420866489832007
sVComputerized Calibration Management System
p609
F0.0004420866489832007
sVPiqs Module
p610
F0.0004420866489832007
sVPQLICMAN
p611
F0.0004420866489832007
sVLCNS
p612
F0.0004420866489832007
sVUS Javelin
p613
F0.0004420866489832007
sVviaPeople
p614
F0.0004420866489832007
sVAP-AUS Chris Payroll System
p615
F0.0004420866489832007
sVChemStock Manager
p616
F0.0004420866489832007
sVeProwaAdmin
p617
F0.0004420866489832007
sVcims
p618
F0.0004420866489832007
sVINFORM Integration Repository
p619
F0.0004420866489832007
sVBiologics Registration (BrReg)
p620
F0.0004420866489832007
sVjdesap.merck.com
p621
F0.0004420866489832007
sVReport Viewer - CTS
p622
F0.0004420866489832007
sVMerck Manuals
p623
F0.0004420866489832007
sVWeb-Based Model Deployment Tool
p624
F0.0004420866489832007
sVeCS
p625
F0.0004420866489832007
sVOSTIC SAM
p626
F0.0004420866489832007
sVLandinfo Bestand
p627
F0.0004420866489832007
sVmyEtrip
p628
F0.0004420866489832007
sVDPSS
p629
F0.0017683465959328027
sVspudl
p630
F0.0004420866489832007
sVMLS Feedback Process
p631
F0.0004420866489832007
sVBART
p632
F0.0004420866489832007
sVeVoc Product Suite
p633
F0.0004420866489832007
sVTaiwan Data Warehouse (DWH)
p634
F0.0008841732979664014
sVASP
p635
F0.0004420866489832007
sVPaperlessPayslip
p636
F0.0004420866489832007
sVAP-JPN Daiichi-Sankyo
p637
F0.0004420866489832007
sVMRL Other Application
p638
F0.0004420866489832007
sVRCAM
p639
F0.0008841732979664014
sVQCT
p640
F0.0004420866489832007
sVeSOPs
p641
F0.0004420866489832007
sVSales Information Management Online
p642
F0.0004420866489832007
sVPECT
p643
F0.0004420866489832007
sVLA-Contracts
p644
F0.0004420866489832007
sVTeamsite
p645
F0.0004420866489832007
sVSecurity - Onsight
p646
F0.0004420866489832007
sVPSDPDC (WML)
p647
F0.0004420866489832007
sVEMEAC-GBR-Adverse Events Reporting & Medical Information Request System
p648
F0.0004420866489832007
sVHandheld Devices
p649
F0.0004420866489832007
sVKronos Timekeeper
p650
F0.0004420866489832007
sVmitdb
p651
F0.0004420866489832007
sVWells Fargo
p652
F0.0004420866489832007
sVGLOBE
p653
F0.0004420866489832007
sVLA-BRA Sponsorship Control
p654
F0.0004420866489832007
sVAP-JPN Fee For Performance
p655
F0.0004420866489832007
sVbctlims
p656
F0.0004420866489832007
sVPegasus
p657
F0.0004420866489832007
sVCOLOMBIA - Electronic Cash Receipts
p658
F0.0004420866489832007
sVCPC2000
p659
F0.0004420866489832007
sVMolecular Profiling Data Manager
p660
F0.0004420866489832007
sVEZREQ
p661
F0.0004420866489832007
sVPR&D Intranet Site
p662
F0.0004420866489832007
sVLA-Check Bank
p663
F0.0004420866489832007
sViFind Marketing Resource Search Tool
p664
F0.0008841732979664014
sVEMEAC-ITA-Samples Monitor
p665
F0.0004420866489832007
sVLab Analytics
p666
F0.0004420866489832007
sVGlobal Marketing Services Merck Sales & Operations Reporting
p667
F0.0004420866489832007
sVSymyx
p668
F0.0004420866489832007
sVTIBCO Error Remediation
p669
F0.0004420866489832007
sVPartnership for Giving
p670
F0.0004420866489832007
sVPOSTR
p671
F0.0004420866489832007
sVBatch Allocation System
p672
F0.0004420866489832007
sVMIDAS R&D
p673
F0.0004420866489832007
sVElectronic Lab Notebook
p674
F0.0004420866489832007
sVEMEAC-FI Webropol
p675
F0.0004420866489832007
sVTsunami/SmartLink-Connect
p676
F0.0004420866489832007
sVBBMS
p677
F0.0004420866489832007
sVPIPEFLO
p678
F0.0004420866489832007
sVLA-PER Beverages Tracking System Intranet
p679
F0.0004420866489832007
sVOneView
p680
F0.0004420866489832007
sVNon-Monetary Incentive Program
p681
F0.0004420866489832007
sVBwise
p682
F0.0004420866489832007
sVTAIWAN Master DB
p683
F0.0004420866489832007
sVSwords-Data Guard / Data Pro TOC System
p684
F0.0004420866489832007
sVATP Navigator
p685
F0.0004420866489832007
sVVISITOR WATCH MANAGEMENT SYSTEM
p686
F0.0004420866489832007
sVEHS Suite_NL
p687
F0.0004420866489832007
sVB&E
p688
F0.0004420866489832007
sVEMEAC-GBR-Improving Ophthalmic Practice (IOP) Northwest Web Site
p689
F0.0004420866489832007
sVADP Enterprise eTime
p690
F0.0004420866489832007
sVUSHH Time Information Management System
p691
F0.0004420866489832007
sVUNIVADIS
p692
F0.0004420866489832007
sVSharePlus
p693
F0.0004420866489832007
sVDocuProof
p694
F0.0004420866489832007
sVPKLIMSX
p695
F0.0004420866489832007
sVPHR
p696
F0.0004420866489832007
sVPHY
p697
F0.0004420866489832007
sVMyWork
p698
F0.0004420866489832007
sVLA-Mapper
p699
F0.0004420866489832007
sVMETEOR
p700
F0.0004420866489832007
sVApollo_LSP
p701
F0.0004420866489832007
sVmeetings.merck.com
p702
F0.0004420866489832007
sVEMEAC-BI-MCM-CI Multi-Channel Marketing Customer Intelligence
p703
F0.0004420866489832007
sVLegal Employee Tools
p704
F0.0004420866489832007
sVMETABOLATOR
p705
F0.0004420866489832007
sVProduct Numbering System(PNS)
p706
F0.0004420866489832007
sVxMII
p707
F0.001326259946949602
sVMARRS
p708
F0.0004420866489832007
sVEMA
p709
F0.0004420866489832007
sVFDD
p710
F0.0004420866489832007
sVMCIDB
p711
F0.0004420866489832007
sVAP-MDM China Hub
p712
F0.0004420866489832007
sVDistribution Systems Query Database
p713
F0.0004420866489832007
sVGp Tool
p714
F0.0004420866489832007
sVLink-GlobalFarm
p715
F0.0004420866489832007
sVgreece-softone inventories
p716
F0.0004420866489832007
sVCSLS
p717
F0.0004420866489832007
sVDMR
p718
F0.0004420866489832007
sVCRF
p719
F0.0004420866489832007
sVAkamai
p720
F0.0004420866489832007
sVPublic Affairs Docbase (CORPPRD)
p721
F0.0004420866489832007
sVAnalyse Certificaten
p722
F0.0004420866489832007
sVPackage Tracking System
p723
F0.0004420866489832007
sVCognos IWR Reports
p724
F0.0004420866489832007
sVBARDSECP
p725
F0.0004420866489832007
sVCANADA Scotia A/P System
p726
F0.0004420866489832007
sVUS Customer Connect Analytics
p727
F0.0004420866489832007
sVEpicor
p728
F0.0004420866489832007
sVSAPPI
p729
F0.0008841732979664014
sVWFRS
p730
F0.0008841732979664014
sVGIDS
p731
F0.0004420866489832007
sVFIELDS
p732
F0.0004420866489832007
sVAurora
p733
F0.0004420866489832007
sVMacro - Cleaning Setup
p734
F0.0004420866489832007
sVSAE Reconciliation Report
p735
F0.0004420866489832007
sVEMAC-ITA-Customer Master Essex
p736
F0.0004420866489832007
sVInformatica Cloud
p737
F0.0017683465959328027
sVHsr
p738
F0.0004420866489832007
sVgenius
p739
F0.0004420866489832007
sVEMEAC-CHE-Datawarehouse EIS Business Intelligence
p740
F0.0004420866489832007
sVMMDLDMS
p741
F0.0004420866489832007
sVsais
p742
F0.0004420866489832007
sVASPEN Suite
p743
F0.0004420866489832007
sVUSHH Customer Contract Management Application Launcher
p744
F0.0004420866489832007
sVEMEAC PT-GALP
p745
F0.0004420866489832007
sVAP-JPN General Common Master
p746
F0.0004420866489832007
sVAP-KOR-Marketing Information System
p747
F0.0004420866489832007
sVIntegrated Workplace Mgmt Sys
p748
F0.0004420866489832007
sVDMLABELS
p749
F0.0004420866489832007
sVCSP
p750
F0.0004420866489832007
sVMES
p751
F0.0022104332449160036
sVGREAT
p752
F0.0004420866489832007
sVCDMSIM
p753
F0.0004420866489832007
sVLA-Web Auditoria Intranet Website
p754
F0.0004420866489832007
sVRTSAMNLE
p755
F0.0004420866489832007
sVEMEAC-GBR-Ireland Intranet
p756
F0.0004420866489832007
sVAntibody Workbench
p757
F0.0004420866489832007
sVJDE Sales and Inventory
p758
F0.0008841732979664014
sVEMEAC-ESP-DAWA-Local Data Warehouse
p759
F0.0004420866489832007
sVSIRS
p760
F0.0008841732979664014
sVTWN Price Master
p761
F0.0004420866489832007
sVLts Label Tracking System
p762
F0.0004420866489832007
sVSCTDB
p763
F0.0004420866489832007
sVEMEAC-GBR-IRC Information Request System
p764
F0.0004420866489832007
sVProject Master
p765
F0.0004420866489832007
sVMaterial Inspection Label Software
p766
F0.0004420866489832007
sVDPSLS
p767
F0.0004420866489832007
sVOneNote Structure Editor
p768
F0.0004420866489832007
sVCycle Count
p769
F0.0004420866489832007
sVVisionTracker
p770
F0.0004420866489832007
sVIndustrial Hygiene LIMS
p771
F0.0004420866489832007
sVT&E Mobile
p772
F0.0004420866489832007
sVELUCIDATOR
p773
F0.0004420866489832007
sVLIMS/CDS Interface
p774
F0.0004420866489832007
sVCHEMCART
p775
F0.0008841732979664014
sVBARDSCPI
p776
F0.0008841732979664014
sVWebTrends
p777
F0.0004420866489832007
sVWorld Product and Trademark Directory System
p778
F0.0004420866489832007
sVAP-THA-Customer Targeting & Validation(TCTV)
p779
F0.0004420866489832007
sVStore Management
p780
F0.0004420866489832007
sVAP-CHN HR+ System
p781
F0.0004420866489832007
sVMIDAS TMF
p782
F0.0008841732979664014
sVMOM
p783
F0.0004420866489832007
sVWERCSmart
p784
F0.0004420866489832007
sVSHOP FLOOR DOCUMENTATION
p785
F0.0004420866489832007
sVForeign Corrupt Practices Act-Global Customer Master
p786
F0.0004420866489832007
sVDMDATA
p787
F0.0008841732979664014
sVFXPress Reports (Crystal Reports 8.5)
p788
F0.0004420866489832007
sVCIM (Capital Info Mgmt)
p789
F0.0008841732979664014
sVAP-KOR-Online Order System
p790
F0.0004420866489832007
sVService Request and Demand Tracker
p791
F0.0004420866489832007
sVProperty Tax Management Sys (PTMS)
p792
F0.0004420866489832007
sVCAAMS
p793
F0.0004420866489832007
sVWTERS
p794
F0.0004420866489832007
sVPET
p795
F0.0004420866489832007
sVGHH Align Revenue Management Intelligence
p796
F0.0004420866489832007
sVQSAR Workbench
p797
F0.0004420866489832007
sVSeeScan
p798
F0.0004420866489832007
sVSps Stratech
p799
F0.0004420866489832007
sVRESOLVER
p800
F0.0004420866489832007
sViProveedor
p801
F0.0004420866489832007
sVLIMS - Chemistry-Watson
p802
F0.0004420866489832007
sVTM1
p803
F0.0008841732979664014
sVIRI PlusSuite
p804
F0.0004420866489832007
sVEMEAC-GBR-Unipay
p805
F0.0004420866489832007
sVVergunningen Management Systeem
p806
F0.0004420866489832007
sVETM
p807
F0.0004420866489832007
sVAP-Company Internet Sites
p808
F0.0004420866489832007
sVGCI Website
p809
F0.0004420866489832007
sVGovernment Reporting DSS
p810
F0.0004420866489832007
sVVision Chain
p811
F0.0004420866489832007
sVEMEAC-GBR-Forecast Pro
p812
F0.0004420866489832007
sVTransborder Sales
p813
F0.0004420866489832007
sVRightfax 400
p814
F0.0004420866489832007
sVLA-MEX-New Commercial Model-NCM
p815
F0.0004420866489832007
sVuk intranet
p816
F0.0004420866489832007
sVTOXCHEM
p817
F0.0004420866489832007
sVHTS Mobile
p818
F0.0004420866489832007
sVRMS II
p819
F0.0004420866489832007
sVMSD Direct
p820
F0.0004420866489832007
sVIntegrated Medical Education (iMED)
p821
F0.0004420866489832007
sVE2E Provisioning
p822
F0.0004420866489832007
sVMARS (Intercompany MARS)
p823
F0.0008841732979664014
sVProwa Projects Warehouse
p824
F0.0008841732979664014
sVc3
p825
F0.0004420866489832007
sVUSHH Customer Consent Profile Manager
p826
F0.0004420866489832007
sVHamster
p827
F0.0004420866489832007
sVMRP ADMIN
p828
F0.0004420866489832007
sVBIOSTORE
p829
F0.0004420866489832007
sVEMEAC PT-LOGIFARMA-POD
p830
F0.0004420866489832007
sVSTABILITY LIMS AD-HOC REPORTING TOOL
p831
F0.0004420866489832007
sViHealthEx
p832
F0.0004420866489832007
sVGlobal Spend Analytics Automation
p833
F0.0004420866489832007
sVAP-JPN Emergency Fax
p834
F0.0004420866489832007
sVEurope Middle East Africa Procure to Pay
p835
F0.0004420866489832007
sVSAS
p836
F0.0004420866489832007
sVEMEAC-TUR Business Intelligence Reporting Tool Intranet website
p837
F0.0004420866489832007
sVVaricella Potency Tool
p838
F0.0004420866489832007
sVLEAK DETECTION AND REPAIR SYSTEM
p839
F0.0004420866489832007
sVTROUX ARCHITECT
p840
F0.0004420866489832007
sVInterface Service (Bronze 8-5x5)
p841
F0.008399646330680813
sVEMEAC-NL EventPlanner
p842
F0.0004420866489832007
sVDocumentum Webtop Services
p843
F0.0004420866489832007
sVIMPLANT I
p844
F0.0004420866489832007
sVAP-CHN Contact Center
p845
F0.0004420866489832007
sVEMEAC-BI-GeneSys Ad-Hoc Reporting
p846
F0.0004420866489832007
sVDb Asset Management
p847
F0.0004420866489832007
sVInternet Product Pages Data Operations and Administration Processes Web Application
p848
F0.0004420866489832007
sVSTA
p849
F0.0004420866489832007
sVSwords-WinCats PCDS
p850
F0.0004420866489832007
sVPrism
p851
F0.001326259946949602
sVCHANGE OVER PARTS DB
p852
F0.0004420866489832007
sVSOLYS
p853
F0.0004420866489832007
sVsapds
p854
F0.0004420866489832007
sVPayment Status Lookup (PSL)
p855
F0.0004420866489832007
sVGladson Web PlaNOgram Images
p856
F0.0004420866489832007
sVCDR
p857
F0.0004420866489832007
sVCDS
p858
F0.0004420866489832007
sVames
p859
F0.0004420866489832007
sVGeneral Physics Data Feed
p860
F0.0004420866489832007
sVRELDOC
p861
F0.0004420866489832007
sVKEY WIZARD
p862
F0.0004420866489832007
sVOEE
p863
F0.0004420866489832007
sVMerck Political eAdvocacy System
p864
F0.0004420866489832007
sVMIMP
p865
F0.0004420866489832007
sVSARView
p866
F0.0004420866489832007
sVEMEAC-ITA-IMS Direct Hospital Sales Service
p867
F0.0004420866489832007
sVMobile MIDAS Workflow Approvals
p868
F0.0004420866489832007
sVSAS Trend Analysis
p869
F0.0004420866489832007
sVARCS
p870
F0.0004420866489832007
sVClinical Trial Data Transparency
p871
F0.0004420866489832007
sVAP-CHN-Datawarehouse & BI System
p872
F0.004420866489832007
sVWP PTS
p873
F0.0004420866489832007
sVPharm Science Quality Tracking System
p874
F0.0004420866489832007
sVEMEAC-ESP SGH
p875
F0.0004420866489832007
sVAP-China Next Generation Business Intelligence System
p876
F0.001326259946949602
sVResource Scheduler
p877
F0.0004420866489832007
sVWinNonMix
p878
F0.0004420866489832007
sVOracle SWB Research
p879
F0.0004420866489832007
sVProduct Master Application
p880
F0.0004420866489832007
sVClinicalWorks GCPs
p881
F0.0004420866489832007
sVAssay Workflow Management
p882
F0.0004420866489832007
sVAXIOM
p883
F0.0004420866489832007
sVGHH Align Managed Markets Data Mart
p884
F0.0004420866489832007
sVSwords-GRAMS AI Portable NIR
p885
F0.0004420866489832007
sVSwords-Microscope Imaging System(Analytical Lab)
p886
F0.0004420866489832007
sVit.merck.com
p887
F0.0004420866489832007
sVJDOX2
p888
F0.0004420866489832007
sVMarket Master
p889
F0.0004420866489832007
sVtravel.merck.com
p890
F0.0004420866489832007
sVLis
p891
F0.0004420866489832007
sVAP-PHL SPICA BI
p892
F0.0004420866489832007
sVRMSI
p893
F0.0004420866489832007
sVMedical Legal & Review System
p894
F0.0004420866489832007
sVBach
p895
F0.0004420866489832007
sVORION
p896
F0.001326259946949602
sVmyMouse
p897
F0.0004420866489832007
sVCLPG
p898
F0.0004420866489832007
sVSMSMS
p899
F0.0004420866489832007
sVEMEAC-GBR-Walsh Link
p900
F0.0004420866489832007
sVwinnonlin license server-pxi
p901
F0.0004420866489832007
sVAP-China Medicine Distribution System
p902
F0.0004420866489832007
sVCMSTAB
p903
F0.0004420866489832007
sVSpi_Index
p904
F0.0004420866489832007
sVTAIWAN Inventory Product Forecast
p905
F0.0004420866489832007
sVGlobal Product Master
p906
F0.0004420866489832007
sVEZ-Buy
p907
F0.0004420866489832007
sVDPS Compound Shipment
p908
F0.0004420866489832007
sVMRP LOTS
p909
F0.0004420866489832007
sVMerck Reputation Dashboard
p910
F0.0004420866489832007
sVCorepay
p911
F0.0004420866489832007
sVMilieu Database
p912
F0.0004420866489832007
sVAccessData eDiscovery
p913
F0.0004420866489832007
sVBENTLEY VIEWER
p914
F0.0004420866489832007
sVSwords-WINSOTAX Lab  Component
p915
F0.0004420866489832007
sVSeparation Management System
p916
F0.0004420866489832007
sVManaging @ Merck Progress SiteManaging At Merck
p917
F0.0004420866489832007
sVCentr. Bestanden Org.
p918
F0.0004420866489832007
sVSTATCODE
p919
F0.0004420866489832007
sVGlobal Market Access Information System
p920
F0.0008841732979664014
sVTRIDION
p921
F0.0004420866489832007
sVAP-TWN-Territory Assignment and Sales Budget System
p922
F0.0004420866489832007
sVSimcyp
p923
F0.0004420866489832007
sVMelmil
p924
F0.0004420866489832007
sVGPDS
p925
F0.0004420866489832007
sVMerck Online Field Resource Ordering System
p926
F0.0004420866489832007
sVcdllims
p927
F0.0004420866489832007
sVIRI Impact
p928
F0.0004420866489832007
sVProMat
p929
F0.0004420866489832007
sVAP-SPARTA
p930
F0.0004420866489832007
sVCDAS
p931
F0.0004420866489832007
sVCRYSTAL
p932
F0.0004420866489832007
sVPO Trigger
p933
F0.0004420866489832007
sVProSpace PlaNOgram
p934
F0.0004420866489832007
sVAida
p935
F0.0004420866489832007
sVLaboratory PC System
p936
F0.0004420866489832007
sVNovatek International Environmental Monitoring
p937
F0.0004420866489832007
sVADMET Workbench
p938
F0.0004420866489832007
sVQuality Standard Information System
p939
F0.0004420866489832007
sVEMEAC-ITA-Customer Relationship Management
p940
F0.0004420866489832007
sVTMCg2
p941
F0.0004420866489832007
sVMiniload
p942
F0.0004420866489832007
sVSpotfire Report Sets
p943
F0.02431476569407604
sVEMEAC-GBR-Maxalt e.Detail
p944
F0.0004420866489832007
sVRecords Retention - Records Management System (RMS)
p945
F0.0004420866489832007
sVEBRPP
p946
F0.0004420866489832007
sVGeneSys Adapter--Germany
p947
F0.0008841732979664014
sVGHH Align Reporting
p948
F0.0004420866489832007
sVGPRS
p949
F0.0004420866489832007
sVGLOBAL SUPPLY PATH
p950
F0.0004420866489832007
sVEMEAC-GBR-Multi-View
p951
F0.0004420866489832007
sVWats Report
p952
F0.0004420866489832007
sVArchivering Mms
p953
F0.0004420866489832007
sVEMEAC-GRC-CYCOM Promotional
p954
F0.0004420866489832007
sVZyImage
p955
F0.0004420866489832007
sVBusinessObjects Reports
p956
F0.001326259946949602
sVReaxys
p957
F0.0004420866489832007
sVeRDR
p958
F0.0004420866489832007
sVLA-Sungard Integrity Cash Management
p959
F0.0004420866489832007
sVWDS
p960
F0.0004420866489832007
sVGEARS
p961
F0.0004420866489832007
sVAP-KOR Medical Information Services System
p962
F0.0008841732979664014
sVPayroll Interface
p963
F0.001326259946949602
sVISIS BASE Analysis Retrieve System
p964
F0.0004420866489832007
sVForecast Enquiry
p965
F0.0004420866489832007
sVCIMS
p966
F0.0004420866489832007
sVSQL LIMS
p967
F0.0004420866489832007
sVMRL Project Accounting System
p968
F0.0004420866489832007
sVAP-KOR Corporate Internet Website
p969
F0.0004420866489832007
sVMRKEPP
p970
F0.0004420866489832007
sVAPEX
p971
F0.0004420866489832007
sVimplanon training tracking system (itts)
p972
F0.0004420866489832007
sVLegal Adhoc Reporting Tool
p973
F0.0004420866489832007
sVField Sales Customer Finder/Maintenance
p974
F0.0004420866489832007
sVMro Spare Parts Registration
p975
F0.0004420866489832007
sVSARGen
p976
F0.0004420866489832007
sVMRLRCEXT
p977
F0.0004420866489832007
sViManage
p978
F0.0004420866489832007
sVEMEAC-GBR-Holiday/Annual Leave Booking
p979
F0.0004420866489832007
sVOneSource Global access
p980
F0.0004420866489832007
sVSIAM
p981
F0.0004420866489832007
sVSAP BW
p982
F0.011494252873563218
sVFarao
p983
F0.0004420866489832007
sVecrem: pks winnonlin and modeling
p984
F0.0004420866489832007
sVPRODUCT LAUNCH REQUIREMENTS
p985
F0.0004420866489832007
sVPublications
p986
F0.0004420866489832007
sVMSD Singapore-Sample Management System
p987
F0.0004420866489832007
sVWMS
p988
F0.0004420866489832007
sVSMS
p989
F0.0004420866489832007
sVhr/esa/site security sync
p990
F0.0004420866489832007
sVGCMMS
p991
F0.0004420866489832007
sVChemstation
p992
F0.0004420866489832007
sVdart
p993
F0.0004420866489832007
sVAP-JPN Hoken Yakkyoku
p994
F0.0004420866489832007
sVEMEAC-ITA GMP Software
p995
F0.0004420866489832007
sVICODS
p996
F0.0004420866489832007
sVPeopleSearch
p997
F0.0004420866489832007
sVAcBioReg
p998
F0.0004420866489832007
sVCYCLE TIME REPORTING
p999
F0.0004420866489832007
sVEPPM
p1000
F0.0004420866489832007
sVFXAll
p1001
F0.0004420866489832007
sVChemical Management System
p1002
F0.0004420866489832007
sVPRODUCT SOURCING APPLICATION
p1003
F0.0004420866489832007
sVPROMODEL
p1004
F0.0008841732979664014
sVGlobal Market View
p1005
F0.0008841732979664014
sVEMEAC-ITA- Export DAL data
p1006
F0.0004420866489832007
sVSDOW
p1007
F0.0004420866489832007
sVEMEAC-ESP OCS
p1008
F0.0004420866489832007
sVCall Center Plus
p1009
F0.0004420866489832007
sVSample Ordering thru Logical Allocation Rules
p1010
F0.0004420866489832007
sVAnalystPPDM
p1011
F0.0004420866489832007
sVBENTLEY REDLINE
p1012
F0.0004420866489832007
sVAP-MYS MSD Travel Request Website
p1013
F0.0004420866489832007
sVAniDB
p1014
F0.0004420866489832007
sVCRLIMS
p1015
F0.0004420866489832007
sVLA-LPO Commercial Products Lead Times
p1016
F0.0004420866489832007
sVEMEAC-NL Physician Selection for Direct Mail Campaigns
p1017
F0.0004420866489832007
sVManagement Service Fee (MSF)
p1018
F0.0004420866489832007
sVLIDDING FOIL ROBOT
p1019
F0.0004420866489832007
sVStudy Optimizer
p1020
F0.0004420866489832007
sVIPIPE
p1021
F0.0008841732979664014
sVCOMSORTer Suite
p1022
F0.0004420866489832007
sVBlackline
p1023
F0.0004420866489832007
sVmyLEARNING
p1024
F0.0004420866489832007
sVMSRS
p1025
F0.0004420866489832007
sVSAPIMAX
p1026
F0.0004420866489832007
sVEMEAC-CRO-Expense Reporting
p1027
F0.0004420866489832007
sVMETS
p1028
F0.0004420866489832007
sVAP-TWN ePP
p1029
F0.0004420866489832007
sVIHQ Field Alignments
p1030
F0.0004420866489832007
sVBallydine Intranet
p1031
F0.0004420866489832007
sVTK-DP
p1032
F0.0004420866489832007
sVSQS
p1033
F0.0004420866489832007
sVSms- Freight Carrier Selection
p1034
F0.0004420866489832007
sVARIES
p1035
F0.0004420866489832007
sVMerck DevStore
p1036
F0.0004420866489832007
sVSales and Marketing Information
p1037
F0.0004420866489832007
sVAdaptive Metadata Management
p1038
F0.0004420866489832007
sVClaims Data Validation System
p1039
F0.0004420866489832007
sVReevaluation Dating
p1040
F0.0004420866489832007
sVEMEAC-NL Farminform Sales Reporting
p1041
F0.0004420866489832007
sVBPM Services
p1042
F0.0017683465959328027
sVUSHH Consolidated Telephony System
p1043
F0.0004420866489832007
sVWORKSPACE DB
p1044
F0.0004420866489832007
sVVector NTI
p1045
F0.0004420866489832007
sVDatavision
p1046
F0.0004420866489832007
sVELMS
p1047
F0.0004420866489832007
sVMeridian
p1048
F0.0004420866489832007
sVMomentum
p1049
F0.0004420866489832007
sVSiperian MDM
p1050
F0.0004420866489832007
sVAnalysis Portfolio
p1051
F0.0008841732979664014
sVBrecgen
p1052
F0.0004420866489832007
sVVeeva CLM EUCAN
p1053
F0.0004420866489832007
sVPemac
p1054
F0.0004420866489832007
sVqsert
p1055
F0.0004420866489832007
sVCanada Extra
p1056
F0.0004420866489832007
sVSDS  Matrix
p1057
F0.0004420866489832007
sVCTRPCM
p1058
F0.0004420866489832007
sVSCF
p1059
F0.0004420866489832007
sVSCB
p1060
F0.0004420866489832007
sVRT REPORTS
p1061
F0.0017683465959328027
sVAP-KOR-Online Accounting System-E Accounting
p1062
F0.0004420866489832007
sVTK-API
p1063
F0.0004420866489832007
sVAP-JPN Bio Origin System
p1064
F0.0004420866489832007
sVERPCSO
p1065
F0.0004420866489832007
sVEMEAC-NOR PC Medical Legal
p1066
F0.0004420866489832007
sVCommunities of Practice
p1067
F0.0004420866489832007
sVPo Inquiry
p1068
F0.0004420866489832007
sVAP-JPN Library Management System
p1069
F0.0004420866489832007
sVICTS
p1070
F0.0004420866489832007
sVBatch Process Management
p1071
F0.0004420866489832007
sVCanada Pubweb
p1072
F0.0004420866489832007
sVInternational Trading System
p1073
F0.0004420866489832007
sViRIMS
p1074
F0.0004420866489832007
sVTRA
p1075
F0.0004420866489832007
sVinformatica
p1076
F0.0004420866489832007
sVmits
p1077
F0.0004420866489832007
sVAP-JPN RINGI
p1078
F0.0004420866489832007
sVHCue
p1079
F0.0004420866489832007
sVManaged Care Claims Decision Support System
p1080
F0.0004420866489832007
sVRR Donnelley Vendor Hosted System (CustomPoint
p1081
F0.0004420866489832007
sVEMEAC-GBR-Sales Force Directory
p1082
F0.0004420866489832007
sVPI
p1083
F0.005747126436781609
sVAP-CHN-Innovation Website
p1084
F0.0004420866489832007
sVGlobal LIMS
p1085
F0.0004420866489832007
sVVerkoopadministratie
p1086
F0.0004420866489832007
sVReference Manager
p1087
F0.0008841732979664014
sVAnimal Facility System Afs
p1088
F0.0004420866489832007
sVeVolve
p1089
F0.0004420866489832007
sVAPRSTAT
p1090
F0.0004420866489832007
sVPRESTO GDAM
p1091
F0.0004420866489832007
sVMIDAS CDS
p1092
F0.0004420866489832007
sVCLINPRO
p1093
F0.0004420866489832007
sVEMEAC-ESP-Conventho
p1094
F0.0004420866489832007
sVMPI
p1095
F0.0004420866489832007
sVObeliks
p1096
F0.0004420866489832007
sVStability Data Management System
p1097
F0.0004420866489832007
sVMPR
p1098
F0.0004420866489832007
sVMPS
p1099
F0.0004420866489832007
sVCasco Cmdb
p1100
F0.0004420866489832007
sVEMEAC-MDM Siperian Italy Customer Master
p1101
F0.0008841732979664014
sVIDTA
p1102
F0.0004420866489832007
sVAMRS
p1103
F0.0004420866489832007
sVCASEWISE
p1104
F0.0004420866489832007
sVPeopleSoft
p1105
F0.0004420866489832007
sVmyANIWIN
p1106
F0.0004420866489832007
sVEDI_LSP
p1107
F0.0004420866489832007
sVMRLRC
p1108
F0.0004420866489832007
sVPreven
p1109
F0.0004420866489832007
sVAP-JPN-Clinical Seminar-SLIM
p1110
F0.0004420866489832007
sVAP-JPN Zero Risk System
p1111
F0.0004420866489832007
sVLIMS - PreClin DrugMet-Watson
p1112
F0.0004420866489832007
sVbimstrgy
p1113
F0.0004420866489832007
sVLA-MEX Vendor Payments Portal
p1114
F0.0004420866489832007
sVDb Document Numbering
p1115
F0.0004420866489832007
sVAP-JPN Telephone Book
p1116
F0.0004420866489832007
sVBATCH SHEET GENERATION
p1117
F0.0004420866489832007
sVJBOSS
p1118
F0.0004420866489832007
sVEMEAC-GBR-Fitness and Lifestyle Centre Class Booking System
p1119
F0.0004420866489832007
sVSiebel/MVP
p1120
F0.0004420866489832007
sVWERCS Studio Suite
p1121
F0.0004420866489832007
sVLA-VEN-Patrocinios
p1122
F0.0004420866489832007
sVVisual Suppy Chain
p1123
F0.0004420866489832007
sVWorkshare
p1124
F0.0004420866489832007
sVInfinity QS
p1125
F0.0004420866489832007
sVIDP CRF Submit
p1126
F0.0004420866489832007
sVrlims
p1127
F0.0004420866489832007
sVMerck Frosst Exploring Data & Generate Excellence
p1128
F0.0004420866489832007
sVShop Floor Paperwork
p1129
F0.0004420866489832007
sVMASS EFFICIENCY
p1130
F0.0004420866489832007
sVEMEAC-ITA-CMS Inbound Customer Connect
p1131
F0.0004420866489832007
sVMSWB
p1132
F0.0004420866489832007
sVComposite
p1133
F0.0004420866489832007
sVIDP Central Designer
p1134
F0.0004420866489832007
sVCOSMIC
p1135
F0.0004420866489832007
sVGlobal Master Data Management
p1136
F0.0004420866489832007
sVEPPPRM
p1137
F0.0004420866489832007
sVEMEAC-ITA-Ricerca Vendite
p1138
F0.0004420866489832007
sVJDE
p1139
F0.001326259946949602
sVAP-JPN Sales Expense Management System
p1140
F0.0004420866489832007
sVTab Fusion RMS
p1141
F0.0004420866489832007
sVAP-MSD-HUB
p1142
F0.0004420866489832007
sVMerck Knowledge Net Search Center
p1143
F0.0004420866489832007
sVToolbox
p1144
F0.0004420866489832007
sVPMO
p1145
F0.0004420866489832007
sVAP-TWN-MSD Connect
p1146
F0.0004420866489832007
sVAP-KOR MSDeHR Intranet Website
p1147
F0.0004420866489832007
sVMGCS
p1148
F0.0004420866489832007
sVAviation Information Services
p1149
F0.0008841732979664014
sVOFAC Compliance Tool
p1150
F0.001326259946949602
sVBartender
p1151
F0.0004420866489832007
sVESP Trax
p1152
F0.0004420866489832007
sVADP
p1153
F0.0004420866489832007
sVWHHM Communities of Practice
p1154
F0.0004420866489832007
sVBiosolve
p1155
F0.0004420866489832007
sVN.A.W.
p1156
F0.0004420866489832007
sVOpenlab
p1157
F0.0004420866489832007
sVCransoft
p1158
F0.0004420866489832007
sVEMEAC-ITA- Product Traceability System
p1159
F0.0004420866489832007
sVLA-MEX Ipro
p1160
F0.0004420866489832007
sVLA-LPO Documentation Right First Time
p1161
F0.0004420866489832007
sVXLFit
p1162
F0.0004420866489832007
sVAP-AUS-KOFAX
p1163
F0.0004420866489832007
sVETSS
p1164
F0.0004420866489832007
sVMerck Frosst ETL
p1165
F0.0004420866489832007
sVTrademark Alternatives and Linguistic Survey System
p1166
F0.0004420866489832007
sVAP-TWN-Salary on Line
p1167
F0.0004420866489832007
sVCisco information server
p1168
F0.007073386383731211
sVAP-THA Business Intelligence Center Intranet Website
p1169
F0.0004420866489832007
sVIFP3
p1170
F0.0004420866489832007
sVVeeva BI Reports
p1171
F0.0004420866489832007
sVACOM Check Print
p1172
F0.0004420866489832007
sVEMEAC-BI-Activity and X-Force Dashboard
p1173
F0.001326259946949602
sVQUALITY MANUAL
p1174
F0.0004420866489832007
sVTravelDB
p1175
F0.0004420866489832007
sVRMC (MRL Operations Reviews)
p1176
F0.0004420866489832007
sVLA-COL Health Club
p1177
F0.0004420866489832007
sVRepfinder Intranet Web Application
p1178
F0.0004420866489832007
sVDMINVITRO
p1179
F0.0004420866489832007
sVLES
p1180
F0.0004420866489832007
sVPerspective
p1181
F0.0008841732979664014
sVWhere Used
p1182
F0.0004420866489832007
sVMonths Of Supply
p1183
F0.0004420866489832007
sVAmegaview Drug Metabolism
p1184
F0.0004420866489832007
sVAVANTs Database
p1185
F0.0004420866489832007
sVEDI SERVER/400
p1186
F0.0004420866489832007
sVLA-PRI-Trusted Link Software-MSD Carolina
p1187
F0.0004420866489832007
sVPtP-Latin America
p1188
F0.0004420866489832007
sVHyperion Diosynth
p1189
F0.0004420866489832007
sVAP-JPN Sales Force Evaluation System
p1190
F0.0004420866489832007
sVSHEBS
p1191
F0.0004420866489832007
sVEMEAC-GBR-Desktop Report (SPSS Dimensions)
p1192
F0.0004420866489832007
sVDiscovery Quant
p1193
F0.0004420866489832007
sVIVtPSMS
p1194
F0.0004420866489832007
sVLA-PER Compliance Tracking System Intranet
p1195
F0.0004420866489832007
sVBCTPKS
p1196
F0.0004420866489832007
sVComposite6.1
p1197
F0.0017683465959328027
sVTridion-Amazon Cloud
p1198
F0.0004420866489832007
sVGMS
p1199
F0.0008841732979664014
sVBranch Volume Maintenance -BVM
p1200
F0.0004420866489832007
sVAP-TWN-Targeting & Classification System(Offline Data Collection Tool+Back-end Simulation Tool)
p1201
F0.0008841732979664014
sVCanDB
p1202
F0.0004420866489832007
sVWestlaw Legal Apps
p1203
F0.0004420866489832007
sVsasts
p1204
F0.0004420866489832007
sVEinfotree
p1205
F0.0004420866489832007
sVEAL
p1206
F0.0004420866489832007
sVDLDGLIB
p1207
F0.0004420866489832007
sVSwords-Vitek2 compact Microbiology ID System
p1208
F0.0004420866489832007
sVCMM / FinanceKit / SWIFT
p1209
F0.0004420866489832007
sVData3
p1210
F0.0004420866489832007
sVEMEAC-DOCVADIS
p1211
F0.0004420866489832007
sVResearch Application
p1212
F0.0008841732979664014
sVZyimage Imaging System
p1213
F0.0004420866489832007
sVGlobal Marketing Intelligence
p1214
F0.0004420866489832007
sVScaffold Tree Viewer
p1215
F0.0004420866489832007
sVWP Power Monitoring System
p1216
F0.0004420866489832007
sVXLSLOADER
p1217
F0.0004420866489832007
sVEMEAC-GBR-WH Meetings Manager Tool
p1218
F0.0004420866489832007
sVTeam Site
p1219
F0.0004420866489832007
sVWorldwide Product Labeling
p1220
F0.0004420866489832007
sVGHH US Divisional Data Warehouse
p1221
F0.0004420866489832007
sVNG LIMS
p1222
F0.0004420866489832007
sVMAS Label Printing
p1223
F0.0004420866489832007
sVSORL
p1224
F0.0004420866489832007
sVLA-CARD Event Merck System
p1225
F0.0004420866489832007
sVEMPLOYEE DB
p1226
F0.0004420866489832007
sVHireRight
p1227
F0.0004420866489832007
sVAUTOCAD
p1228
F0.0004420866489832007
sVApplication Authorization System Aas
p1229
F0.0004420866489832007
sVEAS
p1230
F0.0004420866489832007
sVCLOCKWISE
p1231
F0.0008841732979664014
sVAP-JPN Bayer Co-marketing
p1232
F0.0004420866489832007
sVMAQS
p1233
F0.0004420866489832007
sVGlobal Entity Management System
p1234
F0.0004420866489832007
sVCerity
p1235
F0.0004420866489832007
sVSequentiele Database Barcode
p1236
F0.0004420866489832007
sVFPG
p1237
F0.0004420866489832007
sVMy Samples
p1238
F0.0004420866489832007
sVDPSSSA
p1239
F0.0004420866489832007
sVGCSO Sourcing Costing
p1240
F0.0004420866489832007
sVActiveHealth
p1241
F0.0004420866489832007
sVQuality Center
p1242
F0.0004420866489832007
sVBPCLPS
p1243
F0.0004420866489832007
sVWEB PORTAL REPORTING
p1244
F0.0004420866489832007
sVEMEAC-Car Fleet Management
p1245
F0.0004420866489832007
sVIASP
p1246
F0.0004420866489832007
sVImage Management Repository System
p1247
F0.0004420866489832007
sVLabor Distribution System
p1248
F0.0004420866489832007
sVConfiguration Item List Tool
p1249
F0.0004420866489832007
sVEMEAC-ITA-IMS Marketing and Sales
p1250
F0.0004420866489832007
sVPropecia Website
p1251
F0.0004420866489832007
sVESA
p1252
F0.0008841732979664014
sVSHEMIS
p1253
F0.0004420866489832007
sVBloomberg Anywhere and Terminal
p1254
F0.0008841732979664014
sVPitch Charts
p1255
F0.0004420866489832007
sVQCTS
p1256
F0.0004420866489832007
sVStability Study Program
p1257
F0.0004420866489832007
sVInterface Service (Gold 8-5x5)
p1258
F0.048187444739168875
sVJD Edwards
p1259
F0.002652519893899204
sV(ANSER) ACD LABS
p1260
F0.0004420866489832007
sVOrder Enquiry System
p1261
F0.0004420866489832007
sVsphinx
p1262
F0.0004420866489832007
sVVISION94
p1263
F0.0004420866489832007
sVEMEAC-ESP-Hospital mapping
p1264
F0.0004420866489832007
sVeDossier
p1265
F0.0004420866489832007
sVFinancial Activity Analysis
p1266
F0.0004420866489832007
sVLA-LPO SP-Library
p1267
F0.0004420866489832007
sVBusiness Objects
p1268
F0.0004420866489832007
sVConsumer Marketing Consumer Information Database
p1269
F0.0004420866489832007
sVEMEAC-GBR-PS Assessa
p1270
F0.0004420866489832007
sVKM Portals
p1271
F0.0004420866489832007
sVMilestone xProtect Video Management System
p1272
F0.0017683465959328027
sVSyllego
p1273
F0.0004420866489832007
sVText Verification System
p1274
F0.0004420866489832007
sVAPO
p1275
F0.0004420866489832007
sVGrievance Tracking System
p1276
F0.0004420866489832007
sVLA-Cashflow macro
p1277
F0.0004420866489832007
sVBioInventory
p1278
F0.0004420866489832007
sVAP-BiAP
p1279
F0.0004420866489832007
ssS'characters'
p1280
(dp1281
V 
p1282
F0.6794871794871795
sV&
p1283
F0.013262599469496022
sV)
p1284
F0.09195402298850575
sV(
p1285
F0.09239610963748895
sV+
p1286
F0.001326259946949602
sV-
p1287
F0.20335985853227231
sV/
p1288
F0.007515473032714412
sV.
p1289
F0.008841732979664015
sV1
p1290
F0.09062776304155615
sV0
p1291
F0.08885941644562334
sV3
p1292
F0.002652519893899204
sV2
p1293
F0.005747126436781609
sV5
p1294
F0.07471264367816093
sV4
p1295
F0.002652519893899204
sV7
p1296
F0.0004420866489832007
sV6
p1297
F0.0022104332449160036
sV9
p1298
F0.0008841732979664014
sV8
p1299
F0.07382847038019452
sV:
p1300
F0.0004420866489832007
sVA
p1301
F0.2634836427939876
sV@
p1302
F0.0004420866489832007
sVC
p1303
F0.29133510167992926
sVB
p1304
F0.10698496905393456
sVE
p1305
F0.16180371352785147
sVD
p1306
F0.14367816091954022
sVG
p1307
F0.121131741821397
sVF
p1308
F0.05083996463306808
sVI
p1309
F0.33421750663129973
sVH
p1310
F0.046419098143236075
sVK
p1311
F0.020778072502210435
sVJ
p1312
F0.023430592396109638
sVM
p1313
F0.23740053050397877
sVL
p1314
F0.10610079575596817
sVO
p1315
F0.08222811671087533
sVN
p1316
F0.07957559681697612
sVQ
p1317
F0.011936339522546418
sVP
p1318
F0.23121131741821396
sVS
p1319
F0.48099027409372236
sVR
p1320
F0.2749778956675508
sVU
p1321
F0.029177718832891247
sVT
p1322
F0.1312997347480106
sVW
p1323
F0.0618921308576481
sVV
p1324
F0.03669319186560566
sVY
p1325
F0.01282051282051282
sVX
p1326
F0.01856763925729443
sV[
p1327
F0.0004420866489832007
sVZ
p1328
F0.004862953138815208
sV]
p1329
F0.0004420866489832007
sV_
p1330
F0.003094606542882405
sVa
p1331
F0.5030946065428824
sVc
p1332
F0.3779840848806366
sVb
p1333
F0.08311229000884174
sVe
p1334
F0.6569407603890363
sVd
p1335
F0.16136162687886826
sVg
p1336
F0.22811671087533156
sVf
p1337
F0.2484526967285588
sVi
p1338
F0.41379310344827586
sVh
p1339
F0.07736516357206012
sVk
p1340
F0.0649867374005305
sVj
p1341
F0.005747126436781609
sVm
p1342
F0.20203359858532272
sVl
p1343
F0.27365163572060125
sVo
p1344
F0.5618921308576481
sVn
p1345
F0.5446507515473032
sVq
p1346
F0.008841732979664015
sVp
p1347
F0.24447391688771
sVs
p1348
F0.39036251105216624
sVr
p1349
F0.6021220159151194
sVu
p1350
F0.1290893015030946
sVt
p1351
F0.5981432360742706
sVw
p1352
F0.13395225464190982
sVv
p1353
F0.15207780725022105
sVy
p1354
F0.14721485411140584
sVx
p1355
F0.10344827586206896
sVz
p1356
F0.011052166224580018
sV\ufffd
p1357
F0.0004420866489832007
ss.