(dp0
S'values'
p1
(dp2
V
p3
F0.07073386383731212
sVRetired
p4
F0.003978779840848806
sVEnd of Life
p5
F0.004862953138815208
sVBeing Assembled
p6
F0.009725906277630416
sVNew
p7
F0.015030946065428824
sVDeployed
p8
F0.8938992042440318
sVDelete
p9
F0.0017683465959328027
ssS'characters'
p10
(dp11
V 
p12
F0.014588859416445624
sVA
p13
F0.009725906277630416
sVB
p14
F0.009725906277630416
sVE
p15
F0.004862953138815208
sVD
p16
F0.8956675508399646
sVL
p17
F0.004862953138815208
sVN
p18
F0.015030946065428824
sVR
p19
F0.003978779840848806
sVb
p20
F0.009725906277630416
sVe
p21
F0.9292661361626879
sVd
p22
F0.9124668435013262
sVg
p23
F0.009725906277630416
sVf
p24
F0.004862953138815208
sVi
p25
F0.01856763925729443
sVm
p26
F0.009725906277630416
sVl
p27
F0.905393457117595
sVo
p28
F0.898762157382847
sVn
p29
F0.014588859416445624
sVp
p30
F0.8938992042440318
sVs
p31
F0.009725906277630416
sVr
p32
F0.003978779840848806
sVt
p33
F0.005747126436781609
sVw
p34
F0.015030946065428824
sVy
p35
F0.8938992042440318
ss.