(dp0
S'values'
p1
(dp2
VWA
p3
F0.01881
sVVA
p4
F0.018915
sVDE
p5
F0.018485
sVDC
p6
F0.019385
sVWI
p7
F0.01935
sVWV
p8
F0.01942
sVHI
p9
F0.018855
sVFL
p10
F0.019005
sVWY
p11
F0.01897
sVNH
p12
F0.019245
sVNJ
p13
F0.0199
sVNM
p14
F0.01948
sVTX
p15
F0.019005
sVLA
p16
F0.018635
sVNC
p17
F0.01883
sVND
p18
F0.019395
sVNE
p19
F0.01874
sVTN
p20
F0.01932
sVNY
p21
F0.01954
sVPA
p22
F0.01948
sVCA
p23
F0.019155
sVNV
p24
F0.018815
sVPR
p25
F0.019815
sVCO
p26
F0.01918
sVMD
p27
F0.019045
sVAK
p28
F0.01816
sVAL
p29
F0.01934
sVAR
p30
F0.02013
sVVT
p31
F0.019685
sVIL
p32
F0.01939
sVGA
p33
F0.01941
sVIN
p34
F0.018875
sVIA
p35
F0.01904
sVMA
p36
F0.01899
sVAZ
p37
F0.01902
sVID
p38
F0.01922
sVCT
p39
F0.01942
sVME
p40
F0.019095
sVAK-*
p41
F0.001
sVOK
p42
F0.019735
sVOH
p43
F0.019525
sVUT
p44
F0.0196
sVMO
p45
F0.019725
sVMN
p46
F0.019285
sVMI
p47
F0.01829
sVRI
p48
F0.01938
sVKS
p49
F0.01927
sVMT
p50
F0.019795
sVMS
p51
F0.019375
sVSC
p52
F0.01945
sVKY
p53
F0.019715
sVOR
p54
F0.018665
sVSD
p55
F0.01864
ssS'characters'
p56
(dp57
V*
p58
F0.001
sV-
p59
F0.001
sVA
p60
F0.230085
sVC
p61
F0.11542
sVE
p62
F0.05632
sVD
p63
F0.11417
sVG
p64
F0.01941
sVF
p65
F0.019005
sVI
p66
F0.1524
sVH
p67
F0.057625
sVK
p68
F0.07788
sVJ
p69
F0.0199
sVM
p70
F0.17308
sVL
p71
F0.07637
sVO
p72
F0.09683
sVN
p73
F0.211425
sVP
p74
F0.039295
sVS
p75
F0.076735
sVR
p76
F0.07799
sVU
p77
F0.0196
sVT
p78
F0.116825
sVW
p79
F0.07655
sVV
p80
F0.076835
sVY
p81
F0.058225
sVX
p82
F0.019005
sVZ
p83
F0.01902
ss.