(dp0
S'output'
p1
(lp2
(I7
I3
tp3
a(I873
I3
tp4
a(I818
I3
tp5
a(I621
I3
tp6
a(I351
I4
tp7
a(I526
I4
tp8
a(I496
I3
tp9
a(I201
I3
tp10
a(I325
I4
tp11
a(I449
I4
tp12
a(I551
I4
tp13
a(I366
I3
tp14
a(I44
I4
tp15
a(I292
I3
tp16
a(I253
I3
tp17
a(I158
I4
tp18
a(I469
I3
tp19
a(I650
I3
tp20
a(I183
I4
tp21
a(I33
I3
tp22
a(I107
I4
tp23
a(I281
I4
tp24
a(I639
I4
tp25
a(I900
I4
tp26
a(I306
I4
tp27
a(I85
I3
tp28
a(I414
I3
tp29
a(I738
I3
tp30
a(I762
I4
tp31
a(I15
I4
tp32
a(I160
I3
tp33
a(I886
I3
tp34
a(I369
I4
tp35
a(I456
I4
tp36
a(I534
I3
tp37
a(I645
I4
tp38
a(I988
I4
tp39
a(I370
I3
tp40
a(I138
I4
tp41
a(I537
I3
tp42
a(I783
I3
tp43
a(I789
I4
tp44
a(I570
I3
tp45
a(I594
I4
tp46
a(I166
I3
tp47
a(I277
I4
tp48
a(I819
I3
tp49
a(I201
I4
tp50
a(I830
I4
tp51
a(I622
I3
tp52
a(I733
I4
tp53
a(I820
I4
tp54
a(I44
I3
tp55
a(I744
I4
tp56
a(I870
I3
tp57
a(I809
I3
tp58
a(I883
I4
tp59
a(I33
I4
tp60
a(I376
I4
tp61
a(I503
I3
tp62
a(I652
I4
tp63
a(I58
I4
tp64
a(I900
I3
tp65
a(I703
I3
tp66
a(I840
I4
tp67
a(I259
I4
tp68
a(I283
I3
tp69
a(I197
I4
tp70
a(I284
I4
tp71
a(I493
I3
tp72
a(I398
I4
tp73
a(I740
I4
tp74
a(I122
I3
tp75
a(I988
I3
tp76
a(I273
I3
tp77
a(I801
I4
tp78
a(I879
I4
tp79
a(I29
I4
tp80
a(I372
I4
tp81
a(I547
I4
tp82
a(I571
I3
tp83
a(I40
I4
tp84
a(I167
I3
tp85
a(I572
I4
tp86
a(I978
I3
tp87
a(I820
I3
tp88
a(I623
I3
tp89
a(I203
I3
tp90
a(I711
I4
tp91
a(I350
I3
tp92
a(I117
I4
tp93
a(I809
I4
tp94
a(I810
I3
tp95
a(I652
I3
tp96
a(I613
I3
tp97
a(I343
I4
tp98
a(I502
I3
tp99
a(I488
I3
tp100
a(I681
I4
tp101
a(I35
I3
tp102
a(I543
I4
tp103
a(I466
I4
tp104
a(I284
I3
tp105
a(I245
I3
tp106
a(I87
I3
tp107
a(I943
I3
tp108
a(I740
I3
tp109
a(I320
I3
tp110
a(I273
I4
tp111
a(I631
I4
tp112
a(I805
I4
tp113
a(I274
I3
tp114
a(I298
I4
tp115
a(I372
I3
tp116
a(I77
I3
tp117
a(I238
I4
tp118
a(I730
I3
tp119
a(I572
I3
tp120
a(I7
I4
tp121
a(I702
I3
tp122
a(I152
I3
tp123
a(I113
I3
tp124
a(I955
I4
tp125
a(I526
I3
tp126
a(I998
I4
tp127
a(I980
I4
tp128
a(I362
I3
tp129
a(I648
I4
tp130
a(I70
I4
tp131
a(I562
I3
tp132
a(I158
I3
tp133
a(I269
I4
tp134
a(I969
I3
tp135
a(I811
I3
tp136
a(I725
I4
tp137
a(I812
I4
tp138
a(I194
I3
tp139
a(I218
I4
tp140
a(I863
I3
tp141
a(I419
I4
tp142
a(I443
I3
tp143
a(I951
I4
tp144
a(I357
I4
tp145
a(I444
I4
tp146
a(I875
I4
tp147
a(I889
I4
tp148
a(I951
I3
tp149
a(I495
I3
tp150
a(I557
I4
tp151
a(I976
I4
tp152
a(I50
I4
tp153
a(I568
I4
tp154
a(I695
I3
tp155
a(I433
I3
tp156
a(I275
I3
tp157
a(I79
I3
tp158
a(I783
I4
tp159
a(I189
I4
tp160
a(I276
I4
tp161
a(I112
I3
tp162
a(I113
I4
tp163
a(I405
I4
tp164
a(I182
I3
tp165
a(I732
I4
tp166
a(I906
I4
tp167
a(I980
I3
tp168
a(I527
I3
tp169
a(I265
I3
tp170
a(I339
I4
tp171
a(I293
I4
tp172
a(I960
I4
tp173
a(I871
I4
tp174
a(I21
I4
tp175
a(I364
I4
tp176
a(I539
I4
tp177
a(I969
I4
tp178
a(I32
I4
tp179
a(I564
I4
tp180
a(I970
I3
tp181
a(I812
I3
tp182
a(I810
I4
tp183
a(I503
I4
tp184
a(I678
I4
tp185
a(I353
I3
tp186
a(I171
I4
tp187
a(I195
I3
tp188
a(I703
I4
tp189
a(I444
I3
tp190
a(I120
I4
tp191
a(I310
I4
tp192
a(I802
I3
tp193
a(I826
I4
tp194
a(I605
I3
tp195
a(I398
I3
tp196
a(I766
I4
tp197
a(I185
I3
tp198
a(I3
I4
tp199
a(I27
I3
tp200
a(I433
I4
tp201
a(I680
I3
tp202
a(I955
I3
tp203
a(I458
I4
tp204
a(I276
I3
tp205
a(I237
I3
tp206
a(I142
I4
tp207
a(I890
I3
tp208
a(I732
I3
tp209
a(I167
I4
tp210
a(I598
I4
tp211
a(I17
I3
tp212
a(I91
I4
tp213
a(I115
I3
tp214
a(I265
I4
tp215
a(I798
I4
tp216
a(I623
I4
tp217
a(I512
I3
tp218
a(I789
I3
tp219
a(I364
I3
tp220
a(I808
I4
tp221
a(I689
I3
tp222
a(I722
I3
tp223
a(I564
I3
tp224
a(I429
I4
tp225
a(I947
I4
tp226
a(I353
I4
tp227
a(I440
I4
tp228
a(I518
I3
tp229
a(I885
I4
tp230
a(I972
I4
tp231
a(I378
I4
tp232
a(I925
I3
tp233
a(I62
I4
tp234
a(I816
I3
tp235
a(I150
I3
tp236
a(I803
I3
tp237
a(I185
I4
tp238
a(I272
I4
tp239
a(I804
I4
tp240
a(I186
I3
tp241
a(I681
I3
tp242
a(I855
I3
tp243
a(I912
I4
tp244
a(I411
I4
tp245
a(I435
I3
tp246
a(I238
I3
tp247
a(I64
I3
tp248
a(I793
I3
tp249
a(I17
I4
tp250
a(I487
I3
tp251
a(I892
I4
tp252
a(I18
I3
tp253
a(I42
I4
tp254
a(I845
I3
tp255
a(I425
I3
tp256
a(I267
I3
tp257
a(I70
I3
tp258
a(I881
I3
tp259
a(I699
I4
tp260
a(I192
I4
tp261
a(I637
I4
tp262
a(I724
I4
tp263
a(I106
I3
tp264
a(I898
I4
tp265
a(I972
I3
tp266
a(I677
I3
tp267
a(I257
I3
tp268
a(I355
I3
tp269
a(I863
I4
tp270
a(I13
I4
tp271
a(I713
I3
tp272
a(I24
I4
tp273
a(I556
I4
tp274
a(I962
I3
tp275
a(I986
I4
tp276
a(I804
I3
tp277
a(I765
I3
tp278
a(I495
I4
tp279
a(I607
I3
tp280
a(I345
I3
tp281
a(I163
I4
tp282
a(I187
I3
tp283
a(I695
I4
tp284
a(I101
I4
tp285
a(I188
I4
tp286
a(I619
I4
tp287
a(I744
I3
tp288
a(I793
I4
tp289
a(I112
I4
tp290
a(I884
I4
tp291
a(I877
I3
tp292
a(I818
I4
tp293
a(I892
I3
tp294
a(I251
I3
tp295
a(I327
I4
tp296
a(I670
I3
tp297
a(I251
I4
tp298
a(I425
I4
tp299
a(I527
I4
tp300
a(I672
I3
tp301
a(I426
I3
tp302
a(I881
I4
tp303
a(I229
I3
tp304
a(I134
I4
tp305
a(I882
I3
tp306
a(I650
I4
tp307
a(I724
I3
tp308
a(I871
I3
tp309
a(I741
I3
tp310
a(I9
I3
tp311
a(I107
I3
tp312
a(I257
I4
tp313
a(I678
I3
tp314
a(I760
I3
tp315
a(I713
I4
tp316
a(I222
I4
tp317
a(I714
I3
tp318
a(I738
I4
tp319
a(I556
I3
tp320
a(I310
I3
tp321
a(I939
I4
tp322
a(I345
I4
tp323
a(I432
I4
tp324
a(I766
I3
tp325
a(I592
I3
tp326
a(I325
I3
tp327
a(I370
I4
tp328
a(I188
I3
tp329
a(I54
I4
tp330
a(I546
I3
tp331
a(I570
I4
tp332
a(I366
I4
tp333
a(I142
I3
tp334
a(I224
I3
tp335
a(I771
I4
tp336
a(I264
I4
tp337
a(I598
I3
tp338
a(I87
I4
tp339
a(I796
I4
tp340
a(I720
I4
tp341
a(I847
I3
tp342
a(I509
I3
tp343
a(I403
I4
tp344
a(I882
I4
tp345
a(I428
I4
tp346
a(I859
I4
tp347
a(I883
I3
tp348
a(I9
I4
tp349
a(I352
I4
tp350
a(I541
I4
tp351
a(I405
I3
tp352
a(I10
I3
tp353
a(I413
I4
tp354
a(I552
I4
tp355
a(I454
I3
tp356
a(I417
I3
tp357
a(I259
I3
tp358
a(I62
I3
tp359
a(I173
I4
tp360
a(I260
I4
tp361
a(I691
I4
tp362
a(I184
I4
tp363
a(I311
I3
tp364
a(I629
I4
tp365
a(I864
I4
tp366
a(I122
I4
tp367
a(I960
I3
tp368
a(I669
I3
tp369
a(I767
I3
tp370
a(I855
I4
tp371
a(I5
I4
tp372
a(I523
I4
tp373
a(I547
I3
tp374
a(I870
I4
tp375
a(I548
I4
tp376
a(I954
I3
tp377
a(I869
I4
tp378
a(I796
I3
tp379
a(I757
I3
tp380
a(I487
I4
tp381
a(I599
I3
tp382
a(I337
I3
tp383
a(I155
I4
tp384
a(I93
I4
tp385
a(I180
I4
tp386
a(I428
I3
tp387
a(I133
I3
tp388
a(I294
I4
tp389
a(I786
I3
tp390
a(I537
I4
tp391
a(I884
I3
tp392
a(I933
I4
tp393
a(I750
I4
tp394
a(I169
I3
tp395
a(I417
I4
tp396
a(I949
I4
tp397
a(I689
I4
tp398
a(I260
I3
tp399
a(I221
I3
tp400
a(I63
I3
tp401
a(I932
I4
tp402
a(I582
I4
tp403
a(I296
I3
tp404
a(I75
I4
tp405
a(I905
I3
tp406
a(I607
I4
tp407
a(I752
I3
tp408
a(I100
I4
tp409
a(I274
I4
tp410
a(I792
I4
tp411
a(I943
I4
tp412
a(I641
I3
tp413
a(I730
I4
tp414
a(I548
I3
tp415
a(I350
I4
tp416
a(I128
I3
tp417
a(I349
I4
tp418
a(I337
I4
tp419
a(I424
I4
tp420
a(I584
I3
tp421
a(I956
I4
tp422
a(I362
I4
tp423
a(I180
I3
tp424
a(I502
I4
tp425
a(I46
I4
tp426
a(I538
I3
tp427
a(I562
I4
tp428
a(I134
I3
tp429
a(I501
I4
tp430
a(I945
I3
tp431
a(I169
I4
tp432
a(I194
I4
tp433
a(I839
I3
tp434
a(I626
I3
tp435
a(I419
I3
tp436
a(I222
I3
tp437
a(I333
I4
tp438
a(I420
I4
tp439
a(I851
I4
tp440
a(I875
I3
tp441
a(I344
I4
tp442
a(I876
I4
tp443
a(I100
I3
tp444
a(I544
I4
tp445
a(I671
I3
tp446
a(I409
I3
tp447
a(I54
I3
tp448
a(I165
I4
tp449
a(I508
I4
tp450
a(I303
I3
tp451
a(I621
I4
tp452
a(I956
I3
tp453
a(I661
I3
tp454
a(I759
I3
tp455
a(I497
I3
tp456
a(I339
I3
tp457
a(I847
I4
tp458
a(I253
I4
tp459
a(I697
I3
tp460
a(I539
I3
tp461
a(I945
I4
tp462
a(I8
I4
tp463
a(I135
I3
tp464
a(I634
I3
tp465
a(I702
I4
tp466
a(I946
I3
tp467
a(I970
I4
tp468
a(I591
I3
tp469
a(I329
I3
tp470
a(I171
I3
tp471
a(I679
I4
tp472
a(I942
I3
tp473
a(I85
I4
tp474
a(I529
I3
tp475
a(I603
I4
tp476
a(I420
I3
tp477
a(I96
I4
tp478
a(I934
I4
tp479
a(I778
I3
tp480
a(I802
I4
tp481
a(I876
I3
tp482
a(I686
I3
tp483
a(I311
I4
tp484
a(I742
I4
tp485
a(I456
I3
tp486
a(I729
I3
tp487
a(I3
I3
tp488
a(I409
I4
tp489
a(I119
I3
tp490
a(I767
I4
tp491
a(I617
I3
tp492
a(I410
I3
tp493
a(I508
I3
tp494
a(I213
I3
tp495
a(I374
I4
tp496
a(I866
I3
tp497
a(I890
I4
tp498
a(I928
I4
tp499
a(I249
I3
tp500
a(I67
I4
tp501
a(I91
I3
tp502
a(I497
I4
tp503
a(I599
I4
tp504
a(I317
I3
tp505
a(I777
I3
tp506
a(I498
I3
tp507
a(I697
I4
tp508
a(I784
I4
tp509
a(I414
I4
tp510
a(I206
I4
tp511
a(I698
I3
tp512
a(I722
I4
tp513
a(I294
I3
tp514
a(I207
I4
tp515
a(I376
I3
tp516
a(I923
I4
tp517
a(I947
I3
tp518
a(I329
I4
tp519
a(I750
I3
tp520
a(I948
I4
tp521
a(I330
I3
tp522
a(I529
I4
tp523
a(I901
I3
tp524
a(I999
I3
tp525
a(I530
I3
tp526
a(I63
I4
tp527
a(I493
I4
tp528
a(I504
I4
tp529
a(I582
I3
tp530
a(I832
I4
tp531
a(I162
I3
tp532
a(I186
I4
tp533
a(I617
I4
tp534
a(I686
I4
tp535
a(I126
I4
tp536
a(I387
I4
tp537
a(I411
I3
tp538
a(I830
I3
tp539
a(I40
I3
tp540
a(I412
I4
tp541
a(I843
I4
tp542
a(I249
I4
tp543
a(I336
I4
tp544
a(I463
I3
tp545
a(I873
I4
tp546
a(I868
I4
tp547
a(I250
I3
tp548
a(I18
I4
tp549
a(I536
I4
tp550
a(I46
I3
tp551
a(I952
I3
tp552
a(I500
I4
tp553
a(I675
I4
tp554
a(I699
I3
tp555
a(I168
I4
tp556
a(I613
I4
tp557
a(I700
I4
tp558
a(I82
I3
tp559
a(I106
I4
tp560
a(I948
I3
tp561
a(I624
I4
tp562
a(I814
I4
tp563
a(I489
I3
tp564
a(I307
I4
tp565
a(I856
I3
tp566
a(I839
I4
tp567
a(I926
I3
tp568
a(I245
I4
tp569
a(I332
I4
tp570
a(I763
I4
tp571
a(I285
I3
tp572
a(I383
I3
tp573
a(I862
I3
tp574
a(I962
I4
tp575
a(I814
I3
tp576
a(I634
I4
tp577
a(I583
I3
tp578
a(I139
I4
tp579
a(I163
I3
tp580
a(I671
I4
tp581
a(I77
I4
tp582
a(I521
I3
tp583
a(I619
I3
tp584
a(I412
I3
tp585
a(I373
I3
tp586
a(I215
I3
tp587
a(I620
I4
tp588
a(I770
I3
tp589
a(I868
I3
tp590
a(I573
I3
tp591
a(I303
I4
tp592
a(I734
I4
tp593
a(I153
I3
tp594
a(I227
I4
tp595
a(I317
I4
tp596
a(I759
I4
tp597
a(I648
I3
tp598
a(I609
I3
tp599
a(I402
I3
tp600
a(I426
I4
tp601
a(I500
I3
tp602
a(I47
I3
tp603
a(I858
I3
tp604
a(I469
I4
tp605
a(I700
I3
tp606
a(I135
I4
tp607
a(I241
I3
tp608
a(I489
I4
tp609
a(I591
I4
tp610
a(I490
I3
tp611
a(I332
I3
tp612
a(I776
I4
tp613
a(I406
I3
tp614
a(I714
I4
tp615
a(I518
I4
tp616
a(I939
I3
tp617
a(I408
I4
tp618
a(I742
I3
tp619
a(I568
I3
tp620
a(I940
I4
tp621
a(I346
I4
tp622
a(I521
I4
tp623
a(I670
I4
tp624
a(I522
I3
tp625
a(I546
I4
tp626
a(I620
I3
tp627
a(I374
I3
tp628
a(I771
I3
tp629
a(I153
I4
tp630
a(I496
I4
tp631
a(I609
I4
tp632
a(I118
I4
tp633
a(I403
I3
tp634
a(I206
I3
tp635
a(I32
I3
tp636
a(I835
I4
tp637
a(I859
I3
tp638
a(I241
I4
tp639
a(I455
I3
tp640
a(I860
I4
tp641
a(I242
I3
tp642
a(I10
I4
tp643
a(I911
I4
tp644
a(I655
I3
tp645
a(I393
I3
tp646
a(I467
I4
tp647
a(I840
I3
tp648
a(I999
I4
tp649
a(I120
I3
tp650
a(I849
I3
tp651
a(I667
I4
tp652
a(I641
I4
tp653
a(I160
I4
tp654
a(I287
I3
tp655
a(I605
I4
tp656
a(I692
I4
tp657
a(I74
I3
tp658
a(I940
I3
tp659
a(I645
I3
tp660
a(I743
I3
tp661
a(I150
I4
tp662
a(I126
I3
tp663
a(I237
I4
tp664
a(I141
I3
tp665
a(I523
I3
tp666
a(I277
I3
tp667
a(I190
I3
tp668
a(I862
I4
tp669
a(I954
I4
tp670
a(I733
I3
tp671
a(I463
I4
tp672
a(I894
I4
tp673
a(I912
I3
tp674
a(I313
I3
tp675
a(I131
I4
tp676
a(I155
I3
tp677
a(I691
I3
tp678
a(I808
I3
tp679
a(I156
I4
tp680
a(I587
I4
tp681
a(I454
I4
tp682
a(I207
I3
tp683
a(I786
I4
tp684
a(I860
I3
tp685
a(I726
I4
tp686
a(I440
I3
tp687
a(I145
I3
tp688
a(I219
I4
tp689
a(I393
I4
tp690
a(I309
I3
tp691
a(I925
I4
tp692
a(I597
I3
tp693
a(I394
I3
tp694
a(I849
I4
tp695
a(I197
I3
tp696
a(I358
I4
tp697
a(I850
I3
tp698
a(I692
I3
tp699
a(I383
I4
tp700
a(I558
I4
tp701
a(I272
I3
tp702
a(I75
I3
tp703
a(I583
I4
tp704
a(I76
I4
tp705
a(I324
I3
tp706
a(I29
I3
tp707
a(I190
I4
tp708
a(I682
I3
tp709
a(I215
I4
tp710
a(I313
I4
tp711
a(I734
I3
tp712
a(I845
I4
tp713
a(I512
I4
tp714
a(I314
I3
tp715
a(I156
I3
tp716
a(I117
I3
tp717
a(I514
I3
tp718
a(I538
I4
tp719
a(I47
I4
tp720
a(I192
I3
tp721
a(I921
I3
tp722
a(I145
I4
tp723
a(I488
I4
tp724
a(I998
I3
tp725
a(I677
I4
tp726
a(I146
I3
tp727
a(I729
I4
tp728
a(I601
I4
tp729
a(I832
I3
tp730
a(I815
I3
tp731
a(I816
I4
tp732
a(I626
I4
tp733
a(I831
I4
tp734
a(I309
I4
tp735
a(I851
I3
tp736
a(I320
I4
tp737
a(I447
I3
tp738
a(I765
I4
tp739
a(I976
I3
tp740
a(I76
I3
tp741
a(I805
I3
tp742
a(I785
I4
tp743
a(I324
I4
tp744
a(I459
I4
tp745
a(I777
I4
tp746
a(I141
I4
tp747
a(I152
I4
tp748
a(I279
I3
tp749
a(I597
I4
tp750
a(I684
I4
tp751
a(I66
I3
tp752
a(I932
I3
tp753
a(I735
I3
tp754
a(I118
I3
tp755
a(I229
I4
tp756
a(I316
I4
tp757
a(I747
I4
tp758
a(I921
I4
tp759
a(I269
I3
tp760
a(I367
I3
tp761
a(I516
I4
tp762
a(I922
I3
tp763
a(I946
I4
tp764
a(I725
I3
tp765
a(I455
I4
tp766
a(I567
I3
tp767
a(I379
I4
tp768
a(I655
I4
tp769
a(I761
I3
tp770
a(I579
I4
tp771
a(I603
I3
tp772
a(I357
I3
tp773
a(I856
I4
tp774
a(I262
I4
tp775
a(I676
I4
tp776
a(I778
I4
tp777
a(I557
I3
tp778
a(I287
I4
tp779
a(I432
I3
tp780
a(I137
I3
tp781
a(I743
I4
tp782
a(I593
I3
tp783
a(I386
I3
tp784
a(I410
I4
tp785
a(I189
I3
tp786
a(I31
I3
tp787
a(I866
I4
tp788
a(I684
I3
tp789
a(I438
I3
tp790
a(I264
I3
tp791
a(I225
I3
tp792
a(I67
I3
tp793
a(I894
I3
tp794
a(I720
I3
tp795
a(I498
I4
tp796
a(I316
I3
tp797
a(I21
I3
tp798
a(I182
I4
tp799
a(I698
I4
tp800
a(I516
I3
tp801
a(I942
I4
tp802
a(I270
I3
tp803
a(I352
I3
tp804
a(I57
I3
tp805
a(I923
I3
tp806
a(I726
I3
tp807
a(I552
I3
tp808
a(I306
I3
tp809
a(I330
I4
tp810
a(I761
I4
tp811
a(I14
I4
tp812
a(I762
I3
tp813
a(I530
I4
tp814
a(I358
I3
tp815
a(I184
I3
tp816
a(I513
I3
tp817
a(I926
I4
tp818
a(I137
I4
tp819
a(I927
I3
tp820
a(I558
I3
tp821
a(I669
I4
tp822
a(I952
I4
tp823
a(I138
I3
tp824
a(I162
I4
tp825
a(I593
I4
tp826
a(I680
I4
tp827
a(I102
I4
tp828
a(I594
I3
tp829
a(I387
I3
tp830
a(I127
I4
tp831
a(I388
I4
tp832
a(I819
I4
tp833
a(I843
I3
tp834
a(I225
I4
tp835
a(I439
I3
tp836
a(I757
I4
tp837
a(I844
I4
tp838
a(I250
I4
tp839
a(I270
I4
tp840
a(I133
I4
tp841
a(I675
I3
tp842
a(I57
I4
tp843
a(I429
I3
tp844
a(I271
I3
tp845
a(I413
I3
tp846
a(I58
I3
tp847
a(I82
I4
tp848
a(I885
I3
tp849
a(I727
I3
tp850
a(I283
I4
tp851
a(I307
I3
tp852
a(I815
I4
tp853
a(I221
I4
tp854
a(I665
I3
tp855
a(I763
I3
tp856
a(I359
I3
tp857
a(I447
I4
tp858
a(I438
I4
tp859
a(I139
I3
tp860
a(I792
I3
tp861
a(I140
I4
tp862
a(I571
I4
tp863
a(I388
I3
tp864
a(I64
I4
tp865
a(I510
I4
tp866
a(I869
I3
tp867
a(I770
I4
tp868
a(I844
I3
tp869
a(I279
I4
tp870
a(I424
I3
tp871
a(I129
I3
tp872
a(I203
I4
tp873
a(I227
I3
tp874
a(I711
I3
tp875
a(I735
I4
tp876
a(I346
I3
tp877
a(I228
I4
tp878
a(I402
I4
tp879
a(I342
I4
tp880
a(I449
I3
tp881
a(I858
I4
tp882
a(I676
I3
tp883
a(I637
I3
tp884
a(I367
I4
tp885
a(I542
I4
tp886
a(I35
I4
tp887
a(I567
I4
tp888
a(I978
I4
tp889
a(I601
I3
tp890
a(I466
I3
tp891
a(I490
I4
tp892
a(I665
I4
tp893
a(I13
I3
tp894
a(I111
I3
tp895
a(I262
I3
tp896
a(I630
I4
tp897
a(I344
I3
tp898
a(I49
I3
tp899
a(I911
I3
tp900
a(I544
I3
tp901
a(I916
I4
tp902
a(I298
I3
tp903
a(I140
I3
tp904
a(I101
I3
tp905
a(I522
I4
tp906
a(I31
I4
tp907
a(I349
I3
tp908
a(I24
I3
tp909
a(I129
I4
tp910
a(I927
I4
tp911
a(I79
I4
tp912
a(I661
I4
tp913
a(I801
I3
tp914
a(I228
I3
tp915
a(I672
I4
tp916
a(I509
I4
tp917
a(I119
I4
tp918
a(I8
I3
tp919
a(I993
I3
tp920
a(I811
I4
tp921
a(I835
I3
tp922
a(I406
I4
tp923
a(I431
I3
tp924
a(I798
I3
tp925
a(I218
I3
tp926
a(I242
I4
tp927
a(I760
I4
tp928
a(I443
I4
tp929
a(I467
I3
tp930
a(I14
I3
tp931
a(I96
I3
tp932
a(I468
I4
tp933
a(I667
I3
tp934
a(I49
I4
tp935
a(I922
I4
tp936
a(I50
I3
tp937
a(I74
I4
tp938
a(I916
I3
tp939
a(I592
I4
tp940
a(I782
I4
tp941
a(I822
I3
tp942
a(I275
I4
tp943
a(I102
I3
tp944
a(I213
I4
tp945
a(I300
I4
tp946
a(I905
I4
tp947
a(I224
I4
tp948
a(I351
I3
tp949
a(I906
I3
tp950
a(I439
I4
tp951
a(I551
I3
tp952
a(I289
I3
tp953
a(I131
I3
tp954
a(I784
I3
tp955
a(I132
I4
tp956
a(I587
I3
tp957
a(I993
I4
tp958
a(I183
I3
tp959
a(I541
I3
tp960
a(I271
I4
tp961
a(I639
I3
tp962
a(I195
I4
tp963
a(I219
I3
tp964
a(I822
I4
tp965
a(I727
I4
tp966
a(I901
I4
tp967
a(I394
I4
tp968
a(I468
I3
tp969
a(I173
I3
tp970
a(I15
I3
tp971
a(I826
I3
tp972
a(I850
I4
tp973
a(I629
I3
tp974
a(I359
I4
tp975
a(I534
I4
tp976
a(I504
I3
tp977
a(I27
I4
tp978
a(I127
I3
tp979
a(I458
I3
tp980
a(I928
I3
tp981
a(I300
I3
tp982
a(I5
I3
tp983
a(I166
I4
tp984
a(I889
I3
tp985
a(I682
I4
tp986
a(I510
I3
tp987
a(I622
I4
tp988
a(I336
I3
tp989
a(I115
I4
tp990
a(I289
I4
tp991
a(I536
I3
tp992
a(I785
I3
tp993
a(I314
I4
tp994
a(I132
I3
tp995
a(I93
I3
tp996
a(I514
I4
tp997
a(I342
I3
tp998
a(I168
I3
tp999
a(I897
I3
tp1000
a(I327
I3
tp1001
a(I542
I3
tp1002
a(I624
I3
tp1003
a(I996
I4
tp1004
a(I378
I3
tp1005
a(I146
I4
tp1006
a(I949
I3
tp1007
a(I430
I3
tp1008
a(I886
I4
tp1009
a(I111
I4
tp1010
a(I285
I4
tp1011
a(I803
I4
tp1012
a(I296
I4
tp1013
a(I630
I3
tp1014
a(I741
I4
tp1015
a(I828
I4
tp1016
a(I752
I4
tp1017
a(I879
I3
tp1018
a(I435
I4
tp1019
a(I459
I3
tp1020
a(I933
I3
tp1021
a(I373
I4
tp1022
a(I128
I4
tp1023
a(I573
I4
tp1024
a(I42
I3
tp1025
a(I66
I4
tp1026
a(I584
I4
tp1027
a(I430
I4
tp1028
a(I293
I3
tp1029
a(I267
I4
tp1030
a(I877
I4
tp1031
a(I679
I3
tp1032
a(I292
I4
tp1033
a(I747
I3
tp1034
a(I897
I4
tp1035
a(I501
I3
tp1036
a(I343
I3
tp1037
a(I898
I3
tp1038
a(I513
I4
tp1039
a(I996
I3
tp1040
a(I831
I3
tp1041
a(I431
I4
tp1042
a(I543
I3
tp1043
a(I281
I3
tp1044
a(I355
I4
tp1045
a(I379
I3
tp1046
a(I934
I3
tp1047
a(I776
I3
tp1048
a(I579
I3
tp1049
a(I333
I3
tp1050
a(I986
I3
tp1051
a(I828
I3
tp1052
a(I631
I3
tp1053
a(I408
I3
tp1054
a(I369
I3
tp1055
a(I187
I4
tp1056
a(I782
I3
tp1057
a(I864
I3
tp1058
a(I386
I4
tp1059
a(I165
I3
tp1060
asS'runtime'
p1061
F0.1389451026916504
sS'name'
p1062
S'["fd_checker", [["jounral_abbreviation", "journal_title"]]]'
p1063
s.