(dp0
S'output'
p1
(lp2
(I549
I9
tp3
a(I699
I9
tp4
a(I290
I9
tp5
a(I734
I9
tp6
a(I378
I9
tp7
a(I520
I9
tp8
a(I78
I9
tp9
a(I411
I9
tp10
a(I398
I9
tp11
a(I330
I9
tp12
asS'runtime'
p13
F0.0008909702301025391
sS'name'
p14
S'["regex", [["article_pagination", "[J]", "OM"]]]'
p15
s.