(dp0
S'output'
p1
(lp2
(I676
I10
tp3
a(I555
I10
tp4
a(I622
I10
tp5
a(I644
I10
tp6
a(I875
I10
tp7
a(I975
I10
tp8
a(I532
I10
tp9
a(I949
I10
tp10
a(I71
I10
tp11
a(I694
I10
tp12
a(I690
I10
tp13
asS'runtime'
p14
F0.0009298324584960938
sS'name'
p15
S'["regex", [["author_list", "[\\u0326]", "OM"]]]'
p16
s.