(dp0
S'output'
p1
(lp2
(I408
I9
tp3
a(I435
I9
tp4
a(I639
I9
tp5
a(I157
I9
tp6
a(I875
I9
tp7
a(I758
I9
tp8
a(I333
I9
tp9
a(I141
I9
tp10
a(I622
I9
tp11
a(I876
I9
tp12
asS'runtime'
p13
F0.0008912086486816406
sS'name'
p14
S'["regex", [["article_pagination", "[z]", "OM"]]]'
p15
s.