(dp0
S'output'
p1
(lp2
(I337
I5
tp3
a(I543
I5
tp4
a(I912
I5
tp5
a(I587
I5
tp6
a(I882
I5
tp7
a(I127
I5
tp8
a(I118
I5
tp9
a(I926
I5
tp10
a(I189
I5
tp11
asS'runtime'
p12
F0.0008580684661865234
sS'name'
p13
S'["regex", [["journal_issn", "[c]", "OM"]]]'
p14
s.