(dp0
S'output'
p1
(lp2
(I798
I1
tp3
a(I973
I1
tp4
a(I574
I1
tp5
a(I922
I1
tp6
a(I168
I1
tp7
a(I469
I1
tp8
a(I55
I1
tp9
a(I980
I1
tp10
a(I766
I1
tp11
a(I632
I1
tp12
a(I907
I1
tp13
a(I650
I1
tp14
a(I439
I1
tp15
a(I629
I1
tp16
a(I517
I1
tp17
a(I950
I1
tp18
a(I979
I1
tp19
a(I516
I1
tp20
a(I146
I1
tp21
asS'runtime'
p22
F0.0011889934539794922
sS'name'
p23
S'["regex", [["article_title", "[/]", "OM"]]]'
p24
s.