(dp0
S'output'
p1
(lp2
(I972
I2
tp3
a(I237
I2
tp4
a(I520
I2
tp5
a(I966
I2
tp6
a(I361
I2
tp7
a(I84
I2
tp8
a(I427
I2
tp9
a(I30
I2
tp10
a(I885
I2
tp11
a(I183
I2
tp12
a(I570
I2
tp13
a(I393
I2
tp14
a(I787
I2
tp15
a(I262
I2
tp16
a(I671
I2
tp17
a(I770
I2
tp18
a(I409
I2
tp19
a(I621
I2
tp20
a(I91
I2
tp21
a(I608
I2
tp22
a(I749
I2
tp23
asS'runtime'
p24
F0.0010519027709960938
sS'name'
p25
S'["regex", [["article_languange", "[r]", "OM"]]]'
p26
s.