(dp0
S'output'
p1
(lp2
(I189
I6
tp3
a(I528
I6
tp4
a(I543
I6
tp5
a(I554
I6
tp6
a(I113
I6
tp7
a(I979
I6
tp8
a(I784
I6
tp9
a(I901
I6
tp10
a(I472
I6
tp11
a(I999
I6
tp12
a(I155
I6
tp13
a(I334
I6
tp14
a(I853
I6
tp15
a(I22
I6
tp16
a(I104
I6
tp17
a(I457
I6
tp18
a(I684
I6
tp19
a(I831
I6
tp20
a(I324
I6
tp21
a(I170
I6
tp22
a(I601
I6
tp23
a(I443
I6
tp24
a(I110
I6
tp25
a(I621
I6
tp26
a(I463
I6
tp27
a(I136
I6
tp28
a(I156
I6
tp29
a(I75
I6
tp30
a(I765
I6
tp31
a(I95
I6
tp32
a(I514
I6
tp33
a(I433
I6
tp34
a(I624
I6
tp35
a(I453
I6
tp36
a(I295
I6
tp37
a(I970
I6
tp38
a(I300
I6
tp39
a(I625
I6
tp40
a(I141
I6
tp41
a(I931
I6
tp42
a(I85
I6
tp43
a(I777
I6
tp44
a(I363
I6
tp45
a(I589
I6
tp46
a(I742
I6
tp47
a(I568
I6
tp48
a(I234
I6
tp49
a(I256
I6
tp50
a(I727
I6
tp51
a(I890
I6
tp52
a(I41
I6
tp53
a(I907
I6
tp54
a(I574
I6
tp55
a(I774
I6
tp56
a(I261
I6
tp57
a(I534
I6
tp58
a(I697
I6
tp59
a(I364
I6
tp60
a(I27
I6
tp61
a(I717
I6
tp62
a(I841
I6
tp63
a(I862
I6
tp64
a(I191
I6
tp65
a(I915
I6
tp66
a(I632
I6
tp67
a(I391
I6
tp68
a(I42
I6
tp69
a(I473
I6
tp70
a(I493
I6
tp71
a(I581
I6
tp72
a(I479
I6
tp73
a(I679
I6
tp74
a(I842
I6
tp75
a(I172
I6
tp76
a(I14
I6
tp77
a(I608
I6
tp78
a(I111
I6
tp79
a(I18
I6
tp80
a(I982
I6
tp81
a(I823
I6
tp82
a(I474
I6
tp83
a(I137
I6
tp84
a(I255
I6
tp85
a(I162
I6
tp86
a(I4
I6
tp87
a(I435
I6
tp88
a(I440
I6
tp89
a(I455
I6
tp90
a(I793
I6
tp91
a(I143
I6
tp92
a(I818
I6
tp93
a(I758
I6
tp94
a(I72
I6
tp95
a(I250
I6
tp96
a(I272
I6
tp97
a(I962
I6
tp98
a(I723
I6
tp99
a(I134
I6
tp100
a(I138
I6
tp101
a(I590
I6
tp102
a(I77
I6
tp103
a(I896
I6
tp104
a(I867
I6
tp105
a(I622
I6
tp106
a(I713
I6
tp107
a(I892
I6
tp108
a(I555
I6
tp109
a(I221
I6
tp110
a(I422
I6
tp111
a(I504
I6
tp112
a(I938
I6
tp113
a(I857
I6
tp114
a(I780
I6
tp115
a(I366
I6
tp116
a(I192
I6
tp117
a(I830
I6
tp118
a(I566
I6
tp119
a(I53
I6
tp120
a(I570
I6
tp121
a(I924
I6
tp122
a(I863
I6
tp123
a(I689
I6
tp124
a(I19
I6
tp125
a(I709
I6
tp126
a(I987
I6
tp127
a(I397
I6
tp128
a(I992
I6
tp129
a(I495
I6
tp130
a(I914
I6
tp131
a(I341
I6
tp132
a(I183
I6
tp133
a(I346
I6
tp134
a(I107
I6
tp135
a(I516
I6
tp136
a(I112
I6
tp137
a(I900
I6
tp138
a(I839
I6
tp139
a(I685
I6
tp140
a(I512
I6
tp141
a(I527
I6
tp142
a(I451
I6
tp143
a(I117
I6
tp144
a(I968
I6
tp145
a(I983
I6
tp146
a(I122
I6
tp147
a(I809
I6
tp148
a(I651
I6
tp149
a(I318
I6
tp150
a(I656
I6
tp151
a(I878
I6
tp152
a(I834
I6
tp153
a(I164
I6
tp154
a(I83
I6
tp155
a(I953
I6
tp156
a(I108
I6
tp157
a(I973
I6
tp158
a(I303
I6
tp159
a(I232
I6
tp160
a(I764
I6
tp161
a(I93
I6
tp162
a(I432
I6
tp163
a(I98
I6
tp164
a(I531
I6
tp165
a(I883
I6
tp166
a(I806
I6
tp167
a(I417
I6
tp168
a(I259
I6
tp169
a(I264
I6
tp170
a(I954
I6
tp171
a(I796
I6
tp172
a(I894
I6
tp173
a(I893
I6
tp174
a(I208
I6
tp175
a(I223
I6
tp176
a(I403
I6
tp177
a(I69
I6
tp178
a(I423
I6
tp179
a(I505
I6
tp180
a(I270
I6
tp181
a(I352
I6
tp182
a(I367
I6
tp183
a(I35
I6
tp184
a(I491
I6
tp185
a(I926
I6
tp186
a(I337
I6
tp187
a(I260
I6
tp188
a(I179
I6
tp189
a(I362
I6
tp190
a(I537
I6
tp191
a(I557
I6
tp192
a(I384
I6
tp193
a(I399
I6
tp194
a(I562
I6
tp195
a(I404
I6
tp196
a(I502
I6
tp197
a(I501
I6
tp198
a(I681
I6
tp199
a(I348
I6
tp200
a(I523
I6
tp201
asS'runtime'
p202
F0.0009000301361083984
sS'name'
p203
S'["regex", [["article_jvolumn", "[3]", "OM"]]]'
p204
s.