(dp0
S'output'
p1
(lp2
(I838
I4
tp3
a(I842
I4
tp4
a(I653
I4
tp5
a(I356
I4
tp6
a(I787
I4
tp7
a(I658
I4
tp8
a(I608
I4
tp9
a(I34
I4
tp10
a(I240
I4
tp11
a(I159
I4
tp12
a(I205
I4
tp13
a(I611
I4
tp14
a(I550
I4
tp15
a(I176
I4
tp16
a(I560
I4
tp17
a(I754
I4
tp18
a(I632
I4
tp19
a(I576
I4
tp20
a(I382
I4
tp21
a(I212
I4
tp22
a(I515
I4
tp23
a(I305
I4
tp24
a(I136
I4
tp25
asS'runtime'
p26
F0.0008969306945800781
sS'name'
p27
S'["regex", [["jounral_abbreviation", "[k]", "OM"]]]'
p28
s.