(dp0
S'output'
p1
(lp2
(I579
I2
tp3
a(I920
I2
tp4
a(I427
I2
tp5
a(I784
I2
tp6
a(I952
I2
tp7
a(I796
I2
tp8
a(I152
I2
tp9
a(I778
I2
tp10
asS'runtime'
p11
F0.001043081283569336
sS'name'
p12
S'["regex", [["article_languange", "[t]", "OM"]]]'
p13
s.