(dp0
S'output'
p1
(lp2
(I677
I9
tp3
a(I147
I9
tp4
a(I720
I9
tp5
a(I413
I9
tp6
a(I892
I9
tp7
a(I776
I9
tp8
a(I333
I9
tp9
a(I269
I9
tp10
a(I283
I9
tp11
a(I684
I9
tp12
asS'runtime'
p13
F0.0008900165557861328
sS'name'
p14
S'["regex", [["article_pagination", "[O]", "OM"]]]'
p15
s.