(dp0
S'output'
p1
(lp2
(I966
I4
tp3
a(I69
I4
tp4
a(I555
I4
tp5
a(I953
I4
tp6
a(I950
I4
tp7
a(I846
I4
tp8
a(I685
I4
tp9
a(I482
I4
tp10
a(I566
I4
tp11
a(I460
I4
tp12
a(I974
I4
tp13
a(I483
I4
tp14
a(I450
I4
tp15
asS'runtime'
p16
F0.0008730888366699219
sS'name'
p17
S'["regex", [["jounral_abbreviation", "[L]", "OM"]]]'
p18
s.