(dp0
S'output'
p1
(lp2
(I118
I3
tp3
a(I744
I3
tp4
a(I417
I3
tp5
a(I35
I3
tp6
a(I734
I3
tp7
a(I271
I3
tp8
a(I496
I3
tp9
a(I282
I3
tp10
a(I619
I3
tp11
a(I759
I3
tp12
a(I600
I3
tp13
a(I129
I3
tp14
a(I691
I3
tp15
a(I701
I3
tp16
a(I430
I3
tp17
a(I672
I3
tp18
a(I859
I3
tp19
asS'runtime'
p20
F0.0011110305786132812
sS'name'
p21
S'["regex", [["journal_title", "[V]", "OM"]]]'
p22
s.