(dp0
S'output'
p1
(lp2
(I983
I5
tp3
a(I587
I5
tp4
a(I434
I5
tp5
a(I440
I5
tp6
a(I391
I5
tp7
a(I990
I5
tp8
a(I130
I5
tp9
a(I131
I5
tp10
asS'runtime'
p11
F0.0008609294891357422
sS'name'
p12
S'["regex", [["journal_issn", "[b]", "OM"]]]'
p13
s.