(dp0
S'output'
p1
(lp2
(I837
I4
tp3
a(I848
I4
tp4
a(I525
I4
tp5
a(I356
I4
tp6
a(I19
I4
tp7
a(I39
I4
tp8
a(I470
I4
tp9
a(I981
I4
tp10
a(I475
I4
tp11
a(I480
I4
tp12
a(I674
I4
tp13
a(I81
I4
tp14
a(I846
I4
tp15
a(I614
I4
tp16
a(I302
I4
tp17
a(I737
I4
tp18
a(I758
I4
tp19
a(I0
I4
tp20
a(I958
I4
tp21
a(I957
I4
tp22
a(I968
I4
tp23
a(I471
I4
tp24
a(I553
I4
tp25
a(I144
I4
tp26
a(I78
I4
tp27
a(I640
I4
tp28
a(I595
I4
tp29
a(I88
I4
tp30
a(I790
I4
tp31
a(I764
I4
tp32
a(I795
I4
tp33
a(I282
I4
tp34
a(I226
I4
tp35
a(I913
I4
tp36
a(I422
I4
tp37
a(I252
I4
tp38
a(I427
I4
tp39
a(I938
I4
tp40
a(I982
I4
tp41
a(I959
I4
tp42
a(I878
I4
tp43
a(I365
I4
tp44
a(I688
I4
tp45
a(I371
I4
tp46
a(I545
I4
tp47
a(I647
I4
tp48
a(I53
I4
tp49
a(I258
I4
tp50
a(I791
I4
tp51
a(I709
I4
tp52
a(I715
I4
tp53
a(I121
I4
tp54
a(I910
I4
tp55
a(I321
I4
tp56
a(I920
I4
tp57
a(I794
I4
tp58
a(I997
I4
tp59
a(I685
I4
tp60
a(I179
I4
tp61
a(I690
I4
tp62
a(I97
I4
tp63
a(I930
I4
tp64
a(I297
I4
tp65
a(I384
I4
tp66
a(I829
I4
tp67
a(I834
I4
tp68
a(I753
I4
tp69
a(I6
I4
tp70
a(I517
I4
tp71
a(I11
I4
tp72
a(I953
I4
tp73
a(I979
I4
tp74
a(I984
I4
tp75
a(I666
I4
tp76
a(I585
I4
tp77
a(I175
I4
tp78
a(I94
I4
tp79
a(I611
I4
tp80
a(I98
I4
tp81
a(I806
I4
tp82
a(I304
I4
tp83
a(I319
I4
tp84
a(I749
I4
tp85
a(I12
I4
tp86
a(I442
I4
tp87
a(I361
I4
tp88
a(I448
I4
tp89
a(I975
I4
tp90
a(I136
I4
tp91
a(I581
I4
tp92
a(I505
I4
tp93
a(I95
I4
tp94
a(I705
I4
tp95
a(I807
I4
tp96
a(I687
I4
tp97
a(I731
I4
tp98
a(I736
I4
tp99
a(I418
I4
tp100
a(I880
I4
tp101
a(I895
I4
tp102
a(I610
I4
tp103
a(I71
I4
tp104
a(I991
I4
tp105
a(I506
I4
tp106
a(I256
I4
tp107
a(I788
I4
tp108
a(I706
I4
tp109
a(I200
I4
tp110
a(I902
I4
tp111
a(I220
I4
tp112
a(I395
I4
tp113
a(I400
I4
tp114
a(I334
I4
tp115
a(I22
I4
tp116
a(I833
I4
tp117
a(I559
I4
tp118
a(I555
I4
tp119
a(I989
I4
tp120
a(I52
I4
tp121
a(I995
I4
tp122
a(I170
I4
tp123
a(I176
I4
tp124
a(I191
I4
tp125
a(I391
I4
tp126
a(I396
I4
tp127
a(I315
I4
tp128
a(I233
I4
tp129
a(I335
I4
tp130
a(I515
I4
tp131
a(I2
I4
tp132
a(I535
I4
tp133
a(I965
I4
tp134
a(I479
I4
tp135
a(I654
I4
tp136
a(I65
I4
tp137
a(I664
I4
tp138
a(I86
I4
tp139
a(I172
I4
tp140
a(I90
I4
tp141
a(I286
I4
tp142
a(I797
I4
tp143
a(I628
I4
tp144
a(I721
I4
tp145
a(I823
I4
tp146
a(I775
I4
tp147
a(I234
I4
tp148
a(I240
I4
tp149
a(I255
I4
tp150
a(I693
I4
tp151
a(I865
I4
tp152
a(I967
I4
tp153
a(I780
I4
tp154
a(I891
I4
tp155
a(I41
I4
tp156
a(I590
I4
tp157
a(I143
I4
tp158
a(I578
I4
tp159
a(I774
I4
tp160
a(I92
I4
tp161
a(I799
I4
tp162
a(I210
I4
tp163
a(I917
I4
tp164
a(I748
I4
tp165
a(I841
I4
tp166
a(I746
I4
tp167
a(I887
I4
tp168
a(I43
I4
tp169
a(I473
I4
tp170
a(I575
I4
tp171
a(I499
I4
tp172
a(I263
I4
tp173
a(I181
I4
tp174
a(I268
I4
tp175
a(I817
I4
tp176
a(I704
I4
tp177
a(I719
I4
tp178
a(I305
I4
tp179
a(I392
I4
tp180
asS'runtime'
p181
F0.0009260177612304688
sS'name'
p182
S'["regex", [["jounral_abbreviation", "[d]", "OM"]]]'
p183
s.