(dp0
S'output'
p1
(lp2
(I38
I4
tp3
a(I997
I4
tp4
a(I43
I4
tp5
a(I842
I4
tp6
a(I580
I4
tp7
a(I577
I4
tp8
a(I88
I4
tp9
a(I103
I4
tp10
a(I41
I4
tp11
a(I608
I4
tp12
a(I751
I4
tp13
a(I446
I4
tp14
a(I756
I4
tp15
a(I561
I4
tp16
a(I520
I4
tp17
asS'runtime'
p18
F0.0008740425109863281
sS'name'
p19
S'["regex", [["jounral_abbreviation", "[F]", "OM"]]]'
p20
s.