(dp0
S'output'
p1
(lp2
(I644
I4
tp3
a(I401
I4
tp4
a(I600
I4
tp5
a(I662
I4
tp6
a(I282
I4
tp7
a(I561
I4
tp8
asS'runtime'
p9
F0.0014829635620117188
sS'name'
p10
S'["regex", [["jounral_abbreviation", "[V]", "OM"]]]'
p11
s.