(dp0
S'output'
p1
(lp2
(I408
I9
tp3
a(I875
I9
tp4
a(I676
I9
tp5
a(I593
I9
tp6
a(I139
I9
tp7
a(I892
I9
tp8
a(I314
I9
tp9
a(I195
I9
tp10
a(I180
I9
tp11
a(I333
I9
tp12
a(I876
I9
tp13
a(I163
I9
tp14
asS'runtime'
p15
F0.0008690357208251953
sS'name'
p16
S'["regex", [["article_pagination", "[:]", "OM"]]]'
p17
s.