(dp0
S'output'
p1
(lp2
(I652
I1
tp3
a(I337
I1
tp4
a(I944
I1
tp5
a(I950
I1
tp6
a(I307
I1
tp7
a(I287
I1
tp8
a(I510
I1
tp9
a(I80
I1
tp10
a(I861
I1
tp11
a(I697
I1
tp12
a(I618
I1
tp13
a(I165
I1
tp14
a(I129
I1
tp15
a(I23
I1
tp16
a(I351
I1
tp17
a(I640
I1
tp18
a(I712
I1
tp19
a(I610
I1
tp20
a(I257
I1
tp21
a(I55
I1
tp22
a(I997
I1
tp23
a(I790
I1
tp24
asS'runtime'
p25
F0.0011751651763916016
sS'name'
p26
S'["regex", [["article_title", "[K]", "OM"]]]'
p27
s.