(dp0
S'output'
p1
(lp2
(I746
I5
tp3
a(I848
I5
tp4
a(I900
I5
tp5
a(I120
I5
tp6
a(I237
I5
tp7
a(I918
I5
tp8
asS'runtime'
p9
F0.0008561611175537109
sS'name'
p10
S'["regex", [["journal_issn", "[M]", "OM"]]]'
p11
s.