(dp0
S'output'
p1
(lp2
(I983
I5
tp3
a(I434
I5
tp4
a(I440
I5
tp5
a(I391
I5
tp6
a(I990
I5
tp7
a(I130
I5
tp8
a(I131
I5
tp9
asS'runtime'
p10
F0.0008540153503417969
sS'name'
p11
S'["regex", [["journal_issn", "[F]", "OM"]]]'
p12
s.