(dp0
S'output'
p1
(lp2
(I676
I10
tp3
a(I875
I10
tp4
a(I622
I10
tp5
a(I931
I10
tp6
a(I949
I10
tp7
a(I242
I10
tp8
asS'runtime'
p9
F0.0009548664093017578
sS'name'
p10
S'["regex", [["author_list", "[\\u0334]", "OM"]]]'
p11
s.