(dp0
S'output'
p1
(lp2
(I32
I1
tp3
a(I301
I1
tp4
a(I766
I1
tp5
a(I172
I1
tp6
a(I617
I1
tp7
a(I314
I1
tp8
a(I900
I1
tp9
a(I725
I1
tp10
a(I49
I1
tp11
a(I303
I1
tp12
a(I588
I1
tp13
a(I637
I1
tp14
a(I57
I1
tp15
a(I689
I1
tp16
a(I632
I1
tp17
a(I357
I1
tp18
a(I374
I1
tp19
a(I753
I1
tp20
a(I790
I1
tp21
a(I225
I1
tp22
a(I978
I1
tp23
asS'runtime'
p24
F0.0011501312255859375
sS'name'
p25
S'["regex", [["article_title", "[6]", "OM"]]]'
p26
s.