(dp0
S'output'
p1
(lp2
(I416
I1
tp3
a(I172
I1
tp4
a(I669
I1
tp5
a(I532
I1
tp6
a(I881
I1
tp7
a(I701
I1
tp8
a(I856
I1
tp9
a(I965
I1
tp10
a(I118
I1
tp11
a(I979
I1
tp12
asS'runtime'
p13
F0.0011548995971679688
sS'name'
p14
S'["regex", [["article_title", "[\\ufffd]", "OM"]]]'
p15
s.