(dp0
S'output'
p1
(lp2
(I579
I2
tp3
a(I392
I2
tp4
a(I212
I2
tp5
a(I862
I2
tp6
a(I885
I2
tp7
a(I784
I2
tp8
a(I183
I2
tp9
a(I83
I2
tp10
a(I125
I2
tp11
a(I920
I2
tp12
a(I863
I2
tp13
a(I500
I2
tp14
a(I409
I2
tp15
a(I778
I2
tp16
asS'runtime'
p17
F0.0010440349578857422
sS'name'
p18
S'["regex", [["article_languange", "[a]", "OM"]]]'
p19
s.