(dp0
S'output'
p1
(lp2
(I92
I4
tp3
a(I842
I4
tp4
a(I400
I4
tp5
a(I95
I4
tp6
a(I470
I4
tp7
a(I748
I4
tp8
a(I596
I4
tp9
asS'runtime'
p10
F0.0008628368377685547
sS'name'
p11
S'["regex", [["jounral_abbreviation", "[&]", "OM"]]]'
p12
s.