(dp0
S'output'
p1
(lp2
(I656
I10
tp3
a(I247
I10
tp4
a(I643
I10
tp5
a(I614
I10
tp6
a(I930
I10
tp7
a(I821
I10
tp8
a(I570
I10
tp9
a(I118
I10
tp10
a(I813
I10
tp11
a(I287
I10
tp12
a(I880
I10
tp13
asS'runtime'
p14
F0.0009438991546630859
sS'name'
p15
S'["regex", [["author_list", "[\\u0329]", "OM"]]]'
p16
s.