(dp0
S'output'
p1
(lp2
(I337
I5
tp3
a(I746
I5
tp4
a(I848
I5
tp5
a(I235
I5
tp6
a(I644
I5
tp7
a(I18
I5
tp8
a(I120
I5
tp9
a(I237
I5
tp10
a(I918
I5
tp11
a(I900
I5
tp12
a(I158
I5
tp13
a(I674
I5
tp14
a(I962
I5
tp15
asS'runtime'
p16
F0.0008590221405029297
sS'name'
p17
S'["regex", [["journal_issn", "[a]", "OM"]]]'
p18
s.