(dp0
S'output'
p1
(lp2
(I670
I1
tp3
a(I998
I1
tp4
a(I643
I1
tp5
a(I29
I1
tp6
a(I537
I1
tp7
a(I613
I1
tp8
a(I161
I1
tp9
asS'runtime'
p10
F0.0012350082397460938
sS'name'
p11
S'["regex", [["article_title", "[\\"]", "OM"]]]'
p12
s.