(dp0
S'output'
p1
(lp2
(I261
I4
tp3
a(I427
I4
tp4
a(I560
I4
tp5
a(I511
I4
tp6
a(I492
I4
tp7
a(I59
I4
tp8
a(I474
I4
tp9
a(I382
I4
tp10
a(I30
I4
tp11
asS'runtime'
p12
F0.0008611679077148438
sS'name'
p13
S'["regex", [["jounral_abbreviation", "[K]", "OM"]]]'
p14
s.