(dp0
S'output'
p1
(lp2
(I88
I9
tp3
a(I677
I9
tp4
a(I719
I9
tp5
a(I444
I9
tp6
a(I822
I9
tp7
a(I163
I9
tp8
a(I180
I9
tp9
a(I818
I9
tp10
a(I685
I9
tp11
a(I141
I9
tp12
a(I908
I9
tp13
a(I874
I9
tp14
asS'runtime'
p15
F0.0009028911590576172
sS'name'
p16
S'["regex", [["article_pagination", "[M]", "OM"]]]'
p17
s.