(dp0
S'output'
p1
(lp2
(I816
I1
tp3
a(I566
I1
tp4
a(I435
I1
tp5
a(I684
I1
tp6
a(I917
I1
tp7
a(I835
I1
tp8
a(I303
I1
tp9
a(I139
I1
tp10
a(I313
I1
tp11
a(I575
I1
tp12
a(I158
I1
tp13
a(I552
I1
tp14
a(I742
I1
tp15
a(I174
I1
tp16
a(I824
I1
tp17
a(I172
I1
tp18
a(I374
I1
tp19
a(I364
I1
tp20
a(I233
I1
tp21
a(I295
I1
tp22
a(I725
I1
tp23
a(I689
I1
tp24
asS'runtime'
p25
F0.0011699199676513672
sS'name'
p26
S'["regex", [["article_title", "[5]", "OM"]]]'
p27
s.