(dp0
S'output'
p1
(lp2
(I210
I3
tp3
a(I269
I3
tp4
a(I734
I3
tp5
a(I496
I3
tp6
a(I555
I3
tp7
a(I85
I3
tp8
a(I279
I3
tp9
a(I953
I3
tp10
a(I133
I3
tp11
asS'runtime'
p12
F0.0011038780212402344
sS'name'
p13
S'["regex", [["journal_title", "[2]", "OM"]]]'
p14
s.