(dp0
S'output'
p1
(lp2
(I519
I3
tp3
a(I633
I3
tp4
a(I274
I3
tp5
a(I548
I3
tp6
a(I212
I3
tp7
a(I301
I3
tp8
a(I910
I3
tp9
a(I971
I3
tp10
a(I411
I3
tp11
a(I262
I3
tp12
a(I884
I3
tp13
a(I504
I3
tp14
a(I561
I3
tp15
a(I196
I3
tp16
a(I509
I3
tp17
a(I320
I3
tp18
a(I256
I3
tp19
a(I437
I3
tp20
a(I251
I3
tp21
asS'runtime'
p22
F0.0011129379272460938
sS'name'
p23
S'["regex", [["journal_title", "[U]", "OM"]]]'
p24
s.