(dp0
S'output'
p1
(lp2
(I612
I10
tp3
a(I491
I10
tp4
a(I965
I10
tp5
a(I599
I10
tp6
a(I971
I10
tp7
a(I258
I10
tp8
a(I660
I10
tp9
a(I704
I10
tp10
a(I807
I10
tp11
a(I218
I10
tp12
a(I997
I10
tp13
a(I184
I10
tp14
a(I498
I10
tp15
asS'runtime'
p16
F0.0009319782257080078
sS'name'
p17
S'["regex", [["author_list", "[\']", "OM"]]]'
p18
s.