(dp0
S'output'
p1
(lp2
(I912
I5
tp3
a(I939
I5
tp4
a(I729
I5
tp5
a(I82
I5
tp6
a(I926
I5
tp7
a(I411
I5
tp8
a(I680
I5
tp9
asS'runtime'
p10
F0.0008649826049804688
sS'name'
p11
S'["regex", [["journal_issn", "[,]", "OM"]]]'
p12
s.