(dp0
S'output'
p1
(lp2
(I3
I2
tp3
a(I862
I2
tp4
a(I589
I2
tp5
a(I392
I2
tp6
a(I367
I2
tp7
a(I754
I2
tp8
a(I393
I2
tp9
a(I84
I2
tp10
a(I382
I2
tp11
a(I570
I2
tp12
a(I689
I2
tp13
a(I796
I2
tp14
a(I83
I2
tp15
a(I125
I2
tp16
a(I952
I2
tp17
a(I767
I2
tp18
a(I863
I2
tp19
a(I507
I2
tp20
a(I494
I2
tp21
a(I455
I2
tp22
asS'runtime'
p23
F0.0010650157928466797
sS'name'
p24
S'["regex", [["article_languange", "[p]", "OM"]]]'
p25
s.