(dp0
S'output'
p1
(lp2
(I973
I1
tp3
a(I350
I1
tp4
a(I283
I1
tp5
a(I707
I1
tp6
a(I276
I1
tp7
a(I610
I1
tp8
a(I618
I1
tp9
a(I950
I1
tp10
a(I883
I1
tp11
a(I484
I1
tp12
a(I865
I1
tp13
asS'runtime'
p14
F0.0011699199676513672
sS'name'
p15
S'["regex", [["article_title", "[J]", "OM"]]]'
p16
s.