(dp0
S'output'
p1
(lp2
(I124
I5
tp3
a(I587
I5
tp4
a(I607
I5
tp5
a(I553
I5
tp6
a(I962
I5
tp7
a(I189
I5
tp8
asS'runtime'
p9
F0.0008530616760253906
sS'name'
p10
S'["regex", [["journal_issn", "[x]", "OM"]]]'
p11
s.