(dp0
S'output'
p1
(lp2
(I233
I10
tp3
a(I517
I10
tp4
a(I656
I10
tp5
a(I279
I10
tp6
a(I618
I10
tp7
a(I869
I10
tp8
a(I860
I10
tp9
a(I835
I10
tp10
a(I930
I10
tp11
a(I41
I10
tp12
a(I340
I10
tp13
a(I603
I10
tp14
a(I85
I10
tp15
a(I800
I10
tp16
a(I122
I10
tp17
a(I1
I10
tp18
a(I396
I10
tp19
a(I737
I10
tp20
a(I54
I10
tp21
a(I867
I10
tp22
asS'runtime'
p23
F0.0009329319000244141
sS'name'
p24
S'["regex", [["author_list", "[q]", "OM"]]]'
p25
s.