(dp0
S'output'
p1
(lp2
(I139
I10
tp3
a(I750
I10
tp4
a(I112
I10
tp5
a(I593
I10
tp6
a(I163
I10
tp7
a(I410
I10
tp8
a(I435
I10
tp9
a(I875
I10
tp10
a(I847
I10
tp11
a(I897
I10
tp12
a(I894
I10
tp13
a(I949
I10
tp14
a(I314
I10
tp15
a(I698
I10
tp16
a(I275
I10
tp17
a(I818
I10
tp18
a(I141
I10
tp19
a(I195
I10
tp20
a(I306
I10
tp21
asS'runtime'
p22
F0.0009329319000244141
sS'name'
p23
S'["regex", [["author_list", "[4]", "OM"]]]'
p24
s.