(dp0
S'output'
p1
(lp2
(I435
I9
tp3
a(I894
I9
tp4
a(I892
I9
tp5
a(I839
I9
tp6
a(I408
I9
tp7
a(I677
I9
tp8
a(I593
I9
tp9
a(I875
I9
tp10
a(I949
I9
tp11
a(I333
I9
tp12
a(I676
I9
tp13
a(I139
I9
tp14
a(I410
I9
tp15
a(I3
I9
tp16
a(I180
I9
tp17
a(I897
I9
tp18
a(I818
I9
tp19
a(I869
I9
tp20
a(I112
I9
tp21
a(I314
I9
tp22
a(I163
I9
tp23
a(I141
I9
tp24
asS'runtime'
p25
F0.0008649826049804688
sS'name'
p26
S'["regex", [["article_pagination", "[g]", "OM"]]]'
p27
s.