(dp0
S'output'
p1
(lp2
(I602
I4
tp3
a(I829
I4
tp4
a(I68
I4
tp5
a(I178
I4
tp6
a(I400
I4
tp7
asS'runtime'
p8
F0.0008840560913085938
sS'name'
p9
S'["regex", [["jounral_abbreviation", "[W]", "OM"]]]'
p10
s.