(dp0
S'output'
p1
(lp2
(I35
I3
tp3
a(I301
I3
tp4
a(I826
I3
tp5
a(I335
I3
tp6
a(I176
I3
tp7
a(I762
I3
tp8
a(I504
I3
tp9
a(I971
I3
tp10
a(I472
I3
tp11
a(I578
I3
tp12
a(I531
I3
tp13
a(I175
I3
tp14
asS'runtime'
p15
F0.0010981559753417969
sS'name'
p16
S'["regex", [["journal_title", "[Y]", "OM"]]]'
p17
s.