(dp0
S'output'
p1
(lp2
(I163
I9
tp3
a(I180
I9
tp4
a(I689
I9
tp5
a(I435
I9
tp6
a(I847
I9
tp7
asS'runtime'
p8
F0.0008921623229980469
sS'name'
p9
S'["regex", [["article_pagination", "[H]", "OM"]]]'
p10
s.