(dp0
S'output'
p1
(lp2
(I866
I9
tp3
a(I16
I9
tp4
a(I843
I9
tp5
a(I439
I9
tp6
a(I662
I9
tp7
a(I498
I9
tp8
a(I81
I9
tp9
a(I713
I9
tp10
a(I727
I9
tp11
a(I309
I9
tp12
a(I960
I9
tp13
a(I345
I9
tp14
a(I359
I9
tp15
a(I568
I9
tp16
a(I582
I9
tp17
a(I164
I9
tp18
a(I991
I9
tp19
a(I794
I9
tp20
a(I200
I9
tp21
a(I597
I9
tp22
a(I214
I9
tp23
a(I771
I9
tp24
a(I769
I9
tp25
a(I403
I9
tp26
a(I401
I9
tp27
a(I478
I9
tp28
a(I9
I9
tp29
a(I84
I9
tp30
a(I655
I9
tp31
a(I59
I9
tp32
a(I714
I9
tp33
a(I120
I9
tp34
a(I691
I9
tp35
a(I764
I9
tp36
a(I917
I9
tp37
a(I321
I9
tp38
a(I140
I9
tp39
a(I953
I9
tp40
a(I770
I9
tp41
a(I808
I9
tp42
a(I822
I9
tp43
a(I611
I9
tp44
a(I205
I9
tp45
a(I10
I9
tp46
a(I454
I9
tp47
a(I62
I9
tp48
a(I60
I9
tp49
a(I873
I9
tp50
a(I469
I9
tp51
a(I505
I9
tp52
a(I324
I9
tp53
a(I322
I9
tp54
a(I125
I9
tp55
a(I299
I9
tp56
a(I374
I9
tp57
a(I931
I9
tp58
a(I537
I9
tp59
a(I610
I9
tp60
a(I183
I9
tp61
a(I244
I9
tp62
a(I815
I9
tp63
a(I416
I9
tp64
a(I813
I9
tp65
a(I219
I9
tp66
a(I851
I9
tp67
a(I447
I9
tp68
a(I670
I9
tp69
a(I53
I9
tp70
a(I704
I9
tp71
a(I89
I9
tp72
a(I930
I9
tp73
a(I336
I9
tp74
a(I733
I9
tp75
a(I907
I9
tp76
a(I968
I9
tp77
a(I513
I9
tp78
a(I367
I9
tp79
a(I365
I9
tp80
a(I590
I9
tp81
a(I588
I9
tp82
a(I145
I9
tp83
a(I624
I9
tp84
a(I222
I9
tp85
a(I777
I9
tp86
a(I0
I9
tp87
a(I409
I9
tp88
a(I646
I9
tp89
a(I482
I9
tp90
a(I29
I9
tp91
a(I459
I9
tp92
a(I90
I9
tp93
a(I661
I9
tp94
a(I278
I9
tp95
a(I67
I9
tp96
a(I910
I9
tp97
a(I908
I9
tp98
a(I944
I9
tp99
a(I343
I9
tp100
a(I148
I9
tp101
a(I975
I9
tp102
a(I973
I9
tp103
a(I379
I9
tp104
a(I184
I9
tp105
a(I581
I9
tp106
a(I828
I9
tp107
a(I410
I9
tp108
a(I864
I9
tp109
a(I460
I9
tp110
a(I249
I9
tp111
a(I66
I9
tp112
a(I893
I9
tp113
a(I698
I9
tp114
a(I104
I9
tp115
a(I673
I9
tp116
a(I269
I9
tp117
a(I748
I9
tp118
a(I307
I9
tp119
a(I528
I9
tp120
a(I380
I9
tp121
a(I559
I9
tp122
a(I160
I9
tp123
a(I987
I9
tp124
a(I792
I9
tp125
a(I806
I9
tp126
a(I191
I9
tp127
a(I44
I9
tp128
a(I453
I9
tp129
a(I676
I9
tp130
a(I80
I9
tp131
a(I651
I9
tp132
a(I489
I9
tp133
a(I109
I9
tp134
a(I283
I9
tp135
a(I358
I9
tp136
a(I915
I9
tp137
a(I913
I9
tp138
a(I990
I9
tp139
a(I535
I9
tp140
a(I571
I9
tp141
a(I153
I9
tp142
a(I167
I9
tp143
a(I226
I9
tp144
a(I797
I9
tp145
a(I203
I9
tp146
a(I858
I9
tp147
a(I8
I9
tp148
a(I22
I9
tp149
a(I835
I9
tp150
a(I654
I9
tp151
a(I490
I9
tp152
a(I37
I9
tp153
a(I467
I9
tp154
a(I465
I9
tp155
a(I688
I9
tp156
a(I73
I9
tp157
a(I87
I9
tp158
a(I719
I9
tp159
a(I522
I9
tp160
a(I952
I9
tp161
a(I351
I9
tp162
a(I572
I9
tp163
a(I154
I9
tp164
a(I131
I9
tp165
a(I129
I9
tp166
a(I608
I9
tp167
a(I204
I9
tp168
a(I775
I9
tp169
a(I639
I9
tp170
a(I240
I9
tp171
a(I637
I9
tp172
a(I407
I9
tp173
a(I872
I9
tp174
a(I468
I9
tp175
a(I466
I9
tp176
a(I15
I9
tp177
a(I504
I9
tp178
a(I126
I9
tp179
a(I695
I9
tp180
a(I277
I9
tp181
a(I756
I9
tp182
a(I754
I9
tp183
a(I130
I9
tp184
a(I565
I9
tp185
a(I995
I9
tp186
a(I993
I9
tp187
a(I814
I9
tp188
a(I394
I9
tp189
a(I848
I9
tp190
a(I446
I9
tp191
a(I233
I9
tp192
a(I247
I9
tp193
a(I50
I9
tp194
a(I27
I9
tp195
a(I682
I9
tp196
a(I88
I9
tp197
a(I102
I9
tp198
a(I659
I9
tp199
a(I509
I9
tp200
a(I732
I9
tp201
a(I314
I9
tp202
a(I117
I9
tp203
a(I512
I9
tp204
a(I366
I9
tp205
a(I935
I9
tp206
a(I996
I9
tp207
a(I543
I9
tp208
a(I602
I9
tp209
a(I776
I9
tp210
a(I579
I9
tp211
a(I173
I9
tp212
a(I408
I9
tp213
a(I211
I9
tp214
a(I437
I9
tp215
a(I658
I9
tp216
a(I891
I9
tp217
a(I473
I9
tp218
a(I292
I9
tp219
a(I95
I9
tp220
a(I93
I9
tp221
a(I897
I9
tp222
a(I974
I9
tp223
a(I972
I9
tp224
a(I761
I9
tp225
a(I519
I9
tp226
a(I580
I9
tp227
a(I578
I9
tp228
a(I630
I9
tp229
a(I212
I9
tp230
a(I842
I9
tp231
a(I6
I9
tp232
a(I415
I9
tp233
a(I413
I9
tp234
a(I894
I9
tp235
a(I892
I9
tp236
a(I474
I9
tp237
a(I21
I9
tp238
a(I449
I9
tp239
a(I71
I9
tp240
a(I701
I9
tp241
a(I107
I9
tp242
a(I762
I9
tp243
a(I950
I9
tp244
a(I739
I9
tp245
a(I556
I9
tp246
a(I965
I9
tp247
a(I190
I9
tp248
a(I188
I9
tp249
a(I818
I9
tp250
a(I623
I9
tp251
a(I621
I9
tp252
a(I795
I9
tp253
a(I391
I9
tp254
a(I870
I9
tp255
a(I452
I9
tp256
a(I253
I9
tp257
a(I885
I9
tp258
a(I110
I9
tp259
a(I108
I9
tp260
a(I679
I9
tp261
a(I740
I9
tp262
a(I715
I9
tp263
a(I311
I9
tp264
a(I152
I9
tp265
a(I979
I9
tp266
a(I796
I9
tp267
a(I585
I9
tp268
a(I635
I9
tp269
a(I217
I9
tp270
a(I231
I9
tp271
a(I36
I9
tp272
a(I464
I9
tp273
a(I11
I9
tp274
a(I72
I9
tp275
a(I86
I9
tp276
a(I495
I9
tp277
a(I493
I9
tp278
a(I718
I9
tp279
a(I716
I9
tp280
a(I273
I9
tp281
a(I752
I9
tp282
a(I350
I9
tp283
a(I348
I9
tp284
a(I919
I9
tp285
a(I527
I9
tp286
a(I128
I9
tp287
a(I525
I9
tp288
a(I586
I9
tp289
a(I774
I9
tp290
a(I561
I9
tp291
a(I159
I9
tp292
a(I638
I9
tp293
a(I392
I9
tp294
a(I406
I9
tp295
a(I193
I9
tp296
a(I14
I9
tp297
a(I12
I9
tp298
a(I644
I9
tp299
a(I48
I9
tp300
a(I457
I9
tp301
a(I694
I9
tp302
a(I274
I9
tp303
a(I79
I9
tp304
a(I77
I9
tp305
a(I507
I9
tp306
a(I326
I9
tp307
a(I958
I9
tp308
a(I341
I9
tp309
a(I992
I9
tp310
a(I600
I9
tp311
a(I614
I9
tp312
a(I194
I9
tp313
a(I171
I9
tp314
a(I232
I9
tp315
a(I629
I9
tp316
a(I803
I9
tp317
a(I801
I9
tp318
a(I399
I9
tp319
a(I878
I9
tp320
a(I876
I9
tp321
a(I458
I9
tp322
a(I5
I9
tp323
a(I435
I9
tp324
a(I433
I9
tp325
a(I656
I9
tp326
a(I508
I9
tp327
a(I41
I9
tp328
a(I55
I9
tp329
a(I116
I9
tp330
a(I687
I9
tp331
a(I288
I9
tp332
a(I920
I9
tp333
a(I934
I9
tp334
a(I723
I9
tp335
a(I721
I9
tp336
a(I542
I9
tp337
a(I540
I9
tp338
a(I949
I9
tp339
a(I355
I9
tp340
a(I174
I9
tp341
a(I999
I9
tp342
a(I804
I9
tp343
a(I802
I9
tp344
a(I607
I9
tp345
a(I605
I9
tp346
a(I779
I9
tp347
a(I854
I9
tp348
a(I434
I9
tp349
a(I239
I9
tp350
a(I237
I9
tp351
a(I411
I9
tp352
a(I19
I9
tp353
a(I92
I9
tp354
a(I663
I9
tp355
a(I501
I9
tp356
a(I896
I9
tp357
a(I699
I9
tp358
a(I281
I9
tp359
a(I927
I9
tp360
a(I925
I9
tp361
a(I986
I9
tp362
a(I136
I9
tp363
a(I150
I9
tp364
a(I963
I9
tp365
a(I569
I9
tp366
a(I816
I9
tp367
a(I412
I9
tp368
a(I215
I9
tp369
a(I20
I9
tp370
a(I847
I9
tp371
a(I448
I9
tp372
a(I845
I9
tp373
a(I251
I9
tp374
a(I650
I9
tp375
a(I70
I9
tp376
a(I883
I9
tp377
a(I477
I9
tp378
a(I702
I9
tp379
a(I85
I9
tp380
a(I332
I9
tp381
a(I121
I9
tp382
a(I368
I9
tp383
a(I765
I9
tp384
a(I939
I9
tp385
a(I545
I9
tp386
a(I141
I9
tp387
a(I622
I9
tp388
a(I620
I9
tp389
a(I202
I9
tp390
a(I773
I9
tp391
a(I390
I9
tp392
a(I179
I9
tp393
a(I177
I9
tp394
a(I254
I9
tp395
a(I823
I9
tp396
a(I405
I9
tp397
a(I859
I9
tp398
a(I441
I9
tp399
a(I455
I9
tp400
a(I260
I9
tp401
a(I258
I9
tp402
a(I63
I9
tp403
a(I61
I9
tp404
a(I491
I9
tp405
a(I122
I9
tp406
a(I693
I9
tp407
a(I99
I9
tp408
a(I97
I9
tp409
a(I729
I9
tp410
a(I361
I9
tp411
a(I375
I9
tp412
a(I180
I9
tp413
a(I178
I9
tp414
a(I230
I9
tp415
a(I860
I9
tp416
a(I417
I9
tp417
a(I492
I9
tp418
a(I39
I9
tp419
a(I272
I9
tp420
a(I669
I9
tp421
a(I75
I9
tp422
a(I730
I9
tp423
a(I904
I9
tp424
a(I707
I9
tp425
a(I303
I9
tp426
a(I301
I9
tp427
a(I339
I9
tp428
a(I560
I9
tp429
a(I156
I9
tp430
a(I969
I9
tp431
a(I983
I9
tp432
a(I192
I9
tp433
a(I589
I9
tp434
a(I625
I9
tp435
a(I418
I9
tp436
a(I221
I9
tp437
a(I26
I9
tp438
a(I853
I9
tp439
a(I470
I9
tp440
a(I3
I9
tp441
a(I76
I9
tp442
a(I889
I9
tp443
a(I112
I9
tp444
a(I265
I9
tp445
a(I279
I9
tp446
a(I744
I9
tp447
a(I338
I9
tp448
a(I911
I9
tp449
a(I134
I9
tp450
a(I553
I9
tp451
a(I567
I9
tp452
a(I398
I9
tp453
a(I603
I9
tp454
a(I396
I9
tp455
a(I831
I9
tp456
a(I829
I9
tp457
a(I890
I9
tp458
a(I54
I9
tp459
a(I865
I9
tp460
a(I463
I9
tp461
a(I461
I9
tp462
a(I684
I9
tp463
a(I266
I9
tp464
a(I69
I9
tp465
a(I499
I9
tp466
a(I720
I9
tp467
a(I318
I9
tp468
a(I316
I9
tp469
a(I119
I9
tp470
a(I751
I9
tp471
a(I352
I9
tp472
a(I923
I9
tp473
a(I554
I9
tp474
a(I984
I9
tp475
a(I998
I9
tp476
a(I381
I9
tp477
a(I606
I9
tp478
a(I604
I9
tp479
a(I163
I9
tp480
a(I238
I9
tp481
a(I793
I9
tp482
asS'runtime'
p483
F0.001035928726196289
sS'name'
p484
S'["regex", [["article_pagination", "[1]", "OM"]]]'
p485
s.