(dp0
S'output'
p1
(lp2
(I139
I10
tp3
a(I622
I10
tp4
a(I869
I10
tp5
a(I112
I10
tp6
a(I810
I10
tp7
a(I593
I10
tp8
a(I195
I10
tp9
a(I410
I10
tp10
a(I847
I10
tp11
a(I856
I10
tp12
a(I894
I10
tp13
a(I750
I10
tp14
a(I21
I10
tp15
a(I314
I10
tp16
a(I698
I10
tp17
a(I435
I10
tp18
a(I141
I10
tp19
a(I408
I10
tp20
a(I306
I10
tp21
asS'runtime'
p22
F0.0009028911590576172
sS'name'
p23
S'["regex", [["author_list", "[5]", "OM"]]]'
p24
s.