(dp0
S'output'
p1
(lp2
(I406
I3
tp3
a(I455
I3
tp4
a(I621
I3
tp5
a(I158
I3
tp6
a(I749
I3
tp7
a(I602
I3
tp8
a(I220
I3
tp9
a(I614
I3
tp10
a(I887
I3
tp11
a(I497
I3
tp12
a(I883
I3
tp13
a(I68
I3
tp14
a(I256
I3
tp15
a(I409
I3
tp16
a(I42
I3
tp17
a(I507
I3
tp18
asS'runtime'
p19
F0.000885009765625
sS'name'
p20
S'["regex", [["journal_title", "[z]", "OM"]]]'
p21
s.