(dp0
S'output'
p1
(lp2
(I677
I9
tp3
a(I701
I9
tp4
a(I94
I9
tp5
a(I139
I9
tp6
a(I860
I9
tp7
a(I410
I9
tp8
a(I195
I9
tp9
a(I180
I9
tp10
a(I922
I9
tp11
a(I818
I9
tp12
a(I928
I9
tp13
a(I892
I9
tp14
a(I163
I9
tp15
asS'runtime'
p16
F0.0008938312530517578
sS'name'
p17
S'["regex", [["article_pagination", "[P]", "OM"]]]'
p18
s.