(dp0
S'output'
p1
(lp2
(I406
I3
tp3
a(I71
I3
tp4
a(I641
I3
tp5
a(I178
I3
tp6
a(I502
I3
tp7
a(I826
I3
tp8
a(I655
I3
tp9
a(I400
I3
tp10
a(I809
I3
tp11
a(I602
I3
tp12
a(I341
I3
tp13
a(I216
I3
tp14
a(I433
I3
tp15
a(I467
I3
tp16
a(I292
I3
tp17
a(I829
I3
tp18
a(I699
I3
tp19
a(I912
I3
tp20
a(I409
I3
tp21
a(I155
I3
tp22
asS'runtime'
p23
F0.0011141300201416016
sS'name'
p24
S'["regex", [["journal_title", "[W]", "OM"]]]'
p25
s.