(dp0
S'output'
p1
(lp2
(I32
I1
tp3
a(I685
I1
tp4
a(I510
I1
tp5
a(I283
I1
tp6
a(I428
I1
tp7
a(I201
I1
tp8
a(I538
I1
tp9
a(I487
I1
tp10
a(I680
I1
tp11
a(I166
I1
tp12
a(I561
I1
tp13
a(I655
I1
tp14
a(I970
I1
tp15
a(I407
I1
tp16
a(I588
I1
tp17
a(I223
I1
tp18
asS'runtime'
p19
F0.0011560916900634766
sS'name'
p20
S'["regex", [["article_title", "[Y]", "OM"]]]'
p21
s.