(dp0
S'output'
p1
(lp2
(I908
I5
tp3
a(I857
I5
tp4
a(I690
I5
tp5
a(I620
I5
tp6
a(I154
I5
tp7
a(I852
I5
tp8
a(I745
I5
tp9
a(I29
I5
tp10
a(I710
I5
tp11
asS'runtime'
p12
F0.0008540153503417969
sS'name'
p13
S'["regex", [["journal_issn", "[S]", "OM"]]]'
p14
s.