(dp0
S'output'
p1
(lp2
(I176
I4
tp3
a(I255
I4
tp4
a(I68
I4
tp5
a(I807
I4
tp6
a(I319
I4
tp7
a(I175
I4
tp8
a(I611
I4
tp9
a(I578
I4
tp10
asS'runtime'
p11
F0.0012021064758300781
sS'name'
p12
S'["regex", [["jounral_abbreviation", "[Y]", "OM"]]]'
p13
s.