(dp0
S'output'
p1
(lp2
(I791
I4
tp3
a(I806
I4
tp4
a(I176
I4
tp5
a(I995
I4
tp6
a(I984
I4
tp7
a(I748
I4
tp8
a(I442
I4
tp9
a(I41
I4
tp10
a(I254
I4
tp11
a(I445
I4
tp12
a(I611
I4
tp13
a(I90
I4
tp14
asS'runtime'
p15
F0.000865936279296875
sS'name'
p16
S'["regex", [["jounral_abbreviation", "[w]", "OM"]]]'
p17
s.