(dp0
S'output'
p1
(lp2
(I139
I10
tp3
a(I622
I10
tp4
a(I869
I10
tp5
a(I949
I10
tp6
a(I689
I10
tp7
a(I195
I10
tp8
a(I410
I10
tp9
a(I875
I10
tp10
a(I847
I10
tp11
a(I894
I10
tp12
a(I782
I10
tp13
a(I21
I10
tp14
a(I928
I10
tp15
a(I839
I10
tp16
a(I314
I10
tp17
a(I698
I10
tp18
a(I876
I10
tp19
a(I275
I10
tp20
a(I141
I10
tp21
a(I435
I10
tp22
a(I639
I10
tp23
asS'runtime'
p24
F0.0009140968322753906
sS'name'
p25
S'["regex", [["author_list", "[9]", "OM"]]]'
p26
s.