(dp0
S'output'
p1
(lp2
(I3
I2
tp3
a(I393
I2
tp4
a(I84
I2
tp5
a(I30
I2
tp6
a(I183
I2
tp7
a(I570
I2
tp8
a(I507
I2
tp9
a(I455
I2
tp10
asS'runtime'
p11
F0.0010471343994140625
sS'name'
p12
S'["regex", [["article_languange", "[o]", "OM"]]]'
p13
s.