(dp0
S'output'
p1
(lp2
(I798
I1
tp3
a(I766
I1
tp4
a(I172
I1
tp5
a(I216
I1
tp6
a(I295
I1
tp7
a(I405
I1
tp8
a(I725
I1
tp9
a(I337
I1
tp10
a(I753
I1
tp11
a(I88
I1
tp12
a(I174
I1
tp13
a(I825
I1
tp14
a(I599
I1
tp15
a(I24
I1
tp16
a(I974
I1
tp17
a(I915
I1
tp18
a(I900
I1
tp19
asS'runtime'
p20
F0.0011360645294189453
sS'name'
p21
S'["regex", [["article_title", "[9]", "OM"]]]'
p22
s.