(dp0
S'output'
p1
(lp2
(I32
I1
tp3
a(I301
I1
tp4
a(I163
I1
tp5
a(I399
I1
tp6
a(I435
I1
tp7
a(I405
I1
tp8
a(I753
I1
tp9
a(I316
I1
tp10
a(I24
I1
tp11
a(I677
I1
tp12
a(I900
I1
tp13
a(I897
I1
tp14
a(I17
I1
tp15
a(I637
I1
tp16
a(I174
I1
tp17
a(I732
I1
tp18
a(I650
I1
tp19
a(I574
I1
tp20
a(I26
I1
tp21
a(I295
I1
tp22
a(I689
I1
tp23
a(I917
I1
tp24
a(I88
I1
tp25
asS'runtime'
p26
F0.0011570453643798828
sS'name'
p27
S'["regex", [["article_title", "[7]", "OM"]]]'
p28
s.