(dp0
S'output'
p1
(lp2
(I677
I9
tp3
a(I720
I9
tp4
a(I413
I9
tp5
a(I233
I9
tp6
a(I163
I9
tp7
a(I180
I9
tp8
a(I818
I9
tp9
a(I399
I9
tp10
a(I283
I9
tp11
a(I684
I9
tp12
a(I935
I9
tp13
asS'runtime'
p14
F0.0008938312530517578
sS'name'
p15
S'["regex", [["article_pagination", "[.]", "OM"]]]'
p16
s.