(dp0
S'output'
p1
(lp2
(I152
I9
tp3
a(I37
I9
tp4
a(I176
I9
tp5
a(I157
I9
tp6
a(I841
I9
tp7
a(I872
I9
tp8
a(I758
I9
tp9
a(I643
I9
tp10
a(I911
I9
tp11
a(I347
I9
tp12
a(I968
I9
tp13
a(I839
I9
tp14
asS'runtime'
p15
F0.0008709430694580078
sS'name'
p16
S'["regex", [["article_pagination", "[;]", "OM"]]]'
p17
s.