(dp0
S'output'
p1
(lp2
(I337
I5
tp3
a(I908
I5
tp4
a(I620
I5
tp5
a(I154
I5
tp6
a(I507
I5
tp7
a(I29
I5
tp8
a(I710
I5
tp9
asS'runtime'
p10
F0.0008540153503417969
sS'name'
p11
S'["regex", [["journal_issn", "[N]", "OM"]]]'
p12
s.