(dp0
S'output'
p1
(lp2
(I11
I4
tp3
a(I825
I4
tp4
a(I441
I4
tp5
a(I528
I4
tp6
a(I95
I4
tp7
a(I19
I4
tp8
a(I321
I4
tp9
a(I696
I4
tp10
a(I86
I4
tp11
a(I533
I4
tp12
a(I123
I4
tp13
a(I545
I4
tp14
a(I480
I4
tp15
a(I559
I4
tp16
a(I363
I4
tp17
a(I328
I4
tp18
asS'runtime'
p19
F0.0008709430694580078
sS'name'
p20
S'["regex", [["jounral_abbreviation", "[x]", "OM"]]]'
p21
s.