(dp0
S'output'
p1
(lp2
(I953
I10
tp3
a(I462
I10
tp4
a(I850
I10
tp5
a(I112
I10
tp6
a(I220
I10
tp7
a(I998
I10
tp8
a(I847
I10
tp9
a(I340
I10
tp10
a(I181
I10
tp11
a(I371
I10
tp12
a(I118
I10
tp13
a(I479
I10
tp14
a(I210
I10
tp15
a(I996
I10
tp16
a(I837
I10
tp17
a(I656
I10
tp18
a(I241
I10
tp19
a(I508
I10
tp20
a(I111
I10
tp21
a(I873
I10
tp22
a(I800
I10
tp23
a(I903
I10
tp24
a(I732
I10
tp25
a(I641
I10
tp26
a(I403
I10
tp27
a(I662
I10
tp28
a(I493
I10
tp29
a(I408
I10
tp30
a(I23
I10
tp31
a(I294
I10
tp32
a(I125
I10
tp33
a(I40
I10
tp34
a(I386
I10
tp35
a(I551
I10
tp36
a(I513
I10
tp37
a(I591
I10
tp38
a(I926
I10
tp39
a(I64
I10
tp40
a(I684
I10
tp41
a(I950
I10
tp42
a(I25
I10
tp43
a(I567
I10
tp44
a(I823
I10
tp45
a(I828
I10
tp46
a(I835
I10
tp47
a(I328
I10
tp48
a(I681
I10
tp49
a(I347
I10
tp50
a(I190
I10
tp51
a(I277
I10
tp52
a(I455
I10
tp53
a(I282
I10
tp54
a(I979
I10
tp55
a(I813
I10
tp56
a(I472
I10
tp57
a(I575
I10
tp58
a(I633
I10
tp59
a(I846
I10
tp60
a(I496
I10
tp61
a(I599
I10
tp62
a(I337
I10
tp63
a(I611
I10
tp64
a(I555
I10
tp65
a(I896
I10
tp66
a(I231
I10
tp67
a(I570
I10
tp68
a(I236
I10
tp69
a(I930
I10
tp70
a(I863
I10
tp71
a(I594
I10
tp72
a(I89
I10
tp73
a(I523
I10
tp74
a(I110
I10
tp75
a(I528
I10
tp76
a(I202
I10
tp77
a(I380
I10
tp78
a(I131
I10
tp79
a(I390
I10
tp80
a(I221
I10
tp81
a(I226
I10
tp82
a(I155
I10
tp83
a(I702
I10
tp84
a(I672
I10
tp85
a(I858
I10
tp86
a(I1
I10
tp87
a(I533
I10
tp88
a(I22
I10
tp89
a(I280
I10
tp90
a(I639
I10
tp91
a(I889
I10
tp92
a(I900
I10
tp93
a(I991
I10
tp94
a(I931
I10
tp95
a(I936
I10
tp96
a(I527
I10
tp97
a(I258
I10
tp98
a(I20
I10
tp99
a(I443
I10
tp100
a(I286
I10
tp101
a(I629
I10
tp102
a(I960
I10
tp103
a(I39
I10
tp104
a(I801
I10
tp105
a(I563
I10
tp106
a(I909
I10
tp107
a(I56
I10
tp108
a(I159
I10
tp109
a(I402
I10
tp110
a(I409
I10
tp111
a(I517
I10
tp112
a(I695
I10
tp113
a(I966
I10
tp114
a(I200
I10
tp115
a(I984
I10
tp116
a(I308
I10
tp117
a(I219
I10
tp118
a(I839
I10
tp119
a(I764
I10
tp120
a(I332
I10
tp121
a(I173
I10
tp122
a(I447
I10
tp123
a(I185
I10
tp124
a(I875
I10
tp125
a(I368
I10
tp126
a(I471
I10
tp127
a(I643
I10
tp128
a(I742
I10
tp129
a(I79
I10
tp130
a(I322
I10
tp131
a(I103
I10
tp132
a(I954
I10
tp133
a(I461
I10
tp134
a(I223
I10
tp135
a(I978
I10
tp136
a(I473
I10
tp137
a(I395
I10
tp138
a(I581
I10
tp139
a(I247
I10
tp140
a(I74
I10
tp141
a(I252
I10
tp142
a(I515
I10
tp143
a(I653
I10
tp144
a(I8
I10
tp145
a(I593
I10
tp146
a(I126
I10
tp147
a(I647
I10
tp148
a(I897
I10
tp149
a(I914
I10
tp150
a(I867
I10
tp151
a(I660
I10
tp152
a(I761
I10
tp153
a(I683
I10
tp154
a(I14
I10
tp155
a(I357
I10
tp156
a(I17
I10
tp157
a(I284
I10
tp158
a(I893
I10
tp159
a(I911
I10
tp160
a(I137
I10
tp161
a(I916
I10
tp162
a(I158
I10
tp163
a(I506
I10
tp164
a(I161
I10
tp165
a(I952
I10
tp166
a(I31
I10
tp167
a(I814
I10
tp168
a(I902
I10
tp169
a(I55
I10
tp170
a(I579
I10
tp171
a(I838
I10
tp172
a(I413
I10
tp173
a(I72
I10
tp174
a(I418
I10
tp175
a(I180
I10
tp176
a(I603
I10
tp177
a(I21
I10
tp178
a(I96
I10
tp179
a(I26
I10
tp180
a(I204
I10
tp181
a(I45
I10
tp182
a(I319
I10
tp183
a(I836
I10
tp184
a(I240
I10
tp185
a(I682
I10
tp186
a(I81
I10
tp187
a(I348
I10
tp188
a(I355
I10
tp189
a(I614
I10
tp190
a(I975
I10
tp191
a(I222
I10
tp192
a(I821
I10
tp193
a(I640
I10
tp194
a(I338
I10
tp195
a(I857
I10
tp196
a(I878
I10
tp197
a(I453
I10
tp198
a(I820
I10
tp199
a(I124
I10
tp200
a(I646
I10
tp201
a(I239
I10
tp202
a(I597
I10
tp203
a(I928
I10
tp204
a(I7
I10
tp205
a(I917
I10
tp206
a(I531
I10
tp207
a(I790
I10
tp208
a(I109
I10
tp209
a(I121
I10
tp210
a(I43
I10
tp211
a(I910
I10
tp212
a(I48
I10
tp213
a(I746
I10
tp214
a(I637
I10
tp215
a(I922
I10
tp216
a(I168
I10
tp217
a(I187
I10
tp218
a(I807
I10
tp219
a(I920
I10
tp220
a(I892
I10
tp221
a(I141
I10
tp222
a(I658
I10
tp223
a(I665
I10
tp224
a(I789
I10
tp225
a(I331
I10
tp226
a(I773
I10
tp227
a(I439
I10
tp228
a(I266
I10
tp229
a(I685
I10
tp230
a(I714
I10
tp231
a(I600
I10
tp232
a(I564
I10
tp233
a(I987
I10
tp234
a(I405
I10
tp235
a(I480
I10
tp236
a(I410
I10
tp237
a(I833
I10
tp238
a(I88
I10
tp239
a(I576
I10
tp240
asS'runtime'
p241
F0.0010039806365966797
sS'name'
p242
S'["regex", [["author_list", "[p]", "OM"]]]'
p243
s.