(dp0
S'output'
p1
(lp2
(I677
I9
tp3
a(I333
I9
tp4
a(I17
I9
tp5
a(I866
I9
tp6
a(I112
I9
tp7
a(I702
I9
tp8
a(I875
I9
tp9
a(I892
I9
tp10
a(I873
I9
tp11
a(I410
I9
tp12
a(I822
I9
tp13
a(I163
I9
tp14
a(I180
I9
tp15
a(I161
I9
tp16
a(I47
I9
tp17
a(I109
I9
tp18
a(I522
I9
tp19
a(I593
I9
tp20
asS'runtime'
p21
F0.0009021759033203125
sS'name'
p22
S'["regex", [["article_pagination", "[C]", "OM"]]]'
p23
s.