(dp0
S'output'
p1
(lp2
(I289
I3
tp3
a(I754
I3
tp4
a(I30
I3
tp5
a(I560
I3
tp6
a(I474
I3
tp7
a(I427
I3
tp8
a(I382
I3
tp9
a(I504
I3
tp10
a(I511
I3
tp11
a(I633
I3
tp12
a(I59
I3
tp13
a(I492
I3
tp14
asS'runtime'
p15
F0.0011119842529296875
sS'name'
p16
S'["regex", [["journal_title", "[K]", "OM"]]]'
p17
s.