(dp0
S'output'
p1
(lp2
(I414
I1
tp3
a(I172
I1
tp4
a(I26
I1
tp5
a(I295
I1
tp6
a(I725
I1
tp7
a(I3
I1
tp8
a(I911
I1
tp9
a(I701
I1
tp10
a(I110
I1
tp11
a(I651
I1
tp12
a(I636
I1
tp13
a(I965
I1
tp14
a(I632
I1
tp15
a(I588
I1
tp16
a(I374
I1
tp17
a(I915
I1
tp18
asS'runtime'
p19
F0.0012619495391845703
sS'name'
p20
S'["regex", [["article_title", "[8]", "OM"]]]'
p21
s.