(dp0
S'output'
p1
(lp2
(I676
I10
tp3
a(I555
I10
tp4
a(I782
I10
tp5
a(I869
I10
tp6
a(I593
I10
tp7
a(I892
I10
tp8
a(I163
I10
tp9
a(I410
I10
tp10
a(I435
I10
tp11
a(I408
I10
tp12
a(I689
I10
tp13
a(I894
I10
tp14
a(I949
I10
tp15
a(I928
I10
tp16
a(I314
I10
tp17
a(I698
I10
tp18
a(I275
I10
tp19
a(I141
I10
tp20
a(I195
I10
tp21
a(I639
I10
tp22
asS'runtime'
p23
F0.0009300708770751953
sS'name'
p24
S'["regex", [["author_list", "[8]", "OM"]]]'
p25
s.