(dp0
S'output'
p1
(lp2
(I455
I3
tp3
a(I392
I3
tp4
a(I158
I3
tp5
a(I322
I3
tp6
a(I787
I3
tp7
a(I608
I3
tp8
asS'runtime'
p9
F0.0008819103240966797
sS'name'
p10
S'["regex", [["journal_title", "[\\ufffd]", "OM"]]]'
p11
s.