(dp0
S'output'
p1
(lp2
(I84
I2
tp3
a(I666
I2
tp4
a(I145
I2
tp5
a(I51
I2
tp6
a(I889
I2
tp7
a(I174
I2
tp8
a(I7
I2
tp9
a(I778
I2
tp10
asS'runtime'
p11
F0.0011401176452636719
sS'name'
p12
S'["regex", [["article_languange", "[ ]", "OM"]]]'
p13
s.