(dp0
S'output'
p1
(lp2
(I337
I5
tp3
a(I127
I5
tp4
a(I912
I5
tp5
a(I587
I5
tp6
a(I882
I5
tp7
a(I543
I5
tp8
a(I118
I5
tp9
a(I607
I5
tp10
a(I926
I5
tp11
a(I507
I5
tp12
a(I962
I5
tp13
a(I189
I5
tp14
asS'runtime'
p15
F0.0008540153503417969
sS'name'
p16
S'["regex", [["journal_issn", "[o]", "OM"]]]'
p17
s.