(dp0
S'output'
p1
(lp2
(I543
I5
tp3
a(I912
I5
tp4
a(I990
I5
tp5
a(I882
I5
tp6
a(I587
I5
tp7
a(I857
I5
tp8
a(I434
I5
tp9
a(I127
I5
tp10
a(I440
I5
tp11
a(I983
I5
tp12
a(I118
I5
tp13
a(I391
I5
tp14
a(I926
I5
tp15
a(I852
I5
tp16
a(I745
I5
tp17
a(I130
I5
tp18
a(I690
I5
tp19
a(I131
I5
tp20
asS'runtime'
p21
F0.0008552074432373047
sS'name'
p22
S'["regex", [["journal_issn", "[e]", "OM"]]]'
p23
s.