(dp0
S'output'
p1
(lp2
(I819
I9
tp3
a(I677
I9
tp4
a(I435
I9
tp5
a(I676
I9
tp6
a(I661
I9
tp7
a(I949
I9
tp8
a(I759
I9
tp9
a(I21
I9
tp10
a(I3
I9
tp11
a(I180
I9
tp12
a(I466
I9
tp13
a(I928
I9
tp14
a(I980
I9
tp15
a(I622
I9
tp16
a(I859
I9
tp17
a(I163
I9
tp18
asS'runtime'
p19
F0.0009047985076904297
sS'name'
p20
S'["regex", [["article_pagination", "[A]", "OM"]]]'
p21
s.