(dp0
S'output'
p1
(lp2
(I684
I9
tp3
a(I435
I9
tp4
a(I180
I9
tp5
a(I689
I9
tp6
a(I892
I9
tp7
asS'runtime'
p8
F0.0008628368377685547
sS'name'
p9
S'["regex", [["article_pagination", "[(]", "OM"]]]'
p10
s.