(dp0
S'output'
p1
(lp2
(I555
I10
tp3
a(I593
I10
tp4
a(I764
I10
tp5
a(I931
I10
tp6
a(I614
I10
tp7
a(I72
I10
tp8
a(I892
I10
tp9
a(I450
I10
tp10
a(I693
I10
tp11
a(I410
I10
tp12
a(I897
I10
tp13
a(I236
I10
tp14
a(I371
I10
tp15
a(I258
I10
tp16
a(I991
I10
tp17
a(I658
I10
tp18
asS'runtime'
p19
F0.0009341239929199219
sS'name'
p20
S'["regex", [["author_list", "[]]", "OM"]]]'
p21
s.