(dp0
S'output'
p1
(lp2
(I666
I2
tp3
a(I145
I2
tp4
a(I51
I2
tp5
a(I889
I2
tp6
a(I174
I2
tp7
a(I7
I2
tp8
asS'runtime'
p9
F0.0010819435119628906
sS'name'
p10
S'["regex", [["article_languange", "[C]", "OM"]]]'
p11
s.