(dp0
S'output'
p1
(lp2
(I641
I3
tp3
a(I210
I3
tp4
a(I269
I3
tp5
a(I905
I3
tp6
a(I216
I3
tp7
a(I152
I3
tp8
a(I989
I3
tp9
a(I133
I3
tp10
asS'runtime'
p11
F0.001107931137084961
sS'name'
p12
S'["regex", [["journal_title", "[9]", "OM"]]]'
p13
s.