(dp0
S'output'
p1
(lp2
(I677
I9
tp3
a(I38
I9
tp4
a(I435
I9
tp5
a(I68
I9
tp6
a(I572
I9
tp7
a(I758
I9
tp8
a(I195
I9
tp9
a(I897
I9
tp10
a(I333
I9
tp11
a(I141
I9
tp12
a(I3
I9
tp13
a(I622
I9
tp14
asS'runtime'
p15
F0.0009059906005859375
sS'name'
p16
S'["regex", [["article_pagination", "[,]", "OM"]]]'
p17
s.