(dp0
S'output'
p1
(lp2
(I435
I9
tp3
a(I866
I9
tp4
a(I720
I9
tp5
a(I413
I9
tp6
a(I163
I9
tp7
a(I333
I9
tp8
a(I47
I9
tp9
a(I109
I9
tp10
a(I3
I9
tp11
a(I283
I9
tp12
a(I684
I9
tp13
a(I25
I9
tp14
a(I522
I9
tp15
asS'runtime'
p16
F0.0009009838104248047
sS'name'
p17
S'["regex", [["article_pagination", "[D]", "OM"]]]'
p18
s.