(dp0
S'output'
p1
(lp2
(I869
I9
tp3
a(I935
I9
tp4
a(I180
I9
tp5
a(I98
I9
tp6
a(I543
I9
tp7
asS'runtime'
p8
F0.0008900165557861328
sS'name'
p9
S'["regex", [["article_pagination", "[E]", "OM"]]]'
p10
s.