(dp0
S'output'
p1
(lp2
(I547
I1
tp3
a(I599
I1
tp4
a(I881
I1
tp5
a(I327
I1
tp6
a(I785
I1
tp7
a(I295
I1
tp8
a(I699
I1
tp9
a(I319
I1
tp10
a(I561
I1
tp11
a(I523
I1
tp12
a(I55
I1
tp13
a(I479
I1
tp14
a(I447
I1
tp15
asS'runtime'
p16
F0.0012340545654296875
sS'name'
p17
S'["regex", [["article_title", "[Q]", "OM"]]]'
p18
s.