(dp0
S'output'
p1
(lp2
(I749
I4
tp3
a(I84
I4
tp4
a(I507
I4
tp5
a(I754
I4
tp6
a(I256
I4
tp7
asS'runtime'
p8
F0.0008630752563476562
sS'name'
p9
S'["regex", [["jounral_abbreviation", "[z]", "OM"]]]'
p10
s.