(dp0
S'output'
p1
(lp2
(I938
I4
tp3
a(I208
I4
tp4
a(I846
I4
tp5
a(I545
I4
tp6
a(I559
I4
tp7
a(I90
I4
tp8
a(I480
I4
tp9
a(I143
I4
tp10
a(I84
I4
tp11
a(I611
I4
tp12
a(I936
I4
tp13
asS'runtime'
p14
F0.0008680820465087891
sS'name'
p15
S'["regex", [["jounral_abbreviation", "[,]", "OM"]]]'
p16
s.