(dp0
S'output'
p1
(lp2
(I910
I4
tp3
a(I83
I4
tp4
a(I967
I4
tp5
a(I154
I4
tp6
a(I457
I4
tp7
a(I256
I4
tp8
a(I212
I4
tp9
a(I483
I4
tp10
a(I561
I4
tp11
asS'runtime'
p12
F0.0008728504180908203
sS'name'
p13
S'["regex", [["jounral_abbreviation", "[U]", "OM"]]]'
p14
s.