(dp0
S'output'
p1
(lp2
(I214
I3
tp3
a(I360
I3
tp4
a(I338
I3
tp5
a(I52
I3
tp6
a(I318
I3
tp7
a(I53
I3
tp8
a(I600
I3
tp9
a(I561
I3
tp10
a(I416
I3
tp11
a(I569
I3
tp12
a(I485
I3
tp13
asS'runtime'
p14
F0.001119852066040039
sS'name'
p15
S'["regex", [["journal_title", "[/]", "OM"]]]'
p16
s.