(dp0
S'output'
p1
(lp2
(I689
I9
tp3
a(I435
I9
tp4
a(I676
I9
tp5
a(I433
I9
tp6
a(I112
I9
tp7
a(I894
I9
tp8
a(I847
I9
tp9
a(I410
I9
tp10
a(I163
I9
tp11
a(I897
I9
tp12
a(I333
I9
tp13
a(I195
I9
tp14
a(I141
I9
tp15
a(I622
I9
tp16
a(I750
I9
tp17
a(I593
I9
tp18
asS'runtime'
p19
F0.0008938312530517578
sS'name'
p20
S'["regex", [["article_pagination", "[w]", "OM"]]]'
p21
s.