(dp0
S'output'
p1
(lp2
(I139
I10
tp3
a(I112
I10
tp4
a(I949
I10
tp5
a(I810
I10
tp6
a(I333
I10
tp7
a(I195
I10
tp8
a(I698
I10
tp9
a(I555
I10
tp10
a(I847
I10
tp11
a(I894
I10
tp12
a(I21
I10
tp13
a(I839
I10
tp14
a(I314
I10
tp15
a(I876
I10
tp16
a(I435
I10
tp17
a(I141
I10
tp18
a(I3
I10
tp19
a(I306
I10
tp20
asS'runtime'
p21
F0.0009360313415527344
sS'name'
p22
S'["regex", [["author_list", "[7]", "OM"]]]'
p23
s.