(dp0
S'output'
p1
(lp2
(I869
I9
tp3
a(I676
I9
tp4
a(I894
I9
tp5
a(I892
I9
tp6
a(I410
I9
tp7
a(I21
I9
tp8
a(I622
I9
tp9
a(I750
I9
tp10
asS'runtime'
p11
F0.0008611679077148438
sS'name'
p12
S'["regex", [["article_pagination", "[k]", "OM"]]]'
p13
s.