(dp0
S'output'
p1
(lp2
(I92
I4
tp3
a(I170
I4
tp4
a(I208
I4
tp5
a(I302
I4
tp6
a(I595
I4
tp7
a(I88
I4
tp8
a(I936
I4
tp9
a(I86
I4
tp10
a(I124
I4
tp11
a(I470
I4
tp12
a(I755
I4
tp13
a(I719
I4
tp14
a(I758
I4
tp15
a(I748
I4
tp16
a(I780
I4
tp17
asS'runtime'
p18
F0.0008640289306640625
sS'name'
p19
S'["regex", [["jounral_abbreviation", "[:]", "OM"]]]'
p20
s.