(dp0
S'output'
p1
(lp2
(I587
I5
tp3
a(I740
I5
tp4
a(I857
I5
tp5
a(I690
I5
tp6
a(I607
I5
tp7
a(I852
I5
tp8
a(I745
I5
tp9
a(I962
I5
tp10
a(I189
I5
tp11
asS'runtime'
p12
F0.0008549690246582031
sS'name'
p13
S'["regex", [["journal_issn", "[p]", "OM"]]]'
p14
s.