(dp0
S'output'
p1
(lp2
(I676
I10
tp3
a(I875
I10
tp4
a(I622
I10
tp5
a(I869
I10
tp6
a(I112
I10
tp7
a(I892
I10
tp8
a(I195
I10
tp9
a(I314
I10
tp10
a(I847
I10
tp11
a(I897
I10
tp12
a(I21
I10
tp13
a(I928
I10
tp14
a(I410
I10
tp15
a(I698
I10
tp16
a(I141
I10
tp17
a(I856
I10
tp18
a(I639
I10
tp19
a(I818
I10
tp20
asS'runtime'
p21
F0.0009319782257080078
sS'name'
p22
S'["regex", [["author_list", "[6]", "OM"]]]'
p23
s.