(dp0
S'output'
p1
(lp2
(I677
I9
tp3
a(I435
I9
tp4
a(I676
I9
tp5
a(I689
I9
tp6
a(I639
I9
tp7
a(I112
I9
tp8
a(I894
I9
tp9
a(I139
I9
tp10
a(I410
I9
tp11
a(I720
I9
tp12
a(I822
I9
tp13
a(I195
I9
tp14
a(I180
I9
tp15
a(I333
I9
tp16
a(I141
I9
tp17
a(I430
I9
tp18
a(I622
I9
tp19
asS'runtime'
p20
F0.0008630752563476562
sS'name'
p21
S'["regex", [["article_pagination", "[b]", "OM"]]]'
p22
s.