(dp0
S'output'
p1
(lp2
(I589
I2
tp3
a(I367
I2
tp4
a(I754
I2
tp5
a(I382
I2
tp6
a(I689
I2
tp7
a(I767
I2
tp8
a(I494
I2
tp9
asS'runtime'
p10
F0.0010390281677246094
sS'name'
p11
S'["regex", [["article_languange", "[j]", "OM"]]]'
p12
s.