(dp0
S'output'
p1
(lp2
(I992
I1
tp3
a(I913
I1
tp4
a(I240
I1
tp5
a(I887
I1
tp6
a(I979
I1
tp7
a(I978
I1
tp8
asS'runtime'
p9
F0.0011930465698242188
sS'name'
p10
S'["regex", [["article_title", "[X]", "OM"]]]'
p11
s.