(dp0
S'output'
p1
(lp2
(I2264
I9
tp3
a(I2025
I10
tp4
a(I2027
I10
tp5
a(I2263
I10
tp6
a(I2026
I10
tp7
a(I2027
I9
tp8
a(I2024
I10
tp9
a(I2265
I10
tp10
a(I2025
I9
tp11
a(I2024
I9
tp12
a(I2265
I9
tp13
a(I2263
I9
tp14
a(I2264
I10
tp15
a(I2026
I9
tp16
asS'runtime'
p17
F4.266914129257202
sS'name'
p18
S'["dboost", ["partitionedhistogram", "8", "0.7", "0.3"]]'
p19
s.