(dp0
S'output'
p1
(lp2
(I2264
I9
tp3
a(I1508
I9
tp4
a(I1506
I9
tp5
a(I2027
I9
tp6
a(I2025
I9
tp7
a(I2263
I9
tp8
a(I2024
I9
tp9
a(I1507
I9
tp10
a(I2265
I9
tp11
a(I2026
I9
tp12
asS'runtime'
p13
F0.0020339488983154297
sS'name'
p14
S'["regex", [["city", "[\']", "OM"]]]'
p15
s.