(dp0
S'output'
p1
(lp2
(I993
I2
tp3
a(I2348
I2
tp4
a(I163
I2
tp5
a(I2349
I2
tp6
a(I2347
I2
tp7
a(I2164
I2
tp8
a(I1803
I2
tp9
a(I2389
I2
tp10
a(I1360
I2
tp11
a(I1920
I2
tp12
a(I166
I2
tp13
a(I1304
I2
tp14
a(I1631
I2
tp15
a(I1797
I2
tp16
a(I576
I2
tp17
asS'runtime'
p18
F0.0025348663330078125
sS'name'
p19
S'["regex", [["beer_name", "[\\u2019]", "OM"]]]'
p20
s.