(dp0
S'output'
p1
(lp2
(I1918
I9
tp3
a(I1916
I9
tp4
a(I1114
I9
tp5
a(I2265
I9
tp6
a(I1115
I9
tp7
a(I550
I9
tp8
a(I979
I9
tp9
a(I1233
I9
tp10
a(I329
I9
tp11
a(I1914
I9
tp12
a(I2263
I9
tp13
a(I1915
I9
tp14
a(I1113
I9
tp15
a(I2264
I9
tp16
a(I328
I9
tp17
a(I88
I9
tp18
a(I1919
I9
tp19
a(I752
I9
tp20
a(I1917
I9
tp21
a(I89
I9
tp22
a(I1234
I9
tp23
a(I1920
I9
tp24
a(I330
I9
tp25
asS'runtime'
p26
F0.002043008804321289
sS'name'
p27
S'["regex", [["city", "[J]", "OM"]]]'
p28
s.