(dp0
S'output'
p1
(lp2
(I1601
I8
tp3
a(I1599
I8
tp4
a(I1597
I8
tp5
a(I1124
I8
tp6
a(I1602
I8
tp7
a(I1598
I8
tp8
a(I1123
I8
tp9
a(I1185
I8
tp10
a(I1600
I8
tp11
asS'runtime'
p12
F0.0020449161529541016
sS'name'
p13
S'["regex", [["brewery_name", "[(]", "OM"]]]'
p14
s.