(dp0
S'output'
p1
(lp2
(I2305
I2
tp3
a(I2385
I2
tp4
a(I2019
I2
tp5
a(I2298
I2
tp6
a(I436
I2
tp7
a(I442
I2
tp8
a(I2304
I2
tp9
a(I826
I2
tp10
a(I1361
I2
tp11
a(I422
I2
tp12
a(I1688
I2
tp13
a(I831
I2
tp14
a(I1378
I2
tp15
a(I1305
I2
tp16
a(I1668
I2
tp17
a(I2299
I2
tp18
a(I78
I2
tp19
a(I1376
I2
tp20
asS'runtime'
p21
F0.0024869441986083984
sS'name'
p22
S'["regex", [["beer_name", "[q]", "OM"]]]'
p23
s.