(dp0
S'output'
p1
(lp2
(I51
I8
tp3
a(I56
I8
tp4
a(I752
I8
tp5
a(I55
I8
tp6
a(I53
I8
tp7
a(I54
I8
tp8
a(I52
I8
tp9
a(I50
I8
tp10
asS'runtime'
p11
F0.002084970474243164
sS'name'
p12
S'["regex", [["brewery_name", "[5]", "OM"]]]'
p13
s.