(dp0
S'output'
p1
(lp2
(I1208
I9
tp3
a(I2163
I9
tp4
a(I1156
I9
tp5
a(I1865
I9
tp6
a(I1210
I9
tp7
a(I1288
I9
tp8
a(I181
I9
tp9
a(I1294
I9
tp10
a(I180
I9
tp11
a(I1860
I9
tp12
a(I333
I9
tp13
a(I461
I9
tp14
a(I334
I9
tp15
a(I1211
I9
tp16
a(I1209
I9
tp17
a(I2311
I9
tp18
asS'runtime'
p19
F0.0021209716796875
sS'name'
p20
S'["regex", [["city", "[Y]", "OM"]]]'
p21
s.