(dp0
S'output'
p1
(lp2
(I483
I2
tp3
a(I2037
I2
tp4
a(I156
I2
tp5
a(I1574
I2
tp6
a(I31
I2
tp7
a(I1710
I2
tp8
asS'runtime'
p9
F0.0024781227111816406
sS'name'
p10
S'["regex", [["beer_name", "[:]", "OM"]]]'
p11
s.