(dp0
S'output'
p1
(lp2
(I51
I8
tp3
a(I42
I8
tp4
a(I49
I8
tp5
a(I56
I8
tp6
a(I1013
I8
tp7
a(I1194
I8
tp8
a(I43
I8
tp9
a(I1014
I8
tp10
a(I48
I8
tp11
a(I55
I8
tp12
a(I53
I8
tp13
a(I1192
I8
tp14
a(I47
I8
tp15
a(I54
I8
tp16
a(I45
I8
tp17
a(I52
I8
tp18
a(I1193
I8
tp19
a(I50
I8
tp20
a(I1191
I8
tp21
a(I46
I8
tp22
a(I44
I8
tp23
asS'runtime'
p24
F0.0020608901977539062
sS'name'
p25
S'["regex", [["brewery_name", "[4]", "OM"]]]'
p26
s.