(dp0
S'output'
p1
(lp2
(I472
I9
tp3
a(I134
I9
tp4
a(I1284
I9
tp5
a(I1148
I9
tp6
a(I1955
I9
tp7
a(I846
I9
tp8
a(I1287
I9
tp9
asS'runtime'
p10
F0.002104043960571289
sS'name'
p11
S'["regex", [["city", "[X]", "OM"]]]'
p12
s.