(dp0
S'output'
p1
(lp2
(I633
I10
tp3
a(I1241
I10
tp4
a(I2091
I10
tp5
a(I1550
I10
tp6
a(I2093
I10
tp7
a(I1692
I10
tp8
a(I634
I10
tp9
a(I1690
I10
tp10
a(I660
I10
tp11
a(I2094
I10
tp12
a(I661
I10
tp13
a(I1242
I10
tp14
a(I2092
I10
tp15
a(I1549
I10
tp16
asS'runtime'
p17
F0.002061128616333008
sS'name'
p18
S'["regex", [["state", "[G]", "OM"]]]'
p19
s.