(dp0
S'output'
p1
(lp2
(I342
I2
tp3
a(I783
I2
tp4
a(I309
I2
tp5
a(I683
I2
tp6
a(I437
I2
tp7
a(I2278
I2
tp8
a(I134
I2
tp9
a(I824
I2
tp10
a(I831
I2
tp11
asS'runtime'
p12
F0.0025670528411865234
sS'name'
p13
S'["regex", [["beer_name", "[Q]", "OM"]]]'
p14
s.