(dp0
S'output'
p1
(lp2
(I10
I8
tp3
a(I6
I8
tp4
a(I4
I8
tp5
a(I11
I8
tp6
a(I2
I8
tp7
a(I9
I8
tp8
a(I3
I8
tp9
a(I1
I8
tp10
a(I8
I8
tp11
a(I13
I8
tp12
a(I7
I8
tp13
a(I14
I8
tp14
a(I5
I8
tp15
a(I12
I8
tp16
asS'runtime'
p17
F0.0020720958709716797
sS'name'
p18
S'["regex", [["brewery_name", "[8]", "OM"]]]'
p19
s.