(dp0
S'output'
p1
(lp2
(I2161
I8
tp3
a(I1528
I8
tp4
a(I1533
I8
tp5
a(I1532
I8
tp6
a(I1530
I8
tp7
a(I1531
I8
tp8
a(I1529
I8
tp9
asS'runtime'
p10
F0.0021049976348876953
sS'name'
p11
S'["regex", [["brewery_name", "[j]", "OM"]]]'
p12
s.