(dp0
S'output'
p1
(lp2
(I2248
I2
tp3
a(I1065
I2
tp4
a(I759
I2
tp5
a(I154
I2
tp6
a(I252
I2
tp7
a(I339
I2
tp8
a(I1798
I2
tp9
a(I697
I2
tp10
a(I2254
I2
tp11
a(I2341
I2
tp12
a(I2318
I2
tp13
a(I749
I2
tp14
a(I1512
I2
tp15
a(I591
I2
tp16
a(I1308
I2
tp17
a(I627
I2
tp18
a(I1764
I2
tp19
a(I581
I2
tp20
a(I1483
I2
tp21
a(I1437
I2
tp22
a(I1176
I2
tp23
a(I249
I2
tp24
a(I772
I2
tp25
a(I1893
I2
tp26
a(I1632
I2
tp27
a(I2093
I2
tp28
a(I911
I2
tp29
a(I1586
I2
tp30
a(I1182
I2
tp31
a(I1218
I2
tp32
a(I814
I2
tp33
a(I901
I2
tp34
a(I640
I2
tp35
a(I1603
I2
tp36
a(I1199
I2
tp37
a(I2320
I2
tp38
a(I524
I2
tp39
a(I463
I2
tp40
a(I1225
I2
tp41
a(I156
I2
tp42
a(I1958
I2
tp43
a(I366
I2
tp44
a(I1923
I2
tp45
a(I489
I2
tp46
a(I331
I2
tp47
a(I689
I2
tp48
a(I531
I2
tp49
a(I383
I2
tp50
a(I741
I2
tp51
a(I1504
I2
tp52
a(I234
I2
tp53
a(I2124
I2
tp54
a(I1807
I2
tp55
a(I30
I2
tp56
a(I373
I2
tp57
a(I215
I2
tp58
a(I1756
I2
tp59
a(I251
I2
tp60
a(I1290
I2
tp61
a(I2253
I2
tp62
a(I2095
I2
tp63
a(I1746
I2
tp64
a(I1624
I2
tp65
a(I1465
I2
tp66
a(I37
I2
tp67
a(I903
I2
tp68
a(I1578
I2
tp69
a(I1256
I2
tp70
a(I2121
I2
tp71
a(I2277
I2
tp72
a(I1297
I2
tp73
a(I1395
I2
tp74
a(I386
I2
tp75
a(I1262
I2
tp76
a(I842
I2
tp77
a(I771
I2
tp78
a(I438
I2
tp79
a(I264
I2
tp80
a(I1647
I2
tp81
a(I1140
I2
tp82
a(I1227
I2
tp83
a(I894
I2
tp84
a(I981
I2
tp85
a(I1585
I2
tp86
a(I2364
I2
tp87
a(I1181
I2
tp88
a(I1944
I2
tp89
a(I1279
I2
tp90
a(I270
I2
tp91
a(I1059
I2
tp92
a(I1269
I2
tp93
a(I1111
I2
tp94
a(I445
I2
tp95
a(I2232
I2
tp96
a(I2335
I2
tp97
a(I1828
I2
tp98
a(I2284
I2
tp99
a(I1101
I2
tp100
a(I594
I2
tp101
a(I277
I2
tp102
a(I1137
I2
tp103
a(I2203
I2
tp104
a(I1906
I2
tp105
a(I145
I2
tp106
a(I924
I2
tp107
a(I243
I2
tp108
a(I1467
I2
tp109
a(I2158
I2
tp110
a(I1738
I2
tp111
a(I1580
I2
tp112
a(I1667
I2
tp113
a(I1334
I2
tp114
a(I914
I2
tp115
a(I2228
I2
tp116
a(I1457
I2
tp117
a(I966
I2
tp118
a(I29
I2
tp119
a(I1509
I2
tp120
a(I844
I2
tp121
a(I931
I2
tp122
a(I1709
I2
tp123
a(I1551
I2
tp124
a(I1202
I2
tp125
a(I1044
I2
tp126
a(I880
I2
tp127
a(I1183
I2
tp128
a(I1019
I2
tp129
a(I430
I2
tp130
a(I1541
I2
tp131
a(I2304
I2
tp132
a(I1377
I2
tp133
a(I886
I2
tp134
a(I973
I2
tp135
a(I1577
I2
tp136
a(I2356
I2
tp137
a(I2297
I2
tp138
a(I140
I2
tp139
a(I483
I2
tp140
a(I176
I2
tp141
a(I1978
I2
tp142
a(I893
I2
tp143
a(I2178
I2
tp144
a(I1856
I2
tp145
a(I1488
I2
tp146
a(I60
I2
tp147
a(I147
I2
tp148
a(I1284
I2
tp149
a(I2062
I2
tp150
a(I2247
I2
tp151
a(I1898
I2
tp152
a(I1320
I2
tp153
a(I2098
I2
tp154
a(I137
I2
tp155
a(I1694
I2
tp156
a(I1372
I2
tp157
a(I906
I2
tp158
a(I1711
I2
tp159
a(I119
I2
tp160
a(I57
I2
tp161
a(I1614
I2
tp162
a(I416
I2
tp163
a(I826
I2
tp164
a(I2281
I2
tp165
a(I504
I2
tp166
a(I1211
I2
tp167
a(I704
I2
tp168
a(I2348
I2
tp169
a(I1165
I2
tp170
a(I1001
I2
tp171
a(I843
I2
tp172
a(I510
I2
tp173
a(I2384
I2
tp174
a(I1114
I2
tp175
a(I710
I2
tp176
a(I536
I2
tp177
a(I895
I2
tp178
a(I1657
I2
tp179
a(I1095
I2
tp180
a(I2390
I2
tp181
a(I2319
I2
tp182
a(I1812
I2
tp183
a(I727
I2
tp184
a(I465
I2
tp185
a(I578
I2
tp186
a(I665
I2
tp187
a(I1444
I2
tp188
a(I1987
I2
tp189
a(I630
I2
tp190
a(I559
I2
tp191
a(I297
I2
tp192
a(I2071
I2
tp193
a(I1312
I2
tp194
a(I2275
I2
tp195
a(I1686
I2
tp196
a(I2029
I2
tp197
a(I1768
I2
tp198
a(I23
I2
tp199
a(I1809
I2
tp200
a(I898
I2
tp201
a(I996
I2
tp202
a(I1441
I2
tp203
a(I1283
I2
tp204
a(I2097
I2
tp205
a(I828
I2
tp206
a(I1606
I2
tp207
a(I1791
I2
tp208
a(I864
I2
tp209
a(I1571
I2
tp210
a(I1003
I2
tp211
a(I414
I2
tp212
a(I1623
I2
tp213
a(I1274
I2
tp214
a(I1659
I2
tp215
a(I835
I2
tp216
a(I328
I2
tp217
a(I380
I2
tp218
a(I1926
I2
tp219
a(I2382
I2
tp220
a(I1025
I2
tp221
a(I534
I2
tp222
a(I616
I2
tp223
a(I457
I2
tp224
a(I212
I2
tp225
a(I299
I2
tp226
a(I1840
I2
tp227
a(I509
I2
tp228
a(I2399
I2
tp229
a(I1472
I2
tp230
a(I2337
I2
tp231
a(I44
I2
tp232
a(I2302
I2
tp233
a(I341
I2
tp234
a(I2231
I2
tp235
a(I1811
I2
tp236
a(I2021
I2
tp237
a(I1801
I2
tp238
a(I1556
I2
tp239
a(I2257
I2
tp240
a(I1695
I2
tp241
a(I1433
I2
tp242
a(I1188
I2
tp243
a(I1546
I2
tp244
a(I1327
I2
tp245
a(I1783
I2
tp246
a(I2316
I2
tp247
a(I856
I2
tp248
a(I1317
I2
tp249
a(I1056
I2
tp250
a(I1159
I2
tp251
a(I897
I2
tp252
a(I862
I2
tp253
a(I688
I2
tp254
a(I1553
I2
tp255
a(I1651
I2
tp256
a(I1062
I2
tp257
a(I1247
I2
tp258
a(I320
I2
tp259
a(I2322
I2
tp260
a(I459
I2
tp261
a(I1150
I2
tp262
a(I1237
I2
tp263
a(I526
I2
tp264
a(I608
I2
tp265
a(I291
I2
tp266
a(I2206
I2
tp267
a(I501
I2
tp268
a(I240
I2
tp269
a(I1971
I2
tp270
a(I614
I2
tp271
a(I1838
I2
tp272
a(I2023
I2
tp273
a(I579
I2
tp274
a(I2120
I2
tp275
a(I1470
I2
tp276
a(I2233
I2
tp277
a(I211
I2
tp278
a(I165
I2
tp279
a(I928
I2
tp280
a(I621
I2
tp281
a(I2301
I2
tp282
a(I95
I2
tp283
a(I1881
I2
tp284
a(I1390
I2
tp285
a(I2379
I2
tp286
a(I1319
I2
tp287
a(I812
I2
tp288
a(I1775
I2
tp289
a(I1268
I2
tp290
a(I1022
I2
tp291
a(I1555
I2
tp292
a(I783
I2
tp293
a(I890
I2
tp294
a(I819
I2
tp295
a(I1597
I2
tp296
a(I2360
I2
tp297
a(I1275
I2
tp298
a(I773
I2
tp299
a(I364
I2
tp300
a(I1142
I2
tp301
a(I651
I2
tp302
a(I1946
I2
tp303
a(I703
I2
tp304
a(I2402
I2
tp305
a(I441
I2
tp306
a(I196
I2
tp307
a(I1927
I2
tp308
a(I232
I2
tp309
a(I335
I2
tp310
a(I28
I2
tp311
a(I2286
I2
tp312
a(I64
I2
tp313
a(I1708
I2
tp314
a(I1795
I2
tp315
a(I525
I2
tp316
a(I1288
I2
tp317
a(I2164
I2
tp318
a(I157
I2
tp319
a(I613
I2
tp320
a(I1837
I2
tp321
a(I87
I2
tp322
a(I2193
I2
tp323
a(I1162
I2
tp324
a(I1347
I2
tp325
a(I2161
I2
tp326
a(I892
I2
tp327
a(I1599
I2
tp328
a(I1179
I2
tp329
a(I775
I2
tp330
a(I268
I2
tp331
a(I1128
I2
tp332
a(I2226
I2
tp333
a(I724
I2
tp334
a(I811
I2
tp335
a(I1267
I2
tp336
a(I356
I2
tp337
a(I801
I2
tp338
a(I2184
I2
tp339
a(I275
I2
tp340
a(I1816
I2
tp341
a(I546
I2
tp342
a(I889
I2
tp343
a(I2299
I2
tp344
a(I142
I2
tp345
a(I224
I2
tp346
a(I1089
I2
tp347
a(I2108
I2
tp348
a(I1904
I2
tp349
a(I1500
I2
tp350
a(I2365
I2
tp351
a(I2207
I2
tp352
a(I1945
I2
tp353
a(I1700
I2
tp354
a(I517
I2
tp355
a(I353
I2
tp356
a(I195
I2
tp357
a(I2197
I2
tp358
a(I2295
I2
tp359
a(I185
I2
tp360
a(I2075
I2
tp361
a(I1568
I2
tp362
a(I1507
I2
tp363
a(I1778
I2
tp364
a(I1461
I2
tp365
a(I954
I2
tp366
a(I115
I2
tp367
a(I1381
I2
tp368
a(I1120
I2
tp369
a(I874
I2
tp370
a(I296
I2
tp371
a(I752
I2
tp372
a(I2396
I2
tp373
a(I1976
I2
tp374
a(I2176
I2
tp375
a(I1091
I2
tp376
a(I758
I2
tp377
a(I584
I2
tp378
a(I2386
I2
tp379
a(I180
I2
tp380
a(I267
I2
tp381
a(I1045
I2
tp382
a(I538
I2
tp383
a(I636
I2
tp384
a(I2244
I2
tp385
a(I677
I2
tp386
a(I170
I2
tp387
a(I2060
I2
tp388
a(I1814
I2
tp389
a(I1999
I2
tp390
a(I555
I2
tp391
a(I309
I2
tp392
a(I1937
I2
tp393
a(I2393
I2
tp394
a(I187
I2
tp395
a(I1989
I2
tp396
a(I1831
I2
tp397
a(I1411
I2
tp398
a(I54
I2
tp399
a(I1780
I2
tp400
a(I1360
I2
tp401
a(I2225
I2
tp402
a(I956
I2
tp403
a(I633
I2
tp404
a(I1499
I2
tp405
a(I229
I2
tp406
a(I1699
I2
tp407
a(I1366
I2
tp408
a(I1192
I2
tp409
a(I946
I2
tp410
a(I107
I2
tp411
a(I1489
I2
tp412
a(I1331
I2
tp413
a(I998
I2
tp414
a(I824
I2
tp415
a(I1383
I2
tp416
a(I2328
I2
tp417
a(I97
I2
tp418
a(I1741
I2
tp419
a(I456
I2
tp420
a(I1163
I2
tp421
a(I410
I2
tp422
a(I708
I2
tp423
a(I391
I2
tp424
a(I1066
I2
tp425
a(I1153
I2
tp426
a(I744
I2
tp427
a(I1968
I2
tp428
a(I785
I2
tp429
a(I1661
I2
tp430
a(I1922
I2
tp431
a(I259
I2
tp432
a(I1800
I2
tp433
a(I715
I2
tp434
a(I1432
I2
tp435
a(I2210
I2
tp436
a(I2395
I2
tp437
a(I1806
I2
tp438
a(I2224
I2
tp439
a(I1484
I2
tp440
a(I2349
I2
tp441
a(I2191
I2
tp442
a(I92
I2
tp443
a(I1894
I2
tp444
a(I1981
I2
tp445
a(I1823
I2
tp446
a(I1474
I2
tp447
a(I635
I2
tp448
a(I1352
I2
tp449
a(I1455
I2
tp450
a(I2130
I2
tp451
a(I2217
I2
tp452
a(I2059
I2
tp453
a(I1726
I2
tp454
a(I1911
I2
tp455
a(I902
I2
tp456
a(I1691
I2
tp457
a(I1184
I2
tp458
a(I780
I2
tp459
a(I2147
I2
tp460
a(I1558
I2
tp461
a(I1901
I2
tp462
a(I2325
I2
tp463
a(I1375
I2
tp464
a(I2137
I2
tp465
a(I1575
I2
tp466
a(I1068
I2
tp467
a(I1155
I2
tp468
a(I909
I2
tp469
a(I1365
I2
tp470
a(I280
I2
tp471
a(I1663
I2
tp472
a(I1924
I2
tp473
a(I1197
I2
tp474
a(I1039
I2
tp475
a(I690
I2
tp476
a(I829
I2
tp477
a(I671
I2
tp478
a(I2205
I2
tp479
a(I1029
I2
tp480
a(I1792
I2
tp481
asS'runtime'
p482
F0.0027909278869628906
sS'name'
p483
S'["regex", [["beer_name", "[I]", "OM"]]]'
p484
s.