(dp0
S'output'
p1
(lp2
(I2001
I3
tp3
a(I1761
I3
tp4
a(I2002
I3
tp5
a(I1997
I3
tp6
a(I2000
I3
tp7
a(I2025
I3
tp8
a(I1370
I3
tp9
a(I1995
I3
tp10
a(I1372
I3
tp11
a(I1141
I3
tp12
a(I2222
I3
tp13
a(I753
I3
tp14
a(I1373
I3
tp15
a(I2024
I3
tp16
a(I2015
I3
tp17
a(I1994
I3
tp18
a(I507
I3
tp19
a(I1765
I3
tp20
asS'runtime'
p21
F0.001995086669921875
sS'name'
p22
S'["regex", [["style", "[j]", "OM"]]]'
p23
s.