(dp0
S'output'
p1
(lp2
(I161
I2
tp3
a(I995
I2
tp4
a(I15
I2
tp5
a(I139
I2
tp6
a(I126
I2
tp7
a(I666
I2
tp8
a(I785
I2
tp9
a(I1533
I2
tp10
a(I1112
I2
tp11
a(I2402
I2
tp12
a(I1531
I2
tp13
a(I235
I2
tp14
asS'runtime'
p15
F0.002479076385498047
sS'name'
p16
S'["regex", [["beer_name", "[j]", "OM"]]]'
p17
s.