(dp0
S'output'
p1
(lp2
(I2264
I9
tp3
a(I2341
I9
tp4
a(I2340
I9
tp5
a(I2338
I9
tp6
a(I1695
I9
tp7
a(I1693
I9
tp8
a(I1694
I9
tp9
a(I2263
I9
tp10
a(I2339
I9
tp11
a(I1697
I9
tp12
a(I2031
I9
tp13
a(I1696
I9
tp14
a(I2029
I9
tp15
a(I2030
I9
tp16
a(I2265
I9
tp17
asS'runtime'
p18
F0.00203704833984375
sS'name'
p19
S'["regex", [["city", "[.]", "OM"]]]'
p20
s.