(dp0
S'output'
p1
(lp2
(I2038
I3
tp3
a(I680
I3
tp4
a(I1161
I3
tp5
a(I882
I3
tp6
a(I2371
I3
tp7
a(I2036
I3
tp8
a(I2063
I3
tp9
a(I336
I3
tp10
a(I841
I3
tp11
a(I725
I3
tp12
a(I2039
I3
tp13
a(I1553
I3
tp14
a(I2045
I3
tp15
a(I1166
I3
tp16
a(I1522
I3
tp17
asS'runtime'
p18
F0.0020608901977539062
sS'name'
p19
S'["regex", [["style", "[v]", "OM"]]]'
p20
s.