(dp0
S'output'
p1
(lp2
(I899
I2
tp3
a(I141
I2
tp4
a(I648
I2
tp5
a(I495
I2
tp6
a(I1618
I2
tp7
a(I852
I2
tp8
a(I779
I2
tp9
a(I1520
I2
tp10
a(I314
I2
tp11
a(I1190
I2
tp12
a(I858
I2
tp13
a(I377
I2
tp14
a(I2116
I2
tp15
a(I91
I2
tp16
a(I666
I2
tp17
a(I1991
I2
tp18
asS'runtime'
p19
F0.0028350353240966797
sS'name'
p20
S'["regex", [["beer_name", "[\\u00f6]", "OM"]]]'
p21
s.