(dp0
S'output'
p1
(lp2
(I171
I9
tp3
a(I169
I9
tp4
a(I168
I9
tp5
a(I2162
I9
tp6
a(I172
I9
tp7
a(I170
I9
tp8
a(I167
I9
tp9
asS'runtime'
p10
F0.002019166946411133
sS'name'
p11
S'["regex", [["city", "[-]", "OM"]]]'
p12
s.