(dp0
S'output'
p1
(lp2
(I1299
I9
tp3
a(I1297
I9
tp4
a(I1296
I9
tp5
a(I1291
I9
tp6
a(I1289
I9
tp7
a(I1288
I9
tp8
a(I1300
I9
tp9
a(I1298
I9
tp10
a(I1295
I9
tp11
a(I1293
I9
tp12
a(I1294
I9
tp13
a(I1292
I9
tp14
a(I2260
I9
tp15
a(I1290
I9
tp16
asS'runtime'
p17
F0.0021209716796875
sS'name'
p18
S'["regex", [["city", "[U]", "OM"]]]'
p19
s.