(dp0
S'output'
p1
(lp2
(I620
I2
tp3
a(I2301
I2
tp4
a(I2351
I2
tp5
a(I2002
I2
tp6
a(I1065
I2
tp7
a(I574
I2
tp8
a(I154
I2
tp9
a(I2300
I2
tp10
a(I1798
I2
tp11
a(I1117
I2
tp12
a(I1983
I2
tp13
a(I539
I2
tp14
a(I206
I2
tp15
a(I242
I2
tp16
a(I381
I2
tp17
a(I2271
I2
tp18
a(I1666
I2
tp19
a(I1518
I2
tp20
a(I581
I2
tp21
a(I940
I2
tp22
a(I1298
I2
tp23
a(I2083
I2
tp24
a(I55
I2
tp25
a(I930
I2
tp26
a(I91
I2
tp27
a(I2202
I2
tp28
a(I1473
I2
tp29
a(I1315
I2
tp30
a(I1771
I2
tp31
a(I2129
I2
tp32
a(I860
I2
tp33
a(I947
I2
tp34
a(I1638
I2
tp35
a(I492
I2
tp36
a(I1603
I2
tp37
a(I1199
I2
tp38
a(I692
I2
tp39
a(I779
I2
tp40
a(I2320
I2
tp41
a(I1655
I2
tp42
a(I728
I2
tp43
a(I831
I2
tp44
a(I2372
I2
tp45
a(I1189
I2
tp46
a(I867
I2
tp47
a(I278
I2
tp48
a(I1645
I2
tp49
a(I2408
I2
tp50
a(I1225
I2
tp51
a(I821
I2
tp52
a(I663
I2
tp53
a(I314
I2
tp54
a(I401
I2
tp55
a(I156
I2
tp56
a(I857
I2
tp57
a(I612
I2
tp58
a(I192
I2
tp59
a(I1994
I2
tp60
a(I566
I2
tp61
a(I2379
I2
tp62
a(I2134
I2
tp63
a(I531
I2
tp64
a(I198
I2
tp65
a(I24
I2
tp66
a(I1826
I2
tp67
a(I2011
I2
tp68
a(I1422
I2
tp69
a(I583
I2
tp70
a(I163
I2
tp71
a(I1878
I2
tp72
a(I1965
I2
tp73
a(I1704
I2
tp74
a(I1300
I2
tp75
a(I112
I2
tp76
a(I215
I2
tp77
a(I1914
I2
tp78
a(I2001
I2
tp79
a(I1710
I2
tp80
a(I1895
I2
tp81
a(I1290
I2
tp82
a(I1342
I2
tp83
a(I922
I2
tp84
a(I1624
I2
tp85
a(I2125
I2
tp86
a(I396
I2
tp87
a(I1517
I2
tp88
a(I1256
I2
tp89
a(I2121
I2
tp90
a(I852
I2
tp91
a(I432
I2
tp92
a(I1210
I2
tp93
a(I1297
I2
tp94
a(I1395
I2
tp95
a(I386
I2
tp96
a(I1753
I2
tp97
a(I1191
I2
tp98
a(I1549
I2
tp99
a(I264
I2
tp100
a(I1647
I2
tp101
a(I2325
I2
tp102
a(I1227
I2
tp103
a(I981
I2
tp104
a(I1944
I2
tp105
a(I2060
I2
tp106
a(I2318
I2
tp107
a(I1637
I2
tp108
a(I455
I2
tp109
a(I1996
I2
tp110
a(I148
I2
tp111
a(I691
I2
tp112
a(I445
I2
tp113
a(I2335
I2
tp114
a(I1147
I2
tp115
a(I743
I2
tp116
a(I138
I2
tp117
a(I481
I2
tp118
a(I2371
I2
tp119
a(I190
I2
tp120
a(I277
I2
tp121
a(I375
I2
tp122
a(I2003
I2
tp123
a(I1957
I2
tp124
a(I1292
I2
tp125
a(I2152
I2
tp126
a(I1748
I2
tp127
a(I1328
I2
tp128
a(I1431
I2
tp129
a(I145
I2
tp130
a(I924
I2
tp131
a(I2291
I2
tp132
a(I1702
I2
tp133
a(I2045
I2
tp134
a(I1784
I2
tp135
a(I1282
I2
tp136
a(I1380
I2
tp137
a(I2087
I2
tp138
a(I1825
I2
tp139
a(I1334
I2
tp140
a(I1160
I2
tp141
a(I1519
I2
tp142
a(I1212
I2
tp143
a(I1299
I2
tp144
a(I792
I2
tp145
a(I2175
I2
tp146
a(I2067
I2
tp147
a(I1166
I2
tp148
a(I1002
I2
tp149
a(I931
I2
tp150
a(I1551
I2
tp151
a(I1289
I2
tp152
a(I798
I2
tp153
a(I117
I2
tp154
a(I1658
I2
tp155
a(I476
I2
tp156
a(I2374
I2
tp157
a(I430
I2
tp158
a(I1639
I2
tp159
a(I1377
I2
tp160
a(I973
I2
tp161
a(I815
I2
tp162
a(I395
I2
tp163
a(I1173
I2
tp164
a(I851
I2
tp165
a(I1629
I2
tp166
a(I344
I2
tp167
a(I1209
I2
tp168
a(I805
I2
tp169
a(I2188
I2
tp170
a(I483
I2
tp171
a(I2327
I2
tp172
a(I1820
I2
tp173
a(I130
I2
tp174
a(I315
I2
tp175
a(I2030
I2
tp176
a(I1856
I2
tp177
a(I1959
I2
tp178
a(I182
I2
tp179
a(I2056
I2
tp180
a(I1995
I2
tp181
a(I638
I2
tp182
a(I725
I2
tp183
a(I2266
I2
tp184
a(I147
I2
tp185
a(I14
I2
tp186
a(I137
I2
tp187
a(I2037
I2
tp188
a(I1372
I2
tp189
a(I189
I2
tp190
a(I31
I2
tp191
a(I1817
I2
tp192
a(I1511
I2
tp193
a(I906
I2
tp194
a(I225
I2
tp195
a(I2115
I2
tp196
a(I1782
I2
tp197
a(I1608
I2
tp198
a(I1362
I2
tp199
a(I1291
I2
tp200
a(I958
I2
tp201
a(I1562
I2
tp202
a(I1240
I2
tp203
a(I2157
I2
tp204
a(I1246
I2
tp205
a(I826
I2
tp206
a(I913
I2
tp207
a(I504
I2
tp208
a(I1124
I2
tp209
a(I1928
I2
tp210
a(I336
I2
tp211
a(I439
I2
tp212
a(I2154
I2
tp213
a(I710
I2
tp214
a(I797
I2
tp215
a(I290
I2
tp216
a(I2016
I2
tp217
a(I746
I2
tp218
a(I833
I2
tp219
a(I2216
I2
tp220
a(I1131
I2
tp221
a(I885
I2
tp222
a(I2323
I2
tp223
a(I465
I2
tp224
a(I578
I2
tp225
a(I763
I2
tp226
a(I174
I2
tp227
a(I261
I2
tp228
a(I2407
I2
tp229
a(I630
I2
tp230
a(I297
I2
tp231
a(I2100
I2
tp232
a(I2187
I2
tp233
a(I2039
I2
tp234
a(I1434
I2
tp235
a(I753
I2
tp236
a(I1532
I2
tp237
a(I595
I2
tp238
a(I2054
I2
tp239
a(I2397
I2
tp240
a(I2239
I2
tp241
a(I2229
I2
tp242
a(I944
I2
tp243
a(I1722
I2
tp244
a(I637
I2
tp245
a(I1774
I2
tp246
a(I1703
I2
tp247
a(I776
I2
tp248
a(I2159
I2
tp249
a(I49
I2
tp250
a(I828
I2
tp251
a(I1529
I2
tp252
a(I782
I2
tp253
a(I864
I2
tp254
a(I967
I2
tp255
a(I1064
I2
tp256
a(I660
I2
tp257
a(I957
I2
tp258
a(I799
I2
tp259
a(I1157
I2
tp260
a(I993
I2
tp261
a(I1193
I2
tp262
a(I789
I2
tp263
a(I282
I2
tp264
a(I380
I2
tp265
a(I467
I2
tp266
a(I738
I2
tp267
a(I580
I2
tp268
a(I334
I2
tp269
a(I160
I2
tp270
a(I1804
I2
tp271
a(I2126
I2
tp272
a(I2014
I2
tp273
a(I1436
I2
tp274
a(I2214
I2
tp275
a(I2296
I2
tp276
a(I622
I2
tp277
a(I2250
I2
tp278
a(I2179
I2
tp279
a(I1846
I2
tp280
a(I1672
I2
tp281
a(I2031
I2
tp282
a(I1524
I2
tp283
a(I2302
I2
tp284
a(I80
I2
tp285
a(I1882
I2
tp286
a(I1811
I2
tp287
a(I377
I2
tp288
a(I2267
I2
tp289
a(I1678
I2
tp290
a(I1760
I2
tp291
a(I1514
I2
tp292
a(I86
I2
tp293
a(I936
I2
tp294
a(I2063
I2
tp295
a(I1801
I2
tp296
a(I1556
I2
tp297
a(I122
I2
tp298
a(I2257
I2
tp299
a(I1766
I2
tp300
a(I1695
I2
tp301
a(I942
I2
tp302
a(I5
I2
tp303
a(I1644
I2
tp304
a(I1327
I2
tp305
a(I820
I2
tp306
a(I907
I2
tp307
a(I1783
I2
tp308
a(I1634
I2
tp309
a(I1563
I2
tp310
a(I810
I2
tp311
a(I652
I2
tp312
a(I406
I2
tp313
a(I1773
I2
tp314
a(I1266
I2
tp315
a(I284
I2
tp316
a(I1405
I2
tp317
a(I740
I2
tp318
a(I1605
I2
tp319
a(I423
I2
tp320
a(I1185
I2
tp321
a(I2000
I2
tp322
a(I572
I2
tp323
a(I326
I2
tp324
a(I152
I2
tp325
a(I711
I2
tp326
a(I2006
I2
tp327
a(I1832
I2
tp328
a(I562
I2
tp329
a(I1428
I2
tp330
a(I158
I2
tp331
a(I240
I2
tp332
a(I343
I2
tp333
a(I281
I2
tp334
a(I1838
I2
tp335
a(I1925
I2
tp336
a(I2392
I2
tp337
a(I579
I2
tp338
a(I333
I2
tp339
a(I175
I2
tp340
a(I631
I2
tp341
a(I124
I2
tp342
a(I2013
I2
tp343
a(I1348
I2
tp344
a(I78
I2
tp345
a(I1793
I2
tp346
a(I1891
I2
tp347
a(I1384
I2
tp348
a(I114
I2
tp349
a(I2128
I2
tp350
a(I1758
I2
tp351
a(I1180
I2
tp352
a(I1523
I2
tp353
a(I934
I2
tp354
a(I253
I2
tp355
a(I2143
I2
tp356
a(I1636
I2
tp357
a(I33
I2
tp358
a(I812
I2
tp359
a(I899
I2
tp360
a(I1170
I2
tp361
a(I1268
I2
tp362
a(I2133
I2
tp363
a(I987
I2
tp364
a(I2262
I2
tp365
a(I1258
I2
tp366
a(I1100
I2
tp367
a(I1187
I2
tp368
a(I276
I2
tp369
a(I1239
I2
tp370
a(I819
I2
tp371
a(I486
I2
tp372
a(I312
I2
tp373
a(I1275
I2
tp374
a(I266
I2
tp375
a(I1142
I2
tp376
a(I722
I2
tp377
a(I564
I2
tp378
a(I651
I2
tp379
a(I405
I2
tp380
a(I1946
I2
tp381
a(I861
I2
tp382
a(I600
I2
tp383
a(I354
I2
tp384
a(I1998
I2
tp385
a(I1824
I2
tp386
a(I739
I2
tp387
a(I693
I2
tp388
a(I2015
I2
tp389
a(I1508
I2
tp390
a(I571
I2
tp391
a(I325
I2
tp392
a(I64
I2
tp393
a(I1708
I2
tp394
a(I1795
I2
tp395
a(I1288
I2
tp396
a(I623
I2
tp397
a(I361
I2
tp398
a(I2164
I2
tp399
a(I2005
I2
tp400
a(I1847
I2
tp401
a(I561
I2
tp402
a(I2303
I2
tp403
a(I1294
I2
tp404
a(I2363
I2
tp405
a(I106
I2
tp406
a(I193
I2
tp407
a(I35
I2
tp408
a(I1750
I2
tp409
a(I1172
I2
tp410
a(I1515
I2
tp411
a(I2135
I2
tp412
a(I1469
I2
tp413
a(I804
I2
tp414
a(I123
I2
tp415
a(I1505
I2
tp416
a(I77
I2
tp417
a(I943
I2
tp418
a(I1618
I2
tp419
a(I794
I2
tp420
a(I979
I2
tp421
a(I2263
I2
tp422
a(I1337
I2
tp423
a(I846
I2
tp424
a(I933
I2
tp425
a(I1635
I2
tp426
a(I2382
I2
tp427
a(I1128
I2
tp428
a(I882
I2
tp429
a(I811
I2
tp430
a(I407
I2
tp431
a(I2208
I2
tp432
a(I1169
I2
tp433
a(I760
I2
tp434
a(I2306
I2
tp435
a(I2404
I2
tp436
a(I1221
I2
tp437
a(I2358
I2
tp438
a(I397
I2
tp439
a(I2184
I2
tp440
a(I495
I2
tp441
a(I1938
I2
tp442
a(I2036
I2
tp443
a(I853
I2
tp444
a(I275
I2
tp445
a(I224
I2
tp446
a(I2375
I2
tp447
a(I2026
I2
tp448
a(I178
I2
tp449
a(I2313
I2
tp450
a(I1822
I2
tp451
a(I1141
I2
tp452
a(I2195
I2
tp453
a(I2007
I2
tp454
a(I1500
I2
tp455
a(I230
I2
tp456
a(I2104
I2
tp457
a(I2207
I2
tp458
a(I1945
I2
tp459
a(I615
I2
tp460
a(I10
I2
tp461
a(I1997
I2
tp462
a(I1839
I2
tp463
a(I1490
I2
tp464
a(I2101
I2
tp465
a(I912
I2
tp466
a(I247
I2
tp467
a(I2033
I2
tp468
a(I964
I2
tp469
a(I1409
I2
tp470
a(I1778
I2
tp471
a(I1707
I2
tp472
a(I796
I2
tp473
a(I1917
I2
tp474
a(I1656
I2
tp475
a(I1006
I2
tp476
a(I935
I2
tp477
a(I1391
I2
tp478
a(I786
I2
tp479
a(I1662
I2
tp480
a(I464
I2
tp481
a(I1242
I2
tp482
a(I1329
I2
tp483
a(I925
I2
tp484
a(I1785
I2
tp485
a(I1038
I2
tp486
a(I1381
I2
tp487
a(I1120
I2
tp488
a(I874
I2
tp489
a(I961
I2
tp490
a(I1161
I2
tp491
a(I752
I2
tp492
a(I855
I2
tp493
a(I1213
I2
tp494
a(I2350
I2
tp495
a(I487
I2
tp496
a(I1930
I2
tp497
a(I1249
I2
tp498
a(I845
I2
tp499
a(I687
I2
tp500
a(I180
I2
tp501
a(I1982
I2
tp502
a(I1143
I2
tp503
a(I881
I2
tp504
a(I723
I2
tp505
a(I2182
I2
tp506
a(I2264
I2
tp507
a(I319
I2
tp508
a(I1947
I2
tp509
a(I12
I2
tp510
a(I355
I2
tp511
a(I48
I2
tp512
a(I1446
I2
tp513
a(I2148
I2
tp514
a(I187
I2
tp515
a(I545
I2
tp516
a(I1411
I2
tp517
a(I141
I2
tp518
a(I2025
I2
tp519
a(I1780
I2
tp520
a(I1867
I2
tp521
a(I597
I2
tp522
a(I1463
I2
tp523
a(I90
I2
tp524
a(I177
I2
tp525
a(I19
I2
tp526
a(I1821
I2
tp527
a(I1314
I2
tp528
a(I992
I2
tp529
a(I1612
I2
tp530
a(I1366
I2
tp531
a(I946
I2
tp532
a(I1648
I2
tp533
a(I1402
I2
tp534
a(I824
I2
tp535
a(I1024
I2
tp536
a(I2273
I2
tp537
a(I1234
I2
tp538
a(I1321
I2
tp539
a(I410
I2
tp540
a(I1030
I2
tp541
a(I1112
I2
tp542
a(I1215
I2
tp543
a(I1066
I2
tp544
a(I427
I2
tp545
a(I1205
I2
tp546
a(I2342
I2
tp547
a(I479
I2
tp548
a(I1241
I2
tp549
a(I750
I2
tp550
a(I2307
I2
tp551
a(I1800
I2
tp552
a(I530
I2
tp553
a(I469
I2
tp554
a(I2256
I2
tp555
a(I582
I2
tp556
a(I505
I2
tp557
a(I2052
I2
tp558
a(I1806
I2
tp559
a(I1888
I2
tp560
a(I1991
I2
tp561
a(I705
I2
tp562
a(I214
I2
tp563
a(I301
I2
tp564
a(I40
I2
tp565
a(I1929
I2
tp566
a(I2027
I2
tp567
a(I757
I2
tp568
a(I1520
I2
tp569
a(I2112
I2
tp570
a(I92
I2
tp571
a(I1823
I2
tp572
a(I537
I2
tp573
a(I1316
I2
tp574
a(I1674
I2
tp575
a(I2367
I2
tp576
a(I82
I2
tp577
a(I169
I2
tp578
a(I2269
I2
tp579
a(I1762
I2
tp580
a(I1849
I2
tp581
a(I1604
I2
tp582
a(I1323
I2
tp583
a(I53
I2
tp584
a(I1190
I2
tp585
a(I1533
I2
tp586
a(I1313
I2
tp587
a(I648
I2
tp588
a(I402
I2
tp589
a(I1278
I2
tp590
a(I1365
I2
tp591
a(I858
I2
tp592
a(I945
I2
tp593
a(I1565
I2
tp594
a(I280
I2
tp595
a(I654
I2
tp596
a(I332
I2
tp597
a(I777
I2
tp598
a(I532
I2
tp599
a(I875
I2
tp600
a(I2012
I2
tp601
a(I568
I2
tp602
a(I164
I2
tp603
asS'runtime'
p604
F0.002766132354736328
sS'name'
p605
S'["regex", [["beer_name", "[c]", "OM"]]]'
p606
s.