(dp0
S'output'
p1
(lp2
(I2207
I9
tp3
a(I292
I9
tp4
a(I290
I9
tp5
a(I287
I9
tp6
a(I286
I9
tp7
a(I171
I9
tp8
a(I1187
I9
tp9
a(I169
I9
tp10
a(I1274
I9
tp11
a(I168
I9
tp12
a(I2208
I9
tp13
a(I291
I9
tp14
a(I289
I9
tp15
a(I288
I9
tp16
a(I1188
I9
tp17
a(I2209
I9
tp18
a(I172
I9
tp19
a(I1273
I9
tp20
a(I170
I9
tp21
a(I167
I9
tp22
asS'runtime'
p23
F0.0021178722381591797
sS'name'
p24
S'["regex", [["city", "[q]", "OM"]]]'
p25
s.