(dp0
S'output'
p1
(lp2
(I423
I3
tp3
a(I2241
I3
tp4
a(I431
I3
tp5
a(I393
I3
tp6
a(I440
I3
tp7
a(I1956
I3
tp8
a(I1964
I3
tp9
asS'runtime'
p10
F0.002579927444458008
sS'name'
p11
S'["regex", [["style", "[\\u00e8]", "OM"]]]'
p12
s.