(dp0
S'output'
p1
(lp2
(I548
I10
tp3
a(I331
I10
tp4
a(I549
I10
tp5
a(I823
I10
tp6
a(I551
I10
tp7
a(I332
I10
tp8
a(I822
I10
tp9
asS'runtime'
p10
F0.002048969268798828
sS'name'
p11
S'["regex", [["state", "[J]", "OM"]]]'
p12
s.