(dp0
S'output'
p1
(lp2
(I1223
I8
tp3
a(I1232
I8
tp4
a(I678
I8
tp5
a(I1473
I8
tp6
a(I1195
I8
tp7
a(I386
I8
tp8
a(I1200
I8
tp9
a(I1471
I8
tp10
a(I1187
I8
tp11
a(I1192
I8
tp12
a(I1206
I8
tp13
a(I1211
I8
tp14
a(I887
I8
tp15
a(I1216
I8
tp16
a(I679
I8
tp17
a(I1198
I8
tp18
a(I1190
I8
tp19
a(I1203
I8
tp20
a(I906
I8
tp21
a(I1201
I8
tp22
a(I1208
I8
tp23
a(I1222
I8
tp24
a(I1188
I8
tp25
a(I1227
I8
tp26
a(I1191
I8
tp27
a(I1193
I8
tp28
a(I1220
I8
tp29
a(I1207
I8
tp30
a(I1214
I8
tp31
a(I1212
I8
tp32
a(I1219
I8
tp33
a(I1217
I8
tp34
a(I200
I8
tp35
a(I1199
I8
tp36
a(I1238
I8
tp37
a(I1197
I8
tp38
a(I1204
I8
tp39
a(I91
I8
tp40
a(I1202
I8
tp41
a(I1209
I8
tp42
a(I1120
I8
tp43
a(I199
I8
tp44
a(I1225
I8
tp45
a(I1189
I8
tp46
a(I1228
I8
tp47
a(I1235
I8
tp48
a(I1194
I8
tp49
a(I1233
I8
tp50
a(I1968
I8
tp51
a(I1215
I8
tp52
a(I1213
I8
tp53
a(I452
I8
tp54
a(I1475
I8
tp55
a(I1218
I8
tp56
a(I201
I8
tp57
a(I1118
I8
tp58
a(I1205
I8
tp59
a(I92
I8
tp60
a(I1196
I8
tp61
a(I1210
I8
tp62
a(I1121
I8
tp63
a(I1226
I8
tp64
a(I1231
I8
tp65
a(I246
I8
tp66
a(I1229
I8
tp67
a(I1236
I8
tp68
a(I1234
I8
tp69
a(I1472
I8
tp70
a(I1221
I8
tp71
a(I1476
I8
tp72
a(I202
I8
tp73
a(I888
I8
tp74
a(I1119
I8
tp75
a(I907
I8
tp76
a(I1122
I8
tp77
a(I1897
I8
tp78
a(I247
I8
tp79
a(I1237
I8
tp80
a(I1230
I8
tp81
a(I884
I8
tp82
a(I2162
I8
tp83
a(I1474
I8
tp84
a(I1224
I8
tp85
a(I2218
I8
tp86
a(I886
I8
tp87
asS'runtime'
p88
F0.0020728111267089844
sS'name'
p89
S'["regex", [["brewery_name", "[L]", "OM"]]]'
p90
s.