(dp0
S'output'
p1
(lp2
(I556
I2
tp3
a(I1069
I2
tp4
a(I373
I2
tp5
a(I1047
I2
tp6
a(I433
I2
tp7
a(I1916
I2
tp8
a(I1943
I2
tp9
a(I2105
I2
tp10
a(I443
I2
tp11
a(I558
I2
tp12
a(I1733
I2
tp13
asS'runtime'
p14
F0.00257110595703125
sS'name'
p15
S'["regex", [["beer_name", "[Z]", "OM"]]]'
p16
s.