(dp0
S'output'
p1
(lp2
(I581
I4
tp3
a(I1861
I4
tp4
a(I1345
I4
tp5
a(I1370
I4
tp6
a(I1181
I4
tp7
a(I1361
I4
tp8
a(I1382
I4
tp9
a(I2099
I4
tp10
a(I1342
I4
tp11
a(I1341
I4
tp12
a(I1347
I4
tp13
a(I1346
I4
tp14
a(I1895
I4
tp15
a(I21
I4
tp16
a(I477
I4
tp17
a(I2100
I4
tp18
a(I957
I4
tp19
a(I1896
I4
tp20
a(I1383
I4
tp21
a(I1343
I4
tp22
a(I1348
I4
tp23
a(I1344
I4
tp24
a(I2097
I4
tp25
asS'runtime'
p26
F0.00203704833984375
sS'name'
p27
S'["regex", [["ounces", "[4]", "OM"]]]'
p28
s.