(dp0
S'output'
p1
(lp2
(I1238
I4
tp3
a(I2098
I4
tp4
a(I2177
I4
tp5
a(I406
I4
tp6
a(I923
I4
tp7
a(I1233
I4
tp8
a(I143
I4
tp9
a(I2046
I4
tp10
a(I605
I4
tp11
a(I131
I4
tp12
a(I751
I4
tp13
asS'runtime'
p14
F0.0020139217376708984
sS'name'
p15
S'["regex", [["ounces", "[C]", "OM"]]]'
p16
s.