(dp0
S'output'
p1
(lp2
(I364
I2
tp3
a(I366
I2
tp4
a(I429
I2
tp5
a(I2383
I2
tp6
a(I1970
I2
tp7
a(I340
I2
tp8
a(I1707
I2
tp9
a(I2242
I2
tp10
a(I1203
I2
tp11
a(I1108
I2
tp12
a(I795
I2
tp13
a(I782
I2
tp14
a(I2203
I2
tp15
asS'runtime'
p16
F0.0025780200958251953
sS'name'
p17
S'["regex", [["beer_name", "[&]", "OM"]]]'
p18
s.