(dp0
S'output'
p1
(lp2
(I7
I3
tp3
a(I1891
I3
tp4
a(I1523
I3
tp5
a(I2340
I3
tp6
a(I2301
I3
tp7
a(I1070
I3
tp8
a(I650
I3
tp9
a(I1972
I3
tp10
a(I1513
I3
tp11
a(I2133
I3
tp12
a(I1713
I3
tp13
a(I738
I3
tp14
a(I1309
I3
tp15
a(I2208
I3
tp16
a(I121
I3
tp17
a(I1765
I3
tp18
a(I1607
I3
tp19
a(I941
I3
tp20
a(I248
I3
tp21
a(I622
I3
tp22
a(I2194
I3
tp23
a(I1472
I3
tp24
a(I871
I3
tp25
a(I1426
I3
tp26
a(I451
I3
tp27
a(I1229
I3
tp28
a(I254
I3
tp29
a(I1724
I3
tp30
a(I1304
I3
tp31
a(I34
I3
tp32
a(I1760
I3
tp33
a(I441
I3
tp34
a(I1514
I3
tp35
a(I1061
I3
tp36
a(I1927
I3
tp37
a(I1714
I3
tp38
a(I2383
I3
tp39
a(I988
I3
tp40
a(I2321
I3
tp41
a(I371
I3
tp42
a(I942
I3
tp43
a(I2015
I3
tp44
a(I1398
I3
tp45
a(I820
I3
tp46
a(I1598
I3
tp47
a(I623
I3
tp48
a(I361
I3
tp49
a(I203
I3
tp50
a(I2005
I3
tp51
a(I561
I3
tp52
a(I1634
I3
tp53
a(I1427
I3
tp54
a(I2303
I3
tp55
a(I1056
I3
tp56
a(I1266
I3
tp57
a(I862
I3
tp58
a(I1679
I3
tp59
a(I2332
I3
tp60
a(I1311
I3
tp61
a(I320
I3
tp62
a(I25
I3
tp63
a(I1098
I3
tp64
a(I1669
I3
tp65
a(I1767
I3
tp66
a(I520
I3
tp67
a(I372
I3
tp68
a(I2125
I3
tp69
a(I943
I3
tp70
a(I2000
I3
tp71
a(I1705
I3
tp72
a(I730
I3
tp73
a(I2374
I3
tp74
a(I152
I3
tp75
a(I113
I3
tp76
a(I1796
I3
tp77
a(I1757
I3
tp78
a(I1337
I3
tp79
a(I362
I3
tp80
a(I2006
I3
tp81
a(I1832
I3
tp82
a(I1537
I3
tp83
a(I562
I3
tp84
a(I2276
I3
tp85
a(I1884
I3
tp86
a(I1589
I3
tp87
a(I1169
I3
tp88
a(I1625
I3
tp89
a(I1221
I3
tp90
a(I246
I3
tp91
a(I397
I3
tp92
a(I26
I3
tp93
a(I2323
I3
tp94
a(I1548
I3
tp95
a(I114
I3
tp96
a(I2313
I3
tp97
a(I1180
I3
tp98
a(I1141
I3
tp99
a(I934
I3
tp100
a(I2007
I3
tp101
a(I2199
I3
tp102
a(I1390
I3
tp103
a(I615
I3
tp104
a(I2169
I3
tp105
a(I2243
I3
tp106
a(I1997
I3
tp107
a(I1419
I3
tp108
a(I1222
I3
tp109
a(I1048
I3
tp110
a(I2033
I3
tp111
a(I1875
I3
tp112
a(I27
I3
tp113
a(I854
I3
tp114
a(I680
I3
tp115
a(I2127
I3
tp116
a(I1707
I3
tp117
a(I2065
I3
tp118
a(I1090
I3
tp119
a(I1497
I3
tp120
a(I935
I3
tp121
a(I1539
I3
tp122
a(I564
I3
tp123
a(I1293
I3
tp124
a(I2366
I3
tp125
a(I1391
I3
tp126
a(I105
I3
tp127
a(I354
I3
tp128
a(I925
I3
tp129
a(I1420
I3
tp130
a(I2198
I3
tp131
a(I961
I3
tp132
a(I2034
I3
tp133
a(I1581
I3
tp134
a(I1161
I3
tp135
a(I2234
I3
tp136
a(I1259
I3
tp137
a(I1013
I3
tp138
a(I855
I3
tp139
a(I1410
I3
tp140
a(I1508
I3
tp141
a(I1213
I3
tp142
a(I2112
I3
tp143
a(I1091
I3
tp144
a(I845
I3
tp145
a(I1744
I3
tp146
a(I425
I3
tp147
a(I1498
I3
tp148
a(I2315
I3
tp149
a(I1045
I3
tp150
a(I477
I3
tp151
a(I2367
I3
tp152
a(I1081
I3
tp153
a(I1947
I3
tp154
a(I1786
I3
tp155
a(I151
I3
tp156
a(I1208
I3
tp157
a(I1260
I3
tp158
a(I545
I3
tp159
a(I2189
I3
tp160
a(I1214
I3
tp161
a(I239
I3
tp162
a(I2025
I3
tp163
a(I390
I3
tp164
a(I19
I3
tp165
a(I1821
I3
tp166
a(I2402
I3
tp167
a(I426
I3
tp168
a(I71
I3
tp169
a(I1857
I3
tp170
a(I882
I3
tp171
a(I1295
I3
tp172
a(I304
I3
tp173
a(I1082
I3
tp174
a(I258
I3
tp175
a(I2404
I3
tp176
a(I1134
I3
tp177
a(I1787
I3
tp178
a(I556
I3
tp179
a(I2036
I3
tp180
a(I592
I3
tp181
a(I188
I3
tp182
a(I917
I3
tp183
a(I2302
I3
tp184
a(I1412
I3
tp185
a(I1373
I3
tp186
a(I1573
I3
tp187
a(I2247
I3
tp188
a(I847
I3
tp189
a(I1205
I3
tp190
a(I883
I3
tp191
a(I2058
I3
tp192
a(I1083
I3
tp193
a(I837
I3
tp194
a(I1490
I3
tp195
a(I2287
I3
tp196
a(I1332
I3
tp197
a(I2110
I3
tp198
a(I311
I3
tp199
a(I98
I3
tp200
a(I505
I3
tp201
a(I1322
I3
tp202
a(I347
I3
tp203
a(I918
I3
tp204
a(I1000
I3
tp205
a(I1620
I3
tp206
a(I1929
I3
tp207
a(I954
I3
tp208
a(I2027
I3
tp209
a(I796
I3
tp210
a(I1574
I3
tp211
a(I1252
I3
tp212
a(I1981
I3
tp213
a(I1006
I3
tp214
a(I786
I3
tp215
a(I589
I3
tp216
a(I169
I3
tp217
a(I2059
I3
tp218
a(I1084
I3
tp219
a(I1813
I3
tp220
a(I625
I3
tp221
a(I418
I3
tp222
a(I2380
I3
tp223
a(I2269
I3
tp224
a(I2111
I3
tp225
a(I1849
I3
tp226
a(I1287
I3
tp227
a(I2049
I3
tp228
a(I670
I3
tp229
a(I1481
I3
tp230
a(I348
I3
tp231
a(I1126
I3
tp232
a(I919
I3
tp233
a(I706
I3
tp234
a(I89
I3
tp235
a(I2182
I3
tp236
a(I1313
I3
tp237
a(I338
I3
tp238
a(I1769
I3
tp239
a(I538
I3
tp240
a(I1611
I3
tp241
a(I134
I3
tp242
a(I216
I3
tp243
a(I1860
I3
tp244
a(I590
I3
tp245
a(I1401
I3
tp246
a(I2060
I3
tp247
a(I1814
I3
tp248
a(I419
I3
tp249
a(I1528
I3
tp250
a(I1075
I3
tp251
a(I100
I3
tp252
a(I409
I3
tp253
a(I507
I3
tp254
a(I54
I3
tp255
a(I303
I3
tp256
a(I1314
I3
tp257
a(I910
I3
tp258
a(I992
I3
tp259
a(I1612
I3
tp260
a(I293
I3
tp261
a(I2212
I3
tp262
a(I1648
I3
tp263
a(I1024
I3
tp264
a(I876
I3
tp265
a(I1654
I3
tp266
a(I2051
I3
tp267
a(I1076
I3
tp268
a(I1903
I3
tp269
a(I410
I3
tp270
a(I213
I3
tp271
a(I1841
I3
tp272
a(I1683
I3
tp273
a(I288
I3
tp274
a(I498
I3
tp275
a(I1771
I3
tp276
a(I2342
I3
tp277
a(I1725
I3
tp278
a(I750
I3
tp279
a(I1305
I3
tp280
a(I1761
I3
tp281
a(I1603
I3
tp282
a(I628
I3
tp283
a(I382
I3
tp284
a(I208
I3
tp285
a(I937
I3
tp286
a(I2010
I3
tp287
a(I582
I3
tp288
a(I1655
I3
tp289
a(I831
I3
tp290
a(I411
I3
tp291
a(I1484
I3
tp292
a(I1031
I3
tp293
a(I2088
I3
tp294
a(I663
I3
tp295
a(I1277
I3
tp296
a(I857
I3
tp297
a(I699
I3
tp298
a(I82
I3
tp299
a(I653
I3
tp300
a(I1109
I3
tp301
a(I1975
I3
tp302
a(I984
I3
tp303
a(I1358
I3
tp304
a(I2053
I3
tp305
a(I938
I3
tp306
a(I2211
I3
tp307
a(I1965
I3
tp308
a(I816
I3
tp309
a(I2001
I3
tp310
a(I868
I3
tp311
a(I573
I3
tp312
a(I822
I3
tp313
a(I205
I3
tp314
a(I1104
I3
tp315
a(I1833
I3
tp316
a(I1675
I3
tp317
a(I1429
I3
tp318
a(I280
I3
tp319
a(I241
I3
tp320
a(I1885
I3
tp321
a(I654
I3
tp322
a(I1727
I3
tp323
a(I490
I3
tp324
a(I1307
I3
tp325
a(I332
I3
tp326
a(I1763
I3
tp327
a(I1517
I3
tp328
a(I939
I3
tp329
a(I2012
I3
tp330
a(I742
I3
tp331
a(I164
I3
tp332
a(I2173
I3
tp333
a(I991
I3
tp334
a(I1753
I3
tp335
a(I929
I3
tp336
a(I2002
I3
tp337
a(I1424
I3
tp338
a(I1585
I3
tp339
a(I2284
I3
tp340
a(I206
I3
tp341
a(I859
I3
tp342
a(I1637
I3
tp343
a(I2290
I3
tp344
a(I2180
I3
tp345
a(I2132
I3
tp346
a(I1886
I3
tp347
a(I1712
I3
tp348
a(I38
I3
tp349
a(I2335
I3
tp350
a(I1049
I3
tp351
a(I1147
I3
tp352
a(I940
I3
tp353
a(I645
I3
tp354
a(I2086
I3
tp355
a(I481
I3
tp356
a(I1298
I3
tp357
a(I323
I3
tp358
a(I126
I3
tp359
a(I976
I3
tp360
a(I1754
I3
tp361
a(I930
I3
tp362
a(I2003
I3
tp363
a(I772
I3
tp364
a(I733
I3
tp365
a(I575
I3
tp366
a(I982
I3
tp367
a(I1799
I3
tp368
a(I1586
I3
tp369
a(I404
I3
tp370
a(I1264
I3
tp371
a(I860
I3
tp372
a(I1638
I3
tp373
a(I2045
I3
tp374
a(I1887
I3
tp375
a(I492
I3
tp376
a(I197
I3
tp377
a(I1096
I3
tp378
a(I2073
I3
tp379
a(I446
I3
tp380
a(I1519
I3
tp381
a(I2281
I3
tp382
a(I2123
I3
tp383
a(I646
I3
tp384
a(I482
I3
tp385
a(I324
I3
tp386
a(I2077
I3
tp387
a(I1102
I3
tp388
a(I127
I3
tp389
a(I2067
I3
tp390
a(I1351
I3
tp391
a(I65
I3
tp392
a(I2004
I3
tp393
a(I1587
I3
tp394
a(I612
I3
tp395
a(I2240
I3
tp396
a(I921
I3
tp397
a(I1994
I3
tp398
a(I1019
I3
tp399
a(I2371
I3
tp400
a(I1639
I3
tp401
a(I146
I3
tp402
a(I244
I3
tp403
a(I2046
I3
tp404
a(I1872
I3
tp405
a(I602
I3
tp406
a(I1422
I3
tp407
a(I385
I3
tp408
a(I1458
I3
tp409
a(I2119
I3
tp410
a(I1103
I3
tp411
a(I841
I3
tp412
a(I683
I3
tp413
a(I2222
I3
tp414
a(I1041
I3
tp415
a(I932
I3
tp416
a(I1536
I3
tp417
a(I473
I3
tp418
a(I315
I3
tp419
a(I1093
I3
tp420
a(I2166
I3
tp421
a(I968
I3
tp422
a(I1588
I3
tp423
a(I269
I3
tp424
a(I1995
I3
tp425
a(I725
I3
tp426
a(I305
I3
tp427
a(I1220
I3
tp428
a(I974
I3
tp429
a(I1578
I3
tp430
a(I603
I3
tp431
a(I357
I3
tp432
a(I199
I3
tp433
a(I1827
I3
tp434
a(I557
I3
tp435
a(I2185
I3
tp436
a(I1210
I3
tp437
a(I593
I3
tp438
a(I2237
I3
tp439
a(I31
I3
tp440
a(I1088
I3
tp441
a(I1413
I3
tp442
a(I438
I3
tp443
a(I1511
I3
tp444
a(I2115
I3
tp445
a(I1449
I3
tp446
a(I316
I3
tp447
a(I1905
I3
tp448
a(I1747
I3
tp449
a(I2105
I3
tp450
a(I1543
I3
tp451
a(I1281
I3
tp452
a(I1379
I3
tp453
a(I148
I3
tp454
a(I109
I3
tp455
a(I2032
I3
tp456
a(I762
I3
tp457
a(I1789
I3
tp458
a(I558
I3
tp459
a(I2186
I3
tp460
a(I236
I3
tp461
a(I2038
I3
tp462
a(I1864
I3
tp463
a(I2238
I3
tp464
a(I1916
I3
tp465
a(I1621
I3
tp466
a(I2274
I3
tp467
a(I797
I3
tp468
a(I1870
I3
tp469
a(I1696
I3
tp470
a(I1450
I3
tp471
a(I1292
I3
tp472
a(I22
I3
tp473
a(I833
I3
tp474
a(I675
I3
tp475
a(I1748
I3
tp476
a(I429
I3
tp477
a(I1380
I3
tp478
a(I1085
I3
tp479
a(I1951
I3
tp480
a(I1160
I3
tp481
a(I717
I3
tp482
a(I1370
I3
tp483
a(I139
I3
tp484
a(I2039
I3
tp485
a(I753
I3
tp486
a(I1166
I3
tp487
a(I2029
I3
tp488
a(I798
I3
tp489
a(I2187
I3
tp490
a(I1254
I3
tp491
a(I23
I3
tp492
a(I1080
I3
tp493
a(I2236
I3
tp494
a(I676
I3
tp495
a(I1503
I3
tp496
a(I256
I3
tp497
a(I217
I3
tp498
a(I2107
I3
tp499
a(I1132
I3
tp500
a(I2061
I3
tp501
a(I1086
I3
tp502
a(I1936
I3
tp503
a(I1739
I3
tp504
a(I764
I3
tp505
a(I262
I3
tp506
a(I344
I3
tp507
a(I49
I3
tp508
a(I1988
I3
tp509
a(I1791
I3
tp510
a(I1371
I3
tp511
a(I2188
I3
tp512
a(I2149
I3
tp513
a(I1942
I3
tp514
a(I2024
I3
tp515
a(I754
I3
tp516
a(I1325
I3
tp517
a(I1167
I3
tp518
a(I905
I3
tp519
a(I632
I3
tp520
a(I1361
I3
tp521
a(I130
I3
tp522
a(I228
I3
tp523
a(I586
I3
tp524
a(I1157
I3
tp525
a(I2327
I3
tp526
a(I1245
I3
tp527
a(I1494
I3
tp528
a(I2311
I3
tp529
a(I2347
I3
tp530
a(I1372
I3
tp531
a(I1077
I3
tp532
a(I657
I3
tp533
a(I1782
I3
tp534
a(I289
I3
tp535
a(I2179
I3
tp536
a(I639
I3
tp537
a(I219
I3
tp538
a(I790
I3
tp539
a(I1246
I3
tp540
a(I2063
I3
tp541
a(I1072
I3
tp542
a(I1899
I3
tp543
a(I2175
I3
tp544
a(I300
I3
tp545
a(I5
I3
tp546
a(I1078
I3
tp547
a(I1731
I3
tp548
a(I336
I3
tp549
a(I907
I3
tp550
a(I1521
I3
tp551
a(I1363
I3
tp552
a(I132
I3
tp553
a(I1934
I3
tp554
a(I168
I3
tp555
a(I378
I3
tp556
a(I220
I3
tp557
a(I2022
I3
tp558
a(I791
I3
tp559
a(I1553
I3
tp560
a(I174
I3
tp561
a(I1900
I3
tp562
a(I1185
I3
tp563
a(I1027
I3
tp564
a(I52
I3
tp565
a(I1532
I3
tp566
a(I2054
I3
tp567
a(I1079
I3
tp568
a(I1732
I3
tp569
a(I711
I3
tp570
a(I1522
I3
tp571
a(I2142
I3
tp572
a(I1935
I3
tp573
a(I747
I3
tp574
a(I1400
I3
tp575
a(I1600
I3
tp576
a(I281
I3
tp577
a(I379
I3
tp578
a(I1925
I3
tp579
a(I950
I3
tp580
a(I776
I3
tp581
a(I1652
I3
tp582
a(I986
I3
tp583
a(I1186
I3
tp584
a(I782
I3
tp585
asS'runtime'
p586
F0.002180814743041992
sS'name'
p587
S'["regex", [["style", "[t]", "OM"]]]'
p588
s.