(dp0
S'output'
p1
(lp2
(I2103
I4
tp3
a(I2278
I4
tp4
a(I1564
I4
tp5
a(I2279
I4
tp6
a(I1034
I4
tp7
a(I1561
I4
tp8
a(I1552
I4
tp9
a(I2286
I4
tp10
a(I2285
I4
tp11
a(I1601
I4
tp12
a(I1319
I4
tp13
a(I1036
I4
tp14
a(I1562
I4
tp15
a(I2281
I4
tp16
a(I2282
I4
tp17
a(I2280
I4
tp18
asS'runtime'
p19
F0.0020089149475097656
sS'name'
p20
S'["regex", [["ounces", "[9]", "OM"]]]'
p21
s.