(dp0
S'output'
p1
(lp2
(I300
I2
tp3
a(I1635
I2
tp4
a(I542
I2
tp5
a(I303
I2
tp6
a(I1586
I2
tp7
a(I1161
I2
tp8
a(I510
I2
tp9
a(I304
I2
tp10
a(I305
I2
tp11
a(I1468
I2
tp12
a(I550
I2
tp13
a(I1469
I2
tp14
a(I514
I2
tp15
a(I1636
I2
tp16
a(I1638
I2
tp17
a(I1413
I2
tp18
a(I874
I2
tp19
asS'runtime'
p20
F0.0024900436401367188
sS'name'
p21
S'["regex", [["beer_name", "[7]", "OM"]]]'
p22
s.