(dp0
S'output'
p1
(lp2
(I2383
I2
tp3
a(I2381
I2
tp4
a(I2031
I2
tp5
a(I591
I2
tp6
a(I1532
I2
tp7
a(I1685
I2
tp8
a(I2384
I2
tp9
a(I156
I2
tp10
a(I1254
I2
tp11
a(I605
I2
tp12
a(I1689
I2
tp13
a(I1252
I2
tp14
a(I2382
I2
tp15
asS'runtime'
p16
F0.0025022029876708984
sS'name'
p17
S'["regex", [["beer_name", "[#]", "OM"]]]'
p18
s.