(dp0
S'output'
p1
(lp2
(I2312
I3
tp3
a(I999
I3
tp4
a(I1896
I3
tp5
a(I434
I3
tp6
a(I20
I3
tp7
a(I171
I3
tp8
a(I444
I3
tp9
a(I2103
I3
tp10
a(I952
I3
tp11
a(I1265
I3
tp12
a(I2114
I3
tp13
asS'runtime'
p14
F0.00203704833984375
sS'name'
p15
S'["regex", [["style", "[T]", "OM"]]]'
p16
s.