(dp0
S'output'
p1
(lp2
(I1192
I2
tp3
a(I30
I2
tp4
a(I1041
I2
tp5
a(I1747
I2
tp6
a(I29
I2
tp7
a(I31
I2
tp8
a(I317
I2
tp9
a(I2075
I2
tp10
a(I37
I2
tp11
a(I1479
I2
tp12
asS'runtime'
p13
F0.0024919509887695312
sS'name'
p14
S'["regex", [["beer_name", "[!]", "OM"]]]'
p15
s.