(dp0
S'output'
p1
(lp2
(I659
I8
tp3
a(I657
I8
tp4
a(I152
I8
tp5
a(I2253
I8
tp6
a(I1289
I8
tp7
a(I2257
I8
tp8
a(I2165
I8
tp9
a(I2339
I8
tp10
a(I2325
I8
tp11
a(I2337
I8
tp12
a(I1428
I8
tp13
a(I1426
I8
tp14
a(I832
I8
tp15
a(I935
I8
tp16
a(I430
I8
tp17
a(I428
I8
tp18
a(I1971
I8
tp19
a(I541
I8
tp20
a(I36
I8
tp21
a(I971
I8
tp22
a(I34
I8
tp23
a(I579
I8
tp24
a(I577
I8
tp25
a(I72
I8
tp26
a(I175
I8
tp27
a(I173
I8
tp28
a(I1716
I8
tp29
a(I1714
I8
tp30
a(I1120
I8
tp31
a(I1223
I8
tp32
a(I718
I8
tp33
a(I805
I8
tp34
a(I716
I8
tp35
a(I211
I8
tp36
a(I2346
I8
tp37
a(I209
I8
tp38
a(I1752
I8
tp39
a(I1855
I8
tp40
a(I1853
I8
tp41
a(I2327
I8
tp42
a(I2100
I8
tp43
a(I2398
I8
tp44
a(I437
I8
tp45
a(I2396
I8
tp46
a(I1978
I8
tp47
a(I1398
I8
tp48
a(I1485
I8
tp49
a(I2098
I8
tp50
a(I978
I8
tp51
a(I128
I8
tp52
a(I487
I8
tp53
a(I2030
I8
tp54
a(I2028
I8
tp55
a(I1016
I8
tp56
a(I2143
I8
tp57
a(I774
I8
tp58
a(I2141
I8
tp59
a(I1636
I8
tp60
a(I1634
I8
tp61
a(I1808
I8
tp62
a(I638
I8
tp63
a(I636
I8
tp64
a(I392
I8
tp65
a(I406
I8
tp66
a(I1268
I8
tp67
a(I1947
I8
tp68
a(I14
I8
tp69
a(I357
I8
tp70
a(I12
I8
tp71
a(I1407
I8
tp72
a(I1405
I8
tp73
a(I644
I8
tp74
a(I555
I8
tp75
a(I2096
I8
tp76
a(I151
I8
tp77
a(I1185
I8
tp78
a(I694
I8
tp79
a(I276
I8
tp80
a(I187
I8
tp81
a(I274
I8
tp82
a(I1817
I8
tp83
a(I1728
I8
tp84
a(I312
I8
tp85
a(I415
I8
tp86
a(I413
I8
tp87
a(I1956
I8
tp88
a(I1867
I8
tp89
a(I1954
I8
tp90
a(I958
I8
tp91
a(I21
I8
tp92
a(I956
I8
tp93
a(I449
I8
tp94
a(I1992
I8
tp95
a(I2006
I8
tp96
a(I564
I8
tp97
a(I1499
I8
tp98
a(I562
I8
tp99
a(I71
I8
tp100
a(I1614
I8
tp101
a(I1612
I8
tp102
a(I1194
I8
tp103
a(I600
I8
tp104
a(I614
I8
tp105
a(I2244
I8
tp106
a(I2242
I8
tp107
a(I1648
I8
tp108
a(I1751
I8
tp109
a(I1246
I8
tp110
a(I1333
I8
tp111
a(I1244
I8
tp112
a(I826
I8
tp113
a(I1876
I8
tp114
a(I1874
I8
tp115
a(I1369
I8
tp116
a(I1383
I8
tp117
a(I878
I8
tp118
a(I965
I8
tp119
a(I876
I8
tp120
a(I1912
I8
tp121
a(I2015
I8
tp122
a(I2013
I8
tp123
a(I1163
I8
tp124
a(I656
I8
tp125
a(I1015
I8
tp126
a(I2273
I8
tp127
a(I1114
I8
tp128
a(I1288
I8
tp129
a(I621
I8
tp130
a(I2164
I8
tp131
a(I2336
I8
tp132
a(I391
I8
tp133
a(I1253
I8
tp134
a(I1427
I8
tp135
a(I746
I8
tp136
a(I1425
I8
tp137
a(I2303
I8
tp138
a(I934
I8
tp139
a(I2301
I8
tp140
a(I427
I8
tp141
a(I2321
I8
tp142
a(I885
I8
tp143
a(I540
I8
tp144
a(I35
I8
tp145
a(I33
I8
tp146
a(I1679
I8
tp147
a(I2071
I8
tp148
a(I576
I8
tp149
a(I174
I8
tp150
a(I172
I8
tp151
a(I1715
I8
tp152
a(I1713
I8
tp153
a(I804
I8
tp154
a(I715
I8
tp155
a(I2345
I8
tp156
a(I208
I8
tp157
a(I311
I8
tp158
a(I1854
I8
tp159
a(I1941
I8
tp160
a(I1434
I8
tp161
a(I840
I8
tp162
a(I943
I8
tp163
a(I941
I8
tp164
a(I436
I8
tp165
a(I2395
I8
tp166
a(I434
I8
tp167
a(I1977
I8
tp168
a(I1991
I8
tp169
a(I1486
I8
tp170
a(I549
I8
tp171
a(I1484
I8
tp172
a(I977
I8
tp173
a(I1599
I8
tp174
a(I2221
I8
tp175
a(I1597
I8
tp176
a(I2027
I8
tp177
a(I1520
I8
tp178
a(I599
I8
tp179
a(I2142
I8
tp180
a(I92
I8
tp181
a(I1635
I8
tp182
a(I1722
I8
tp183
a(I1633
I8
tp184
a(I1231
I8
tp185
a(I1229
I8
tp186
a(I635
I8
tp187
a(I2265
I8
tp188
a(I231
I8
tp189
a(I1861
I8
tp190
a(I863
I8
tp191
a(I861
I8
tp192
a(I356
I8
tp193
a(I11
I8
tp194
a(I1911
I8
tp195
a(I1406
I8
tp196
a(I1493
I8
tp197
a(I1404
I8
tp198
a(I643
I8
tp199
a(I136
I8
tp200
a(I150
I8
tp201
a(I1287
I8
tp202
a(I2149
I8
tp203
a(I780
I8
tp204
a(I2323
I8
tp205
a(I1642
I8
tp206
a(I273
I8
tp207
a(I1816
I8
tp208
a(I1830
I8
tp209
a(I414
I8
tp210
a(I1781
I8
tp211
a(I412
I8
tp212
a(I1955
I8
tp213
a(I1953
I8
tp214
a(I20
I8
tp215
a(I955
I8
tp216
a(I448
I8
tp217
a(I563
I8
tp218
a(I650
I8
tp219
a(I561
I8
tp220
a(I56
I8
tp221
a(I159
I8
tp222
a(I70
I8
tp223
a(I157
I8
tp224
a(I1611
I8
tp225
a(I1193
I8
tp226
a(I1207
I8
tp227
a(I2243
I8
tp228
a(I282
I8
tp229
a(I2241
I8
tp230
a(I1736
I8
tp231
a(I1839
I8
tp232
a(I1750
I8
tp233
a(I1837
I8
tp234
a(I1332
I8
tp235
a(I1243
I8
tp236
a(I1330
I8
tp237
a(I825
I8
tp238
a(I736
I8
tp239
a(I839
I8
tp240
a(I421
I8
tp241
a(I332
I8
tp242
a(I1875
I8
tp243
a(I1962
I8
tp244
a(I1873
I8
tp245
a(I1368
I8
tp246
a(I1382
I8
tp247
a(I964
I8
tp248
a(I875
I8
tp249
a(I962
I8
tp250
a(I2014
I8
tp251
a(I2012
I8
tp252
a(I1505
I8
tp253
a(I1000
I8
tp254
a(I79
I8
tp255
a(I1014
I8
tp256
a(I77
I8
tp257
a(I2207
I8
tp258
a(I1113
I8
tp259
a(I622
I8
tp260
a(I620
I8
tp261
a(I2163
I8
tp262
a(I2161
I8
tp263
a(I1759
I8
tp264
a(I390
I8
tp265
a(I1757
I8
tp266
a(I1252
I8
tp267
a(I1250
I8
tp268
a(I745
I8
tp269
a(I1424
I8
tp270
a(I2302
I8
tp271
a(I2389
I8
tp272
a(I2300
I8
tp273
a(I539
I8
tp274
a(I32
I8
tp275
a(I1678
I8
tp276
a(I2021
I8
tp277
a(I171
I8
tp278
a(I1712
I8
tp279
a(I1815
I8
tp280
a(I2170
I8
tp281
a(I2344
I8
tp282
a(I399
I8
tp283
a(I310
I8
tp284
a(I397
I8
tp285
a(I1940
I8
tp286
a(I1938
I8
tp287
a(I1433
I8
tp288
a(I942
I8
tp289
a(I5
I8
tp290
a(I940
I8
tp291
a(I435
I8
tp292
a(I433
I8
tp293
a(I1976
I8
tp294
a(I1990
I8
tp295
a(I548
I8
tp296
a(I1483
I8
tp297
a(I41
I8
tp298
a(I976
I8
tp299
a(I55
I8
tp300
a(I1598
I8
tp301
a(I1178
I8
tp302
a(I598
I8
tp303
a(I91
I8
tp304
a(I178
I8
tp305
a(I1721
I8
tp306
a(I1735
I8
tp307
a(I1230
I8
tp308
a(I1228
I8
tp309
a(I810
I8
tp310
a(I2264
I8
tp311
a(I319
I8
tp312
a(I230
I8
tp313
a(I1860
I8
tp314
a(I2178
I8
tp315
a(I1858
I8
tp316
a(I1353
I8
tp317
a(I1367
I8
tp318
a(I862
I8
tp319
a(I949
I8
tp320
a(I860
I8
tp321
a(I355
I8
tp322
a(I442
I8
tp323
a(I1896
I8
tp324
a(I1999
I8
tp325
a(I1997
I8
tp326
a(I1492
I8
tp327
a(I1403
I8
tp328
a(I1490
I8
tp329
a(I1098
I8
tp330
a(I607
I8
tp331
a(I1286
I8
tp332
a(I605
I8
tp333
a(I2148
I8
tp334
a(I779
I8
tp335
a(I2146
I8
tp336
a(I1641
I8
tp337
a(I272
I8
tp338
a(I1409
I8
tp339
a(I1780
I8
tp340
a(I411
I8
tp341
a(I1778
I8
tp342
a(I1952
I8
tp343
a(I1031
I8
tp344
a(I869
I8
tp345
a(I2102
I8
tp346
a(I19
I8
tp347
a(I362
I8
tp348
a(I649
I8
tp349
a(I560
I8
tp350
a(I158
I8
tp351
a(I156
I8
tp352
a(I2140
I8
tp353
a(I1192
I8
tp354
a(I1295
I8
tp355
a(I1206
I8
tp356
a(I1293
I8
tp357
a(I2252
I8
tp358
a(I281
I8
tp359
a(I2099
I8
tp360
a(I2343
I8
tp361
a(I2126
I8
tp362
a(I1836
I8
tp363
a(I1331
I8
tp364
a(I1418
I8
tp365
a(I824
I8
tp366
a(I927
I8
tp367
a(I838
I8
tp368
a(I925
I8
tp369
a(I420
I8
tp370
a(I331
I8
tp371
a(I418
I8
tp372
a(I1961
I8
tp373
a(I1872
I8
tp374
a(I1975
I8
tp375
a(I533
I8
tp376
a(I963
I8
tp377
a(I26
I8
tp378
a(I961
I8
tp379
a(I456
I8
tp380
a(I2011
I8
tp381
a(I1504
I8
tp382
a(I78
I8
tp383
a(I76
I8
tp384
a(I1617
I8
tp385
a(I619
I8
tp386
a(I2263
I8
tp387
a(I1756
I8
tp388
a(I1251
I8
tp389
a(I1249
I8
tp390
a(I744
I8
tp391
a(I847
I8
tp392
a(I2101
I8
tp393
a(I2388
I8
tp394
a(I2299
I8
tp395
a(I1895
I8
tp396
a(I970
I8
tp397
a(I2182
I8
tp398
a(I2020
I8
tp399
a(I2018
I8
tp400
a(I2251
I8
tp401
a(I2305
I8
tp402
a(I1814
I8
tp403
a(I2127
I8
tp404
a(I2169
I8
tp405
a(I398
I8
tp406
a(I1765
I8
tp407
a(I396
I8
tp408
a(I1939
I8
tp409
a(I1258
I8
tp410
a(I1432
I8
tp411
a(I2125
I8
tp412
a(I4
I8
tp413
a(I939
I8
tp414
a(I2
I8
tp415
a(I432
I8
tp416
a(I1397
I8
tp417
a(I40
I8
tp418
a(I54
I8
tp419
a(I1177
I8
tp420
a(I1191
I8
tp421
a(I2271
I8
tp422
a(I179
I8
tp423
a(I177
I8
tp424
a(I1720
I8
tp425
a(I1734
I8
tp426
a(I1227
I8
tp427
a(I809
I8
tp428
a(I823
I8
tp429
a(I405
I8
tp430
a(I1859
I8
tp431
a(I1946
I8
tp432
a(I1857
I8
tp433
a(I1352
I8
tp434
a(I1366
I8
tp435
a(I948
I8
tp436
a(I859
I8
tp437
a(I946
I8
tp438
a(I441
I8
tp439
a(I2400
I8
tp440
a(I455
I8
tp441
a(I1998
I8
tp442
a(I1996
I8
tp443
a(I1491
I8
tp444
a(I554
I8
tp445
a(I1489
I8
tp446
a(I61
I8
tp447
a(I1604
I8
tp448
a(I491
I8
tp449
a(I1602
I8
tp450
a(I1097
I8
tp451
a(I606
I8
tp452
a(I604
I8
tp453
a(I2147
I8
tp454
a(I186
I8
tp455
a(I2145
I8
tp456
a(I1640
I8
tp457
a(I1743
I8
tp458
a(I1741
I8
tp459
a(I1408
I8
tp460
a(I743
I8
tp461
a(I1779
I8
tp462
a(I1866
I8
tp463
a(I1777
I8
tp464
a(I1272
I8
tp465
a(I1030
I8
tp466
a(I1373
I8
tp467
a(I868
I8
tp468
a(I523
I8
tp469
a(I866
I8
tp470
a(I361
I8
tp471
a(I2005
I8
tp472
a(I1498
I8
tp473
a(I648
I8
tp474
a(I2274
I8
tp475
a(I155
I8
tp476
a(I1294
I8
tp477
a(I613
I8
tp478
a(I1292
I8
tp479
a(I280
I8
tp480
a(I1663
I8
tp481
a(I2342
I8
tp482
a(I1661
I8
tp483
a(I1835
I8
tp484
a(I1417
I8
tp485
a(I2324
I8
tp486
a(I1431
I8
tp487
a(I926
I8
tp488
a(I419
I8
tp489
a(I2235
I8
tp490
a(I417
I8
tp491
a(I1960
I8
tp492
a(I1974
I8
tp493
a(I532
I8
tp494
a(I25
I8
tp495
a(I960
I8
tp496
a(I39
I8
tp497
a(I1162
I8
tp498
a(I75
I8
tp499
a(I2256
I8
tp500
a(I1616
I8
tp501
a(I1719
I8
tp502
a(I2351
I8
tp503
a(I2349
I8
tp504
a(I1755
I8
tp505
a(I1248
I8
tp506
a(I1351
I8
tp507
a(I933
I8
tp508
a(I2070
I8
tp509
a(I426
I8
tp510
a(I1880
I8
tp511
a(I1894
I8
tp512
a(I1981
I8
tp513
a(I2259
I8
tp514
a(I969
I8
tp515
a(I880
I8
tp516
a(I2019
I8
tp517
a(I2017
I8
tp518
a(I589
I8
tp519
a(I2304
I8
tp520
a(I1639
I8
tp521
a(I714
I8
tp522
a(I223
I8
tp523
a(I2208
I8
tp524
a(I1764
I8
tp525
a(I395
I8
tp526
a(I1762
I8
tp527
a(I1257
I8
tp528
a(I1271
I8
tp529
a(I3
I8
tp530
a(I2394
I8
tp531
a(I1
I8
tp532
a(I647
I8
tp533
a(I2026
I8
tp534
a(I1176
I8
tp535
a(I1190
I8
tp536
a(I265
I8
tp537
a(I176
I8
tp538
a(I279
I8
tp539
a(I634
I8
tp540
a(I808
I8
tp541
a(I822
I8
tp542
a(I404
I8
tp543
a(I402
I8
tp544
a(I1945
I8
tp545
a(I1856
I8
tp546
a(I1959
I8
tp547
a(I947
I8
tp548
a(I10
I8
tp549
a(I945
I8
tp550
a(I440
I8
tp551
a(I454
I8
tp552
a(I1995
I8
tp553
a(I553
I8
tp554
a(I149
I8
tp555
a(I1603
I8
tp556
a(I2219
I8
tp557
a(I1601
I8
tp558
a(I1096
I8
tp559
a(I1110
I8
tp560
a(I603
I8
tp561
a(I185
I8
tp562
a(I2144
I8
tp563
a(I1742
I8
tp564
a(I1829
I8
tp565
a(I1740
I8
tp566
a(I728
I8
tp567
a(I831
I8
tp568
a(I829
I8
tp569
a(I322
I8
tp570
a(I1865
I8
tp571
a(I1879
I8
tp572
a(I1372
I8
tp573
a(I867
I8
tp574
a(I954
I8
tp575
a(I865
I8
tp576
a(I360
I8
tp577
a(I2004
I8
tp578
a(I2002
I8
tp579
a(I1497
I8
tp580
a(I69
I8
tp581
a(I1610
I8
tp582
a(I1119
I8
tp583
a(I1117
I8
tp584
a(I612
I8
tp585
a(I1291
I8
tp586
a(I610
I8
tp587
a(I2167
I8
tp588
a(I1662
I8
tp589
a(I1749
I8
tp590
a(I1416
I8
tp591
a(I751
I8
tp592
a(I1430
I8
tp593
a(I749
I8
tp594
a(I1785
I8
tp595
a(I416
I8
tp596
a(I2358
I8
tp597
a(I531
I8
tp598
a(I874
I8
tp599
a(I24
I8
tp600
a(I38
I8
tp601
a(I1668
I8
tp602
a(I1666
I8
tp603
a(I1161
I8
tp604
a(I1175
I8
tp605
a(I1013
I8
tp606
a(I2209
I8
tp607
a(I1704
I8
tp608
a(I1807
I8
tp609
a(I1718
I8
tp610
a(I1805
I8
tp611
a(I1300
I8
tp612
a(I1298
I8
tp613
a(I793
I8
tp614
a(I807
I8
tp615
a(I2350
I8
tp616
a(I389
I8
tp617
a(I2348
I8
tp618
a(I932
I8
tp619
a(I930
I8
tp620
a(I425
I8
tp621
a(I439
I8
tp622
a(I2177
I8
tp623
a(I1980
I8
tp624
a(I2320
I8
tp625
a(I538
I8
tp626
a(I968
I8
tp627
a(I2095
I8
tp628
a(I2093
I8
tp629
a(I2016
I8
tp630
a(I590
I8
tp631
a(I677
I8
tp632
a(I170
I8
tp633
a(I81
I8
tp634
a(I1727
I8
tp635
a(I1638
I8
tp636
a(I1725
I8
tp637
a(I713
I8
tp638
a(I727
I8
tp639
a(I2357
I8
tp640
a(I1763
I8
tp641
a(I1761
I8
tp642
a(I1256
I8
tp643
a(I1270
I8
tp644
a(I850
I8
tp645
a(I2393
I8
tp646
a(I359
I8
tp647
a(I1989
I8
tp648
a(I646
I8
tp649
a(I2025
I8
tp650
a(I2258
I8
tp651
a(I264
I8
tp652
a(I2222
I8
tp653
a(I278
I8
tp654
a(I2322
I8
tp655
a(I633
I8
tp656
a(I1415
I8
tp657
a(I229
I8
tp658
a(I403
I8
tp659
a(I401
I8
tp660
a(I1944
I8
tp661
a(I1958
I8
tp662
a(I9
I8
tp663
a(I944
I8
tp664
a(I23
I8
tp665
a(I1402
I8
tp666
a(I552
I8
tp667
a(I655
I8
tp668
a(I653
I8
tp669
a(I148
I8
tp670
a(I146
I8
tp671
a(I1600
I8
tp672
a(I1703
I8
tp673
a(I1285
I8
tp674
a(I778
I8
tp675
a(I184
I8
tp676
a(I2335
I8
tp677
a(I285
I8
tp678
a(I1828
I8
tp679
a(I1739
I8
tp680
a(I1232
I8
tp681
a(I830
I8
tp682
a(I828
I8
tp683
a(I410
I8
tp684
a(I321
I8
tp685
a(I1864
I8
tp686
a(I1967
I8
tp687
a(I1878
I8
tp688
a(I1965
I8
tp689
a(I1371
I8
tp690
a(I953
I8
tp691
a(I864
I8
tp692
a(I967
I8
tp693
a(I2003
I8
tp694
a(I2001
I8
tp695
a(I1496
I8
tp696
a(I575
I8
tp697
a(I573
I8
tp698
a(I68
I8
tp699
a(I66
I8
tp700
a(I1609
I8
tp701
a(I1118
I8
tp702
a(I611
I8
tp703
a(I609
I8
tp704
a(I2152
I8
tp705
a(I207
I8
tp706
a(I2166
I8
tp707
a(I205
I8
tp708
a(I1748
I8
tp709
a(I1746
I8
tp710
a(I1255
I8
tp711
a(I750
I8
tp712
a(I837
I8
tp713
a(I748
I8
tp714
a(I330
I8
tp715
a(I1784
I8
tp716
a(I873
I8
tp717
a(I2254
I8
tp718
a(I1667
I8
tp719
a(I2010
I8
tp720
a(I1519
I8
tp721
a(I1174
I8
tp722
a(I1517
I8
tp723
a(I160
I8
tp724
a(I2311
I8
tp725
a(I1806
I8
tp726
a(I1299
I8
tp727
a(I618
I8
tp728
a(I1297
I8
tp729
a(I792
I8
tp730
a(I127
I8
tp731
a(I806
I8
tp732
a(I125
I8
tp733
a(I388
I8
tp734
a(I2347
I8
tp735
a(I1943
I8
tp736
a(I931
I8
tp737
a(I2298
I8
tp738
a(I929
I8
tp739
a(I424
I8
tp740
a(I438
I8
tp741
a(I1979
I8
tp742
a(I537
I8
tp743
a(I551
I8
tp744
a(I2094
I8
tp745
a(I133
I8
tp746
a(I2092
I8
tp747
a(I676
I8
tp748
a(I674
I8
tp749
a(I169
I8
tp750
a(I80
I8
tp751
a(I183
I8
tp752
a(I1726
I8
tp753
a(I1813
I8
tp754
a(I1724
I8
tp755
a(I712
I8
tp756
a(I2356
I8
tp757
a(I2354
I8
tp758
a(I1760
I8
tp759
a(I1863
I8
tp760
a(I2326
I8
tp761
a(I938
I8
tp762
a(I849
I8
tp763
a(I447
I8
tp764
a(I358
I8
tp765
a(I445
I8
tp766
a(I1988
I8
tp767
a(I1986
I8
tp768
a(I1481
I8
tp769
a(I1495
I8
tp770
a(I53
I8
tp771
a(I2024
I8
tp772
a(I594
I8
tp773
a(I2151
I8
tp774
a(I1733
I8
tp775
a(I1226
I8
tp776
a(I632
I8
tp777
a(I735
I8
tp778
a(I228
I8
tp779
a(I226
I8
tp780
a(I400
I8
tp781
a(I1783
I8
tp782
a(I1365
I8
tp783
a(I8
I8
tp784
a(I22
I8
tp785
a(I1401
I8
tp786
a(I1056
I8
tp787
a(I654
I8
tp788
a(I652
I8
tp789
a(I147
I8
tp790
a(I490
I8
tp791
a(I1702
I8
tp792
a(I1284
I8
tp793
a(I1282
I8
tp794
a(I777
I8
tp795
a(I791
I8
tp796
a(I2334
I8
tp797
a(I284
I8
tp798
a(I1423
I8
tp799
a(I1334
I8
tp800
a(I1421
I8
tp801
a(I827
I8
tp802
a(I409
I8
tp803
a(I320
I8
tp804
a(I423
I8
tp805
a(I1966
I8
tp806
a(I1964
I8
tp807
a(I522
I8
tp808
a(I952
I8
tp809
a(I31
I8
tp810
a(I966
I8
tp811
a(I29
I8
tp812
a(I2000
I8
tp813
a(I574
I8
tp814
a(I661
I8
tp815
a(I572
I8
tp816
a(I67
I8
tp817
a(I154
I8
tp818
a(I65
I8
tp819
a(I1608
I8
tp820
a(I1115
I8
tp821
a(I608
I8
tp822
a(I206
I8
tp823
a(I2341
I8
tp824
a(I204
I8
tp825
a(I1747
I8
tp826
a(I1834
I8
tp827
a(I1745
I8
tp828
a(I1254
I8
tp829
a(I836
I8
tp830
a(I747
I8
tp831
a(I834
I8
tp832
a(I329
I8
tp833
a(I2391
I8
tp834
a(I1973
I8
tp835
a(I872
I8
tp836
a(I975
I8
tp837
a(I973
I8
tp838
a(I2009
I8
tp839
a(I1664
I8
tp840
a(I2023
I8
tp841
a(I1518
I8
tp842
a(I2181
I8
tp843
a(I74
I8
tp844
a(I2272
I8
tp845
a(I1124
I8
tp846
a(I1122
I8
tp847
a(I617
I8
tp848
a(I1296
I8
tp849
a(I631
I8
tp850
a(I126
I8
tp851
a(I2172
I8
tp852
a(I1754
I8
tp853
a(I1942
I8
tp854
a(I1435
I8
tp855
a(I2297
I8
tp856
a(I928
I8
tp857
a(I7
I8
tp858
a(I1893
I8
tp859
a(I536
I8
tp860
a(I550
I8
tp861
a(I2180
I8
tp862
a(I2091
I8
tp863
a(I130
I8
tp864
a(I1180
I8
tp865
a(I675
I8
tp866
a(I673
I8
tp867
a(I168
I8
tp868
a(I2319
I8
tp869
a(I182
I8
tp870
a(I1812
I8
tp871
a(I1723
I8
tp872
a(I1810
I8
tp873
a(I812
I8
tp874
a(I2355
I8
tp875
a(I394
I8
tp876
a(I2353
I8
tp877
a(I1951
I8
tp878
a(I1862
I8
tp879
a(I1949
I8
tp880
a(I937
I8
tp881
a(I848
I8
tp882
a(I951
I8
tp883
a(I446
I8
tp884
a(I444
I8
tp885
a(I1987
I8
tp886
a(I1985
I8
tp887
a(I1480
I8
tp888
a(I559
I8
tp889
a(I1494
I8
tp890
a(I557
I8
tp891
a(I52
I8
tp892
a(I50
I8
tp893
a(I2220
I8
tp894
a(I1189
I8
tp895
a(I2239
I8
tp896
a(I2150
I8
tp897
a(I2237
I8
tp898
a(I1732
I8
tp899
a(I1643
I8
tp900
a(I1730
I8
tp901
a(I1225
I8
tp902
a(I227
I8
tp903
a(I314
I8
tp904
a(I225
I8
tp905
a(I1871
I8
tp906
a(I1782
I8
tp907
a(I1869
I8
tp908
a(I1364
I8
tp909
a(I1362
I8
tp910
a(I871
I8
tp911
a(I453
I8
tp912
a(I1994
I8
tp913
a(I1400
I8
tp914
a(I1503
I8
tp915
a(I1501
I8
tp916
a(I651
I8
tp917
a(I489
I8
tp918
a(I1283
I8
tp919
a(I602
I8
tp920
a(I1281
I8
tp921
a(I776
I8
tp922
a(I283
I8
tp923
a(I1422
I8
tp924
a(I741
I8
tp925
a(I1420
I8
tp926
a(I408
I8
tp927
a(I422
I8
tp928
a(I1963
I8
tp929
a(I2359
I8
tp930
a(I521
I8
tp931
a(I535
I8
tp932
a(I30
I8
tp933
a(I28
I8
tp934
a(I1165
I8
tp935
a(I660
I8
tp936
a(I571
I8
tp937
a(I658
I8
tp938
a(I153
I8
tp939
a(I64
I8
tp940
a(I167
I8
tp941
a(I1290
I8
tp942
a(I2340
I8
tp943
a(I203
I8
tp944
a(I2338
I8
tp945
a(I1833
I8
tp946
a(I1744
I8
tp947
a(I1429
I8
tp948
a(I835
I8
tp949
a(I833
I8
tp950
a(I328
I8
tp951
a(I431
I8
tp952
a(I429
I8
tp953
a(I1972
I8
tp954
a(I1970
I8
tp955
a(I974
I8
tp956
a(I37
I8
tp957
a(I972
I8
tp958
a(I2008
I8
tp959
a(I2022
I8
tp960
a(I580
I8
tp961
a(I578
I8
tp962
a(I73
I8
tp963
a(I1717
I8
tp964
a(I1123
I8
tp965
a(I1121
I8
tp966
a(I616
I8
tp967
a(I719
I8
tp968
a(I630
I8
tp969
a(I717
I8
tp970
a(I2171
I8
tp971
a(I210
I8
tp972
a(I1753
I8
tp973
a(I2296
I8
tp974
a(I2399
I8
tp975
a(I6
I8
tp976
a(I2397
I8
tp977
a(I1399
I8
tp978
a(I2179
I8
tp979
a(I129
I8
tp980
a(I2031
I8
tp981
a(I2029
I8
tp982
a(I1179
I8
tp983
a(I1017
I8
tp984
a(I672
I8
tp985
a(I775
I8
tp986
a(I2318
I8
tp987
a(I1637
I8
tp988
a(I1811
I8
tp989
a(I1809
I8
tp990
a(I639
I8
tp991
a(I637
I8
tp992
a(I811
I8
tp993
a(I393
I8
tp994
a(I2352
I8
tp995
a(I407
I8
tp996
a(I1950
I8
tp997
a(I1269
I8
tp998
a(I1948
I8
tp999
a(I936
I8
tp1000
a(I950
I8
tp1001
a(I13
I8
tp1002
a(I443
I8
tp1003
a(I558
I8
tp1004
a(I645
I8
tp1005
a(I556
I8
tp1006
a(I51
I8
tp1007
a(I2097
I8
tp1008
a(I2240
I8
tp1009
a(I2238
I8
tp1010
a(I277
I8
tp1011
a(I2236
I8
tp1012
a(I1731
I8
tp1013
a(I1729
I8
tp1014
a(I1224
I8
tp1015
a(I313
I8
tp1016
a(I224
I8
tp1017
a(I1870
I8
tp1018
a(I1957
I8
tp1019
a(I1868
I8
tp1020
a(I1363
I8
tp1021
a(I1361
I8
tp1022
a(I959
I8
tp1023
a(I870
I8
tp1024
a(I957
I8
tp1025
a(I363
I8
tp1026
a(I1993
I8
tp1027
a(I2007
I8
tp1028
a(I1502
I8
tp1029
a(I1500
I8
tp1030
a(I488
I8
tp1031
a(I1615
I8
tp1032
a(I1613
I8
tp1033
a(I601
I8
tp1034
a(I1280
I8
tp1035
a(I615
I8
tp1036
a(I1649
I8
tp1037
a(I1247
I8
tp1038
a(I1245
I8
tp1039
a(I1419
I8
tp1040
a(I1877
I8
tp1041
a(I1370
I8
tp1042
a(I520
I8
tp1043
a(I879
I8
tp1044
a(I534
I8
tp1045
a(I877
I8
tp1046
a(I27
I8
tp1047
a(I2255
I8
tp1048
a(I1913
I8
tp1049
a(I2328
I8
tp1050
a(I1166
I8
tp1051
a(I1164
I8
tp1052
asS'runtime'
p1053
F0.0023851394653320312
sS'name'
p1054
S'["regex", [["brewery_name", "[t]", "OM"]]]'
p1055
s.