(dp0
S'values'
p1
(dp2
Vxo
p3
F0.002
sVno
p4
F0.143
sVyxs
p5
F0.011
sVyex
p6
F0.009
sVxes
p7
F0.005
sVyes
p8
F0.83
ssS'characters'
p9
(dp10
Ve
p11
F0.844
sVo
p12
F0.145
sVn
p13
F0.143
sVs
p14
F0.846
sVy
p15
F0.85
sVx
p16
F0.027
ss.