(dp0
S'values'
p1
(dp2
V288 patients
p3
F0.001
sV457 patients
p4
F0.001
sV854 patients
p5
F0.001
sV137 patients
p6
F0.002
sV343 patients
p7
F0.001
sV159 patients
p8
F0.001
sV4 patients
p9
F0.021
sV237 patients
p10
F0.001
sV71 patients
p11
F0.004
sV138 patients
p12
F0.003
sV352 patients
p13
F0.001
sV76 patients
p14
F0.006
sV120 patients
p15
F0.001
sV152 patients
p16
F0.001
sV147 patients
p17
F0.004
sV50 patients
p18
F0.002
sV485 patients
p19
F0.001
sV9 patients
p20
F0.008
sV280 patients
p21
F0.002
sV196 patients
p22
F0.004
sV107 patients
p23
F0.003
sV12 patients
p24
F0.006
sV6xpatients
p25
F0.001
sV40 patients
p26
F0.003
sV186 patients
p27
F0.001
sV33 patients
p28
F0.004
sV1x patients
p29
F0.001
sV0 patxents
p30
F0.001
sV49 patients
p31
F0.002
sV827 patients
p32
F0.001
sV233 patients
p33
F0.001
sV357 patients
p34
F0.001
sV518 patients
p35
F0.001
sV247 patients
p36
F0.002
sV603 patients
p37
F0.001
sV135 patients
p38
F0.002
sV92 patients
p39
F0.001
sV102 patients
p40
F0.003
sV225 patients
p41
F0.001
sV73 patients
p42
F0.001
sV514 patients
p43
F0.001
sV195 patients
p44
F0.001
sV224 patients
p45
F0.002
sV172 patxents
p46
F0.001
sV241 patients
p47
F0.001
sV442 patients
p48
F0.001
sV439 patients
p49
F0.001
sV598 patients
p50
F0.001
sV121 patiexts
p51
F0.001
sV268 patients
p52
F0.001
sV681 patients
p53
F0.001
sV266 patients
p54
F0.001
sV60 patients
p55
F0.001
sV61 patients
p56
F0.002
sV51 patients
p57
F0.005
sV29 patients
p58
F0.002
sV324 patients
p59
F0.001
sV1 patiexts
p60
F0.001
sV5 patients
p61
F0.013
sV118 patients
p62
F0.002
sV430 patients
p63
F0.001
sV27 patients
p64
F0.003
sV128 patients
p65
F0.002
sV882 patients
p66
F0.001
sV53 patients
p67
F0.002
sV86 patients
p68
F0.002
sV165 patients
p69
F0.003
sV45 patients
p70
F0.003
sV230 patients
p71
F0.002
sV316 patients
p72
F0.002
sV957 patients
p73
F0.001
sV99 patients
p74
F0.002
sV323 patients
p75
F0.001
sV3 patients
p76
F0.019
sV41 patients
p77
F0.006
sV205 patients
p78
F0.001
sV110 patients
p79
F0.004
sV57 patients
p80
F0.003
sV331 patients
p81
F0.002
sV83 patients
p82
F0.001
sV175 patients
p83
F0.001
sV70 patients
p84
F0.004
sV461 patients
p85
F0.001
sVxx patients
p86
F0.001
sV192 patients
p87
F0.001
sV139 patients
p88
F0.004
sV16 patients
p89
F0.008
sV259 patients
p90
F0.003
sV90 patients
p91
F0.004
sV210 patients
p92
F0.001
sV62 patientx
p93
F0.001
sV42 patients
p94
F0.003
sV174 patients
p95
F0.001
sV223 patients
p96
F0.001
sV402 patients
p97
F0.001
sV244 patients
p98
F0.001
sV405 patients
p99
F0.002
sV28 patients
p100
F0.004
sV1295 patients
p101
F0.001
sV134 patients
p102
F0.002
sV153 patients
p103
F0.002
sV29 xatients
p104
F0.001
sV7 patients
p105
F0.007
sV38 patients
p106
F0.003
sV281 patients
p107
F0.001
sV246 patients
p108
F0.001
sV527 patients
p109
F0.001
sV520 patients
p110
F0.001
sV94 patients
p111
F0.005
sV852 patients
p112
F0.001
sV242 patients
p113
F0.004
sV55 patients
p114
F0.004
sV89 patients
p115
F0.004
sV282 patients
p116
F0.001
sV160 patients
p117
F0.003
sV255 patients
p118
F0.002
sV378 patients
p119
F0.001
sV122 patients
p120
F0.001
sV74 patxents
p121
F0.001
sV169 patients
p122
F0.002
sV4 patiexts
p123
F0.001
sV91 patients
p124
F0.003
sV226 patients
p125
F0.002
sV100 patients
p126
F0.001
sV37 patients
p127
F0.005
sV97 patients
p128
F0.002
sV193 paxienxs
p129
F0.001
sV11 patients
p130
F0.004
sV10 patients
p131
F0.013
sV607 patients
p132
F0.001
sV109 patients
p133
F0.003
sV391 patients
p134
F0.001
sV140 patients
p135
F0.001
sV270 patients
p136
F0.002
sV392 patients
p137
F0.001
sV145 patients
p138
F0.002
sV15 patiexts
p139
F0.001
sV43 patients
p140
F0.003
sV184 patients
p141
F0.002
sV125 patixnts
p142
F0.001
sV370 patients
p143
F0.001
sV22 patients
p144
F0.003
sV261 patients
p145
F0.001
sV82 patients
p146
F0.001
sV126 patxents
p147
F0.001
sV179 patients
p148
F0.004
sV315 patients
p149
F0.002
sV950 patients
p150
F0.001
sV18 patients
p151
F0.005
sV199 patients
p152
F0.001
sV15 patients
p153
F0.011
sV14 patients
p154
F0.011
sV263 patients
p155
F0.001
sV115 patients
p156
F0.002
sV79 patients
p157
F0.006
sV136 patients
p158
F0.004
sV114 patients
p159
F0.003
sV81 patients
p160
F0.001
sV564 patients
p161
F0.001
sV399 patients
p162
F0.002
sV294 patients
p163
F0.001
sV65 patients
p164
F0.004
sV88 patients
p165
F0.001
sV24 patients
p166
F0.009
sV25 patients
p167
F0.006
sV585 patients
p168
F0.001
sV116 patients
p169
F0.005
sV62 patients
p170
F0.002
sV157 patients
p171
F0.001
sV509 patients
p172
F0.001
sV313 patients
p173
F0.001
sV208 patients
p174
F0.002
sV441 patients
p175
F0.001
sV521 patiexts
p176
F0.001
sV150 patients
p177
F0.002
sV516 patients
p178
F0.001
sV1 patients
p179
F0.024
sV121 patients
p180
F0.001
sV212 patients
p181
F0.001
sV187 patients
p182
F0.002
sV20 patients
p183
F0.002
sV254 patients
p184
F0.001
sV618 xatients
p185
F0.001
sV6 patients
p186
F0.01
sV21 pxtients
p187
F0.001
sV0 patients
p188
F0.103
sV409 patients
p189
F0.001
sV146 patients
p190
F0.005
sV200 patients
p191
F0.002
sV130 patients
p192
F0.004
sV404 patients
p193
F0.001
sV30 patients
p194
F0.007
sV111 patients
p195
F0.001
sV106 patients
p196
F0.001
sV21 patients
p197
F0.002
sV74 patients
p198
F0.002
sV473 patients
p199
F0.003
sV84 patients
p200
F0.003
sV34 patients
p201
F0.006
sV385 patients
p202
F0.001
sV117 patients
p203
F0.004
sV103 patients
p204
F0.004
sV269 patients
p205
F0.002
sVempty
p206
F0.06
sV191 patients
p207
F0.001
sV72 patients
p208
F0.002
sV87 patients
p209
F0.003
sV149 patients
p210
F0.003
sV78 patients
p211
F0.002
sV290 patients
p212
F0.001
sV204 patients
p213
F0.001
sV2 patients
p214
F0.021
sV350 patients
p215
F0.002
sV129 patients
p216
F0.001
sV158 patients
p217
F0.003
sV557 patients
p218
F0.001
sV167 patients
p219
F0.001
sV240 patients
p220
F0.001
sV133 patients
p221
F0.001
sV4 xatients
p222
F0.001
sV372 patients
p223
F0.001
sV44 patients
p224
F0.004
sV368 patients
p225
F0.001
sV511 patients
p226
F0.001
sV48 patients
p227
F0.005
sV1001 patients
p228
F0.001
sV87 paxienxs
p229
F0.001
sV87 patientx
p230
F0.001
sVx patients
p231
F0.002
sV962 patients
p232
F0.001
sV178 patients
p233
F0.001
sV46 patients
p234
F0.003
sV32 patients
p235
F0.002
sV66 patients
p236
F0.004
sV295 patients
p237
F0.001
sV119 patients
p238
F0.002
sV13 patients
p239
F0.005
sV27 paxienxs
p240
F0.001
sV77 patients
p241
F0.005
sV272 patients
p242
F0.001
sV0 patixnts
p243
F0.001
sV239 patients
p244
F0.003
sV243 patients
p245
F0.001
sV513 patients
p246
F0.001
sV317 patients
p247
F0.001
sV235 patients
p248
F0.001
sV496 patients
p249
F0.001
sV412 patients
p250
F0.001
sV1016 patients
p251
F0.001
sV123 patients
p252
F0.003
sV144 patients
p253
F0.001
sV85 patients
p254
F0.008
sV397 patients
p255
F0.001
sV369 patients
p256
F0.001
sV155 patients
p257
F0.004
sV561 patients
p258
F0.001
sV303 patients
p259
F0.001
sV497 patients
p260
F0.002
sV39 patients
p261
F0.006
sV588 patients
p262
F0.001
sV245 patients
p263
F0.001
sV180 patients
p264
F0.001
sV601 patients
p265
F0.002
sV36 patients
p266
F0.004
sV298 patients
p267
F0.002
sV173 patients
p268
F0.001
sV166 patients
p269
F0.001
sV570 patients
p270
F0.001
sV455 patients
p271
F0.001
sV142 patients
p272
F0.002
sV260 patients
p273
F0.001
sV619 paxienxs
p274
F0.001
sV95 patients
p275
F0.002
sV690 patients
p276
F0.001
sV185 patients
p277
F0.002
sV19 patients
p278
F0.008
sV47 patients
p279
F0.004
sV63 patients
p280
F0.003
sV23 patients
p281
F0.004
sV17 patients
p282
F0.001
sV26 patients
p283
F0.005
sV537 patients
p284
F0.001
sV25x patients
p285
F0.001
sV52 patients
p286
F0.005
sV93 patients
p287
F0.004
sV125 patients
p288
F0.007
sV82 patientx
p289
F0.001
sV211 patients
p290
F0.002
sV164 patients
p291
F0.001
sV301 patients
p292
F0.001
sV227 patients
p293
F0.001
sV75 patients
p294
F0.002
sV462 patients
p295
F0.001
sV67 patients
p296
F0.005
sV127 patients
p297
F0.001
sV96 patients
p298
F0.003
sV168 patients
p299
F0.001
sV44 paxienxs
p300
F0.001
sV264 patients
p301
F0.001
sV101 patients
p302
F0.007
sV292 patients
p303
F0.001
sV193 patients
p304
F0.002
sV817 patients
p305
F0.001
sV1062 patients
p306
F0.001
sV98 patients
p307
F0.005
sV229 patients
p308
F0.002
sV411 patients
p309
F0.001
sV342 patients
p310
F0.001
sV1421 patients
p311
F0.001
sV80 patients
p312
F0.003
sV141 patients
p313
F0.001
sV499 patients
p314
F0.001
sV172 patients
p315
F0.001
sV3x patients
p316
F0.001
sV217 patients
p317
F0.001
sV35 patients
p318
F0.003
sV417 patients
p319
F0.001
sV575 patients
p320
F0.001
sV50 pxtients
p321
F0.001
sV69 patients
p322
F0.006
sV112 patients
p323
F0.002
sV54 patients
p324
F0.001
sV59 patients
p325
F0.006
sV58 patients
p326
F0.003
sV8 patients
p327
F0.008
sV105 patients
p328
F0.002
sV423 patients
p329
F0.001
sV131 patients
p330
F0.004
sV844 patients
p331
F0.001
sV31 patients
p332
F0.003
sV68 patients
p333
F0.002
sV253 patients
p334
F0.001
sV56 patients
p335
F0.005
sV64 patients
p336
F0.003
ssS'characters'
p337
(dp338
Va
p339
F0.938
sV 
p340
F0.939
sVe
p341
F0.998
sVy
p342
F0.06
sVp
p343
F0.997
sVi
p344
F0.936
sV4
p345
F0.18
sVm
p346
F0.06
sVs
p347
F0.937
sVn
p348
F0.935
sV1
p349
F0.336
sV0
p350
F0.224
sV3
p351
F0.175
sV2
p352
F0.21
sV5
p353
F0.175
sVt
p354
F0.995
sV7
p355
F0.129
sV6
p356
F0.145
sV9
p357
F0.147
sVx
p358
F0.031
sV8
p359
F0.113
ss.