(dp0
S'values'
p1
(dp2
VA controlled trial of anterior spinal fusion and d\u0329bridement in the surgical management of tuberculosis of the spine in patients on standard chemotherapy: a study in two centres in South Africa. Seventh Report of the Medical Research Council Working Party on tuberculosis of the spine
p3
F0.001
sV
p4
F0.001
sVExperience in one centre using the buttoned device for occlusion of atrial septal defect: comparison with the Amplatzer septal occluder.
p5
F0.001
sVPrefrontal hypoactivation and recovery in insomnia.
p6
F0.001
sVImpact of second-line drug resistance on tuberculosis treatment outcomes in the United States: MDR-TB is bad enough
p7
F0.001
sVDesflurane and isoflurane increase lumbar cerebrospinal fluid pressure in normocapnic patients undergoing transsphenoidal hypophysectomy.
p8
F0.001
sVL2 spinal nerve-block effects on acute low back pain from osteoporotic vertebral fracture
p9
F0.001
sVAssociation of Ureaplasma urealyticum colonization with development of bronchopulmonary dysplasia: a systemic review and meta-analysis.
p10
F0.001
sVgamma-tocopherol, the major form of vitamin E in the US diet, deserves more attention
p11
F0.001
sVTwisting the night away: a review of the neurobiology, genetics, diagnosis, and treatment of shift work disorder.
p12
F0.001
sVEffects on prolongation of Bazett\ufffd\u06eas corrected QT interval of seven second-generation antipsychotics in the treatment of schizophrenia: A meta-analysis
p13
F0.001
sVUnderstanding depression in palliative and end-of-life care
p14
F0.001
sVCentral corneal melting associated with reformulated generic diclofenac in a patient with inferior fornix foreshortening.
p15
F0.001
sVCrowdsourced Multimedia Enhanced Spatio-temporal Constraint Based on-Demand Social Network for Group Mobility
p16
F0.001
sVThe epidemiology of injury for an elite junior Australian Football cohort
p17
F0.001
sVInfluence of two handwashing frequencies on reduction in colonizing flora with three handwashing products used by health care personnel.
p18
F0.001
sVSimple steps to fitness. Secrets of strength. Strength training is as important to weight loss and fitness as aerobic exercise is, but many people ignore it. Here's how to get started.
p19
F0.001
sVThe Chinese medicine construct "stagnation" in mind-body connection mediates the effects of mindfulness training on depression and anxiety
p20
F0.001
sVPathophysiology of paradoxical embolism: evaluation of the role of interatrial septum anatomy based on the intracardiac echocardiography assessment of patients with right-to-left shunting.
p21
F0.001
sVA pharmacoeconomic evaluation of statins in the treatment of hypercholesterolaemia in the primary care setting in Spain (Structured abstract)
p22
F0.001
sVMental health symptoms in a population based survey of minority farm operators
p23
F0.001
sVRecognizing, naming, and measuring a family intensive care unit syndrome
p24
F0.001
sVProcessed meat consumption and stomach cancer risk: a meta-analysis.
p25
F0.001
sVLong-term outcome for immune suppression and immune related lymphoproliferative disorder: Prospective data from the United Kingdom Children's Leukaemia and Cancer Group registry 1994-2004
p26
F0.001
sVChapter 25 - Skin Manifestations of HIV Infection
p27
F0.001
sVComparative effectiveness of instructional design features in simulation-based education: systematic review and meta-analysis.
p28
F0.001
sVWhen is carotid angioplasty and stenting the cost-effective alternative for revascularization of symptomatic carotid stenosis? A Canadian health system perspective
p29
F0.001
sVThe novel applications of the quantitative analysis of neutrophil cell surface FcgammaRI (CD64) to the diagnosis of infectious and inflammatory diseases.
p30
F0.001
sVCT features of pulmonary arterial hypertension and its major subtypes: a systematic CT evaluation of 292 patients from the ASPIRE Registry.
p31
F0.001
sVEffect of QVA149 on lung volumes and exercise tolerance in COPD patients: the BRIGHT study
p32
F0.001
sVEffects of different antihypertensive drugs on plasma fibrinogen in hypertensive patients.
p33
F0.001
sVIntrinsically de-sialylated CD103(+) CD8 T cells mediate beneficial anti-glioma immune responses.
p34
F0.001
sVOsteoid osteoma treated by percutaneous thermal ablation: when do we fail? A systematic review and guidelines for future reporting.
p35
F0.001
sVMeasures of exposure to the Well London Phase-1 intervention and their association with health well-being and social outcomes
p36
F0.001
sVHealth-promoting behaviors of low-income cancer survivors
p37
F0.001
sVDiminished A-cell secretion in the early phase of type I diabetes mellitus
p38
F0.001
sVSignificantly higher adrenocorticotropin-stimulated cortisol and 17-hydroxyprogesterone levels in 337 consecutive, premenopausal, caucasian, hirsute patients compared with healthy controls
p39
F0.001
sVReproduction of excursive tooth contact in an articulator with computerized axiography data
p40
F0.001
sVDiagnosis of Stroke-Associated Pneumonia: Recommendations From the Pneumonia in Stroke Consensus Group.
p41
F0.001
sVMaternal use of folic acid supplements during pregnancy, and childhood respiratory health and atopy.
p42
F0.001
sVIncidence of and risk factors for motor neurone disease in UK women: a prospective study.
p43
F0.001
sVTeaching medical student geriatrics competencies in 1 week: an efficient model to teach and document selected competencies using clinical and community resources
p44
F0.001
sVAbstracts from the ASENT 14th Annual Meeting
p45
F0.001
sVYoga may help manage binge eating disorder
p46
F0.001
sVEvaluation of a single intra-articular injection of autologous protein solution for treatment of osteoarthritis in horses.
p47
F0.001
sVThe Prevalence and Age-Related Characteristics of Pain in a Sample of Women Veterans Receiving Primary Care
p48
F0.001
sVMonteggia lesions in adults. A multicenter Bota study
p49
F0.001
sVThe concept of neurosis in a cross-cultural perspective
p50
F0.001
sVLate repair of injuries of the anal sphincter
p51
F0.001
sVMulticenter, randomized, placebo-controlled trial of amitriptyline in children with functional gastrointestinal disorders
p52
F0.001
sVRecurrent distal 16q duplication and terminal 22q deletion: prenatal diagnosis and genetic counseling
p53
F0.001
sVSchool soft drink intervention study
p54
F0.001
sVEpidemiology of sporting injuries among elite soccer players: A longitudinal study
p55
F0.001
sVPhysical activity moderates time-of-day differences in older adults' working memory performance.
p56
F0.001
sVEffect of (D)-fagomine on excreted Enterobacteria and weight gain in rats fed a high-fat high-sucrose diet.
p57
F0.001
sVPalliative sedation therapy in the last weeks of life: a literature review and recommendations for standards.
p58
F0.001
sVThe impact of bleeding complications in patients receiving novel oral anticoagulants: A systematic review and metaanalysis
p59
F0.001
sVPostamputation pain: epidemiology, mechanisms, and treatment
p60
F0.001
sV[Skeletal maturation in assessing underage asylum seekers].
p61
F0.001
sVAnaesthesia, movement and emesis
p62
F0.001
sVThe Impact of Nursing Case Management on Women With Diabetes in Pregnancy
p63
F0.001
sVWhy is functional capacity decreased in hypertensive patients? From mechanisms to clinical studies.
p64
F0.001
sVThe effectiveness of anti-illicit-drug public-service announcements: a systematic review and meta-analysis.
p65
F0.001
sVDietary practices of ballet, jazz, and modern dancers
p66
F0.001
sVThe safety and immunogenicity of rotavirus vaccination in infants with intestinal failure
p67
F0.001
sVPrebiotics, immune function, infection and inflammation: a review of the evidence
p68
F0.001
sV[Neurological dysfunction induced by bilirrubin].
p69
F0.001
sVDiGeorge Syndrome Presenting as Hypocalcaemia-Induced Seizures in Adulthood.
p70
F0.001
sVRemote area indigenous psychiatry - Reflections on nine years as a visiting psychiatrist
p71
F0.001
sV[Effect of a dialysis solution with icodextrin on ultrafiltration and selected metabolic parameters in patients treated with peritoneal dialysis]
p72
F0.001
sVFeverfew (Tanacetum parthenium L.): A systematic review.
p73
F0.001
sVEffects of chemotherapy in AIDS-associated non-Hodgkin's lymphoma on Kaposi's sarcoma herpesvirus DNA in blood.
p74
F0.001
sVInosiplex for treatment of alopecia areata: A randomized placebo-controlled study
p75
F0.001
sVWeighting improves the information provided by joint counts on the severity of arthritis and its impact on patients' well-being in juvenile idiopathic arthritis
p76
F0.001
sVUsing Debate as a Pedagogical Tool in Enhancing Pre-Service Teachers' Learning and Critical Thinking
p77
F0.001
sVSelective loss of anterior pituitary volume with severe pituitary-gonadal insufficiency in poorly compliant male thalassemic patients with pubertal arrest.
p78
F0.001
sVEmpowered diabetes management: life coaching and pharmacist counseling for employed adults with diabetes
p79
F0.001
sVPrehospital hypertonic saline resuscitation attenuates the activation and promotes apoptosis of neutrophils in patients with severe traumatic brain injury.
p80
F0.001
sVThe fundamental role of bone morphogenetic protein 15 in ovarian function and its      involvement in female fertility disorders.
p81
F0.001
sVKRAS mutational status assessment in patients with metastatic colorectal cancer: are the clinical implications so clear?
p82
F0.001
sVObesity, weight change and risks for hypertension, diabetes and hypercholesterolemia in Japanese men.
p83
F0.001
sVMind the Gap: Difference between Framingham heart age and real age increases with age in HIV-positive individuals - A clinical cohort study
p84
F0.001
sVCultural humility: essential foundation for clinical researchers.
p85
F0.001
sVAnterior approach unilateral right sacrospinous fixation for recurrent pelvic organ prolapse following multiple colorectal surgeries.
p86
F0.001
sVRisk profiles among adolescent nonmedical opioid users in the United States
p87
F0.001
sVThe Diversion of Ultram, Ultracet, and generic tramadol HCL.
p88
F0.001
sVComparison between open and closed suction systems: a systematic review.
p89
F0.001
sVCommunity associated methicillin-resistant Staphylococcus aureus in HIV-infected patients
p90
F0.001
sVUse of Job Design to Reduce Mechanical Stress on the Back
p91
F0.001
sVBody mass index and socioeconomic status measured in adolescence, country of origin, and the incidence of gastroesophageal adenocarcinoma in a cohort of 1 million men.
p92
F0.001
sVA literature review on chronic pain: the daily overcoming of a complex problem.
p93
F0.001
sVPhase angle for prognostication of survival in patients with advanced cancer: Preliminary findings.
p94
F0.001
sVAbstracts 15
p95
F0.001
sVNutrition and obstructed labor
p96
F0.001
sVStrategies for partner notification for sexually transmitted infections, including HIV.
p97
F0.001
sVThermoregulatory response of women to intermittent work in the heat
p98
F0.001
sVImpaired default network functional connectivity in autosomal dominant Alzheimer disease.
p99
F0.001
sVApplication of a stress and coping model to positive and negative adjustment outcomes in colorectal cancer caregiving
p100
F0.001
sVThe future of JAK inhibition in myelofibrosis and beyond
p101
F0.001
sVAdvances in allergic skin disease, anaphylaxis, and hypersensitivity reactions to foods, drugs, and insects
p102
F0.001
sVThe value of routine radiography in patients with knee osteoarthritis consulting primary health care: a study of agreement
p103
F0.001
sVMonitoring of fluid changes in hospitalized, Malnourished, Guatemalan children using bioelectrical impedance spectroscopy (BIS).
p104
F0.001
sVDecision analysis for small, asymptomatic intracranial arteriovenous malformations
p105
F0.001
sV[Changes in plasma concentrations of human hepatocyte growth factor before and after major intra-abdominal surgery under nitrous oxide-sevoflurane anesthesia].
p106
F0.001
sVA 23-year-old Hispanic migrant fieldworker who presents with a painful rash on his limbs, trunk, and face. Guttate psoriasis.
p107
F0.001
sV[Medical and psychosocial care needs of cancer patients: a systematic review comparing urban and rural provisions].
p108
F0.001
sV[Autologous stem cell therapy with surgical myocardial revascularization].
p109
F0.001
sVTiao-She nursing of traditional Chinese medicine for mild cognitive disorder: An assessment of clinical evidence
p110
F0.001
sVCoping with arthritis using safer herbal options
p111
F0.001
sVFollistatin-like protein 1 regulates chondrocyte proliferation and chondrogenic differentiation of mesenchymal stem cells
p112
F0.001
sV[Methicillin-resistant Staphylococcus aureus forming the fried egg appearance colonies isolated from a patient with septicemia]
p113
F0.001
sVFrontal and sagittal plane analyses of the stair climbing task in healthy adults aged over 40 years: what are the challenges compared to level walking?
p114
F0.001
sVA community-based trachoma survey: Prevalence and risk factors in the Tigray region of northern Ethiopia
p115
F0.001
sVLocalized deficiencies of folic acid in aerodigestive tissues
p116
F0.001
sVRapid diagnosis of Mycobacterium tuberculosis infection in children using interferon-gamma release assays (IGRAs).
p117
F0.001
sVEvidence that serum levels of the soluble receptor for advanced glycation end products are inversely associated with pancreatic cancer risk: a prospective study.
p118
F0.001
sV[The microclimate of apartments and its hygienic norms]
p119
F0.001
sVQuantitative assessment of the influence of common variations (rs8034191 and rs1051730) at 15q25 and lung cancer risk.
p120
F0.001
sVNew anticoagulants for atrial fibrillation.
p121
F0.001
sV[Osteoporosis prevention in patients with low energy hip fractures hospitalized in the orthopedic department]
p122
F0.001
sV[Assessment of prognostic factors of thoracic synovial sarcoma].
p123
F0.001
sVA Modified Technique for Pulmonary Valve Replacement with a Homograft
p124
F0.001
sVThe choice of whether to participate in a phase I clinical trial: increasing the awareness of patients with cancer. An exploratory study.
p125
F0.001
sVDifference in fascicle behaviors between superficial and deep quadriceps muscles during isometric contractions.
p126
F0.001
sVAnxiety and depression in patients with chronic obstructive pulmonary disease: an open agenda for research.
p127
F0.001
sVLifetime risk of suicide in affective disorders
p128
F0.001
sVIntensive glucose control in the management of diabetes mellitus and inpatient hyperglycemia
p129
F0.001
sVHoarse voice in adults: An evidence-based approach to the 12 minute consultation.
p130
F0.001
sVStress across the life course and depression in a rapidly developing population: the Guangzhou Biobank Cohort Study.
p131
F0.001
sVOutcome of gastric bypass patients.
p132
F0.001
sVThe Antiseptic Efficacy and Tolerability of Lavasept\ufffd 0.04% on Acute Traumatic Wounds
p133
F0.001
sVThe link between smoking and impotence: two decades of evidence.
p134
F0.001
sVAssociation of bleeding, mortality and sex in acute coronary syndromes: the missing triangle.
p135
F0.001
sVStudies with the maximal histamine test.
p136
F0.001
sVBody and Illness: Considering Visayan Filipino Children's Perspectives Within Local and Global Relationships of Inequality
p137
F0.001
sVCytokine profiling of young overweight and obese female African American adults with prediabetes
p138
F0.001
sVBronchial mucus transport velocity in patients receiving propofol and remifentanil versus sevoflurane and remifentanil anesthesia.
p139
F0.001
sVTropical infection after a case of total hip arthroplasty.
p140
F0.001
sVAmerican palm ethnomedicine: a meta-analysis..
p141
F0.001
sVEbus-tbna yields multiple gene analyses and a panel of immunohistochemical stains on routinely prepared cell blocks in non-small cell lung cancer cases
p142
F0.001
sVTakayasu's arteritis with multiple intracranial aneurysms
p143
F0.001
sVAccuracy, risk and the intrinsic value of diagnostic imaging: a review of the cost-utility literature.
p144
F0.001
sVOn the role of pre and post-processing in environmental data mining
p145
F0.001
sVImprovement of action tremor by chronic cortical stimulation
p146
F0.001
sVAerobic fitness testing in patients with chronic low back pain: which test is best?
p147
F0.001
sVCardiac MRI in ischemic heart disease
p148
F0.001
sVAir pollution and risk of urinary bladder cancer in a case-control study in Spain
p149
F0.001
sVOral dimenhydrinate versus placebo in children with gastroenteritis: A randomized controlled trial
p150
F0.001
sVIntravenous cyclophosphamide in patients with chronic systemic inflammatory diseases: morbidity and mortality.
p151
F0.001
sVThe value of breast self-examination: meta-analysis of the research literature.
p152
F0.001
sVEvaluation of a rapidly rotating shift system for tolerance of nurses to nightwork.
p153
F0.001
sVDoes neuraxial anesthesia reduce intraoperative blood loss? A meta-analysis.
p154
F0.001
sVGenetic overlap between diagnostic subtypes of ischemic stroke.
p155
F0.001
sVMalignant lymphomas of the oral region.
p156
F0.001
sVAn official American Thoracic Society systematic review: Influence of psychosocial characteristics on workplace disability among workers with respiratory impairment.
p157
F0.001
sVEfficacy of continuation/maintenance electroconvulsive therapy for the prevention of recurrence of a major depressive episode in adults with unipolar depression: a systematic review.
p158
F0.001
sVEffect of a cooling hood on physiological responses to work in a hot environment
p159
F0.001
sV[Use of statins prior to or following invasive therapy for coronary artery disease].
p160
F0.001
sVRegulating free speech
p161
F0.001
sVLife stress and the long-term treatment course of recurrent depression: III. Nonsevere life events predict recurrence for medicated patients over 3 years
p162
F0.001
sV[Indirect anastomoses for moyamoya disease].
p163
F0.001
sV[New aspects in hernia surgery].
p164
F0.001
sVForensic odontology: A prosthodontic view
p165
F0.001
sVThe effectiveness of N-acetylcysteine in preventing contrast-induced nephropathy in patients undergoing contrast-enhanced computed tomography: a meta-analysis of randomized controlled trials (Provisional abstract)
p166
F0.001
sVDiagnostic accuracy of endoscopic ultrasound-guided fine-needle aspiration for solid pancreatic lesion: a systematic review.
p167
F0.001
sVEffect of a creative-bonding intervention on Taiwanese nursing students' self-transcendence and attitudes toward elders.
p168
F0.001
sVGhrelin improves left ventricular dysfunction and cardiac cachexia in heart failure.
p169
F0.001
sVNon-steroidal anti-inflammatory drugs and the risk of cardiovascular diseases: are we going to see the revival of cyclooxygenase-2 selective inhibitors?. [Review] [23 refs]
p170
F0.001
sVImplementing participatory intervention and research in communities: lessons from the Kahnawake Schools Diabetes Prevention Project in Canada
p171
F0.001
sVExposure to second-hand smoke and the risk of tuberculosis in children and adults: a systematic review and meta-analysis of 18 observational studies.
p172
F0.001
sVChiropractic vertebral subluxations
p173
F0.001
sVOutcomes from patients with multi-vessel disease following primary PCI: staged PCI imparts very low mortality.
p174
F0.001
sVEvaluation of technical quality of endodontic treatment--reliability of intraoral radiographs.
p175
F0.001
sVThe role of viral infection in pulmonary exacerbations of     bronchiectasis in adults: a prospective study
p176
F0.001
sVMeta-analysis of the influence of I148M variant of patatin-like phospholipase domain containing 3 gene (PNPLA3) on the susceptibility and histological severity of nonalcoholic fatty liver disease.
p177
F0.001
sVAssessing quality of life in patients after partial laryngectomy
p178
F0.001
sVBiofeedback dialysis for hypotension and hypervolemia: a systematic review and meta-analysis.
p179
F0.001
sVCurrent status of diagnostic and therapeutic endoscopic ultrasonography
p180
F0.001
sVCognitive Outcome of Pediatric Moyamoya Disease.
p181
F0.001
sVPolycystic ovary syndrome (PCOS) and other androgen excess-related conditions: can changes in dietary intake make a difference?
p182
F0.001
sVRadiographic detection of artificially created horizontal root fracture using different cone beam CT units with small fields of view.
p183
F0.001
sVUses of the electrical skin resistance method in the study of patients with neck and upper extremity pain
p184
F0.001
sVOverweight and obesity in young and middle age and early retirement: the ARIC study
p185
F0.001
sVChronic heart failure: Current guideline recommendations and innovations. [German]
p186
F0.001
sVThe Family Contract Game: Technique and case study
p187
F0.001
sVA multinational study of thromboprophylaxis practice in critically ill children.
p188
F0.001
sVRehabilitation of swallowing by exercise in tube-fed patients with pharyngeal dysphagia secondary to abnormal UES opening.
p189
F0.001
sVIs prolonged use of computer games a risk factor for deep venous thrombosis in children?
p190
F0.001
sVEarly and late mortality in hospitalised patients with raised cardiac troponin T.
p191
F0.001
sVSpatial measures associated with stair use
p192
F0.001
sVComparison between incidental malignant and benign breast lesions detected by computed tomography: a systematic review.
p193
F0.001
sVWeb-based nutrition education intervention improves self-efficacy and self-regulation related to increased dairy intake in college students
p194
F0.001
sVTuberculosis and high altitude. Worth a try in extensively drug-resistant tuberculosis?
p195
F0.001
sVCost-effectiveness of statins for primary prevention in patients newly diagnosed with type 2 diabetes in the Netherlands
p196
F0.001
sVEarly prenatal survival in relation to the parental environment in sheep: A review
p197
F0.001
sVChanging tides: improving outcomes through mentorship on all levels of nursing
p198
F0.001
sVPreferences and practices of Americans and their physicians in antihypertensive therapy
p199
F0.001
sVThe impact of advancing age on P-glycoprotein expression and activity: current knowledge and future directions
p200
F0.001
sVComparison between oral antibiotics and probiotics as bowel preparation for elective colon cancer surgery to prevent infection: prospective randomized trial.
p201
F0.001
sVEfficacy and safety of NMDA receptor antagonists augmentation therapy for schizophrenia: An updated meta-analysis of randomized placebo-controlled trials
p202
F0.001
sVHow assistive technology use by individuals with disabilities impacts their caregivers: a systematic review of the research evidence.
p203
F0.001
sVDroperidol vs metoclopramide for prophylaxis of postoperative nausea and vomiting after breast cancer surgery
p204
F0.001
sVA guide to physiotherapy in cerebral palsy
p205
F0.001
sVComplication rate of endosonography (endobronchial and endoscopic ultrasound): a systematic review.
p206
F0.001
sVFunctionality and feedback: a protocol for a realist synthesis of the collation, interpretation and utilisation of PROMs data to improve patient care
p207
F0.001
sVBehaviour change interventions to promote prescribing of generic drugs: a rapid evidence synthesis and systematic review.
p208
F0.001
sVEffects of a three-month combined training program on the cardiopulmonary and muscle strength capacities of type 2 diabetic subjects.
p209
F0.001
sVImpact of diet restriction and/or resistance training on physical capacity in obese older women...7th World Congress on Aging and Physical Activity
p210
F0.001
sV[The use of ethonium paste in the treatment of deep dental caries].
p211
F0.001
sV[Pelvic floor training for women with urinary incontinence].
p212
F0.001
sVA randomized controlled trial of paracetamol versus morphine for the treatment of acute painful crisis of sickle cell disease
p213
F0.001
sVRespiratory syncytial virus prophylaxis: cost-effective analysis in Argentina (Structured abstract)
p214
F0.001
sVExplosive power and asymmetry in leg muscle function in frequent fallers and non-fallers aged over 65
p215
F0.001
sVDisseminated lymphoma with large granular lymphocyte morphology diagnosed in a horse via abdominal fluid and transtracheal wash cytology.
p216
F0.001
sVConstructing differences: A qualitative analysis of teachers\ufffd\u06ea perspectives on linguistic and cultural diversity
p217
F0.001
sVCan moxibustion, an ancient treatment modality, be evaluated in a double-blind randomized controlled trial? - A narrative review
p218
F0.001
sVPrevalence, molecular characterization, and phenotypic confirmation of extended-spectrum beta-lactamases in Escherichia coli, Klebsiella pneumoniae, and Klebsiella oxytoca at the Radboud University Nijmegen Medical Centre in The Netherlands
p219
F0.001
sVMagnetic resonance imaging evaluation of bone marrow changes in obstructive sleep apnoea syndrome in adults
p220
F0.001
sVAntimicrobial susceptibility among Gram-positive organisms collected from pediatric patients globally between 2004 and 2011: results from the Tigecycline Evaluation and Surveillance Trial
p221
F0.001
sVTreatment of large vessel vasculitis
p222
F0.001
sVCyclin d1 gene expression in oral mucosa of tobacco chewers"-an immunohistochemical study.
p223
F0.001
sVTimely access to specialist medical oncology services closer to home for rural patients: experience from the Townsville Teleoncology Model.
p224
F0.001
sV[Severe exposure to environmental lead in a child population in Antofagasta, Chile]
p225
F0.001
sVSystematic review of economic aspects of alternative modes of delivery
p226
F0.001
sVA comprehensive assessment of maternal deaths in Argentina: translating multicentre collaborative research into action.
p227
F0.001
sVExercise-induced flow limitation, dynamic hyperinflation and exercise capacity in patients with bronchial asthma.
p228
F0.001
sVAre physicians and patients in agreement? Exploring dyadic concordance
p229
F0.001
sVSay yes? Say no?
p230
F0.001
sVBone density and body composition in young women with chronic fatigue syndrome.
p231
F0.001
sVImpact of seasonality on recruitment, retention, adherence, and outcomes in a web-based smoking cessation intervention: randomized controlled trial
p232
F0.001
sVCampfire burns in children: an Australian experience.
p233
F0.001
sVSpecific collaborative group intervention for patients with medically unexplained symptoms in general practice: A cluster randomized controlled trial
p234
F0.001
sVUnique monoclonal antibodies specifically bind surface structures on human fetal erythroid blood cells.
p235
F0.001
sVBody mass index and outcome of ASC-H-interpreted cervical smears in postmenopausal women.
p236
F0.001
sVSystematic review of occupational engagement and health outcomes among community-dwelling older adults
p237
F0.001
sVFast-food habits, weight gain, and insulin resistance (the CARDIA study): 15-year prospective analysis.
p238
F0.001
sVMediterranean diet and metabolic syndrome: an updated systematic review.
p239
F0.001
sVChanges in renal blood flow measured by radionuclide angiography following exhausting exercise in humans.
p240
F0.001
sVAlcohol-related road traffic injuries in Eldoret, Kenya
p241
F0.001
sVTHE BRITISH MEDICAL ASSOCIATION.: SEVENTY-EIGHTH ANNUAL MEETING IN LONDON
p242
F0.001
sVUsefulness of a Survey on Underage Drinking in a Rural American Indian Community Health Clinic
p243
F0.001
sVEducating Emergent Bilinguals: Policies, Programs, and Practices for English Language Learners. Language & Literacy Series
p244
F0.001
sVHuman papillomavirus infection and increased risk of HIV acquisition. A systematic review and meta-analysis.
p245
F0.001
sVMapping Curriculum to Ed Tech and Industry Standards
p246
F0.001
sVDisruption of the gastroesophageal junction by central obesity and waist belt: role of raised intra-abdominal pressure.
p247
F0.001
sVMuscle variables of importance for physiological performance in competitive football.
p248
F0.001
sVMonoaxial versus polyaxial locking systems: a biomechanical analysis of different locking systems for the fixation of proximal humeral fractures
p249
F0.001
sVA performance improvement process to tackle tachysystole
p250
F0.001
sVAge-related driving disorders: screening in hospitals and outpatients settings.
p251
F0.001
sVDefinitive radiotherapy for T1 glottic squamous cell carcinoma: a 15-year Cruces University Hospital experience
p252
F0.001
sVProtein kinase CK-1 inhibitors as new potential drugs for amyotrophic lateral sclerosis.
p253
F0.001
sVCost implications for missed malnutrition diagnoses in patients hospitalised with an exacerbation of chronic obstructive pulmonary disease (COPD)
p254
F0.001
sVGroup physiotherapy provides similar outcomes for participants after joint replacement surgery as 1-to-1 physiotherapy: a sequential cohort study.
p255
F0.001
sVWITHDRAWN: Zinc for the common cold.
p256
F0.001
sVThe situation of Romanian HIV-positive adolescents: Results from the first national representative survey
p257
F0.001
sVPancreatic surgery. A paradigm for progress in the age of the bottom line
p258
F0.001
sVMethodology to estimate building energy consumption using EnergyPlus Benchmark Models
p259
F0.001
sVA pilot study of rituximab in patients with recurrent, classic Hodgkin disease.
p260
F0.001
sVPublic health impact of the 1992 Los Angeles civil unrest
p261
F0.001
sVStreptococcus pneumoniae carriage in the Gaza strip
p262
F0.001
sVDetecting and monitoring the symptoms of Parkinson's disease using smartphones: A pilot study.
p263
F0.001
sVThe effect of preservation solutions for storage of liver allografts on transplant outcomes: a systematic review and meta-analysis.
p264
F0.001
sVConsiderations for the diagnosis and treatment of testosterone deficiency in elderly men.
p265
F0.001
sVTobacco-related scenes in television dramas for young Japanese audiences
p266
F0.001
sVDisparities in childhood asthma hospitalizations: A spatial analysis of contextual effects
p267
F0.001
sVMicroRNAs: a new piece in the paediatric cardiovascular disease puzzle.
p268
F0.001
sVNeighbourhood characteristics and mortality in the Atherosclerosis Risk in Communities Study
p269
F0.001
sVBruxismo em crian\u0324as Bruxism in children
p270
F0.001
sVComplicated skin and soft tissue infection.
p271
F0.001
sVCastor oil, bath and/or enema for cervical priming and induction of labour
p272
F0.001
sV[Limited experience in adrenocortical function tests in infants].
p273
F0.001
sVClinical pharmacokinetics of Icotinib, an anti-cancer drug: evaluation of dose proportionality, food effect, and tolerability in healthy subjects.
p274
F0.001
sVExperiences of African-American Women with Smartphone-Based Ecological Momentary Assessment.
p275
F0.001
sVObesity from cradle to grave.
p276
F0.001
sVProximal migration of a 5 French pancreatic stent during bile stone extraction: a successful retrieval using mini-snare
p277
F0.001
sVAlveolar soft part sarcoma of the uterine corpus. Report of two cases and review of the literature
p278
F0.001
sVAdherence to fesoterodine in women with overactive bladder in routine clinical practice.
p279
F0.001
sVThe effect of a cervical lateral glide on the upper limb neurodynamic test: a blinded, placebo-controlled investigation
p280
F0.001
sVSafety, tolerability and sustained weight loss over 2 years with the once-daily human GLP-1 analog, liraglutide.
p281
F0.001
sVFat and neurosurgery: does obesity affect outcome after intracranial surgery?
p282
F0.001
sV[Evaluation of treatment outcomes in tuberculosis of knee and hip joints in 2005-2012].
p283
F0.001
sVImpact of clinical pharmacist intervention on diabetes-related outcomes in a military treatment facility
p284
F0.001
sVAntidiabetic oral treatment in older people: does frailty matter?
p285
F0.001
sVOur Health Counts -- Unmasking Health and Social Disparities among Urban Aboriginal People in Ontario.
p286
F0.001
sVWilliam H. Taft High School Project HOLA, 1985-1986. OEA Evaluation Report.
p287
F0.001
sVAwareness of deficits and on-road driving performance
p288
F0.001
sVLatex allergy in atopic children.
p289
F0.001
sVImpact of hepatitis C on survival in dialysis patients: A link with cardiovascular mortality?.
p290
F0.001
sVMyocardial scar differences between polymorphic and monomorphic ventricular events in ischemic cardiomyopathy: A contrast-enhanced magnetic resonance imaging
p291
F0.001
sVResponses to open peer commentaries on "the subjective brain, identity, and neuroethics"
p292
F0.001
sVCuneus and fusiform cortices thickness is reduced in trigeminal neuralgia.
p293
F0.001
sVPremature androgenic alopecia and insulin resistance. Male equivalent of polycystic ovary syndrome?
p294
F0.001
sVCognitive deficits and psychosis in Parkinson's disease: A review of pathophysiology and therapeutic options
p295
F0.001
sVScar Management Practice and Science: A Comprehensive Approach to Controlling Scar Tissue and Avoiding Hypertrophic Scarring.... Reprinted and adapted with permission from Wound Healing South Africa and Medpharm. Widgerow AD. Scar management-marrying the practical with the science. Wound Heal South Afr 2010;3(1):7-10
p296
F0.001
sVAntiplatelet therapy in patients with ST-elevation myocardial infarction undergoing myocardial revascularisation: Beyond clopidogrel.
p297
F0.001
sVDuane retraction syndrome associated with oculocutaneous albinism: an ocular miswiring.
p298
F0.001
sVMolecular detection of hepatitis B virus: Recent developments
p299
F0.001
sVHistorical misrepresentation in science: the case of fetal alcohol syndrome
p300
F0.001
sV[Noninvasive prenatal diagnosis of trisomy 21, 18 and 13 using cell-free fetal DNA]
p301
F0.001
sVThe NADPH oxidase-mediated production of hydrogen peroxide (H(2)O(2)) and resistance to oxidative stress in the necrotrophic pathogen Alternaria alternata of citrus.
p302
F0.001
sVWhy What We Teach Depends on When: Grade and Reading Intervention Modality Moderate Effect Size.
p303
F0.001
sVImmunotherapy for autoimmune autonomic ganglionopathy
p304
F0.001
sVAdolescent overscheduling: The relationship between levels of participation in scheduled activities and self-reported clinical symptomology
p305
F0.001
sVMultisystemic Therapy for social, emotional, and behavioral problems in youth aged 10-17
p306
F0.001
sVLessons learned and not learned from the SUPPORT project.
p307
F0.001
sVPrevention of phantom pain after major lower limb amputation by epidural infusion of diamorphine, clonidine and bupivacaine
p308
F0.001
sVMultiple endocrine neoplasia type 1 with multiple leiomyomas linked to a novel mutation in the MEN1 gene
p309
F0.001
sVDyspareunia and sexual dysfunction following vaginal delivery in thai primiparous women with second degree perineal tear: A prospective cohort study
p310
F0.001
sVThe endoplasmic reticulum-associated VP7 of rotavirus is targeted to axons and dendrites in polarized neurons
p311
F0.001
sVComparison of 3D OS-EM and 4D MAP-RBI-EM reconstruction algorithms for cardiac motion abnormality classification using a motion observer.
p312
F0.001
sVThe effect of lymphatico-venous anastomosis for an intractable ulcer at the lower leg in a marked obese patient.
p313
F0.001
sVSemi-automated scoring of pulmonary emphysema from X-ray CT: trainee reproducibility and accuracy.
p314
F0.001
sVImproving end-of-life care for patients with chronic obstructive pulmonary disease.
p315
F0.001
sVProlonged early antibiotic use and bronchopulmonary dysplasia in very low birth weight infants
p316
F0.001
sVIs there evidence that barrier membranes prevent bone resorption in autologous bone grafts during the healing period? A systematic review.
p317
F0.001
sVEnvironmental and genomic factors as well as interventions influencing smoking cessation: a systematic review of reviews and a proposed working model.
p318
F0.001
sVSmoking is accompanied by a suppressed cervical nitric oxide release in women with high-risk human papillomavirus infection
p319
F0.001
sVAssociation between genetic polymorphism of tumor necrosis factor-alpha and risk of oral submucous fibrosis, a pre-cancerous condition of oral cancer.
p320
F0.001
sVDoppler-derived flow pattern in the descending aorta does not predict systemic to pulmonary arterial collateral flow in patients with single ventricle palliation: a cross-sectional study.
p321
F0.001
sVFamily care giving in the context of HIV/AIDS in Africa
p322
F0.001
sV[Dinggui Oil Capsule in treating irritable bowel syndrome with stagnation of qi and cold: a prospective, multi-center, randomized, placebo-controlled, double-blind trial]
p323
F0.001
sVEfficacy of prolonged administration of intravenous erythromycin in an ambulatory setting as treatment of severe gastroparesis: one center's experience
p324
F0.001
sVA meta-analytic review of exposure in group cognitive behavioral therapy for posttraumatic stress disorder.
p325
F0.001
sVImpact of education and provision of complementary feeding on growth and morbidity in children less than 2 years of age in developing countries: a systematic review.
p326
F0.001
sVTrends in the quality of data from 5168 oligonucleotide microarrays from a single facility
p327
F0.001
sVLetter by Raposeiras-Roubin et al regarding article, "mortality associated with atrial fibrillation in patients with myocardial infarction: a systematic review and meta-analysis".
p328
F0.001
sVAsymmetric inheritance of mitochondrial content in aging budding yeast cells
p329
F0.001
sVIn vivo effects of different anesthetic agents on apoptosis.
p330
F0.001
sVStudies on the biological activity of two strains of BCG: influence of production conditions.
p331
F0.001
sVAlkaline phosphatase activity of duodenal enterocytes after neonatal administration of monosodium glutamate to rats.
p332
F0.001
sVSchool Climate and Students' Early Mathematics Learning: Another Search for Contextual Effects.
p333
F0.001
sVEczema - quiz.
p334
F0.001
sVLosing life and livelihood: a systematic review and meta-analysis of unemployment and all-cause mortality.
p335
F0.001
sVPulmonary rehabilitation for chronic obstructive pulmonary disease: a pilot study evaluating a once-weekly versus twice-weekly supervised programme.
p336
F0.001
sVPosterior lumbar interbody fusion versus posterolateral fusion with instrumentation in the treatment of low-grade isthmic spondylolisthesis: midterm clinical outcomes
p337
F0.001
sVJournal of Health Communication : International Perspectives The Effect of an Internet-Based , Stage- Matched Message Intervention on Young Taiwanese Women ' s Physical Activity
p338
F0.001
sVStapled haemorrhoidopexy for the treatment of haemorrhoids: a systematic review.
p339
F0.001
sVHelicobacter pylori antibiotic resistance patterns and genotypes in adult dyspeptic patients from a regional population in North Wales
p340
F0.001
sVDispersal of methicillin-resistant Staphylococcus epidermidis by staff in an operating suite for thoracic and cardiovascular surgery: relation to skin carriage and clothing
p341
F0.001
sVPosterior positional plagiocephaly treated with cranial remodeling orthosis.
p342
F0.001
sVThe effects of 4-aminopyridine on neurological deficits in chronic cases of traumatic spinal cord injury in dogs: A phase I clinical trial
p343
F0.001
sVRight ventricular outflow tract reconstruction with decellularized porcine xenografts in patients with congenital heart disease.
p344
F0.001
sVThe Effects of Pre-Reading and Sharing Mechanisms on Learning with the Use of Annotations
p345
F0.001
sVReview of epidemiology and management of atrial fibrillation in developing countries.
p346
F0.001
sVPilot randomized controlled trial of web-based acceptance and commitment therapy for smoking cessation.
p347
F0.001
sVHuman african trypanosomiasis diagnosis in first-line health services of endemic countries, a systematic review.
p348
F0.001
sVSoleus Hoffmann-reflex modulation during walking in healthy elderly and young adults.
p349
F0.001
sVA re-appraisal of screening for colour vision impairments
p350
F0.001
sVAntimalarial agents: Are we running out of options?
p351
F0.001
sVComparison of energy balance-related behaviours and measures of body composition between Turkish adolescents in Turkey and Turkish immigrant adolescents in the Netherlands.
p352
F0.001
sVSpontaneous pneumomediastinum in a healthy adolescent.
p353
F0.001
sVA meta-analysis of alcohol drinking and oral and pharyngeal cancers. Part 2: results by subsites.
p354
F0.001
sVConsciousness, coma, and caring for the brain-injured patient.
p355
F0.001
sVThe Effects of Cognitive Coaching and Nonverbal Classroom Management on Teacher Efficacy and Perceptions of School Culture.
p356
F0.001
sVGenetic and phenotypic determinants of blood pressure and other cardiovascular risk factors (GAPP)
p357
F0.001
sVReview of prasugrel for the secondary prevention of atherothrombosis.
p358
F0.001
sVNo need for routine closed suction drainage in elective arthroplasty of the hip: a prospective randomized trial in 104 operations
p359
F0.001
sVHypothalamic obesity in children.
p360
F0.001
sVPredicting infection in localized intraabdominal fluid collections: value of pH and pO2 measurements.
p361
F0.001
sVOptimal Starting Age for School Attendance: FY76 Issue Analysis
p362
F0.001
sVWomen's sexuality in the South African constitutional court
p363
F0.001
sVCombined pharmacotherapy and psychological treatment for depression: a systematic review.
p364
F0.001
sVA randomized, double-blind, placebo controlled triphosphate in study of oral adenosine subacute low back pain
p365
F0.001
sVEvaluation of a workshop on evidence-based medicine for social insurance physicians.
p366
F0.001
sVClinical comparison of the effects of nimesulide and ibuprofen on fever in children. [Chinese]
p367
F0.001
sVDiabetes and other comorbidities in breast cancer survival by race/ethnicity: The California breast cancer survivorship consortium (CBCSC)
p368
F0.001
sVLong term follow-up of conservative treatment of severely traumatized maxillary incisors
p369
F0.001
sV[Procalcitonin as an early marker of sepsis]
p370
F0.001
sVStereotactic radiosurgery for spinal metastases: a literature review. [Review]
p371
F0.001
sVCombined use of caudal bupivacaine and rectal diclofenac is not superior to the use of each analgesic regimen alone
p372
F0.001
sVExercise-induced changes of the upper extremity in chronic stroke survivors
p373
F0.001
sVRituximab-related viral infections in lymphoma patients.
p374
F0.001
sVEffects of Test Administrator Characteristics on Achievement Test Scores
p375
F0.001
sVThe psychiatric comorbidity of epilepsy.
p376
F0.001
sVPulsed cyclophosphamide, thalidomide and dexamethasone: an oral regimen for previously treated patients with multiple myeloma.
p377
F0.001
sVPrediction Study of Complications After Severe Trauma
p378
F0.001
sVEarly ankle mobilization, Part I: The immediate effect on acute, lateral ankle sprains (a randomized clinical trial)
p379
F0.001
sVPrognostic value of morning blood pressure surge in clinical events: a meta-analysis of longitudinal studies.
p380
F0.001
sVCardiac atrophy in women following bed rest
p381
F0.001
sVLow prevalence and increased household clustering of Mycobacterium tuberculosis infection in high altitude villages in Peru.
p382
F0.001
sVGalphai generates multiple Pins activation states to link cortical polarity and spindle orientation in Drosophila neuroblasts
p383
F0.001
sVEfficacy, immunogenicity, and safety of a pentavalent human-bovine (WC3) reassortant rotavirus vaccine at the end of shelf life
p384
F0.001
sVInhaled anticholinergics and risk for acute urinary retention: A case-crossover and case-time-control study
p385
F0.001
sVA review of cyanoacrylate liquid skin protectant and its efficacy on pedal fissures
p386
F0.001
sVChanges in glucose tolerance over time in women with polycystic ovary syndrome: a controlled study
p387
F0.001
sVHormonal and dietary characteristics in obese human subjects with and without food addiction.
p388
F0.001
sVRandomized, double-blind, placebo-controlled trial of the 5-HT1A receptor antagonist AZD7371 tartrate monohydrate (robalzotan tartrate monohydrate) in patients with irritable bowel syndrome
p389
F0.001
sVDiabetes incidence in Pima indians: contributions of obesity and parental diabetes.
p390
F0.001
sVHere to stay. An interview with Dr. David Satcher, Director, U.S. Centers for Disease Control and Prevention.
p391
F0.001
sV[Studies on cefotaxime (HR 756) concentration in human biliary tract and clinical effect for acute or subacute cholecystitis with cholelithiasis (author's transl)]
p392
F0.001
sVIntra-mandibular adenoid cystic carcinoma.
p393
F0.001
sVVentricular fibrillation in acute mitral valve insufficiency caused by chordae tendineae rupture: report of a surgically corrected case.
p394
F0.001
sVDeterminants of drug response in a cisplatin-resistant human lung cancer cell line.
p395
F0.001
sVMethodological Review of the Quality of Reach Out and Read: Does It &quot;Work&quot;?
p396
F0.001
sVA balancing act of the brain: activations and deactivations driven by cognitive load.
p397
F0.001
sVRemote presence proctoring by using a wireless remote-control videoconferencing system
p398
F0.001
sVCervical occupational hazards in ophthalmic plastic surgery
p399
F0.001
sVLung function efficacy of olodaterol qd delivered via respimat\ufffd vs placebo and formoterol bid in patients with COPD: two 48-week studies [Abstract]
p400
F0.001
sVPrimary vaginal cancer and chemoradiotherapy: a patterns-of-care analysis
p401
F0.001
sVBurkholderia cepacia complex infection in a case of sinonasal polyposis recurrence without cystic fibrosis
p402
F0.001
sVComparison of tunnel positions in single-bundle anterior cruciate ligament reconstructions using computer navigation.
p403
F0.001
sVBound for success: a systematic review of constraint-induced movement therapy in children with cerebral palsy supports improved arm and hand use (Structured abstract)
p404
F0.001
sVChild sexual abuse as a risk factor for sexual risk behaviours among socially disadvantaged adolescents in Ibadan, Nigeria.
p405
F0.001
sVSupport for nutrition from the older Americans act programs: a clarification on its 40th anniversary
p406
F0.001
sVThe Impact of Culture on Learning: Exploring Student Perceptions
p407
F0.001
sVA meta-analysis of labor supply effects of interventions for major depressive disorder.
p408
F0.001
sVCompetencies for undergraduate community-based education for the health professions - A systematic review.
p409
F0.001
sVPhenotypic analysis of misato function reveals roles of noncentrosomal microtubules in Drosophila spindle formation
p410
F0.001
sVEconomic evaluation of inhaled nitric oxide in preterm infants undergoing mechanical ventilation
p411
F0.001
sVMeta-analyses of experimental data in animal nutrition.
p412
F0.001
sVIdentification of a novel missense (C7W) mutation of SOD1 in a large familial amyotrophic lateral sclerosis pedigree.
p413
F0.001
sVMobilisation with movement and exercise, corticosteroid injection, or wait and see for tennis elbow
p414
F0.001
sVManagement of hemorrhage complicated by novel oral anticoagulants in the emergency department: Case report from the northwestern emergency medicine residency
p415
F0.001
sVAzathioprine for multiple sclerosis
p416
F0.001
sVMold contamination in a controlled hospital environment: a 3-year surveillance in southern Italy
p417
F0.001
sVPreval\u033bncia de bruxismo e dist\u033crbio do sono em deficientes visuais Prevalence of bruxism and sleep disorders in the visually impaired individuals
p418
F0.001
sVGiant-cell tumour of the knee: the condition of the cartilage after treatment by curettage and cementing
p419
F0.001
sVA systematic review on the application of cardiovascular risk prediction models in pharmacoeconomics, with a focus on primary prevention.
p420
F0.001
sVUsing a social communication intervention to improve the social interactions and employment experiences of adolescents with high functioning autism spectrum disorders
p421
F0.001
sV[Effects of hand acupuncture therapy on sleep quality in sleep disrupted adults: verification by polysomnography and cerebral blood flow test]
p422
F0.001
sVPan-Canadian study of mammography screening and mortality from breast cancer.
p423
F0.001
sVCritique that! Analytical Writing Assignments in Advanced Mathematics Courses
p424
F0.001
sVHospitalized heart failure patients with preserved vs. reduced     ejection fraction in Dubai, United Arab Emirates: a prospective     study
p425
F0.001
sVPharmacological treatments for obsessive-compulsive disorder in children and adolescents: a qualitative review.
p426
F0.001
sVHearing feelings: a quantitative meta-analysis on the neuroimaging literature of emotional prosody perception.
p427
F0.001
sVStroke in children with posterior fossa brain malformations, hemangiomas, arterial anomalies, coarctation of the aorta and cardiac defects, and eye abnormalities (PHACE) syndrome: A systematic review of the literature.
p428
F0.001
sVSevoflurane postconditioning converts persistent ventricular fibrillation into regular rhythm.
p429
F0.001
sVFACTORS ASSOCIATED WITH SELF-WORTH IN YOUNG PEOPLE WITH PHYSICAL DISABILITIES
p430
F0.001
sVPersonality profile and exercise dependence
p431
F0.001
sVAssociation of transforming growth factor-\ufffd_1\ufffd\ufffd\ufffdT869C, G915C, and C509T gene polymorphisms with rheumatoid arthritis risk.
p432
F0.001
sVLong-term effects of spontaneous breathing during ventilatory support in patients with acute lung injury
p433
F0.001
sVModification of aspects of the endocrine response to tracheal intubation by lignocaine, halothane and thiopentone.
p434
F0.001
sVSustained complete remission of a limited-stage blastic plasmacytoid dendritic cell neoplasm followed by a simultaneous combination of low-dose DeVIC therapy and radiation therapy: a case report and review of the literature.
p435
F0.001
sVA comparative outcome study of body awareness therapy, feldenkrais, and conventional physiotherapy for patients with nonspecific musculoskeletal disorders: Changes in psychological symptoms, pain, and self-image
p436
F0.001
sVAssociation of diet, exercise, and smoking modification with risk of early cardiovascular events after acute coronary syndromes.
p437
F0.001
sVQuantitative Analysis of Robustness of Dynamic Response and Signal Transfer in Insulin mediated PI3K/AKT Pathway.
p438
F0.001
sVBrain BDNF levels elevation induced by physical training is reduced after unilateral common carotid artery occlusion in rats.
p439
F0.001
sVContents List
p440
F0.001
sVHaemodynamic ischaemia in paediatric moyamoya disease associated with renovascular hypertension.
p441
F0.001
sVInappropriate use of emergency services: a systematic review of prevalence and associated factors.
p442
F0.001
sV[Occupational exposure to sevoflurane in pediatric operating rooms: the multi-point sampling method for risk assessment].
p443
F0.001
sVCompartmentalization of Fas and Fas ligand may prevent auto- or paracrine apoptosis in epithelial cells
p444
F0.001
sVComparative in vitro performance of three small-volume valved holding chambers with beclomethasone/formoterol pressurized metered dose inhaler.
p445
F0.001
sV[Glycosylated hemoglobin and glycosylated proteins for metabolic control of diabetes mellitus]
p446
F0.001
sVSymptoms tell it all: a systematic review of the value of symptom assessment to predict survival in advanced cancer patients.
p447
F0.001
sVDiagnosis of peripheral lung cancer with three echoic features via endobronchial ultrasound
p448
F0.001
sVSpectrum and frequency of illness presenting to a pediatric emergency department.
p449
F0.001
sVMultiresistance of clinically relevant gram-positive cocci
p450
F0.001
sVNon-steroidal anti-inflammatory drugs and myocardial infarctions: comparative systematic review of evidence from observational studies and randomised controlled trials.
p451
F0.001
sVinternetQueryObject to Partner With DataFlux; iQO to Provide Enhanced Application Scalability through QueryObject System; DataFlux to Enhance Data Accuracy through dfPower
p452
F0.001
sVPersistence of profenophos and quinolphos on cultivated cucumber and its removal
p453
F0.001
sVA comparison of recovery characteristics of sevoflurane and propofol-remifentanil anesthesia in geriatric patients
p454
F0.001
sVChanges in the temporomandibular joint disc position after orthognathic surgery.
p455
F0.001
sVSpecific plasma factors blocking human maternal cell-mediated immune reaction to placental antigens.
p456
F0.001
sVFc receptor-like 3 (FCRL3) -169 C/T polymorphism and systemic lupus erythematosus: A meta-analysis.
p457
F0.001
sVA systematic review of the surgical treatment of large incisional hernia.
p458
F0.001
sVDisordered eating, acculturation, and treatment-seeking in a community sample of Hispanic, Asian, Black, and White women
p459
F0.001
sVHRQoL after coronary artery bypass grafting and percutaneous coronary intervention for stable angina.
p460
F0.001
sVFrom task characteristics to learning: A systematic review.
p461
F0.001
sVAssociation between proton pump inhibitor therapy and clostridium difficile infection: a contemporary systematic review and meta-analysis.
p462
F0.001
sVEnhanced meta-analysis of acetylcholine binding protein structures reveals conformational signatures of agonism in nicotinic receptors.
p463
F0.001
sVDirect healthcare costs and cost-effectiveness of acute coronary syndrome secondary prevention with ticagrelor compared to clopidogrel: Economic evaluation from the public payer's perspective in Poland based on the PLATO trial results
p464
F0.001
sVAn internet-based program to enhance motivation to change in females with symptoms of an eating disorder: A randomized controlled trial
p465
F0.001
sVAlcohol-related morbidity and mortality.
p466
F0.001
sVOutcome of patients with severe PH due to lung disease with     and without targeted therapy
p467
F0.001
sVBranching enzyme deficiency: expanding the clinical spectrum.
p468
F0.001
sVRole of non-opioid analgesic techniques in the management of pain after ambulatory surgery
p469
F0.001
sVIntimate Partner Violence Survivors' Unmet Social Service Needs
p470
F0.001
sVUse of a Brief Phone Call After ED Discharge
p471
F0.001
sVApplication of a model based on fuzzy logic for evaluating nursing diagnostic accuracy of students
p472
F0.001
sVThe change in eating disorder symptoms scale: Scale development and psychometric properties
p473
F0.001
sVSonographically guided biopsy of focal lesions: a comparison of freehand and probe-guided techniques using a phantom.
p474
F0.001
sVPlasma cell leukemia--a case report.
p475
F0.001
sVFIGO staging of gynecologic cancer. 1994-1997 FIGO Committee on Gynecologic Oncology. International Federation of Gynecology and Obstetrics
p476
F0.001
sVAnti-hypertensive medicines prescribing for medical outpatients in a premier teaching hospital in Nigeria: a probable shift of paradigm.
p477
F0.001
sVHealth services research methods: a guide to best practice
p478
F0.001
sVOut of harm's way: curbing violence in the ED
p479
F0.001
sVPerceived barriers that impede provider relations and medication delivery: Hospice providers' experiences in nursing homes and private homes
p480
F0.001
sVSorafenib and pegylated interferon-alpha-2b in advanced metastatic melanoma: A multicenter phase II DeCOG trial
p481
F0.001
sVA systematic review on acupuncture for trigeminal neuralgia (Provisional abstract)
p482
F0.001
sVFunctional conservation and divergence of J-domain-containing ZUO1/ZRF orthologs throughout evolution.
p483
F0.001
sVMultiple dural arteriovenous fistulas presenting as rapidly progressive dementia.
p484
F0.001
sVHomeplace and Housing in the Lives of Low-Income Urban African American Families
p485
F0.001
sVIncidence of multi-resistance in gram-negative aerobes from intensive care units of 10 German hospitals.
p486
F0.001
sVModeration of cognition-intention and cognition-behaviour relations: a meta-analysis of properties of variables from the theory of planned behaviour.
p487
F0.001
sVPancytopenia : A rare presentation of legionella pneumonia
p488
F0.001
sVCognitive impairment and risk of cardiovascular events and mortality.
p489
F0.001
sVGeneral public's and physicians' perception of health risk associated with radon exposure in the state of Azad Jammu and Kashmir
p490
F0.001
sVRecovery of postoperative cognitive function in elderly patients after a long duration of desflurane anesthesia: a pilot study.
p491
F0.001
sVFrequency of CDH1 germline mutations in gastric carcinoma coming from high- and low-risk areas: metanalysis and systematic review of the literature.
p492
F0.001
sVGroundbreaking study links physical activity with lower costs in seniors
p493
F0.001
sVMega-ampere submicrosecond generator GIT-32
p494
F0.001
sVAstaxanthin Inhibits JAK/STAT-3 Signaling to Abrogate Cell Proliferation, Invasion and Angiogenesis in a Hamster Model of Oral Cancer.
p495
F0.001
sVThe Role of Radiology in Preclinical Anatomy. A Critical Review of the Past, Present, and Future.
p496
F0.001
sVThe value of transurethral bladder biopsy after intravesical bacillus Calmette-Guerin instillation therapy for nonmuscle invasive bladder cancer: A retrospective, single center study and cumulative analysis of the literature.
p497
F0.001
sVPlasma concentration of asymmetric dimethylarginine and the risk of coronary heart disease: rationale and design of the multicenter CARDIAC study.
p498
F0.001
sVOrganization of ribosomes and nucleoids in escherichia coli cells during growth and in quiescence
p499
F0.001
sVDownregulated E-cadherin expression indicates worse prognosis in Asian patients with colorectal cancer: evidence from meta-analysis.
p500
F0.001
sVBehaviour Research and Therapy Outcome predictors in guided and unguided self-help for social anxiety disorder
p501
F0.001
sVDefining interaction interfaces important for the establishment of cell polarity in Drosophila neuroblasts
p502
F0.001
sVQuality of life factors and survival after total or extended maxillectomy for sinonasal malignancies.
p503
F0.001
sVThree Abstracts on Chinese Research
p504
F0.001
sVDiagnosing acute cardiac ischemia in the emergency department: a systematic review of the accuracy and clinical effect of current technologies.
p505
F0.001
sVAcupuncture anesthesia used in rabbit abdominal operations
p506
F0.001
sVThe role of transforming growth factor-beta-mediated tumor-stroma interactions in prostate cancer progression: An integrative approach
p507
F0.001
sVInfectious diseases. As Ebola wanes, trials jockey for patients.
p508
F0.001
sVDesigning in the social context: Using the social contextual model of health behavior change to develop a tobacco control intervention for teachers in India
p509
F0.001
sV[Blood insulin values after the oral glucose tolerance test (OGTT) and the body composition in 30 obese children].
p510
F0.001
sVThe incidence of contrast-induced nephropathy in trauma patients.
p511
F0.001
sVCharacterizing the sources, range, and environmental influences of radon 222 and its decay products
p512
F0.001
sVPneumonia and encephalopathy in a patient with progressing Parkinson's disease and dementia
p513
F0.001
sVActivation and blockade of beta adrenoceptors in common cardiac disorders
p514
F0.001
sVClassification of autogenous skull grafts in cranial reconstruction
p515
F0.001
sVp16(INK4) Expression is not associated with human papillomavirus in oral lichen planus.
p516
F0.001
sVDescemet's stripping endothelial keratoplasty: safety and outcomes: a report by the American Academy of Ophthalmology
p517
F0.001
sVA biomechanical study of replacement of the posterior cruciate ligament with a graft. Part II: Forces in the graft compared with forces in the intact ligament
p518
F0.001
sVPotential for inter-observer and intra-observer variability in x-ray review to establish stone-free rates after lithotripsy.
p519
F0.001
sVToo little but not too late: results of a literature review to improve routine immunization programs in developing countries
p520
F0.001
sVData mining usage in health care management: literature survey and decision tree application
p521
F0.001
sVNon-surgical treatments for anal fissure in adults.
p522
F0.001
sVReview of Handbook for Working with Children and Youth: Pathways to Resilience across Cultures and Contexts
p523
F0.001
sVDifferences of inter-tract correlations between neonates and children around puberty: a study based on microstructural measurements with DTI.
p524
F0.001
sVDifference in postural control between patients with functional and mechanical ankle instability
p525
F0.001
sVEffect of neuromuscular electrical stimulation and isotonic exercises in flexor and extensor muscles of knee of hemiplegic patients
p526
F0.001
sVTelemedicine in the management of chronic pain: a cost analysis study
p527
F0.001
sVDifferential dendritic cell-mediated activation and functions of invariant NKT-cell subsets in oral cancer.
p528
F0.001
sVThree-year Outcomes in de Novo Liver Transplant Patients     Receiving Everolimus with Reduced Tacrolimus: Follow-Up Results from     a Randomized, Multicenter Study
p529
F0.001
sVNorton, Waterlow and Braden scores: a review of the literature and a comparison between the scores and clinical judgement
p530
F0.001
sVAre tkis still active in patients treated with tki and everolimus? Experience from 36 patients treated in france in the record 1 trial
p531
F0.001
sVVY levator lengthening to treat upper eyelid retraction.
p532
F0.001
sVEffective combination chemotherapy with paclitaxel and cisplatin with or without human granulocyte colony-stimulating factor and/or erythropoietin in patients with advanced gastric cancer.
p533
F0.001
sVNutritional supplementation for hip fracture aftercare in the elderly.
p534
F0.001
sVPreferential expression of T-cell receptor V beta-chains in atopic eczema.
p535
F0.001
sVChild social skills training in developmental crime prevention: effects on antisocial behavior and social competence.
p536
F0.001
sVColoRectal Cancer Predicted Risk Online (CRC-PRO) calculator using data from the Multi-Ethnic Cohort Study.
p537
F0.001
sVPrecocious and delayed sexual development in children
p538
F0.001
sVCost-utility analysis of osteopathy in primary care: results from a pragmatic randomized controlled trial
p539
F0.001
sVDiagnosis and Management of Cutaneous B-cell Lymphoma.
p540
F0.001
sVFetal cleft lip and palate detection by three-dimensional ultrasonography
p541
F0.001
sVA study of out-of-hospital cardiac arrests in northeastern Minnesota
p542
F0.001
sVFluid resuscitation in sepsis: a systematic review and network meta-analysis.
p543
F0.001
sVAn evaluation of ultrasound imaging for identification of lumbar intervertebral level.
p544
F0.001
sVGene analysis of steroid 5 alpha-reductase 1 in hyperandrogenic women
p545
F0.001
sV[Anesthetic gases exposure: findings from a 13 year environmental and biological monitoring in a hospital company].
p546
F0.001
sVEarly predicting of blood component quality by Statistical Process Control
p547
F0.001
sVIntravenous insulin treatment in acute stroke: a systematic review and meta-analysis of randomized controlled trials.
p548
F0.001
sVPreoperative radiotherapy for esophageal carcinoma
p549
F0.001
sVRemission rates following antidepressant therapy with bupropion or selective serotonin reuptake inhibitors: a meta-analysis of original data from 7 randomized controlled trials.
p550
F0.001
sVThe Hierarchical Organization of Intellectual Structures
p551
F0.001
sVClassifying radiographic progression status in early rheumatoid arthritis patients using propensity scores to adjust for baseline differences.
p552
F0.001
sVStress enhances retrieval of drug-related memories in abstinent heroin addicts
p553
F0.001
sVThe embodied nature of medical concepts: Image schemas and language for pain
p554
F0.001
sVThe changing patterns of systemic fluoride intake
p555
F0.001
sVThe parvalbumin-positive interneurons in the mouse dentate gyrus express GABAA receptor subunits \ufffd1, \ufffd_2, and \ufffd along their extrasynaptic cell membrane.
p556
F0.001
sVAntivitamin K drugs in stroke prevention
p557
F0.001
sVPrevalence and antibacterial susceptibility of mef(A)-positive macrolide-resistant streptococcus pneumoniae over 4 years (2000 to 2004) of the PROTEKT US study
p558
F0.001
sVNonsyndromic 46,XX Testicular Disorders of Sex Development
p559
F0.001
sV[New guidelines for bariatric surgery care: practical implications]
p560
F0.001
sVLack of association between the connexin 37 C1019T gene polymorphism and coronary artery disease in a Chinese population: Meta-analysis of 2,206 subjects.
p561
F0.001
sVInteratrial conduction measured during biventricular pacemaker implantation accurately predicts optimal paced atrioventricular intervals.
p562
F0.001
sVSafety and efficacy of weekly nab\ufffd\ufffd\ufffd-paclitaxel in combination with carboplatin as first-line therapy in elderly patients with advanced non-small-cell lung cancer.
p563
F0.001
sVEvaluation of an Internet Support Group for Women with Primary Breast Cancer
p564
F0.001
sVThe ex vivo antimicrobial activity and colonization rate of two antimicrobial-bonded central venous catheters
p565
F0.001
sVThe ROX coupler: Creation of a fixed iliofemoral arteriovenous anastomosis for the treatment of systemic arterial hypertension, exploiting the physical properties of the arterial vasculature.
p566
F0.001
sVDiffusion tensor imaging of deep gray matter in children treated for brain malignancies.
p567
F0.001
sVIntra-operative change of gastric ph during laparotomic cholecystectomy under general anaesthesia: A prospective case-control study
p568
F0.001
sVDose optimization of infliximab in patients with rheumatoid arthritis.
p569
F0.001
sVHow Much Trash Do You Trash?
p570
F0.001
sVMeta-analysis of guided bronchoscopy for the evaluation of the pulmonary nodule.
p571
F0.001
sVInsights in public health: taxing sugar sweetened beverages to improve public health: policy action in Hawai'i. Doctoral Health Policy Seminar, Spring 2013
p572
F0.001
sVLaparoscopic reversal of Hartmann's rectosigmoidectomy
p573
F0.001
sVPreventing injuries through interventions for problem drinking: a systematic review of randomized controlled trials
p574
F0.001
sVImportance of Arsenic and pesticides in epidemic chronic kidney disease in Sri Lanka
p575
F0.001
sVA cognitive behavior intervention program in women with unexplained chest pain--a pilot study
p576
F0.001
sVEpithelial Splicing Regulatory Proteins 1 (ESRP1) and 2 (ESRP2) Suppress Cancer Cell Motility via Different Mechanisms.
p577
F0.001
sVAnalysis of the cochrane review: Biomarkers as point-of-care tests to guide prescription of antibiotics in patients with acute respiratory infections in primary care. cochrane database syst rev. 2014,11:Cd10130
p578
F0.001
sVOne-pot semisynthesis of exon 1 of the Huntingtin protein: new tools for elucidating the role of posttranslational modifications in the pathogenesis of Huntington's disease.
p579
F0.001
sVTransference-focused psychotherapy v. treatment by community psychotherapists for borderline personality disorder: randomised controlled trial.
p580
F0.001
sV[Progress in joint international research of demographic and geographic distribution of insignificant, middle and high-grade tuberculin skin sensitivity].
p581
F0.001
sVReinventing the wheel? Or the emperor's new clothes.
p582
F0.001
sVOsteoporosis in men
p583
F0.001
sVAssociation between interleukin-10 promoter polymorphisms and endometriosis: a meta-analysis.
p584
F0.001
sVMyocardial fibrosis by T1 mapping is an early indicator of severe cardiac allograft vasculopathy
p585
F0.001
sVAcute and Persistent Postoperative Pain after Breast Surgery
p586
F0.001
sVAberrances in autonomic cardiovascular regulation in fibromyalgia syndrome and their relevance for clinical pain reports
p587
F0.001
sVComparison of methods for defining prevalent vertebral deformities: the Study of Osteoporotic Fractures.
p588
F0.001
sVWorking memory, short-term memory, and reading disabilities: a selective meta-analysis of the literature.
p589
F0.001
sVHow to appraise the effectiveness of treatment
p590
F0.001
sVEffect of infliximab on the healing of intestinal anastomosis. An experimental study in rats.
p591
F0.001
sVSingle bolus parecoxib attenuates sore throat after laryngeal microsurgery: A randomized double-blind control study
p592
F0.001
sVPathways of care-seeking during fatal infant illnesses in under-resourced South African settings.
p593
F0.001
sVCombined and sequential treatment of oral and maxillofacial malignancies: an evolving concept and clinical protocol.
p594
F0.001
sVPolymorphisms of the XPC gene may contribute to the risk of head and neck cancer: a meta-analysis.
p595
F0.001
sVSporadic Duane's Retraction Syndrome Associated with Imperforate Anus: Case Report.
p596
F0.001
sVUse of alendronate in peri-implant defect regeneration
p597
F0.001
sVProtective effect of ginsenoside Rb1 against myocardial ischemia/reperfusion injury in streptozotocin-induced diabetic rats
p598
F0.001
sVThe impact of 3D volume of interest definition on accuracy and precision of activity estimation in quantitative SPECT and planar processing methods.
p599
F0.001
sVNovel genetic linkage of rat Sp6 mutation to Amelogenesis imperfecta
p600
F0.001
sVCollaborative practice: development, implementation, and evaluation of a weaning protocol for patients receiving mechanical ventilation
p601
F0.001
sVPatent abstractsnull
p602
F0.001
sVWound care
p603
F0.001
sVGreen tea in dermatology. [Review]
p604
F0.001
sVAssociation of interleukin-10 cytokine expression status with HLA non-DRB1*02 and Mycobacterium bovis BCG scar-negative status in south Indian pulmonary tuberculosis patients.
p605
F0.001
sVRetrograde nailing of humeral shaft fractures
p606
F0.001
sVRelationship between water hardness and coronary mortality in Taiwan
p607
F0.001
sVELDERLY AND PHYSICAL ACTIVITY: BENEFITS AND CHALLENGES IN SEARCH FOR LIFE QUALITY.
p608
F0.001
sVPulpal response to a fluoride-releasing all-in-one resin bonding system.
p609
F0.001
sVEffects of control over office workspace on perceptions of the work environment and work outcomes
p610
F0.001
sVMaxillofacial metastases: a retrospective review of one institution's 15-year experience
p611
F0.001
sVEffect of chewing gun on the promotion of intestinal function recovery after colorectal cancer surgery: A meta-analysis. [Chinese]
p612
F0.001
sVClinical and radiological results of calcium phosphate cement-assisted balloon osteoplasty for Colles' fractures in osteoporotic senile female patients
p613
F0.001
sVAmyloid neuropathies
p614
F0.001
sVType I and II endometrial cancers: have they different risk factors?
p615
F0.001
sVMeasuring the bright side of being blue: a new tool for assessing analytical rumination in depression.
p616
F0.001
sVFactors Predicting Success and Failure for Cervical Facet Radiofrequency Denervation: A Multi-Center Analysis
p617
F0.001
sVPharmacoeconomic Evaluation of Tiotropium Bromide in the Long-Term Treatment of Chronic Obstructive Pulmonary Disease (COPD) in Italy
p618
F0.001
sVCore symptom measures in cancer clinical trials.
p619
F0.001
sVCost-effectiveness of pharmacological and psychosocial interventions for schizophrenia (Structured abstract)
p620
F0.001
sVImpact of endoscopic ultrasonography (EUS) on surgical decision-making in upper gastrointestinal tract cancer: An international multicenter study
p621
F0.001
sVInfusing Tolerance, Diversity, and Social Personal Curriculum into Inclusive Social Studies Classes Using Family Portraits and Contextual Teaching and Learning
p622
F0.001
sVAssessing social isolation in motor neurone disease: a Rasch analysis of the MND Social Withdrawal Scale.
p623
F0.001
sVChallenges in deactivating a total artificial heart for a patient with capacity.
p624
F0.001
sVGlucocorticosteroid treatment of vasogenic oedema
p625
F0.001
sVFollow-up care of patients treated for breast cancer: a structured review
p626
F0.001
sVA growing lesion on the cheek.
p627
F0.001
sVEvidence-based evaluation of therapeutic measures for amyotrophic lateral sclerosis. [Chinese]
p628
F0.001
sVThe combined role of serotonin and interleukin-6 as biomarker for autism
p629
F0.001
sVThe cost of depression-complicated alcoholism: health-care utilization and treatment effectiveness
p630
F0.001
sVBile acid metabolism by fresh human colonic contents: a comparison of caecal versus faecal samples.
p631
F0.001
sVSupply chain orientation in SMEs as an attitudinal construct
p632
F0.001
sVTracheostomy Care and Complications in the Intensive Care Unit
p633
F0.001
sVSports injuries of the ankle. [Japanese]
p634
F0.001
sVAnalysis of responses of radiology personnel to a simulated mass casualty incident after the implementation of an automated alarm system in hospital emergency planning.
p635
F0.001
sVGender differences in personal, social and environmental influences on active travel to and from school for Australian adolescents.
p636
F0.001
sVThe changing residential environments of older people
p637
F0.001
sVEstimating the Effect of Land Leases on Prices of Inner-city Apartment Buildings
p638
F0.001
sVA robust method for diagnosis of morphological arrhythmias based on Hermitian model of higher-order statistics
p639
F0.001
sVOsteoarthritis of the thumb carpometacarpal joint in women and occupational risk factors: a case-control study
p640
F0.001
sVCystic fibrosis: cost of illness and considerations for the economic evaluation of potential therapies
p641
F0.001
sVPhase II study of epirubicin, oxaliplatin and docetaxel combination in metastatic gastric or gastroesophageal junction adenocarcinoma.
p642
F0.001
sVWhite matter diffusivity predicts memory in patients with subjective and mild cognitive impairment and normal CSF total tau levels.
p643
F0.001
sVA narrative review of surgical resident duty hour limits: where do we go from here?
p644
F0.001
sVBradykinin is a mediator, but unlikely a trigger, of antiarrhythmic effects of ischemic preconditioning
p645
F0.001
sVProbiotics for the treatment of upper and lower respiratory-tract infections in children: systematic review based on randomized clinical trials
p646
F0.001
sVValue of intravenous cholangiography prior to laparoscopic cholecystectomy
p647
F0.001
sVAugmin-dependent microtubule nucleation at microtubule walls in the spindle
p648
F0.001
sVSubjective states: A more robust model
p649
F0.001
sVAn insulin-like growth factor-I gene polymorphism modifies the risk of microalbuminuria in subjects with an abnormal glucose tolerance
p650
F0.001
sVAutonomic activity, pain, and perceived health in patients on sick leave due to stress-related illnesses
p651
F0.001
sVSame-Day Discharge After Percutaneous Coronary Intervention: A Meta-Analysis.
p652
F0.001
sVImaging of scar in patients with ventricular arrhythmias of right ventricular origin: Cardiac magnetic resonance versus electroanatomic mapping
p653
F0.001
sVPhase II study to evaluate the safety and efficacy of the oral neurokinin-1 receptor antagonist casopitant (GW679769) administered with ondansetron for the prevention of postoperative and postdischarge nausea and vomiting in high-risk patients
p654
F0.001
sVTrends in domestic violence service and leadership: implications for an integrated shelter model
p655
F0.001
sVA comparative evaluation of two head and neck immobilization devices using electronic portal imaging
p656
F0.001
sVThe exercise prescription: focus on vascular mechanisms.
p657
F0.001
sVEndovascular Treatment of Ruptured Large or Wide-Neck Basilar Tip Aneurysms Associated with Moyamoya Disease Using the Stent-Assisted Coil Technique.
p658
F0.001
sVPredictors of intention to adhere to physiotherapy among women with urinary incontinence.
p659
F0.001
sVFungal flora in indoor and outdoor air of different residential houses in Tekirdag City (Turkey): seasonal distribution and relationship with climatic factors
p660
F0.001
sVPregabalin, celecoxib, and their combination for treatment of chronic low-back pain
p661
F0.001
sV[Mammographic density: a valid risk factor for breast cancer?].
p662
F0.001
sVPracticability and patients' subjective experiences of low-dose spinal anaesthesia using hyperbaric bupivacaine for transanal surgery
p663
F0.001
sVLycopene metabolite, apo-10'-lycopenoic acid, inhibits diethylnitrosamine-initiated, high fat diet-promoted hepatic inflammation and tumorigenesis in mice.
p664
F0.001
sVEbola Virus GP Gene Polyadenylation Versus RNA Editing.
p665
F0.001
sVYoga Spinal Flexion Positions and Vertebral Compression Fracture in Osteopenia or Osteoporosis of Spine: Case Series
p666
F0.001
sVThe vascular depression hypothesis: The influence of age on the relationship between cerebrovascular risk factors and depressive symptoms in community dwelling elders
p667
F0.001
sVThe potential impact of bias in studies of residential exposure to magnetic fields and childhood leukemia
p668
F0.001
sVValidity of Rorschach Inkblot scores for discriminating psychopaths from non-psychopaths in forensic populations: a meta-analysis.
p669
F0.001
sV[Clinical characteristics in non-symptomatic infants with tuberculosis whose diagnostic clue was regular tuberculin skin test prior to BCG vaccination].
p670
F0.001
sVThe cost of national service frameworks
p671
F0.001
sVIsolates and antibiotic resistance of culture-proven endophthalmitis cases presented to a referral center in Tehran
p672
F0.001
sVWomen's experiences of acupuncture during labour
p673
F0.001
sVNomogram to predict anastomotic leakage after laparoscopic anterior resection with intracorporeal rectal transection and double-stapling technique anastomosis for rectal cancer.
p674
F0.001
sVContinuous aspiration of subglottic secretions in preventing ventilator-associated pneumonia.
p675
F0.001
sVAltering existing buildings in the UK
p676
F0.001
sVGlial cells in amyotrophic lateral sclerosis.
p677
F0.001
sVA novel approach to control hyperglycemia in type 2 diabetes: sodium glucose co-transport (SGLT) inhibitors: systematic review and meta-analysis of randomized trials.
p678
F0.001
sVAtomoxetine treatment of children and adolescents with ADHD: Clinical questions and answers. (German)
p679
F0.001
sVComparison of different distal radius dorsal and volar fracture fixation plates: a biomechanical study
p680
F0.001
sVA common variant in the FTO gene is associated with body mass index and predisposes to childhood and adult obesity.
p681
F0.001
sVPrevalence of allergic diseases in Poland - ECAP study
p682
F0.001
sVClinical course of neuropathologically confirmed frontal-variant Alzheimer's disease
p683
F0.001
sVThe pathogenesis of normal pressure hydrocephalus: a theoretical analysis.
p684
F0.001
sVThe impact of orthodontic treatment on the quality of life a systematic review.
p685
F0.001
sVSuccessful treatment of lung cancer by multimodal endobronchial interventions
p686
F0.001
sVPlant Kunitz proteinase inhibitor attenuates inflammation, oxidative stress and remodeling induced by elastase in mice
p687
F0.001
sV13th IEEE/ACM Symposium on Distributed Simulation and Real-Time Applications, DS-RT 2009
p688
F0.001
sVThoracic Aortic Aneurysm: Reading the Enemy's Playbook
p689
F0.001
sVClinical course of patients with aspirin-exacerbated     respiratory disease: can we predict the prognosis?
p690
F0.001
sVA conservative treatment protocol of acute lumbosacral radiculopathy syndrome for general practitioner and physical therapist [Dutch]
p691
F0.001
sVSubstance Abuse and Trauma in Incarcerated Women
p692
F0.001
sVStudy: Edoxaban safer alternative to warfarin for Afib patients
p693
F0.001
sVThe lung cancer management guidelines 2012.
p694
F0.001
sVEliciting relative preferences for two methods of colorectal cancer screening
p695
F0.001
sVAttitudes of physicians regarding anticoagulation for atrial fibrillation: a systematic review. [Review]
p696
F0.001
sVSystematic review exploring the effect of exercise in pulmonary rehabilitation on depression levels in patients with chronic obstructive pulmonary disease
p697
F0.001
sVImproving cognition by adherence to physical or mental exercise: a moderated mediation analysis.
p698
F0.001
sVOutcome of Er,Cr:YSGG laser-assisted treatment of teeth with apical periodontitis: a blind randomized clinical trial.
p699
F0.001
sVChanges of interaction during the development of a mathematical learning environment.
p700
F0.001
sVTransapical aortic valve implantation in 175 consecutive patients: excellent outcome in very high-risk patients.
p701
F0.001
sVSuccessful treatment with a rituximab-based regimen of a splenic marginal zone lymphoma with villous lymphocytes in a very frail patient on maintenance dialysis.
p702
F0.001
sVOperations for cervical incompetence
p703
F0.001
sVAdipocyte is a non-trivial, dynamic partner of breast cancer cells.
p704
F0.001
sVImpact of physical abuse on adulthood depressive symptoms among women.
p705
F0.001
sVNormal insulin sensitivity and IMCL content in overweight humans are associated with higher fasting lipid oxidation.
p706
F0.001
sVVentricular arrhythmias in the North American multidisciplinary study of ARVC: predictors, characteristics, and treatment
p707
F0.001
sVA comparison of early gastric and post-pyloric feeding in critically ill patients: a meta-analysis.
p708
F0.001
sVProcess of construction of an educational booklet for health promotion of pregnant women
p709
F0.001
sVTaste, olfactory and food texture reward processing in the brain and obesity
p710
F0.001
sVThe influence of smoking and impaired glucose homoeostasis on the outcome in patients presenting with an acute coronary syndrome: a cross-sectional study.
p711
F0.001
sVUrban, rural, and regional variations in physical activity
p712
F0.001
sVThe value of a continuous ambulatory activity monitor to quantify the amount and intensity of daily activity in patients with rheumatoid arthritis.
p713
F0.001
sVSupporting patient adherence to antiretrovirals using mobile phone reminders: patient responses from South India
p714
F0.001
sVEfficacy of Class 1 elastic compression stockings in the early stages of chronic venous disease. A comparative study.
p715
F0.001
sVMandibular second molar with C-shaped canal morphology and five canals: report of a case.
p716
F0.001
sVAssessing food safety system in sub-Saharan countries: An overview of key issues
p717
F0.001
sVDeterminants of arterial wall remodeling during lipid-lowering therapy: serial intravascular ultrasound observations from the Reversal of Atherosclerosis with Aggressive Lipid Lowering Therapy (REVERSAL) trial
p718
F0.001
sVExamining waiting placement in hospital: utilization and the lived experience.
p719
F0.001
sVImproving referrals to fracture clinic from the paediatric emergency department an intervention.
p720
F0.001
sVWhatsApp Messenger is useful and reproducible in the assessment of tibial plateau fractures: inter- and intra-observer agreement study.
p721
F0.001
sVHigh resolution EPR spectroscopy of C(60)F and C(70)F in solid argon: reassignment of C(70)F regioisomers
p722
F0.001
sVSituating universal design architecture: designing with whom?
p723
F0.001
sVStructural brain changes associated with antipsychotic treatment in schizophrenia      as revealed by voxel-based morphometric MRI: an activation likelihood estimation       meta-analysis.
p724
F0.001
sVComparison of the CHADS2, CHA2DS2-VASc and HAS-BLED scores for the prediction of clinically relevant bleeding in anticoagulated patients with atrial fibrillation: the AMADEUS trial.
p725
F0.001
sVInternet-delivered exposure and mindfulness based therapy for irritable bowel syndrome--a randomized controlled trial
p726
F0.001
sVThe expert patients programme online, a 1-year study of an Internet-based self-management programme for people with long-term conditions
p727
F0.001
sVPrimary cutaneous large B-cell lymphoma of the legs: a distinct clinical pathologic entity treated with CD20 monoclonal antibody (rituximab).
p728
F0.001
sV[The use of intravascular nitinol stents in the treatment of subclavian vein compression for thoracic outlet syndrome].
p729
F0.001
sVA study of the clinicians approach to patients' driving status in the memory clinic setting
p730
F0.001
sVFeasibility of using hospital personnel to create a sustainable CPR training program for family members of hospitalized patients
p731
F0.001
sVPerineal endometriosis: a case report and review of the literature
p732
F0.001
sVDistal radius fracture arthroscopic intraarticular displacement measurement after open reduction and internal fixation from a volar approach
p733
F0.001
sVDistribution of silicotic collagenization in relation to smoking habits
p734
F0.001
sVFiscal impact of a potential legislative ban on second trimester elective terminations for prenatally diagnosed abnormalities (Structured abstract)
p735
F0.001
sVAcute effects of different nutritional supplements on symptoms and functional capacity in patients with chronic obstructive pulmonary disease.
p736
F0.001
sV[In vitro culture of cells from respiratory mucosa on foils of collagen, poly-L-lactide (PLLA) and poly-3-hydroxy-butyrate (PHB)].
p737
F0.001
sVNeurocognitive assessment in 13 patients affected by muchopolysaccharidosis IVA (MPS IVA)
p738
F0.001
sVSUNCT syndrome: VIII. Pupillary reaction and corneal sensitivity
p739
F0.001
sVSplinting osseointegrated implants and natural teeth in partially edentulous patients: a systematic review of the literature. [Review]
p740
F0.001
sVReasons for and against participation in studies of medicinal therapies for women with breast cancer: a debate.
p741
F0.001
sVMyofascial trigger points: Spontaneous electrical activity and its consequences for pain induction and propagation
p742
F0.001
sVAdaptive convex combination approach for the identification of improper quaternion processes
p743
F0.001
sVAntenatal lower genital tract infection screening and treatment programs for preventing preterm delivery
p744
F0.001
sV[A case of giant Brunner's gland hyperplasia combined with adenomyomatous hyperplasia].
p745
F0.001
sVUltrasonically enhanced vancomycin activity against Staphylococcus epidermidis biofilms in vivo.
p746
F0.001
sV[Pravastatin and acetylsalycilic acid fixed-combination: a strategy to improve cardiovascular outcomes].
p747
F0.001
sVEffects of Ginkgo biloba on haemostatic factors and inflammation in chronic peritoneal dialysis patients.
p748
F0.001
sVOveractive bladder: Optimizing quality of care
p749
F0.001
sVHealth literacy and child health promotion: Implications for research, clinical care, and public policy
p750
F0.001
sVDoes this patient have obstructive sleep apnea?: The Rational Clinical Examination systematic review.
p751
F0.001
sVSmoking and oral cancer.
p752
F0.001
sVSteroids and antihistamines synergize to inhibit rat's airway smooth muscle contractility.
p753
F0.001
sVEfficacy of allogeneic hematopoietic stem cell transplantation depends on cytogenetic risk for acute myeloid leukemia in first disease remission: a metaanalysis.
p754
F0.001
sVChronic compartment syndrome, an important cause of work-related upper limb disorder
p755
F0.001
sVAntimicrobial resistance of H. pylori isolates in alaska native persons from 2000-2008: Results from the alaska sentinel surveillance project
p756
F0.001
sVA cohort study of the prevalence and impact of comorbid medical conditions in pediatric bipolar disorder.
p757
F0.001
sVDPYD IVS14+1G>A and 2846A>T genotyping for the prediction of severe fluoropyrimidine-related toxicity: A meta-analysis
p758
F0.001
sV[Commentary on] Gait changes in children with cerebral palsy following a neuro-developmental treatment course. Adams M, Chandler L, Shuhmann K, PEDIATRIC PHYSICAL THERAPY, 2000;12:114-120
p759
F0.001
sVImproving Implementation of Classroom Instruction through Teacher-Directed Behavioral Consultation: A Single-Case Demonstration
p760
F0.001
sVSex differences in pain.
p761
F0.001
sVAgitation, aggression, and disinhibition syndromes after traumatic brain injury
p762
F0.001
sVThe importance, and important limitations, of ultrasound imaging for evaluating thyroid nodules.
p763
F0.001
sVSleep-disordered breathing associated with long-term opioid therapy
p764
F0.001
sVSoda and cell aging: associations between sugar-sweetened beverage consumption and leukocyte telomere length in healthy adults from the National Health and Nutrition Examination Surveys
p765
F0.001
sVNasal steroids in snorers can decrease snoring frequency: a randomized placebo-controlled crossover trial
p766
F0.001
sVNormalisation of left ventricular systolic function after change from VVI pacing to biventricular pacing in a child with congenital complete atrioventricular block, long-QT syndrome, and congenital muscular dystrophy: a 10-year follow-up.
p767
F0.001
sVPooled analysis of non-union, re-operation, infection, and approach related complications after anterior odontoid screw fixation.
p768
F0.001
sVEvidence based practice and advanced competencies in a MHS-CLS program
p769
F0.001
sVNew therapies in soft tissue sarcoma
p770
F0.001
sVDepression treatment preferences among Japanese undergraduates: using conjoint analysis
p771
F0.001
sVThe CARE guidelines: consensus-based clinical case reporting guideline development.
p772
F0.001
sVSurgical treatment of pathologic fractures of humerus
p773
F0.001
sVEvaluation of the protective effect of Ilex paraguariensis and Camellia sinensis extracts on the prevention of oxidative damage caused by ultraviolet radiation.
p774
F0.001
sVImaging for target volume delineation in rectal cancer radiotherapy--a systematic review.
p775
F0.001
sVCase report. Cutaneous cryptococcosis in a patient with systemic erythematous lupus.
p776
F0.001
sVMeasurement of muscle architecture concurrently with muscle hardness using ultrasound strain elastography.
p777
F0.001
sVImportance of membrane materials for blood purification devices in critical care.
p778
F0.001
sVTransport of infants with congenital heart disease.
p779
F0.001
sVSwabbing Surgical Sites Does Not Improve the Detection of Staphylococcus aureus Carriage in High-Risk Surgical Patients
p780
F0.001
sVBehavioral and cognitive measurements predict scores on the MAST: a 3-year prospective study.
p781
F0.001
sVComparison of serum and renal gentamicin concentrations with fractional urinary excretion tests as indicators of nephrotoxicity
p782
F0.001
sVBioavailability and tolerability of intranasal diazepam in healthy adult volunteers
p783
F0.001
sVChronic pain related to quality of sleep
p784
F0.001
sVPulmonary rehabilitation programs for patients with COPD.
p785
F0.001
sV[Effects of tobacco advertising regulations in various countries]
p786
F0.001
sV18F-flumazenil: a \ufffd_-aminobutyric acid A-specific PET radiotracer for the localization of drug-resistant temporal lobe epilepsy.
p787
F0.001
sVCABG again outshines stenting for some patients with coronary artery blockage
p788
F0.001
sVDosimetric analysis of proton pencil beam scanning radiation therapy versus dose painted intensity modulated radiation therapy for squamous cell carcinoma of the anal canal
p789
F0.001
sVThe special status of actions in causal reasoning in rats.
p790
F0.001
sVHigh intensity interval exercise training in overweight young women
p791
F0.001
sVA qualitative exploration of the cancer experience among long-term survivors: comparisons by cancer type, ethnicity, gender, and age.
p792
F0.001
sVResults of the phase II NCRI CLL206 trial of alemtuzumab in combination with high-dose methylprednisolone for high-risk (17P-) CLL
p793
F0.001
sVNurturing students' interest in primary care research through summer training in meta-analysis.
p794
F0.001
sVPreliminary validity and reliability of a Thai Berlin questionnaire in stroke patients
p795
F0.001
sV[Use of probiotics and prebiotics in infant formulas].
p796
F0.001
sVSerum MMPs 7-9 and their inhibitors during glucocorticoid and anti-TNF-alpha therapy in pediatric inflammatory bowel disease
p797
F0.001
sVHarmonizing Pain Outcome Measures: Results of the Pre-OMERACT Meeting on Partnerships for Consensus on Patient-important Pain Outcome Domains Between the Cochrane Musculoskeletal Group and OMERACT
p798
F0.001
sVExtended-release naltrexone plus medical management alcohol treatment in primary care: Findings at 15 months
p799
F0.001
sVPool fencing for preventing drowning in children.
p800
F0.001
sVMeta-analysis of the effects of sometribove zinc suspension on the production and health of lactating dairy cows.
p801
F0.001
sVElectrocardiogram QRS detection using multiscale filtering based on mathematical morphology
p802
F0.001
sVLong-term subcutaneous recombinant interleukin-2 as maintenance therapy: Biological effects and clinical implications
p803
F0.001
sVSleep, sleep-dependent procedural learning and vigilance in chronic cocaine users: Evidence for occult insomnia
p804
F0.001
sVFood allergy in children
p805
F0.001
sVThe Social Workers Guide to Child and Adolescent Mental Health.
p806
F0.001
sV[Laparoscopic appendectomy after the learning curve].
p807
F0.001
sVA geographic analysis of chronically homeless adults before and after enrollment in a multi-site supported housing initiative: community characteristics and migration
p808
F0.001
sVPreoperative administration of tramadol continuous infusion reduces postoperative morphine requirements in patients undergoing surgery following femur fracture
p809
F0.001
sVBilingual speech: Bilateral control?
p810
F0.001
sVUnique failure mechanism of a femoral component after revision total hip arthroplasty.
p811
F0.001
sVPuberty suppression in adolescents with gender identity disorder: a prospective follow-up study
p812
F0.001
sVUsefulness of a myofascial trigger point injection for groin pain in patients with chronic prostatitis/chronic pelvic pain syndrome: a pilot study
p813
F0.001
sVCarriage of methicillin-resistant Staphylococcus aureus by veterinarians in Australia
p814
F0.001
sVMeasuring the value of research data: a citation analysis of oceanographic data sets
p815
F0.001
sVSpecial problems in the prosthetic rehabilitation of deep bite
p816
F0.001
sVMild endoplasmic reticulum stress augments the proinflammatory effect of IL-1\ufffd_ in pancreatic rat \ufffd_-cells via the IRE1\ufffd/XBP1s pathway.
p817
F0.001
sVGrowth hormone treatment and diabetes: survey of the kabi pharmacia international growth study.
p818
F0.001
sVNeck pain.
p819
F0.001
sVEffect of pedaling technique on mechanical effectiveness and efficiency in cyclists.
p820
F0.001
sVThe association between urinary cortisol excretion and cardiovascular risk factors, bone status and quality of life in the population.
p821
F0.001
sVPsychometric validation of the Growth and Empowerment Measure (GEM) applied with Indigenous Australians
p822
F0.001
sVUsefulness of US cost-of-illness studies in healthcare decision making.
p823
F0.001
sVCO2 emission inventories for Chinese cities in highly urbanized areas compared with European cities
p824
F0.001
sVMultiparametric MRI for recurrent prostate cancer post radical prostatectomy and postradiation therapy.
p825
F0.001
sVRole of N-acetylcysteine in prevention of contrast-induced nephropathy after cardiovascular procedures: a meta-analysis
p826
F0.001
sVObstetrical anal sphincter laceration and anal incontinence 5-10 years after childbirth
p827
F0.001
sVImplementing pharmacogenetics: Pharmarray, acodose and pharmacogenetic consultation
p828
F0.001
sVIsolated cerebellar involvement in a case of posterior reversible leukoencephalopathy.
p829
F0.001
sVDiscontinuing penicillin prophylaxis in children with sickle cell anemia. Prophylactic Penicillin Study II
p830
F0.001
sVRationale, design and methods of the HEALTHY study nutrition intervention component
p831
F0.001
sVTracking cognitive decline in Alzheimer's disease using the mini-mental state examination: a meta-analysis.
p832
F0.001
sVRobotic surgery in gynecology.
p833
F0.001
sVProgesterone receptor PROGINS and +331G/A polymorphisms confer susceptibility to ovarian cancer: a meta-analysis based on 17 studies.
p834
F0.001
sVUse of implantable cardioverter-defibrillators for primary prevention in older patients: A systematic literature review and meta-analysis.
p835
F0.001
sVValidity of International Classification of Diseases, Ninth Revision, Clinical Modification (ICD-9-CM) screening for sepsis in surgical mortalities.
p836
F0.001
sVAPPLICATION OF AGING MANAGEMENT STRATEGIES FOR REACTOR VESSEL INTERNALS AND CORE SUPPORT STRUCTURES
p837
F0.001
sVEffectiveness of measles vaccination and vitamin A treatment
p838
F0.001
sVEffet d'une intervention non m\u0329dicamenteuse, Voix d'Or\ufffd, sur les troubles du comportement dans la maladie d'Alzheimer ou une maladie apparent\u0329e. [Effect of a non-pharmacological intervention, Voix d'Or\ufffd, on behavior disturbances in Alzheimer disease and associated disorders.]
p839
F0.001
sVEffect of e-health on medical expenditures of outpatients with lifestyle-related diseases
p840
F0.001
sVDelayed costs of suppressed pain.
p841
F0.001
sVA randomized study with a hyaluronic acid and chondroitin sulfate lotion for radiodermitis in breast cancer patients
p842
F0.001
sVAre stretches effective in the prevention and treatment of glenohumeral internal rotation deficit?
p843
F0.001
sVAn evaluation of the effectiveness of recruitment methods: The staying well after depression randomized controlled trial
p844
F0.001
sVValue of spiral CT in hemodynamically stable patients following blunt chest trauma.
p845
F0.001
sVFetal lung volume measurements: determination with MR imaging--effect of various factors.
p846
F0.001
sVUlcer Healing After Peripheral Intervention.
p847
F0.001
sVStudy of high- and low-current-configuration homes from the 1988 Denver Childhood Cancer Study
p848
F0.001
sVServices for children and adolescents with autism spectrum disorders: payment issues.
p849
F0.001
sVBlood 25-hydroxyvitamin D concentration and hypertension: a meta-analysis.
p850
F0.001
sVFactors associated with orthodontic patient compliance with intraoral elastic and headgear wear.
p851
F0.001
sVChronic pain-associated behaviors in the nursing home: resident versus caregiver perceptions
p852
F0.001
sVThe rocky road to rational prescribing
p853
F0.001
sVEvaluation of a hybrid constructed wetland for treating domestic sewage from individual housing units surrounding agricultural villages in South Korea
p854
F0.001
sVThe first case of drug-induced immune hemolytic anemia due to hydrocortisone
p855
F0.001
sVDifferent renal toxicity profiles in the association of cyclosporine and tacrolimus with sirolimus in rats.
p856
F0.001
sVPrimary Banded Roux-en-Y Gastric Bypass: a Systematic Review.
p857
F0.001
sVManual versus electric vacuum aspiration for first-trimester abortion: a systematic review
p858
F0.001
sV[The effect of shift work on the health of workers: a systematic review].
p859
F0.001
sVA method for determining skeletal lengths from DXA images.
p860
F0.001
sVHemostatic resuscitation for massive bleeding: The paradigm of plasma and platelets - A review of the current literature.
p861
F0.001
sVA randomized controlled trial of Tai chi for balance, sleep quality and cognitive performance in elderly Vietnamese.
p862
F0.001
sVPoster abstracts. The National Association of Bariatric Nurses, 4th Annual Meeting and Conference, October 24-27, 2007, North Charleston, South Carolina
p863
F0.001
sVPrimary external fixation versus plaster immobilization of the intra-articular unstable distal radial fracture in the elderly
p864
F0.001
sVA randomized controlled trial of the effects of vitamin D on muscle strength and mobility in older women with vitamin D insufficiency.
p865
F0.001
sVDaily step goal of 10,000 steps: A literature review.
p866
F0.001
sVEarly thoracic sympathetic block improves the treatment effect for upper extremity neuropathic pain
p867
F0.001
sVCost-effectiveness of interventions promoting physical activity.
p868
F0.001
sVIn this issue
p869
F0.001
sVTerbutaline pump for the prevention of preterm birth (Structured abstract)
p870
F0.001
sVOverlap of food addiction and substance use disorders definitions: analysis of animal and human studies.
p871
F0.001
sVSecondary school tobacco policy and prevention curricula in South Carolina
p872
F0.001
sVAn observational study on the prevalence and pattern of opioid use in 25,479 patients with spine and radicular pain
p873
F0.001
sVA systematic review and meta-analysis of trials of treatment of depression from India
p874
F0.001
sVPartial fill strategies for oral oncolytics to reduce waste and drive persistency
p875
F0.001
sVNew concepts in predicting, evaluating, and managing neurodevelopmental outcomes in children with congenital heart disease.
p876
F0.001
sVCombined antiplatelet and anticoagulant therapy: Clinical benefits and risks
p877
F0.001
sVSerum S100B represents a new biomarker for mood disorders.
p878
F0.001
sVSecondary prophylaxis for rheumatic fever: simple concepts, difficult delivery
p879
F0.001
sVCT false-profile view of the hip: a reproducible method of measuring anterior acetabular coverage using volume CT data.
p880
F0.001
sVA meta-analysis of two genome-wide association studies identifies 3 new loci for alcohol dependence.
p881
F0.001
sVBalancing Identity, Motivation, and Internal Dialogue in the Making of Solos: Conquering the High Wire
p882
F0.001
sV<title>SPECCHIO: a free spectral data management and processing system</title>
p883
F0.001
sVOsteoid osteoma in a 16-year-old boy presenting with atrophy of the left thigh: diagnostic difficulties.
p884
F0.001
sVDiagnostic performance of body mass index to identify obesity as defined by body adiposity: a systematic review and meta-analysis.
p885
F0.001
sVSerial postoperative awake and sleep EEG and long-term seizure outcome after anterior temporal lobectomy for hippocampal sclerosis.
p886
F0.001
sVLong-term survival after "liver first" approach for locally advanced rectal cancer and synchronous liver metastases
p887
F0.001
sVInterleukin-28B polymorphisms on the SVR in the treatment of naive chronic hepatitis C with pegylated interferon-alpha plus ribavirin: A meta-analysis.
p888
F0.001
sVA meta-analysis of clinical trials comparing mirtazapine with selective serotonin reuptake inhibitors for the treatment of major depressive disorder.
p889
F0.001
sVOptical turbulence: weak turbulence, condensates and collapsing filaments in the nonlinear Schr\u0326dinger equation
p890
F0.001
sVRetrovirus-mediated WASP gene transfer corrects Wiskott-Aldrich syndrome T-cell dysfunction.
p891
F0.001
sVPrevalence of different morphologic forms of the human tongue in young Finns.
p892
F0.001
sVOlder Women in the Homeless Shelter: Personal Perspectives and Practice Ideas
p893
F0.001
sVReporting methods in studies developing prognostic models in cancer: a review.
p894
F0.001
sVThe impact of emotional and social support on the quality of life, depression, and disability among us adults with chronic obstructive pulmonary disorder (COPD): A propensity score analysis
p895
F0.001
sVShared decision making and the future of managed care
p896
F0.001
sVLocal anaesthetic wound infiltration used for caesarean section pain relief: a     meta-analysis
p897
F0.001
sVEffect of antibiotic prescribing in primary care on meticillin-resistant Staphylococcus aureus carriage in community-resident adults: a controlled observational study
p898
F0.001
sVClinical effect observation of fule cream to cure dermatitis eczemal
p899
F0.001
sVAmitriptyline, minocycline and maropitant reduce the sevoflurane minimum alveolar concentration and potentiate remifentanil but do not prevent acute opioid tolerance and hyperalgesia in the rat: a randomised laboratory study.
p900
F0.001
sVPreliminary state of development of prediction models for primary care physical therapy: a systematic review.
p901
F0.001
sVA case of delirium triggered by sub-clinical seizures
p902
F0.001
sVCranial reconstruction of major traumatic defects in children with osteoinductive and resorbable materials
p903
F0.001
sVDifferential functional connectivity within an emotion regulation neural network among individuals resilient and susceptible to the depressogenic effects of early life stress.
p904
F0.001
sV[Clinical and histologic results of treatment of serous pulp inflammations with Ledermix].
p905
F0.001
sVSchool, neighborhood, and family factors are associated with children's bullying involvement: a nationally representative longitudinal study.
p906
F0.001
sVWirkungen und Risiken neuartiger psychoaktiver Substanzen: Fehldeklaration und Verkauf als "Badesalze", "Spice" und "Forschungschemikalien"
p907
F0.001
sVSinus arrhythmia and pupil size in Chiari I malformation: Evidence of autonomic dysfunction
p908
F0.001
sVChildren are pharmaco-therapeutic orphans.
p909
F0.001
sVPhase III randomized sequential open-label study to evaluate the efficacy and safety of sorafenib followed by pazopanib vs pazopanib followed by sorafenib in the treatment of advanced / metastatic renal cell carcinoma-design of the SWITCH-2 Study (NCT01613846)
p910
F0.001
sVRead with Me! Examining the Effects of a Community Volunteer Reading Program on Preschoolers' Literacy Skills
p911
F0.001
sVCSM2004 best platform
p912
F0.001
sVStrong stability and host specific bacterial community in faeces of ponies.
p913
F0.001
sVBladder cancer and urothelial impairment: the role of TRPV1 as potential drug target.
p914
F0.001
sVLeft ventricular hypertrophy predicts outcome of hypertension regardless of the type of ventricular arrhythmia present
p915
F0.001
sVHigh-dose sequential (HDS) chemotherapy for high-risk non-Hodgkin's lymphoma: long-term analysis and future developments.
p916
F0.001
sVChronic hypokalemia due to excessive cola consumption: a case report
p917
F0.001
sVA cadaver model to evaluate the accuracy and reproducibility of plain radiograph step and gap measurements for intra-articular fracture of the distal radius.
p918
F0.001
sVIntraoperative stability testing of lateral-entry pin fixation of pediatric supracondylar humeral fractures
p919
F0.001
sVA screening methodology for crowdsourcing video QoE evaluation
p920
F0.001
sVPreliminary results from a single institutional prospective study of alemtuzumab for the treatment of steroid refractory acute graft versus host disease in pediatrics
p921
F0.001
sVNeurolymphatische Bahnen: neue wissenschaftliche Nachweise untermauern die Perrin-Technik
p922
F0.001
sVHeart rate and blood pressure responses of left-handers and right-handers to autonomic stressors
p923
F0.001
sV[Case management for moderate-need patients and recovery: what can we learn from experimental and quasi-experimental studies?]. [Review] [French]
p924
F0.001
sVContinuation of metformin reduces early pregnancy loss in obese Pakistani women with polycystic ovarian syndrome
p925
F0.001
sVCorrect Performance of Pelvic Muscle Exercises in Women Reporting Prior Knowledge.
p926
F0.001
sVIatrogenic perforation at colonic imaging.
p927
F0.001
sVComplex regional pain syndrome type 1 after fractures of the distal radius: a prospective study of the role of psychological factors
p928
F0.001
sVTeaching Calculus and Other Challenging Courses to Nontraditional and At-Risk Students at a Research University.
p929
F0.001
sVClinical outcome following ICD removal. The Bilitch Registry Group
p930
F0.001
sVAmerican Society of Clinical Oncology clinical practice guideline update on the use of pharmacologic interventions including tamoxifen, raloxifene, and aromatase inhibition for breast cancer risk reduction.
p931
F0.001
sVComprehensive multidisciplinary patient assessment and selection before TAVI procedure.
p932
F0.001
sVClinical outcomes and cost-effectiveness of strategies for managing people at high risk for diabetes (Structured abstract)
p933
F0.001
sV[Evidence-based therapy guideline of the German Working Group on Obesity in Childhood and Adolescence].
p934
F0.001
sVBudesonide/formoterol in a single inhaler sustains lung function improvements in COPD [Abstract]
p935
F0.001
sVComparing modelling techniques for analysing urban pluvial flooding.
p936
F0.001
sVMotor cortex stimulation in patients with post-stroke pain: conscious somatosensory response and pain control
p937
F0.001
sVReadmissions after hospital discharge with acute exacerbation of COPD: are we missing something?
p938
F0.001
sV[Pharmacotherapy for conduct disorder in children and adolescents]
p939
F0.001
sVCurrent palliative chemotherapy trials in the elderly neglect patient-centred outcome measures.
p940
F0.001
sVObesity and obstructive sleep apnea: Carry the torch of awareness
p941
F0.001
sVShedding health risks with bariatric weight loss surgery
p942
F0.001
sV[Toxicology and clinical significance of base-catalized degradation of sevoflurane to Compound A].
p943
F0.001
sVAre birth kits a good idea? A systematic review of the evidence.
p944
F0.001
sVCardioactive steroid poisoning: a comparison of plant- and animal-derived compounds.
p945
F0.001
sVRole of core-needle biopsy in thyroid nodules with initially nondiagnostic cytologic results.
p946
F0.001
sVCauses of death in Tunisia: Estimates of years of life lost. [French]
p947
F0.001
sVChanges in lower esophageal sphincter pressure (LES) after Stamm gastrostomy
p948
F0.001
sVModelling the effects of subjective and objective decision making in scientific peer review.
p949
F0.001
sVConsumption of fried foods and risk of metabolic syndrome: the SUN cohort study
p950
F0.001
sVClinical and pharmacologic phase I study of Cemadotin-HCl (LU103793), a novel antimitotic peptide, given as 24-hour infusion in patients with advanced cancer. A study of the Arbeitsgemeinschaft Internistische Onkologie (AIO) Phase I Group and Arbeitsgruppe Pharmakologie in der Onkologie und Haematologie (APOH) Group of the German Cancer Society.
p951
F0.001
sVSleep and sleep disorders in the hospital
p952
F0.001
sVImpact of crizotinib on patient-reported symptoms and global quality of life (QoL) compared with chemotherapy in a phase III study of advanced alk-positive non-small cell lung cancer (NSCLC)
p953
F0.001
sVUnsuspected ethanol ingestion through soft drinks and flavored beverages
p954
F0.001
sVCorneal collagen cross-linking for nonectatic disorders: A systematic review.
p955
F0.001
sVEnergy and fat intakes of children and adolescents in the united states: data from the national health and nutrition examination surveys
p956
F0.001
sVBullous impetigo in children infected with methicillin-resistant Staphylococcus aureus alone or in combination with methicillin-susceptible S. aureus: analysis of genetic characteristics, including assessment of exfoliative toxin gene carriage
p957
F0.001
sVVaginal incisional wound healing in a rabbit menopause model: a histologic analysis.
p958
F0.001
sVCan we improve the follow up of asthmatic patients with asthma educational program (PAMA)? [Abstract]
p959
F0.001
sVAn exploration of self-reported negative affect by adolescents as a reason for smoking: implications for tobacco prevention and intervention programs
p960
F0.001
sVFludarabine vs cladribine plus busulfan and low-dose TBI as reduced intensity conditioning for allogeneic hematopoietic stem cell transplantation: a prospective randomized trial
p961
F0.001
sVPharmacotherapy for inherited colorectal cancer. [Review] [42 refs]
p962
F0.001
sVCommunity nursing issues in Maori mental health.
p963
F0.001
sVFractional flow reserve for guiding PCI.
p964
F0.001
sVEffects of multifunctional fabrics on cardiac autonomic tone and psychological state
p965
F0.001
sVDevelopment of a SNP genotyping panel and a medical decision support algorithm to predict drug response in schizophrenia
p966
F0.001
sV[The anxiety level of the patients who will have ultrasound-guided puncture biopsy: a survey study].
p967
F0.001
sVA prospective observational study of obesity, body composition, and insulin resistance in 18 women with bipolar disorder and 17 matched control subjects.
p968
F0.001
sVPrevalence of Masked Hypertension in African Americans.
p969
F0.001
sVEthically justified system-level decisions in health care: Toward a decision support workbook for healthcare leaders
p970
F0.001
sVChronic pelvic pain.
p971
F0.001
sVSimilar survival between uncemented and cemented fixation prostheses in total knee arthroplasty: a meta-analysis and systematic comparative analysis using registers.
p972
F0.001
sVHospital discharge after ambulatory knee arthroscopy: a comparison of epidural 2-chloroprocaine versus lidocaine
p973
F0.001
sV[Perineal regional anaesthesia: indications in gynaecologic and proctologic surgery and in obstetric]
p974
F0.001
sVEmploying a youth-led adult-guided framework: "why drive high?" social marketing campaign.
p975
F0.001
sVThe Impact of Read Right: Semester-Only versus Year-Long Inplementation
p976
F0.001
sVEfficacy and safety of the low-molecular weight heparin enoxaparin compared with unfractionated heparin across the acute coronary syndrome spectrum: a meta-analysis.
p977
F0.001
sVMuscle - tendon unit mechanical and morphological properties and sprint performance.
p978
F0.001
sVPrimary head and neck cancers in North -Western Nigeria
p979
F0.001
sVAnterior olecranon fracture-dislocations of the elbow in children. A report of four cases
p980
F0.001
sVShould psychiatrists use atypical antipsychotics to treat nonpsychotic anxiety?.
p981
F0.001
sVOut-of-hospital cardiac arrests occurring in southern Ontario health care clinics: bystander cardiopulmonary resuscitation and automated external defibrillator use.
p982
F0.001
sVInhibition of cisplatin-induced lipid catabolism and weight loss by ghrelin in male mice.
p983
F0.001
sVThyroid-related autoantibodies and celiac disease: a role for a gluten-free diet?
p984
F0.001
sVProviding access to specialty care for severely disabled institutional residents: an academic health center telemedicine model
p985
F0.001
sVHealth literacy, diabetes self-care, and glycemic control in adults with type 2 diabetes
p986
F0.001
sVInhibition of dxpression of VEGF in tumor cells by RNAi. [Chinese]
p987
F0.001
sVAn Assessment of Voluntary Adolescent Mental Health Screening and Referral in a Children's Hospital Emergency Department
p988
F0.001
sVMortality at older ages and moves in residential and sheltered housing: evidence from the UK
p989
F0.001
sV[Postacute care].
p990
F0.001
sVIt's Time Practitioners Help Families Clear the Air of Secondhand Smoke: A Commentary on Pyle et al. (2005)
p991
F0.001
sVThe relationship between capsulorhexis size and anterior chamber depth relation.
p992
F0.001
sVSleep-related nighttime crying (yonaki) in Japan: a community-based study.
p993
F0.001
sVBarriers and facilitators to implementing electronic prescription: a systematic review of user groups' perceptions.
p994
F0.001
sVRaised intracranial pressure following abdominal closure in a polytrauma patient.
p995
F0.001
sVFruit consumption and risk of type 2 diabetes: results from three prospective longitudinal cohort studies.
p996
F0.001
sVUse of episiotomy in the United States
p997
F0.001
sVeComment. EuroSCORE II - corrected in-hospital mortality rate in a modern cohort of patients undergoing cardiac surgery
p998
F0.001
sVPoverty is the main environmental factor for obesity in a Mexican-border city
p999
F0.001
sVInsulin detemir lowers the risk of hypoglycaemia and provides more consistent plasma glucose levels compared with NPH insulin in Type 1 diabetes.
p1000
F0.001
sVOutcomes among patients with end-stage liver disease who are coinfected with HIV and hepatitis C virus.
p1001
F0.001
sVRisk of gestational diabetes mellitus in women with polycystic ovary syndrome: a systematic review and a meta-analysis.
p1002
F0.001
ssS'characters'
p1003
(dp1004
V 
p1005
F0.999
sV\u0326
p1006
F0.001
sV(
p1007
F0.06
sV,
p1008
F0.126
sV0
p1009
F0.037
sV4
p1010
F0.027
sV8
p1011
F0.016
sV<
p1012
F0.001
sVD
p1013
F0.134
sVH
p1014
F0.091
sVL
p1015
F0.07
sVP
p1016
F0.199
sVT
p1017
F0.194
sVX
p1018
F0.006
sVd
p1019
F0.887
sVh
p1020
F0.831
sVl
p1021
F0.938
sVp
p1022
F0.826
sVt
p1023
F0.985
sVx
p1024
F0.194
sV\ufffd
p1025
F0.01
sV'
p1026
F0.047
sV\u0329
p1027
F0.002
sV+
p1028
F0.003
sV/
p1029
F0.019
sV3
p1030
F0.032
sV7
p1031
F0.023
sV;
p1032
F0.004
sV?
p1033
F0.039
sVC
p1034
F0.248
sVG
p1035
F0.067
sVK
p1036
F0.022
sVO
p1037
F0.082
sVS
p1038
F0.214
sVW
p1039
F0.048
sV[
p1040
F0.066
sV_
p1041
F0.004
sVc
p1042
F0.956
sVg
p1043
F0.715
sVk
p1044
F0.239
sVo
p1045
F0.979
sVs
p1046
F0.972
sVw
p1047
F0.428
sV"
p1048
F0.007
sV\u0324
p1049
F0.001
sV&
p1050
F0.002
sV*
p1051
F0.001
sV.
p1052
F0.5
sV2
p1053
F0.054
sV6
p1054
F0.021
sV:
p1055
F0.376
sV\u033c
p1056
F0.001
sV>
p1057
F0.002
sVB
p1058
F0.076
sVF
p1059
F0.06
sVJ
p1060
F0.011
sVN
p1061
F0.074
sVR
p1062
F0.13
sVV
p1063
F0.044
sVZ
p1064
F0.003
sVb
p1065
F0.533
sVf
p1066
F0.836
sVj
p1067
F0.056
sVn
p1068
F0.983
sVr
p1069
F0.982
sVv
p1070
F0.625
sVz
p1071
F0.108
sV!
p1072
F0.002
sV%
p1073
F0.001
sV)
p1074
F0.06
sV-
p1075
F0.387
sV1
p1076
F0.082
sV5
p1077
F0.022
sV9
p1078
F0.017
sV\u033b
p1079
F0.001
sVA
p1080
F0.3
sVE
p1081
F0.147
sVI
p1082
F0.161
sVM
p1083
F0.116
sVQ
p1084
F0.013
sVU
p1085
F0.056
sVY
p1086
F0.016
sV]
p1087
F0.066
sVa
p1088
F0.983
sVe
p1089
F0.993
sVi
p1090
F0.987
sV\u06ea
p1091
F0.002
sVm
p1092
F0.873
sVq
p1093
F0.063
sVu
p1094
F0.857
sVy
p1095
F0.754
ss.