(dp0
S'values'
p1
(dp2
V{"E Senneville","H Melliez","V Lovi","C Joseph","M Douaud","M Pradier","T Boyer","A Meybeck","L Fortin-Lebraud"}
p3
F0.001
sV{"Jaimee L. Heffner","Jonathan Bricker","Bryan Comstock","Christopher Wyszynski"}
p4
F0.001
sV{"James C Martin","Ian Mayhew","Lee M Romer","Thomas Korff"}
p5
F0.001
sV{"Jianwen Cai","June Stevens","Denise K. Houston"}
p6
F0.001
sV{"Ryan Holzwarth","Basir Tareen","Alicia Majkrzak","Darren Huber"}
p7
F0.001
sV{"Bin He","Eric C Frey"}
p8
F0.001
sV{"M. Brandon","M. J. Dowzicky"}
p9
F0.001
sV{"A.D. Nimbarte","J.A. Sivak-Callcotta","C.A. Mancinelli"}
p10
F0.001
sV{"D C Thompson","F P Rivara"}
p11
F0.001
sV{"H H Fiebig","K Mross","R Velagapudi","W E Berdel","C Unger","I M von Broen"}
p12
F0.001
sV{"J P Ioannidis","J Lau","C Milch","D Salem","P W Chew","N Terrin","E M Balk"}
p13
F0.001
sV{"Carmelo Graffagnino","DaiWai M Olson"}
p14
F0.001
sV{"Ahmad A.S."}
p15
F0.001
sV{"Alexa Stuifbergen","Martha Gene Meraviglia"}
p16
F0.001
sV{"M. S. Ihara","J. R. Tripet-Diel","K. Shahlaie","C. S. Li","J. Brown","S. H. Cohen","M. Giordani","E. O. Klineberg"}
p17
F0.001
sV{"M. Goyal","S. Wiebe","M. D. Hill","F. M. Clement","J. H. Wong","M. A. Almekhlafi","D. Yavin"}
p18
F0.001
sV{"Lee W.","Kirk J.S.","Shaheen K.W.","Romero R.","Hodges A.N.","Comstock C.H."}
p19
F0.001
sV{"F. Deng","J. Wen","Q. Y. Cai","Y. P. Li"}
p20
F0.001
sV{"Yuki Matsuda","Taro Kishi","Nakao Iwata"}
p21
F0.001
sV{"Y. Fengying","Y. Hainai","W. Jianxiong","T. Sijie"}
p22
F0.001
sV{"Kerstin Landin-Wilhelmsen","G\u0326ran Oler\u0326d","Oskar Ragnarsson","Penelope Trimpou"}
p23
F0.001
sV{"R.A. Mesa","N.C.P. Cross","J.O. Mascarenhas"}
p24
F0.001
sV{"P. H. Jallo","E. C. Otoh","A. Mohammed","S. O. Ajike","N. W. Johnson","I. S. Danfillo"}
p25
F0.001
sV{"How Lee","Greta G Cummings","Daniel Scott","E Denise Brown"}
p26
F0.001
sV{"Michael J Paech","Stephan A Schug","Bhavesh Patel","Thomas Ledowski"}
p27
F0.001
sV{"N. Jakubik","L. Trzpil","F. Raciborski","U. Samolinska-Zawisza","L. Samoli\u0331ski","D. Paczesny","Z. Halat","J. Marszalkowska","B. Samolinski","P. Samel-Kowalik","A. Lusawa","J. Gutowska","A. Tomaszewska","A. Walkiewicz"}
p28
F0.001
sV{"R Condliffe","J Hurdman","J M Wild","D G Kiely","S Rajaram","A J Swift","C A Elliot","C Davies","C Hill","I Sabroe","C Johns"}
p29
F0.001
sV{"C. Handgraaf","W. J. Melchers","T. Klaassen","P. D. Sturm","E. T. Bochum","S. V. van Mook-Vermulst"}
p30
F0.001
sV{"Yh Hsu","Ms Yao","Cs Wong","Ch Bai","My Wu","Yf Lin","Cy Hsiang","Kw Tam","Yw Li","Hf Hsiang"}
p31
F0.001
sV{"C. E. Barber"}
p32
F0.001
sV{"T. Nakajima","I. Yoshino","K. Yasufuku","S. Yoshida","Y. Sakairi","K. Shibuya"}
p33
F0.001
sV{"Joost P A Kuijer","Thom A Voorn","Ernesto J Sanz-Arigita","Ellemarije Altena","Eus J W Van Someren","Serge A R B Rombouts","Ysbrand D Van Der Werf"}
p34
F0.001
sV{"Lynne M Ausman","Martin S Obin","Xiang-Dong Wang","Chun Liu","Blanche C Ip","Donald E Smith","Kang-Quan Hu"}
p35
F0.001
sV{"Laura Giacinti","Silvia Ileana Fattoruso","Maria Grazia Arena","Luigi Di Lauro","Massimo Lopez","Domenico Sergi","Diana Giannarelli"}
p36
F0.001
sV{"A M Mulekar","B J Vakiland"}
p37
F0.001
sV{"Reva Kasman"}
p38
F0.001
sV{"Y. Akematsu","M. Tsuji","K. Minetaki"}
p39
F0.001
sV{"Hisako Hara","Yukio Seki","Noriyuki Murai","Isao Koshima","Takuya Iida","Makoto Mihara","Takeshi Todokoro"}
p40
F0.001
sV{"Marcus R Munaf\ufffd_","Mike W Peacey","In-Uck Park"}
p41
F0.001
sV{"W. Rottbauer","V. Hombach","S. Stiller","P. Bernhardt","D. Walcher"}
p42
F0.001
sV{"Maarten J Postma","Petros Pechlivanoglou","Jelena Stevanovic"}
p43
F0.001
sV{"Cynthia J. Carson"}
p44
F0.001
sV{"T. S. Mikkola","S. Vuorento","O. Ylikorkala","M. Vaisanen-Tommiska","P. Rahkola-Soisalo"}
p45
F0.001
sV{"Irena Anna Frei","Katharina Fierz","Angela Poat","Martina Gisin"}
p46
F0.001
sV{"R. W. Nipper","C. Q. Doe","K. E. Prehoda","K. H. Siller","N. R. Smith"}
p47
F0.001
sV{"J. Kelly Anthony","Jane Thomas","Josephine Kavanagh"}
p48
F0.001
sV{"Katherine A Yeager","Susan Bauer-Wu"}
p49
F0.001
sV{"J. J. Coran","T. Koropeckyj-Cox","C. L. Arnold"}
p50
F0.001
sV{"Carey E. Andrzejewski"}
p51
F0.001
sV{"Marcie W. Handler","James K. Luiselli","Jennifer A. Mautone"}
p52
F0.001
sV{"J M Cisler","T Mletzko","C D Kilts","S Tripathi","G A James","X P Hu","C Heim","C B Nemeroff","H S Mayberg"}
p53
F0.001
sV{"S. Orita","M. Takaso","S. Ohtori","S. Kishida","G. Inoue","M. Suzuki","K. Yamauchi","N. Ochiai","M. Yamashita","Y. Eguchi","K. Takahashi"}
p54
F0.001
sV{"Corinn Taylor"}
p55
F0.001
sV{"Ariela Noy","Lawrence D Kaplan","Yanxing Yu","Alexandra M Levine","Richard F Ambinder","Susan E Krown","Bruce J Dezube","Lan Lin","Jeannette Y Lee","Gary S Hayward"}
p56
F0.001
sV{"H Zakrzewska-Jastrzebska"}
p57
F0.001
sV{"H H\u0326ger","W Sieghart","T Klausberger","I Milenkovic","M Vasiljevic","D Maurer"}
p58
F0.001
sV{"J. P. Heath","R. L. Williams","M. H. Pritchard"}
p59
F0.001
sV{"L J Hahn","C J Chiu","M L Chang","L L Hsieh","Y S Kuo","H M Chen","C P Chiang","C J Chen"}
p60
F0.001
sV{"S. Vernino","P.A. Low","P. Sandroni","K. Kimpinski","V. Iodice"}
p61
F0.001
sV{"NCT01153620 "}
p62
F0.001
sV{"A Philotheou","S R Heller","J Jendle","M-A Gall","K K\ufffd\ufffdlendorf","G P Ross","G Perriello","I Pavlic-Renar"}
p63
F0.001
sV{"E. Hsu","S. P. Cohen"}
p64
F0.001
sV{"T. V. Cloward","J. M. Walker","S. Rhondeau","R. J. Farney"}
p65
F0.001
sV{"Gianluca Rigatelli","Paolo Cardaioli","Massimo Giordan","Ashesh Buch","Laura Oliva","Dobrin Vassiliev","Aravinda Nanjiundappa","Fabio Dell'Avvocata","Ramesh Daggubati","Dario Adami"}
p66
F0.001
sV{"Albert K. K. Chung","Siew-eng Chua"}
p67
F0.001
sV{"T. Foltynie","R.A. Barker","S.J.G. Lewis","C.H. Williams-Gray"}
p68
F0.001
sV{"S. Lin","S. E. Nissen","K. Wolski","I. Sipahi","E. M. Tuzcu","S. J. Nicholls","T. Churchill","P. Schoenhagen","T. Crowe","C. Wang","A. Loyd","C. Apperson-Hansen","W. A. Magyar"}
p69
F0.001
sV{"Susanna C Larsson","Ann Burgaz","Alicja Wolk","Nicola Orsini"}
p70
F0.001
sV{"B. Heljic","R. Komel","I. Eminovic","F. Gavrankapetanovic","J. Prezelj","J. Karamehic"}
p71
F0.001
sV{"Abdul Basit Baba","J Kowshik","G Deepak Reddy","Hemant Giri","Madhulika Dixit","Siddavaram Nagini"}
p72
F0.001
sV{"K Ishikawa-Takata","T Ohta","K Moritaki","T Gotou","S Inoue"}
p73
F0.001
sV{"Nk Shukla","Sn Das","P Gaur","Ak Singh"}
p74
F0.001
sV{"R M Jones","P Conzen"}
p75
F0.001
sV{"Dilokthornsakul P.","Joo M.J.","Lee T.A.","Pickard A.S.","Lin F.J."}
p76
F0.001
sV{"D. L. Uehara","C. Nishita","T. Tom","G. Cardazone"}
p77
F0.001
sV{"Everard W Thornton","Carolyn A Young","Alan Tennant","John Ealing","Kevin Talbot","[Collective Name] UKMND-QoL Group","Chris J Gibbons","Pamela J Shaw"}
p78
F0.001
sV{"Stuart Calver","Julia Nichols","Rachel C1  - Fr\u0334n systematiska \u0326versikter -s\u0326kningen CN  - Cinahl DB  - c8h DO  - 10.1179/1743288X12Y.0000000021 DP  - EBSCOhost Chester"}
p79
F0.001
sV{"S. B. Venkateshiah","N. A. Collop"}
p80
F0.001
sV{"Carolyn H McCabe","Shaun G Goodman","Frans Van de Werf","David A Morrow","Elliott M Antman","Eugene Braunwald","Kenneth W Mahaffey","Marc Cohen","Ian B Menown","Sabina A Murphy","Charles Michael Gibson"}
p81
F0.001
sV{"Alexander Attard","Josephine Psaila","Adrian Zammit","Deborah Grech Marguerat"}
p82
F0.001
sV{"K. Sandrick"}
p83
F0.001
sV{"Ju-Seong Kim","Dong-Seok Kim","Eun-Kyung Park","Kyu-Won Shim"}
p84
F0.001
sV{"Milagros M. Sessions","Kevin J. Miller"}
p85
F0.001
sV{"Andrea Tendas","Paolo de Fabritiis","Marco Giovannini","Daniela Piccioni","Roberto Palumbo","Alessio Pio Perrotti","Luca Cupelli","Teresa Dentamaro","Laura Scaramucci","Pasquale Niscola"}
p86
F0.001
sV{"Abdi Rasekh","Jie Cheng","Ali Massumi","Michael R Ujhelyi","Vadim Levin","Mehdi Razavi","James A Coles","Margit Nemeth","Ilyas Colombowala"}
p87
F0.001
sV{"Marlon Barg","Emilio L Streck","Lara M Gomes","Vanessa M Andrade","Daniela D Leffa","Felipe Dal-Pizzol","Fabricia Petronilho","Francieli Vuolo","Milena Carvalho-Silva","Fernanda Balbinot","Gislaine T Rezin"}
p88
F0.001
sV{"D Chochol\ufffd\ufffd\ufffd","R Chaloupka","B Kala","J Gallo","M Netval"}
p89
F0.001
sV{"Yong-Kyun Kim","Tae Yoong Jeong","Won Hyuk Chang","Sang Chul Lee","Jeong-Gyu Yoon","Dong Suk Kim"}
p90
F0.001
sV{"Marie-Pierre Chenard","Nassim Dali-Youcef","Emilie Buache","Marie-Christine Rio","Jinxiang Tan"}
p91
F0.001
sV{"P G\u0329rard","J Montesanti","P Lepage","M M Massin"}
p92
F0.001
sV{"J. DO  - 000268051 [pii] 10.1159/000268051 [doi] DP  - Nlm ET  - 2009/12/24 Rizvi","F. H. Nawaz"}
p93
F0.001
sV{"Wei Gao"}
p94
F0.001
sV{"Patil S.","Horobin H."}
p95
F0.001
sV{"A. D. Hay","A. Lovering","C. Costelloe","A. Montgomery","D. Lewis","C. McNulty"}
p96
F0.001
sV{"O E Havik","P Carlbring","L G \ufffd\ufffdst","T Nordgreen","G Andersson","T Furmark"}
p97
F0.001
sV{"Catherine Mathews","Moleen Zunza","Adel Ferreira","Nicola Low","Taryn Young"}
p98
F0.001
sV{"B. Rossi","A. Piccioli","G. Maccauro","L. Scaramuzzo","F. Frenos","R. Capanna"}
p99
F0.001
sV{"T. Katayama","K. Furuta","M. Akahane","H. Ono","R. Fujitani"}
p100
F0.001
sV{"Benjamin Zendejas","Stanley J Hamstra","Rose Hatala","David A Cook","Amy T Wang","Jason H Szostek","Patricia J Erwin","Ryan Brydges"}
p101
F0.001
sV{"S. A. Brown","F. B. Garry"}
p102
F0.001
sV{"Xinran Wang","Chenhuan Ding","Lilan Chen","Shu Li","Ting Liu","Xia Yin","You Wang","Xiangjun Sun","Wen Di","He Li"}
p103
F0.001
sV{"Christos A Venetis","Basil C Tarlatzis","Konstantinos A Toulis","Efstratios M Kolibianakis","Dimitrios G Goulis","Ioannis Papadimas"}
p104
F0.001
sV{"Antoine Hone-Blanchet","Shirley Fecteau"}
p105
F0.001
sV{"D Caron","S J Witchell","M A Jewett","E L St Louis","R R Gray","C Bombardier","S Kumra","K E Psihramis","M R Ryan"}
p106
F0.001
sV{"OR. International Society for Technology in Education, Eugene","Bjorn Norstrom"}
p107
F0.001
sV{"S. G. Jenkins","T. M. File","D. J. Farrell"}
p108
F0.001
sV{"E. L. Krivchenia","M. I. Evans","M. A. Ayoub","V. L. Miller","S. B. Ransom"}
p109
F0.001
sV{"[Collective Name] CARE Group","Joel J Gagnier","David Moher","Douglas G Altman","Gunver Kienle","David Riley","Harold Sox"}
p110
F0.001
sV{"D. R. Sullivan","G. Netzer"}
p111
F0.001
sV{"Paolo Boffetta","Giovanni Corrao","Irene Tramacere","Vincenzo Bagnardi","Eva Negri","Lorenza Scotti","Werner Garavello","Matteo Rota","Carlo La Vecchia","Federica Turati","Farhad Islami"}
p112
F0.001
sV{"NCT01413984 "}
p113
F0.001
sV{"C. Y. Yang","T. N. Wang","H. F. Chiu","C. H. Lee","J. F. Chiu","Y. C. Ko"}
p114
F0.001
sV{"J R Dettori","B D Pearson","C J Basmania","W M Lednar"}
p115
F0.001
sV{"K. Radig","A. Roessner","P. Buhtz"}
p116
F0.001
sV{"A. G. Parks","J. F. McPartlin"}
p117
F0.001
sV{"Luca Maria Sconfienza","Ezio Lanza","Gianpaolo Cornalba","Dario Poretti","Catherine Cyteval","Pierre Viala","Francesco Sardanelli","Yann Thouvenin"}
p118
F0.001
sV{"T. Yamamoto","T. Takano","M. Takano","W. Higuchi","Y. Nitahara","K. Saito","D. Shi","K. Ozaki"}
p119
F0.001
sV{"R. V. Iyer","G. M. Woods","E. Vichinsky","T. R. Kinney","J. I. Verter","S. T. Miller","C. T. Holbrook","C. H. Pegelow","J. M. Falletta","G. R. Buchanan"}
p120
F0.001
sV{"Jennifer Payne","Rukshanda Ahmad","Gregory Doyle","Norm Phillips","Anna M Chiarelli","Christine Wilson","Kathleen Decker","Andrew Coldman","Bin Zhang","Jacques Brisson"}
p121
F0.001
sV{"Roger S McIntyre","Avnish Tripathi","Jeanette M Jerrell"}
p122
F0.001
sV{"N\u033cria Lloberas","Marcel la Franquesa","Josep M Cruzado","Josep M Griny\ufffd_","In\u0329s Rama","Gabriela Alperovich","Immaculada Herrero-Fresneda","Joan Torras","Pepita Gim\u0329nez-Bonaf\u0329"}
p123
F0.001
sV{"Tina M Blackmore","Kirsty Dougal","Hilary J Worgan","Eric Pinloche","Gemma Curtis","C Jamie Newbold","Neil R McEwan","Susan E Girdwood","Pat A Harris","Caroline McG Argo","Alex Dugdale"}
p124
F0.001
sV{"I. Roberts","E. Heitman","C. Diguiseppi","T. Dinh-Zarr"}
p125
F0.001
sV{"M. P. Bach","D. Cosic"}
p126
F0.001
sV{"Demosthenes B Panagiotakos","Katherine Esposito","Christina-Maria Kastorini","Dario Giugliano"}
p127
F0.001
sV{"J van der Meulen","J Kluck","E van Dijk","J H M Straatman"}
p128
F0.001
sV{"Anastasiou M","Tzortzopoulou A","Emexidis T","Koudouna E","Pouliou A","Vasilas N"}
p129
F0.001
sV{"Eric J Lentsch","Jordan Whitney Rawl","Michael J Caplan"}
p130
F0.001
sV{"Roya Etemad-Rezai","Amir M Owrangi","Nabil Hussain","Jack Chiu","Andrew Lu","Brandon Entwistle","Grace Parraga"}
p131
F0.001
sV{"D. W. Badger"}
p132
F0.001
sV{"B. Pollin","C. Geny","J. P. Nguyen","P. Cesaro","A. Feve"}
p133
F0.001
sV{"T. Sone"}
p134
F0.002
sV{"A. Erol","J. B. Celik","I. Kara","A. Topal","S. Guven"}
p135
F0.001
sV{"H. A. P. Pols","C. M. van Duijin","S. W. J. Lamberts","I. Rietveld","A. Hofman","J. A. M. J. L. Janssen"}
p136
F0.001
sV{"M Raderer","C Gedlicka","A Lenauer","D Depisch","W Scheithauer","B Schneeweiss","W Fiebiger","F Lang","G V Kornek","B Sch\ufffd\ufffd\ufffd_ll"}
p137
F0.001
sV{"Yang M","Li J","Li Y","Zhou M","Yang H","Shi X","Li X","Yuan H"}
p138
F0.001
sV{"Dominic S Carreira","Ross M Borzykowski","John Kozy","Steven D Needell"}
p139
F0.001
sV{"Hilary L. Bekker","David J. Dodwell","Rosalind F. Collins"}
p140
F0.001
sV{"Julia Dawn Jones","Touran Heidi Keen","Peter Sze Chai Wong","Reza Ashrafi","Omer Khanzada","Derek Richard Robinson","Upul Wickramarachchi"}
p141
F0.001
sV{"Zhigang Chen","Minyue Jia","Xiaoying Zhao","Xin He"}
p142
F0.001
sV{"S Ikawa","M Sudoh","M Suzuki","S Matsubara","M Shiota","K Kawakami"}
p143
F0.001
sV{"R Asanger","P M Shah","F M Kahan"}
p144
F0.001
sV{"K. Peisker","B. Singh","S. Sanyal","Q. Chai","X. Ge","N. Metzendorf","S. Dasgupta"}
p145
F0.001
sV{"Narumi Tomisawa","Akihiro C Yamashita"}
p146
F0.001
sV{"K. C. McDermott","J. L. Blomquist","V. L. Handa","E. C. Evers"}
p147
F0.001
sV{"N. Wilson"}
p148
F0.001
sV{"V. Hirsh","J.Y. Han","F. Blackhall","S. Iyer","D.W. Kim","A. Shaw","A. Reisman","K. Wilner","H. Nokihara","B. Besse"}
p149
F0.001
sV{"Enie Akhtar Bt Nawawi","Ahlam M Al-Kharabsheh","Tsia-Shu Lo"}
p150
F0.001
sV{"M Caliskan","M Karab\u0326c\ufffd_oglu","A Citak","N Uzel","K Aydin","A Nayir","D D Soysal"}
p151
F0.001
sV{"Felipe Serr\u0323o de Souza","Ney Pecegueiro do Amaral","Carlos Henrique Mendes","Hilton Augusto Koch","Vincenzo Giordano","Andr\u0329 Bergamin"}
p152
F0.001
sV{"Stephen E Gilman","Chaoqiang Jiang","Kar Keung Cheng","C Mary Schooling","Tai Hing Lam","Michael Y Ni","Gabriel M Leung","Weisen Zhang"}
p153
F0.001
sV{"M Ladetto","D Caracciolo","G Rossi","C Marinone","L Bergui","A Cuttica","A Salomone","M Boccadoro","I Ricca","C Tarella","M Pagano","F Zallio","P Gavarotti","A Pileri","A de Crescenzo"}
p154
F0.001
sV{"Yi Wang","Yu Zhou","RongDang Hu","XiuYing Wang","Gerald Voli\u032cre"}
p155
F0.001
sV{"A. Stumpo","G. Palmieri","M. F. Pantusa","M. Marasco","V. Fuoco"}
p156
F0.001
sV{"T. Isayama","M. Crowther","C. Chai-Adisaksopha","W. Lim"}
p157
F0.001
sV{"M Katz","R Chatterjee","A Oatridge","J B Porter","G M Bydder"}
p158
F0.001
sV{"Jacques Van Hoecke","Hayat Banoujaafar","Christine Marie","Claude M Mossiat"}
p159
F0.001
sV{"M. Wang","G. Stewart","J. F. Tierney","G. Spilopoulos","W. Duncan","H. S. Hansen","Z. Rhugang","M. K. Parmar","A. Rousell","B. Launois","K. Nygaard","S. J. Arnott","M. Gignoux"}
p160
F0.001
sV{"Shao-Cheng Liu","Chi-Chung Wu","Hsing-Won Wang","Chuan-Hsiang Kao","Yueng-Hsiang Chu"}
p161
F0.001
sV{"Adam Witkowski","Ajay K Jain","Ivan Casserly","David E Kandzari","David Deaton","Paul A Sobotka","John P Foran","Krishna J Rocha-Singh","Barry T Katzen","Peter Balmforth"}
p162
F0.001
sV{"I. Hashimoto","S. Hirasawa","Y. Sawada","Y. Kasai","J. Mikami","H. Abe","M. Nakanishi","E. Bekki","K. Kasai","T. Nakamura","M. DA  - Mar DP  - NLM ET  - 1981/03/01 Omosu"}
p163
F0.001
sV{"Jutta Beier","Peter D'Andrea","Michelle Henley","Stephanie Korn","Kai-Michael Beeh","Donald Banerji","Dalal Jadayel"}
p164
F0.001
sV{"C. Dearden","J. Dodd","E. Matutes","D. Catovsky","J. Blundell","A. Rawstrom","D. Allsup","D. Oscier","T. Hamblin","S. Dodd","E. Heartin","R. Jones","J. Radford","S. Proctor","S. Agrawal","P. Hillmen","G. Follows","R. Pettitt","A. Bloor","S. Devereux","S. Carruthers"}
p165
F0.001
sV{"Maharudrappa Basnaker","Satish Bnvs","Srikala Sp"}
p166
F0.001
sV{"S Murat","H Avsever","S Y\ufffd_ksel","C S Paksoy","B Onder","K Kamburoglu"}
p167
F0.001
sV{"T. H. Michel","W. C1  - Fr\u0334n RCT-s\u0326kningen CN  - Pubmed DA  - Jul 1 DP  - NLM ET  - 2000/06/28 Rogers","A. Wagner","H. Wittink","R. Kulich","A. Sukiennik","R. Maciewicz"}
p168
F0.001
sV{"Taek-Soo Lee","W Paul Segars","Xin He","Jing Tang","Benjamin M W Tsui"}
p169
F0.001
sV{"Eunice Molinar-Toribio","Benjam\ufffd_n Pi\u0331a","Livia G\ufffd_mez","Jara P\u0329rez-Jim\u0329nez","Marta Casado","Sara Ramos-Romero","Pere Clap\u0329s","Josep Llu\ufffd_s Torres"}
p170
F0.001
sV{"H. H. Huang","J. Hale","L. Fetters","A. McBride"}
p171
F0.001
sV{"Ana Maria Baptista Menezes","David Alejandro Gonz\ufffd\ufffdlez","Elaine Cardozo Macedo","Pedro Curi Hallal","Maria de F\ufffd\ufffdtima Maia","Marli Knorst","Samuel Carvalho Dumith","Jeovany Mart\ufffd_nez-Mesa","Ricardo Bica Noal","Fernando C\u0329sar Wehrmeister","Jos\u0329 Roberto Jardim"}
p172
F0.001
sV{"Anders Halling","H\u0334kan Odeberg","Henrik Forssell","Jacob Odeberg","Marie-Louise Persson","Lennart R\u0334stam","Ivar Vaara","Ulf Lindblad","Michael Freitag"}
p173
F0.001
sV{"K. Miyoshi","T. Noma","T. Muto","H. Hagita","T. Horiguchi"}
p174
F0.001
sV{"Angela Marie Abbatecola","Andrea Corsonello","Silvia Bustacchini","Fabrizia Lattanzio","Giuseppe Paolisso"}
p175
F0.001
sV{"Matsumoto K.","Yamada F.","Fukuda S."}
p176
F0.001
sV{"Axel Schindelhauer","Pauline Wimberger"}
p177
F0.001
sV{"Robert T Trousdale","J Ryan Martin"}
p178
F0.001
sV{"Gaolang Gong","Hua Cheng","Yong He","Qi Dong","Hao Huang","Virendra Mishra"}
p179
F0.001
sV{"S. Sakamoto","Y. Okumura"}
p180
F0.001
sV{"Marc N. Gourevitch","Jennifer McNeely","David Stevens","John Rotrosen","Ellie Grossman","Laura Huben","Marc Manseau","Joshua D. Lee"}
p181
F0.001
sV{"R Webster","E Spezi","S Mukherjee","R Adams","S Gwynne","J Staffurth","B Coles"}
p182
F0.001
sV{"Raffaele De Caterina","Giulia Renda","Steen Dalby Kristensen"}
p183
F0.001
sV{"Philipp Martius","Anna Buchheim","Peter Buchheim","Susanne H\ufffd\ufffd\ufffdrz","Michael Rentrop","Cord Benecke","Peter Schuster","Melitta Fischer-Kern","Stephan Doering"}
p184
F0.001
sV{"E. Bidat"}
p185
F0.001
sV{"C K Naspitz","J O Warner"}
p186
F0.001
sV{"Hansel J Otero","Peter J Neumann","Chi H Fang","Robert J Ward","Meera Sekar"}
p187
F0.001
sV{"Kathy W Hosig","Sharon M Nickols-Richardson","Kavita H Poddar","Susan E Duncan","Eileen S Anderson"}
p188
F0.001
sV{"J. L. Grosfeld","S. Goto","G. P. Gardner","D. F. Canal","D. W. Vane"}
p189
F0.001
sV{"Chu Chen","Brian L Strom","Susan E McCann","Harvey A Risch","Lingeng Lu","Fulvio Ricceri","Immaculata De Vivo","Amanda B Spurdle","Susan E Hankinson","Pamela J Thompson","Catherine Schairer","Herbert Yu","Radhai Rastogi","Jennifer Doherty","Carlotta Sacerdote","Laurence N Kolonel","Mia M Gaudet","Kim Robien","Marc T Goodman","Piet A van den Brandt","Robert A Soslow","Jolanta Lissowska","Anthony B Miller","Kirsten B Moysich","Montserrat Garcia-Closas","Silvia Polidoro","Linda S Cook","Kristin E Anderson","Rayna K Matsuno","Xiao-ou Shu","Penelope M Webb","Kerry S Courneya","Christine M Friedenreich","Jo L Freudenheim","Yong-Bing Xiang","Brian E Henderson","Galina Lurie","Leo J Schouten","Timothy R Rebbeck","Anthony M Magliocco","Malcolm C Pike","Leslie Bernstein","Hannah P Yang","[Collective Name] Australian National Endometrial Cancer Study Group","Sara H Olson","Pamela L Horn-Ross","Marjorie L McCullough","Hoda Anton-Culver","Noel S Weiss","James R Cerhan","Louise A Brinton","Alicja Wolk","Jennifer Prescott","Xiaolin Liang","Thomas E Rohan","Yikyung Park","Niclas H\u0334kansson","Veronica Wendy Setiawan","James V Lacey","Hui Cai","Nicolas Wentzensen","Koen van de Vijver"}
p190
F0.001
sV{"O. H. Simonsen","S. T. Skou","H. Thomsen"}
p191
F0.001
sV{"R. Voss"}
p192
F0.001
sV{"Y L Ku"}
p193
F0.001
sV{"Linda M. Burton","Altman Bullard Burton Burton Burton Burton Burton Clark Conley Dilworth-Williams Fischer Foucault Franklin Gieryn Gilbert Goering Hooks Howard Kidder Lahiri Lawson Clark Lawson Clark Lawson Clark Low Massey Oliver Perkins Rosenbaum Rosenbaum Sanders Stack Allan","Sherri Lawson Clark"}
p194
F0.001
sV{"P. C. Wollan","S. J. Meraw","C. M. Reeve"}
p195
F0.001
sV{"M Schmid","R Salati","P E Bianchi","A M Bezzina","C Barone"}
p196
F0.001
sV{"Julio S G Montaner","Kora Debeck","Evan Wood","Thomas Kerr","Edward J Mills","Dan Werb"}
p197
F0.001
sV{"D. J. Weisdorf","D. Douek","Y. Tan","L. J. Burns","J. S. Miller","B. R. Blazar","M. Arora","T. DeFor","M. L. MacMillan","M. Markova","J. E. Wagner","J. N. Barker","T. Repka"}
p198
F0.001
sV{"C J Langer","J Orsini","J K Hon","S R Dakhil","M F Renschler","R D Page","V Hirsh","H Zhang","I Okamoto","M A Socinski"}
p199
F0.001
sV{"A Luciano","G Zoppi"}
p200
F0.001
sV{"Beverley J. Antle"}
p201
F0.001
sV{"Gianfranco Pagano","Giovanni Musso","Maurizio Cassader","Roberto Gambino"}
p202
F0.001
sV{"Ge H.-Y.","Fern\ufffd\ufffdndez-de-las-Pe\u0331as C.","Yue S.-W."}
p203
F0.001
sV{"W. J. Schnedl","R. W. Lipp","G. Leitner"}
p204
F0.001
sV{"Patrick Royston","Rachel Waters","Susan Mallett","Douglas G Altman","Susan Dutton"}
p205
F0.001
sV{"V Hesselbrock","A W Deckel"}
p206
F0.001
sV{"N. Smith","B. Milne","M. Zenios","M. Ramachandran","D. Little"}
p207
F0.001
sV{"Durstine JL","Mayo K","Martin SL","Kirkner GJ","Matthews CE","Hebert JR"}
p208
F0.001
sV{"I. Yang","J. Stonestreet","P. Collins","P. Masel"}
p209
F0.001
sV{"N. E. Adler","J. Lin","E. S. Epel","D. H. Rehkopf","B. A. Laraia","E. H. Blackburn","B. L. Needham","C. W. Leung"}
p210
F0.001
sV{"I. Delgado","J. Vega"}
p211
F0.001
sV{"Erik E Suarez","Bridget N Fahy","Brian A Bruckner","Courtenay R Bruce","Nathan G Allen","Harvey L Gordon"}
p212
F0.001
sV{"H. E. CN  - PubMed DA  - Dec 31 DP  - NLM ET  - 1986/12/31 Cotugno","Jr. Gallup, G."}
p213
F0.001
sV{"S Hajjem","M Hsairi","N Ben Mansour","H Skhiri","H Aounallah-Skhiri"}
p214
F0.001
sV{"D. G. Nezic"}
p215
F0.001
sV{"M. A. Alba","S. Prieto-Gonzalez","A. Garcia-Martinez","M. C. Cid","M. Butjosa","G. Espigol-Frigole","J. Hernandez-Rodriguez"}
p216
F0.001
sV{"Michiko Osuda","Satoshi Kazuma","Michiaki Yamakage","Shunsuke Tachibana","Tomo Hayase"}
p217
F0.001
sV{"A. Taylor","L. Maxwell","V. Strand","K. Phillips","P. S. Tugwell","U. Kaiser","M. de Wit","L. Gossec","J. A. Singh","E. H. Choy","L. S. Simon","R. Ostelo","P. J. Mease","P. G. Conaghan"}
p218
F0.001
sV{"David Dyzenhaus"}
p219
F0.001
sV{"Anna Brown","Jane Green","Valerie Beral","Gillian Reeves","Pat Doyle"}
p220
F0.001
sV{"K J Berkley"}
p221
F0.001
sV{"F. Bolandard","M. Bonnin","P. Duband","J. E. Bazin","J. P. Mission"}
p222
F0.001
sV{"Bashir Jiwani"}
p223
F0.001
sV{"Michela Miani","Decio L Eizirik","Laurence Ladri\u032cre","Maikel L Colli","Miriam Cnop"}
p224
F0.001
sV{"Mehak Bhatia","Shaun K Morris","Prabhat Jha","Wilson Suraweera","Jayadeep Patra","Cyril Patra","Prakash C Gupta"}
p225
F0.001
sV{"H. Y. Tong","J. Frias","R. Lubomirov","P. Lapunzina","A. M. Borobia","J. Tenorio","P. Arias","A. J. Carcas"}
p226
F0.001
sV{"A. K. Marcee","S. P. Roaten","J. B. Morrow","K. J. Kowalske","L. E. Snell","L. L. Goetz"}
p227
F0.001
sV{"Przemys\ufffd\ufffdaw P Szyber","Artur Pupka","Piotr Szyber","Jerzy Garcarek"}
p228
F0.001
sV{"Prem Ramburuth","Massimiliano Tani"}
p229
F0.001
sV{"P Michel","V Papavasileiou","G Ntaios","A Bargiota","K Makaritsis"}
p230
F0.001
sV{"Y Hirose","S Kurata","Y Abe"}
p231
F0.001
sV{"Andreas Kruse","Manh Hung Nguyen"}
p232
F0.001
sV{"S. K. Choudhary","G. S. Gulati","P. Sharma","S. Talwar","B. Airan","S. Mishra"}
p233
F0.001
sV{"Yasuhiro Koga","Kazutake Okada","Toru Ozaki","Sotaro Sadahiro","Akira Tanaka","Toshiyuki Suzuki","Hiroko Kamata"}
p234
F0.001
sV{"O. Thuemer","S. G. Sakka","E. Huttemann"}
p235
F0.001
sV{"Paul Jones"}
p236
F0.001
sV{"H Weatherly","D Epstein","J Burch","N Woolacott","D Jayne","D Fox","A Baba-Akbari Sari"}
p237
F0.001
sV{"J Arana","E Rezola","A Villanueva","M I Intxaurrondo","M Su\u0331ol","I Eizaguirre","J Garay"}
p238
F0.001
sV{"R. Daniel","M. T. Ansari","L. Weeks","S. Doucette","A. Tsertsvadze","B. Skidmore","K. Singh","L. Gaudet","M. Walker","S. Tsouros"}
p239
F0.001
sV{"NCT00750412 "}
p240
F0.001
sV{"S. Furman","D. T. Kawanishi","S. L. Song"}
p241
F0.001
sV{"R Carraro","M F Rasmussen","L Niskanen","A Harper","N Finer","S R\u0326ssner","M Kunesova","L Van Gaal","M E J Lean","A Astrup","A Rissanen","M J Savolainen","[Collective Name] NN8022-1807 Investigators"}
p242
F0.001
sV{"Terry-Lynne Marko","Tyler Watt"}
p243
F0.001
sV{"Enniati Rusli","Chien-Hui Yang"}
p244
F0.001
sV{"John Petkov","Steve Bailey","Samuel Chalmers","Michael Heynen","Ebonie Scase","Mary E Magarey"}
p245
F0.001
sV{"R. CN  - PubMed DA  - Feb DP  - NLM ET  - 2004/03/05 Boyle"}
p246
F0.001
sV{"Lauren C Pinter-Brown"}
p247
F0.001
sV{"Salvatore Dimauro","Carolina Ionete","Hasan O Akman","Carmen Paradas","David E Jones","Michio Hirano","Peter N Riskind","Thomas W Smith","Heather Lau"}
p248
F0.001
sV{"E. T. Rolls"}
p249
F0.001
sV{"T. Dovan","R. R. Neutra","D. A. Savitz","R. I. Kavet"}
p250
F0.001
sV{"C. Gruppi","C. Medeiros","C. D. Frimm","M. Curi","E. Krieger","B. Trezza"}
p251
F0.001
sV{"C.P. Richter","L.H. Riley Jr."}
p252
F0.001
sV{"Luiz Rog\u0329rio de Carvalho Oliveira","Nilza Aparecida Almeida de Carvalho","Fl\ufffd\ufffdvio C L Cavalcanti Ara\u033cjo","Izabela Menezes Pagotto","Paulo Chiavone"}
p253
F0.001
sV{"Shibin Mathew","Ipsita Banerjee"}
p254
F0.001
sV{"M. Galus"}
p255
F0.001
sV{"Rossana De Palma","Paolo Ortolani","Caterina Caminiti","Emilia Solinas","Piera Angelica Merlini","Diego Ardissino","Giorgia Paoli","Maria Francesca Notarangelo","Paolo Guastaroba","Antonio Marzocchi","Luigi Vignali","Roxana Mehran","Antonio Manari"}
p256
F0.001
sV{"Qiong Chen","Wei Fan","Qianhong Ma","Zhongying Huang","Zhun Xiao","Shangwei Li"}
p257
F0.001
sV{"N Zwetyenga","A Bouaichi","S Aimad-Eddine","B Ella","X-A Mommers"}
p258
F0.001
sV{"Isabella Soreca","Andrea Fagiolini","David J Kupfer","Bret H Goodpaster","Sara B Fleet-Michaliszyn","Amy D Otto","John M Jakicic"}
p259
F0.001
sV{"[Collective Name] Jennings","[Collective Name] Kingwell"}
p260
F0.001
sV{"Sebastien Racinais","Olivier Girard","Lars Nybo","Magni Mohr","Martin Thomassen"}
p261
F0.001
sV{"Pardo-Masferrer J. Murcia M. Soto R. Gonzalez J. Alastuey I. Montemuino S. Ortiz I. Mena A"}
p262
F0.001
sV{"F. Coletta","S. D'Arienzo","P. Sansone","C. Aurilio","M. C. Pace","G. Zagaria","R. Stumbo"}
p263
F0.001
sV{"Duncan M Brooks","Pramit M Phal","Rory Wolfe"}
p264
F0.001
sV{"T Delormier","A C Macaulay","M Cargo","A M McComber","L Potvin"}
p265
F0.001
sV{"J. Falkingham","M. Evandrou","A. Vlachantoni","J. Robards"}
p266
F0.001
sV{"A. Wotherspoon","M.M. Taj","N. Hadzic","M. Burke","R. Hobson","S.E. Height","M. Viskaduraki","C.R. Pinkerton"}
p267
F0.001
sV{"Cameron F Abrams","Spencer T Stober"}
p268
F0.001
sV{"Estela Derazne","Jeremy D Kark","Yaron Niv","Lital Keinan-Boker","Ari Shamiss","Irena Liphshitz","Arnon Afek","Dorit Tzur","Moshe Furman","Zohar Levi"}
p269
F0.001
sV{"Jai K Das","Zohra S Lassi","Zulfiqar A Bhutta","Guleshehwar Zahid","Aamer Imdad"}
p270
F0.001
sV{"K. Y. Tseng","H. F. Huang","K. I. Cheng","H. T. Hsu","P. Y. Chang","Y. C. Chen","I. C. Lu"}
p271
F0.001
sV{"M Eckerbom","T Magnusson"}
p272
F0.001
sV{"E. A. Martin","L. F. Costa","H. Li","Y. Zhang","M. P. Viana","S. M. Rafelski","W. F. Marshall"}
p273
F0.001
sV{"B. J. Caan","E. M. John","T. H. M. Keegan","A. H. Wu","L. Bernstein","S. Shariff-Marco","R. Sposto","C. C. Tseng","J. Sullivan-Halley","Y. Lu","C. Vigen","M. L. Kwan","S. L. Gomez","A. W. Kurian","I. Cheng","V. S. Lee"}
p274
F0.001
sV{"G\u0329raldine Martin-Gaujard","Floriane Delphin-Combe","Isabelle Rouch","Solveig Relland","Pierre Krolak-Salmon"}
p275
F0.001
sV{"D. Ring","R. G. Albers","T. G. Guitton"}
p276
F0.001
sV{"R. P. Troiano","M. D. Carroll","R. R. Briefel","K. Bialostosky"}
p277
F0.001
sV{"J. Oskam","J. H. Hegeman","J. Palen","H. J. Duis","P. A. M. Vierhout"}
p278
F0.001
sV{"Periyanayagam U.","Pang P.S.","Kiraly A.","Lyden A.","Chan J."}
p279
F0.001
sV{"A. L. Steege","T. Alterman","M. R. Petersen","J. Li"}
p280
F0.001
sV{"Denys T. Lau","Brass Buchanan Deandrea Glaser Guest Hodgson Huerta Lau Lau Miles Miller Parker-Oliver Raina Teno Weller Bostick","Celia Berdes","Jonathan Masin-Peters","Megan Ong"}
p281
F0.001
sV{"David B. Finkelstein"}
p282
F0.001
sV{"Y Takagi","N Hashimoto","Y Goto"}
p283
F0.001
sV{"Al Sayed Hussain A","Saheb Sharif-Askari N","Sulaiman SA","Al-Mulla AA","Tabatabai S","Saheb Sharif-Askari F"}
p284
F0.001
sV{"M. Mitka"}
p285
F0.001
sV{"N Black  Brazier, J. & Fitzpatrick, R."}
p286
F0.001
sV{"D N Levine"}
p287
F0.001
sV{"E A M Janssen","C Brodin","P Ogreid","K Kjellevold","L G G\ufffd\ufffdransson","L Vatten","P R Romundstad","R Omdal","K Wildhagen"}
p288
F0.001
sV{"A Rezq","D Covello","C Godino","M Montorfano","A Colombo"}
p289
F0.001
sV{"Wu-Yuin Hwang","Guo-Liang Hsu"}
p290
F0.001
sV{"Richard J. A. Murrin"}
p291
F0.001
sV{"S. Mallery","J. Van Dam"}
p292
F0.001
sV{"Savvas Stafilidis","Adamantios Arampatzis"}
p293
F0.001
sV{"Serkan Durdu","Ahmet R\ufffd\ufffd\ufffd_\ufffd\ufffd\ufffdhan Akar","G\ufffd\ufffd\ufffd_nseli Cubuk\ufffd\ufffd\ufffduo\ufffd\ufffd\ufffd\ufffdlu Deniz"}
p294
F0.001
sV{"D. L. Spangler"}
p295
F0.001
sV{"Marlies L van Bekkum","Barbara C van Munster","Marije E Hamaker","Carolien H Smorenburg","Peter L M Thunnissen"}
p296
F0.001
sV{"Andreas M\ufffd\ufffd\ufffd_gge","Christoph Hanefeld","Rainer H B\ufffd\ufffd\ufffdger","[Collective Name] CARDIAC study investigators"}
p297
F0.001
sV{"G R Chalmers","K M Knutzen"}
p298
F0.001
sV{"R. R. M. Bos","E. W. Hoving","M. Wagemakers"}
p299
F0.001
sV{"NCT01713205 "}
p300
F0.001
sV{"Linda L. Morris","Andrea Whitmer","Erik McIntosh"}
p301
F0.001
sV{"David Binns","Robert E Ware","Damian E Myers","Marie-Claude Gregoire","Eddie W Lau","Lucy Vivash","Terence J O'Brien","Viviane Bouilleret","Mark J Cook","Rodney J Hicks","Peter Roselt"}
p302
F0.001
sV{"N. Klauber-DeMore","K. Fecho","N. R. Miller","W. S. Blau","S. A. Merritt","C. S. Hultman"}
p303
F0.001
sV{"G. S. McDonald","J. W. Bachman","P. C. O'Brien"}
p304
F0.001
sV{"S. A. French","M. Story","P. J. Hannan"}
p305
F0.001
sV{"S. A. Murrell","B. T. Mast","A. R. Azar"}
p306
F0.001
sV{"B. Weber","A. Berger"}
p307
F0.001
sV{"Jeff Knight","Jeffery M Smith","Thomas E Trumble","Wren V McCallister"}
p308
F0.001
sV{"O Widholm","A M Lehtinen","J Hovorka"}
p309
F0.001
sV{"W. Hummig","J. Stechman Neto","L. F. Tonial"}
p310
F0.001
sV{"R. Jensen","F. G. Matos","A. da Cruz Dde","P. S. Silveira","M. H. Lopes","N. R. Ortega"}
p311
F0.001
sV{"Virginia D Buckles","Andrew J Saykin","Eric McDade","Stephen P Salloway","Aaron P Schultz","Peter R Schofield","Randall Bateman","Adam M Brickman","Nick C Fox","John C Morris","John M Ringman","Christopher C Rowe","Paul Thompson","Clifford Jack","Beau M Ances","Allison M Goate","Robert A Koeppe","Stephen Correia","Jasmeer P Chhatwal","Caroline A Sullivan","Anne M Fagan","Richard Mayeux","Daniel S Marcus","Tammie L S Benzinger","Keith Johnson","Reisa A Sperling","Chengjie Xiong"}
p312
F0.001
sV{"Alfredo D'Aniello","Addolorata Mascia","Vincenzo Esposito","Pier Paolo Quarato","Marco De Risi","Angelo Picardi","Giancarlo Di Gennaro","Liliana G Grammaldo","Sara Casciato","Giulio N Meldolesi"}
p313
F0.001
sV{"Barbara Zeligs","Stephen M Peters","Onorina Di Mita","Shahla Riazi","Henry Yeager","German A Benavides","Joseph A Bellanti"}
p314
F0.001
sV{"Fred W Benenati"}
p315
F0.001
sV{"S. Gouin","J. Gravel","M. Roy","D. Lebel","T.-T. Vo"}
p316
F0.001
sV{"Hanan F Khafagy","Mona M Hassan","Emad S Osman","Faten M El-Shanawany","Abdel Rahman M Fathallah","Yasser M Samhan","Gehan G El-Fandy"}
p317
F0.001
sV{"R Tello","K Kandarpa","R F Munden","S Hooton","R Pugatch"}
p318
F0.001
sV{"Lucy Bowes","Barbara Maughan","Avshalom Caspi","Louise Arseneault","Alan Taylor","Terrie E Moffitt"}
p319
F0.001
sV{"J M Teno"}
p320
F0.001
sV{"M. C. Klein"}
p321
F0.001
sV{"L. J. Rapport","J. A. Griffen","L. A. Bieliauskas","C. Burt","R. C. Bryer"}
p322
F0.001
sV{"R R van Rijn","S G F Robben"}
p323
F0.001
sV{"E Larson","B A Laughon","K Mayur"}
p324
F0.001
sV{"G. Abraham","Jr. Fromm, R. E.","P. E. Marik","J. Varon","P. Careau"}
p325
F0.001
sV{"H. Shue"}
p326
F0.001
sV{"Yusuf S","Fox KA","Chow CK","Anand SS","Jolly S","Rao-Melacini P"}
p327
F0.001
sV{"B O Olley"}
p328
F0.001
sV{NULL}
p329
F0.063
sV{"J. L. Lloyd"}
p330
F0.001
sV{"E. H. Hwang"}
p331
F0.001
sV{"M A Bleiker"}
p332
F0.001
sV{"Rutherford OM","Kennedy J","Skelton DA"}
p333
F0.001
sV{"Sergio Raposeiras-Roub\ufffd_n","Jos\u0329 Maria Garc\ufffd_a-Acu\u0331a","Jos\u0329 Ram\ufffd_n Gonz\ufffd\ufffdlez-Juanatey"}
p334
F0.001
sV{"D J Bruno","B S Bloom","R Jayadevappa","D Y Maman"}
p335
F0.001
sV{"Skye P Barbic","Paul W Andrews","Zachary Durisko"}
p336
F0.001
sV{"Marlos Rodrigues Domingues","Ana Claudia Gastal Fassa","Maria Laura Vidal Carret"}
p337
F0.001
sV{"J. P. Cegielski","S. P. Althomsons"}
p338
F0.001
sV{"Deepika and Leibowitz Keith and Gowda Ramesh M. and Shapiro Michael and Khan Ijaz A. Misra"}
p339
F0.001
sV{"Nuria Malats","Alfredo Carrato","Manolis Kogevinas","Nathaniel Rothman","Consol Serra","Reina Garcia-Closas","Debra Silverman","Adonina Tardon","Kenneth P. Cantor","Mustafa Dosemeci","Gemma Castano-Vinyals","Roel Vermeulen"}
p340
F0.001
sV{"S. Regina-Ribeiro","C. Tortoza","R. P. S. Lima","S. T. T. de Freitas","P. R. Lucareli","M. O. Lima","M. T. Pacheco","J. Gomes-Lucareli","R. A. Lopes-Martins"}
p341
F0.001
sV{"Ilaria Casetta","Gerardo Iuliano","Graziella Filippini"}
p342
F0.001
sV{"Rich Sinert","Shoma Desai","Antonia Hipp","Carmen Lopez"}
p343
F0.001
sV{"Bin Hu","Hong-ju Mao","Jing Zhao","Ying Huang","Rong-huan Yu","Chao Guan"}
p344
F0.001
sV{"A D Nageswari","S Vani","P Muthuveeralakshmi","S Shanmugalakshmi","V Dheenadhayalan","G Arivarignan","R M Pitchappan"}
p345
F0.001
sV{"C. B. Mogensen","I. B. Jacobsen","L. Wiboe"}
p346
F0.001
sV{"E. V. Kumpyak","V. N. Kiselev","A. V. Kharlov","V. V. Chupin","A. V. Morozov","B. M. Kovalchuk","V. B. Zorin"}
p347
F0.001
sV{"G Spitaleri","L Adamoli","F Vecchio","F de Braud","C Catania","A Delmonte","F Toffalorio","T De Pas","C Noberasco","D Radice","A Goldhirsch"}
p348
F0.001
sV{"N. A. Mark Estes","Scott McNitt","Wojciech Zareba","Bronislava Polonsky","Douglas Laidlaw","Mark S. Link","Frank Marcus","Kathleen Gear"}
p349
F0.001
sV{"Justin W Timbie","Marcela Horvitz-Lennon","Sharon-Lise T Normand","Richard G Frank"}
p350
F0.001
sV{"T Fors\u0329n","J Eriksson","C Osmond","D Barker"}
p351
F0.001
sV{"M. Tercedor S\ufffd\ufffdnchez","J.A. Prieto Velasco"}
p352
F0.001
sV{"Basta Beard Beard Beel-Bates Bierman Bowling Cagney Calkins Carder Carlsson Chan Clark Clarke Cutchin Cutler Davidoff Diehl Doty Durrett Feldman Foote Freedman Gaugler Gitlin Gitlin Glass Golant Golant Golant Golant Golant Golant Golant Grafova Gross Hunt Alley","Stephen M. Golant"}
p353
F0.001
sV{"Steven G Little","K Angeleque Akin-Little","Shari Melman"}
p354
F0.001
sV{"M. Rossignol","F. A. Allaert","B. Bannwarth","J. P. C1  - Fr\u0334n RCT-s\u0326kningen CN  - Pubmed DA  - Jun DP  - NLM ET  - 2005/06/09 Valat","S. Rozenberg","B. Avouac"}
p355
F0.001
sV{"P. Domicel","A. Tammelin","E. Stahle","A. Hambraeus"}
p356
F0.001
sV{"T. L. Davies","B. Bovill","S. Johnston","M. T. May","M. Gompels"}
p357
F0.001
sV{"Kamel Alhanout","Jean-Christophe Dubus","Talita Mota Goncalves","Veronique Andrieu","Alain Nicolay","Davi Pereira de Santana"}
p358
F0.001
sV{"Jesper I Reimers","Sabrina G Elles\ufffd\ufffde","Henrik \ufffd\ufffd Andersen"}
p359
F0.001
sV{"K.L. Armstrong","G.A.M. Finerman","K.L. Markolf","M.S. Shapiro","J.R. Slauterbeck"}
p360
F0.001
sV{"Woo Young Park","Do Jin Lee","Jong Sir Lim","Jong Soo Heo","Jeoung Yoon Seo","Ronald D. DeLaune","Ju Sik Cho"}
p361
F0.001
sV{"M. D. Barton","J. Simon","J. E. Axon","S. Moss","S. G. Morris","D. J. Trott","S. Fury","M. Maiwald","P. Giffard","D. Jordan","P. Southwell"}
p362
F0.001
sV{"D J Sadler","R R Gray","B D Schouten","J M Bohnen","J K Wong","R Mustard","G Doyle","R A Pugash","J Sanabria"}
p363
F0.001
sV{"C. Hagen","K. Brusgaard","M. DA  - Mar DO  - jc.2004-1214 [pii] 10.1210/jc.2004-1214 [doi] DP  - Nlm ET  - 2004/12/16 Andersen","A. P. Hermann","J. Hangaard","D. Glintborg"}
p364
F0.001
sV{"E H Choy","D L Scott","P A Scott","G H Kingsley","C M Smith"}
p365
F0.001
sV{"R Fernandez","J Rello","N Bonsoms","A Artigas","J Mestre","F Baigorri","L Blanch","D Fontanals","J Valles"}
p366
F0.001
sV{"R. Luck","P. Mago","N. Fumo"}
p367
F0.001
sV{"B N Prichard","J W Black"}
p368
F0.001
sV{"P. F. White"}
p369
F0.001
sV{"S. Iannazzo","M. Miravitlles","L. Pradelli","O. Zaniolo"}
p370
F0.001
sV{"B. Escudier","A. Ravaud","F. Rolland","A. Blesius","B. Beuzelink","S. Oudard","C. Chevreau"}
p371
F0.001
sV{"Rob M van Dam","Frank B Hu","Isao Muraki","Joann E Manson","Fumiaki Imamura","Qi Sun","Walter C Willett"}
p372
F0.001
sV{"David Cooper","Erik K Alexander"}
p373
F0.001
sV{"Silke Zimmermann","Stefan A Stachelhaus","Christiane Hollmann"}
p374
F0.001
sV{"Martijn W Heymans","Tobias van den Berg","Han J R Anema","Lieke van Oort","Bart W Koes","Arianne P Verhagen","Riekie H C W de Vet"}
p375
F0.001
sV{"Michelle Firestone"}
p376
F0.001
sV{"Tom Gromann","Roland Hetzer","Alexander Mladenow","Thorsten Drews","Semih Buz","Axel Unbehaun","Stephan Dreysse","Miralem Pasic","Marian Kukucka"}
p377
F0.001
sV{"P. Gluszko","A. Bielinska"}
p378
F0.001
sV{"A. DA  - Jun DO  - jc.2004-1843 [pii] 10.1210/jc.2004-1843 [doi] DP  - Nlm ET  - 2005/03/31 Dunaif","A. R. Kunselman","R. S. Legro","C. L. Gnatuk"}
p379
F0.001
sV{"Andrew Paul Baranowski"}
p380
F0.001
sV{"W. Bodsch","T. Rommel"}
p381
F0.001
sV{"Stephanie J Weinstein","Rachael Z Stolzenberg-Solomon","Philip R Taylor","Barry I Graubard","Jarmo Virtamo","Demetrius Albanes","Li Jiao"}
p382
F0.001
sV{"Jennifer L. Edwards","Cherie A. Lyons","Marcia E. Swords","Mary S. Rogers","Kathy E. Green"}
p383
F0.001
sV{"T Philips","J D Rothstein"}
p384
F0.001
sV{"L. N. Borrell","K. Rose","B. L. Clark","D. Catellier","A. V. D. Roux"}
p385
F0.001
sV{"Michiel A J Kompier","Etty G A Wielenga-Meijer","Dani\ufffd\ufffdl H J Wigboldus","Toon W Taris"}
p386
F0.001
sV{"K. Iijima","A. Tanimoto","Y. Kitagaki","M. Hiura","H. Fujiwara","S. Ikawa"}
p387
F0.001
sV{"R. Arabyat","D. W. Raisch"}
p388
F0.001
sV{"Y. Wu","Z. Y. Xia","H. M. Liu","S. Q. Lei","L. Zhang","J. J. Xu","B. Zhao","J. Dou"}
p389
F0.001
sV{"Jamehl L. Demons","Jeff D. Williamson","Kathryn E. Callahan","James Lovato","Janice S. Lawlor","Hal H. Atkinson","Ann Lambros","Franklin S. Watkins","Kaycee M. Sink","Brooke R. Davis","Mary F. Lyles"}
p390
F0.001
sV{"E Decuypere","E Dewil","D Vanmontfort","H Michels"}
p391
F0.001
sV{"K. F. Lam","S. M. Ng","B. H. P. Lau","H. H. M. Lo","C. L. W. Chan"}
p392
F0.001
sV{"Sebastian Paul Suggate"}
p393
F0.001
sV{"Jia-rui Pu","Dan Li","De-hua Yang","Li-duan Zheng","Xiao-dan Zheng","Hong Mei","Xuan Xiang","Qiang-song Tong"}
p394
F0.001
sV{"H.M. Sussman","P. Franklin","T. Simon"}
p395
F0.001
sV{"N. Harcourt","S. C. Masri","M. Colvin","G. Raveendran"}
p396
F0.001
sV{"W. Sexauer","M. S. Kavuru","U. Vaid","K. Gaurav"}
p397
F0.001
sV{"Anas Younes","L Jeffrey Medeiros","Frederick Hagemeister","Maria Alma Rodriguez","Sima Jeha","Paolo Fiumara","Lynne V Abruzzo","John T Manning","Jorge Romaguera","Andre Goy","Dan Jones","Peter McLaughlin"}
p398
F0.001
sV{"A. Zyluk","P. Puchalski"}
p399
F0.001
sV{"Nicola Orsini","Susanna C Larsson","Alicja Wolk"}
p400
F0.001
sV{"A. R. Aleandri","D. Mancini","T. Cosentini","R. Le Donne","N. Colavita"}
p401
F0.001
sV{"S. Gosavi","S. Gosavi"}
p402
F0.001
sV{"R. McCandlish","S. Petrou","J. Henderson","L. Kumiega"}
p403
F0.001
sV{"Kevin Patrick","Jill Rybar","Linda Hill","Sara Baird","Raul Coimbra","Susanna Concha-Garcia"}
p404
F0.001
sV{"W. T. Yu","S. Yang","Y. Tang","B. Wu","J. X. Zhou"}
p405
F0.001
sV{"M. D. Schmittner","A. Janke","D. G. Bussen","G. C. Beck","C. Weiss"}
p406
F0.001
sV{"Talal Ibrahim","Mohamad Al Tannir","Imad M Tleyjeh","Abed Allehibi","Musa A Garbati","Abdur Rahman Khan","Muhammad Riaz","Alex J Sutton","Larry M Baddour","Faisal A Alasmari","Mushabab AlGhamdi","Aref A Bin Abdulhak","Patricia J Erwin"}
p407
F0.001
sV{"Sauer N.","Szecsenyi J.","Faber R.","Guthrie E.","Schaefert R.","Herzog W.","Boelter R.","Wild B.","Kaufmann C.","Schellberg D."}
p408
F0.001
sV{"M. Hebbar","P. Fournier","O. Romano"}
p409
F0.001
sV{"Meletios A Dimopoulos","Nikolaos Anagnostopoulos","Markela P Zorzou","Athanasios Anagnostopoulos","Eleni Efstathiou","Christos Poziopoulos","George Hamilos","Vassiliki Grigoraki","Dimitra Gika","Athanasios Zomas","Irini Xilouri"}
p410
F0.001
sV{"Gary Chisholm","Eduardo Bruera","Swati Bansal","David Hui","Rony Dev","Margarita Morgado"}
p411
F0.001
sV{"S. Dey","P. Bhattacharyya","B. K. Biswas","B. Bhattarai","P. Bhakta"}
p412
F0.001
sV{"Kaija Leena Kolho","Hanne Rintamaki","Taina Tervahartiala","Timo Sorsa","Laura Makitalo"}
p413
F0.001
sV{"Anna Nidecker","Siamak Ardekani","E Mark Mahone","Firouzeh Tannazi","Jarunee Intrapiromkul","Moody Wharam","Larry J Brant","Alena Horsk\ufffd\ufffd"}
p414
F0.001
sV{"John F Fraser","Kelvin L Choo","Roy M Kimble"}
p415
F0.001
sV{"Saadettin Kilickap","Omer Dizdar","Sercan Aksoy","Ibrahim Barista","Hakan Harputluoglu","Kadri Altundag","Didem Sener Dede"}
p416
F0.001
sV{"David L Simel","Kathryn A Myers","Marko Mrkobrada"}
p417
F0.001
sV{"E. Shvartz"}
p418
F0.001
sV{"Marie-Pierre Gagnon","Claude Sicotte","\ufffd\ufffddith-Romy Nsangou","Sonya Grenier","Julie Payne-Gagnon"}
p419
F0.001
sV{"N R St-Pierre","D Sauvant","P Schmidely","J J Daudin"}
p420
F0.001
sV{"M. W. Martin","R. Saunders","S. Levin"}
p421
F0.001
sV{"Akin Uz\ufffd_mc\ufffd_gil","Meral Top\u0324u","M Fani Bozkurt","Sinem Akg\ufffd_l"}
p422
F0.001
sV{"Richard Andrews","Erica B Lundsten","A Maureen Bundick Morgan"}
p423
F0.001
sV{"Irene G Salado","Ana Martinez","Daniel I Perez","Brian C Kraemer","Murilo L Bello","Concepci\ufffd_n Perez","Nicole F Liachko","Magalie Lecourtois","Miriam Redondo","Carmen Gil","Laetitia Miguel"}
p424
F0.001
sV{"Travis G Maak","Thomas L Wickiewicz","Volker Musahl","James E Voos","Andrew D Pearle"}
p425
F0.001
sV{"M. M. Parvaresh","M. Hashemi","R. Soodi","S. Nekoozadeh","S. A. Alemzadeh","K. G. Falavarjani","M. Modarres"}
p426
F0.001
sV{"Cara B. Ebbeling","Dhirendra N. Sinha","Glorian C. Sorensen","Harry A. Lando","Mangesh S. Pednekar","Claudia R. Pischke","Prakash C. Gupta","Eve M. Nagler","Mira B. Aghi","Kasisomayajula Viswanath"}
p427
F0.001
sV{"G Boutet"}
p428
F0.001
sV{"Helen M Sorenson"}
p429
F0.001
sV{"S. Opatrna","P. Stehlik","J. Racek","Jr. Opatrny, K.","V. Senft","F. Sefrna","O. Topolcan"}
p430
F0.001
sV{"So Young Lee","Jay L. Brand"}
p431
F0.001
sV{"George E. Woody","Anne Geller","Edgar H. Adams","Theodore J. Cicero","Alvaro Munoz","Edward C. Senay","James A. Inciardi"}
p432
F0.001
sV{"A. Sudo","S. Ishiguro","K. Iida"}
p433
F0.001
sV{"R Schwarz","J Ernst","M Zenger","E Br\ufffd_hler","R Schmidt"}
p434
F0.001
sV{"Sergio Garrido","Angeles Pulgar","Stefan Duschek","Mar\ufffd_a Mart\ufffd_n-V\ufffd\ufffdzquez","Gustavo A Reyes Del Paso"}
p435
F0.001
sV{"P E Goretzki","B J Lammers","T Otto"}
p436
F0.001
sV{"David J Roelfs","Joseph E Schwartz","Eran Shor","Karina W Davidson"}
p437
F0.001
sV{"A van Breda","M B von Bartheld","J T Annema"}
p438
F0.001
sV{"Su-Gwan Kim","Ji-Yeon Ahn","Young-Kyun Kim","Jong-Wan Kim","Pil-Young Yun"}
p439
F0.001
sV{"S. Ashelford","V. Taylor"}
p440
F0.001
sV{"Joel W. Grube","Juan A. Luna","David A. Gilder","Jennifer Roberts","Daniel Calac","Cindy L. Ehlers","Roland S. Moore"}
p441
F0.001
sV{"K. Tamaki","A. G. C\ufffd\ufffdlar","S. Beyrer","H. Aoki"}
p442
F0.001
sV{"A. H. Samarkandi"}
p443
F0.001
sV{"Lemack G.E."}
p444
F0.001
sV{"Donna M Wilson","Jessica A Hewitt","Ralph Magnus","Jill Vihos","Karen Peterson","Nancy Barnes"}
p445
F0.001
sV{"Xuejun Chen","Yang Zhang","Zufei Li","Qi Zhong","Weiguo Zhou","Xiaohong Chen","Zhigang Huang","Jugao Fang"}
p446
F0.001
sV{"S. Slawik","A. R. Dixon"}
p447
F0.001
sV{"E. Mainardi","G. Moscato","A. Montanelli","M. Dotti","R. Nano"}
p448
F0.001
sV{"Won Ki Min","Soon Bae Kim","Su Hee Kim","Jai Won Chang","Hyun Sook Chi","Eun Kyoung Lee"}
p449
F0.001
sV{"K.-W. Park","J. Song","H.-J. Kim","S.-R. Moon","M.S. Lee"}
p450
F0.001
sV{"K. Sidney","J. Antony","A. De Costa","A. Shet","R. Rodrigues","S. Krishnamurthy","G. D'Souza","K. Arumugam"}
p451
F0.001
sV{"Costin M.","Dumbrav\ufffd_ E.L.","Postolache P.","Cojocaru D.C."}
p452
F0.001
sV{"D A Lane","S Apostolakis","G Y H Lip","H Buller"}
p453
F0.001
sV{"M. Niewada","J. Pawe\ufffd\ufffdska","A. Budaj","T. Macioch","P. Perkowski"}
p454
F0.001
sV{"Masayuki Otsuki","Makoto Arakawa","Hidekazu Sonoda","Yasutaka Sasafuchi","Yuichi Kitasako","Junji Tagami"}
p455
F0.001
sV{"C. Coretti","C. Napoli","G. Lovero","M. T. Montagna","G. Caggiano","G. Scarafile","O. de Giglio"}
p456
F0.001
sV{"Aitken Alderson Anderson Aptekar Backett-Milburn Beazley Becker Bello Berman Billig Bluebond-Langner Borchgrevink Bucholtz Christensen Constantino Cornwall Dell Clark DiCarlo Diprose Douglas Downe Geissler Goodenough Hart James James Jocano Katz Koppitz L Aguilar","Lisa M. Mitchell"}
p457
F0.001
sV{"L. Schlessinger","D. M. Eddy","R. Kahn"}
p458
F0.001
sV{"M C Nevitt","L Palermo","H K Genant","R San Valentin","D M Black","R Epstein","S R Cummings"}
p459
F0.001
sV{"Kazeem B Yusuff","Unyime I Eshiet"}
p460
F0.001
sV{"Mark A Fogel","Michael V Di Maria","Matthew A Harris","Meryl S Cohen","Kevin K Whitehead"}
p461
F0.001
sV{"L. Pretlow","A. Ranne","B. Kraj","E. K. Leibach","B. Russell"}
p462
F0.001
sV{"Qiao-Hong Hu","Zhi-Liang Huang","Xiao-Ming Fan","Shuang-Xi Chen","Xiang-Yang Song","Xiao-Ying Qiu"}
p463
F0.001
sV{"J. F. Murray"}
p464
F0.001
sV{"A Green","J Lewis","C Worsfold","J Saranga"}
p465
F0.001
sV{"J. Gschwend","S. Schirrmacher-Memmel","A. Beeker","M. O. Grimm","B. Brehmer","M. Zaiss","U. Von Verschuer","S. Pahernik","M. Bos","M. De Santis","M. Retz","S. Krause"}
p466
F0.001
sV{"M. H. de Oliveira Junior","E. S. Sarinho","G. V. de Araujo","D. M. Peixoto"}
p467
F0.001
sV{"Valeria Panebianco","Flavio Barchetti"}
p468
F0.001
sV{"A Gaitatzis","M R Trimble","J W Sander"}
p469
F0.001
sV{"Gerlane \ufffd\ufffdngela da Costa Moreira","Denyse Dutra Alencar Vasconcelos","Amanda Costa de Freitas","Carla Cristina Braga Maranh\ufffd\ufffd\ufffdo","Danielle Figueiredo Patricio"}
p470
F0.001
sV{"Mayuko Saito","Susan Olender","Robert H Gilman","Christian T Bautista","Evelyn J Hsieh","Luz Caviedes","Kari Gillenwater","Jane Apgar","Pedro Moro","Andres G Lescano"}
p471
F0.001
sV{"W C Knowler","P J Savage","P H Bennett","D J Pettitt"}
p472
F0.001
sV{"Nobuhiko Emi","Masamitsu Yanada","Tomoki Naoe","Keitaro Matsuo"}
p473
F0.001
sV{"K. Seo","L. G. Epstein"}
p474
F0.001
sV{"Melinda Dooly"}
p475
F0.001
sV{"C. D. Packer"}
p476
F0.001
sV{"Y Y Lee","K E L McColl"}
p477
F0.001
sV{"Carolyn Gotay"}
p478
F0.001
sV{"Peter J Winch","Mickey Chopra","Cynthia S Minkovitz","Debra Jackson","Alyssa B Sharkey"}
p479
F0.001
sV{"J McCusker","F Primeau","M Cole","L Han","F Bellavance"}
p480
F0.001
sV{"A. Hueni","Paul E. Kneubuehler, M.     ED  - Shen, Sylvia S.     ED  - Lewis"}
p481
F0.001
sV{"Leila Jackson","Brian J Wells","Gregory S Cooper","Siran Koroukian","Michael W Kattan"}
p482
F0.001
sV{"A.U. Monsch","M. Tolnay","K.I. Taylor","A. Probst","A.R. Miserez"}
p483
F0.001
sV{"Albert J.J.A.2 Scherpbier","Zahra1 Ladhani","Fred C.J.2 Stevens"}
p484
F0.001
sV{"E. Kim"}
p485
F0.001
sV{"Roger P Goldberg","Yoram Abramov","Barbara Golden","Peter K Sand","Megan Sullivan"}
p486
F0.001
sV{"D M Aboulafia"}
p487
F0.001
sV{"Li X.-H.","Li G.-C.","Xie Y.-L.","Shang H.-C.","Chi K.-L.","Jin Y.-H."}
p488
F0.001
sV{"Steven P. Cohen","Giselle McKnight","Kayode A. Williams","Joshua Stream","Zahid H. Bajwa","Jan J. Kraemer","Robert W. Hurley","Anthony Dragovich","Anthony Sireci"}
p489
F0.001
sV{"P Mroczkowski","R Kube","A Dziki","B Moran","H Lippert","I Gastinger"}
p490
F0.001
sV{"P. D. Fabricant","M. P. Bostrom","C. J. Dy","D. M. Dare"}
p491
F0.001
sV{"G.R. Gillett"}
p492
F0.001
sV{"Linsenmaier U","Geyer LL","K\ufffd\ufffd\ufffdrner M","Meisel CD","Wirth S","Reiser MF"}
p493
F0.001
sV{"G. Mikus","N. Hohmann","D. Czock"}
p494
F0.001
sV{"K. Fleming","K. Donato","K. Leszczynski"}
p495
F0.001
sV{"S. L. Lee","G. K. Sluis-Cremer","P. A. Hessel"}
p496
F0.001
sV{"H. Q. Xu","M. Snyder","S. Fyfitch","A. Cheta","G. Bezdikian","V. N. Shah","T. R. Liszkai","H. Charkas","N. Gupta","Y. Shoji","C. S. Bajwa","C. May","M. Sanwarwala","M. Brumovsky","I. Ezekoye"}
p497
F0.001
sV{"A. Keliris","I. Koutsourelakis","A. Minaritzoglou","S. Zakynthinos"}
p498
F0.001
sV{"Kai Kupferschmidt"}
p499
F0.001
sV{"C. Mills","S. Dalkin","J. Greenhalgh","C. Wood","L. Wood","J. Wright","E. Gibbons","N. Black","J. M. Valderas","R. Pawson","D. Meads"}
p500
F0.001
sV{"Cayetano K.","Ghannam D.","Rawat N."}
p501
F0.001
sV{"H Lee Swanson","[Collective Name] Xinhua Zheng","Olga Jerman"}
p502
F0.001
sV{"Cecilia Bj\u0326rkelund","Margaretha Jerlock"}
p503
F0.001
sV{"J. DA  - May-Jun DO  - 10.4103/1119-3077.130253 DP  - NLM ET  - 2014/04/10 Wu","Q. Zhao","Y. Fan","Y. S. Liao"}
p504
F0.001
sV{"J. Bhagatwala","W. Caldwell","D. H. Guo","A. Mellor","H. Zhu","R. Caldwell","R. Lucas","S. J. Parikh","Y. Dong","S. Sridhar","Y. Dong"}
p505
F0.001
sV{"J. Naesdal","M. Danilewitz","J. Adler","D. G. DA  - Oct DO  - 10.1111/j.1572-0241.2008.02115.x DP  - NLM ET  - 2008/09/09 Silberg","C. Hwang","D. A. Drossman"}
p506
F0.001
sV{"H Li","Kf Chung","H Liu","Sp Zhang","M Xu"}
p507
F0.001
sV{"J.P. Toombs","M.S. Bauer","W.R. Widmer","A.R. Blight"}
p508
F0.001
sV{"S Nadeau","F Malouin","B.J McFadyen"}
p509
F0.001
sV{"J. De La Camera","M. M. Mesfin","A. M. Kedir","G. Amanual","T. Araya","I. G. Tareke"}
p510
F0.001
sV{"L Ramos","S Mathur\ufffd_n","A Mateo","C L\ufffd_pez","C G\ufffd_mez"}
p511
F0.001
sV{"Ana Paula de Lima Ferreira","Marcelo de Souza Figueiroa","B\ufffd\ufffdrbara Bernardo Rinaldo da Silva","K\ufffd\ufffdtia Roberta Rap\u032bso Sales Lacerda"}
p512
F0.001
sV{"Shinya Kondo","Tomoo Miyagawa"}
p513
F0.001
sV{"W. T. Creasman","S. Pecorelli","J. L. Benedet","J. H. Shepherd"}
p514
F0.001
sV{"A. A. Kaddis"}
p515
F0.001
sV{"Kentaro Chino","Hideyuki Takahashi","Ryota Akagi","Michiko Dohi"}
p516
F0.001
sV{"Marilou Madden"}
p517
F0.001
sV{"dirk.hoek@ou.nl Hoek, Dirk1","Koeno2 Gravemeijer"}
p518
F0.001
sV{"M. D. Jiang","Z. J. Fan","T. Q. DA  - Jul DP  - NLM ET  - 2007/07/17 Li","Q. Xia","L. Wang","Z. Yu","R. M. Zhang","F. X. Zhang","X. N. Yang","H. R. Zhang"}
p519
F0.001
sV{"Fengjiang Zhang","Gang Chen","Min Yan","Congcong Chen"}
p520
F0.001
sV{"B Kramp","J Ostwald","S Dommerich","Claudia Nischan"}
p521
F0.001
sV{"Perjohan Lindfors","Liselotte Jansson","Brjann Ljotsson","Lisa Falk","Erik Hedman","Christian Ruck","Amanda Wibron Vesterlund","Sergej Andreewitch","Nils Lindefors","Gerhard Andersson","Timo Hursti"}
p522
F0.001
sV{"Noritoshi Nagaya","Kenji Kangawa"}
p523
F0.001
sV{"Taylor MJ Arsalidou M, Pascual-Leone J, Johnson J, Morris D"}
p524
F0.001
sV{"I Marshall"}
p525
F0.001
sV{"Paola Bollini","Giuseppe Tibaldi","Bruce Kupelnick","Carmine Munizza","Sandro Pampallona"}
p526
F0.001
sV{"Rujun Zheng","Yulan Peng","Shuzhen Zhao","Hong Huang","Ii Liang","Xiaoli He"}
p527
F0.001
sV{"Pakenham K.I.","Fitzell A."}
p528
F0.001
sV{"Katharine O'Dell","Padma Kandadai","Jyot Saini"}
p529
F0.001
sV{"W Odero"}
p530
F0.001
sV{"Tian-Biao Zhou","Si-Lian Fang","Hui-Liu Zhao","Gregor P C Drummen"}
p531
F0.001
sV{"Robert J. Flynn"}
p532
F0.001
sV{"S. Livesay","S.D. Ruppert"}
p533
F0.001
sV{"Sabe Sabesan","Peter Aiken","Lynden J Roberts","Sarah Larkins","Abhishek Joshi"}
p534
F0.001
sV{"T Reinhold","F M\ufffd_ller-Riemenschneider","S N Willich"}
p535
F0.001
sV{"Scott O Lilienfeld","Keli Holloway Allen","Howard N Garb","Jessica L Wildermuth","M Teresa Nezworski","James M Wood"}
p536
F0.001
sV{"Zhao B.-X.","Lao L.","Shen X.-Y.","Chen H.-Y."}
p537
F0.001
sV{"E. J. Frew","J. L. Wolstenholme","D. K. Whynes"}
p538
F0.001
sV{"C. G. Mendez"}
p539
F0.001
sV{"H. C. Chen","S. M. Lin","C. L. Chou","C. T. Yu","H. P. Kuo","C. H. Kuo"}
p540
F0.001
sV{"DeLosh EL","Bugg JM","Clegg BA"}
p541
F0.001
sV{"N. Cord-Udy"}
p542
F0.001
sV{"D. D. Town","C. P. Chen","Y. N. Su","W. CN  - PubMed DA  - Dec DO  - 10.1016/s1028-4559(10)60117-9 DP  - NLM ET  - 2011/01/05 Wang","C. W. Pan","C. C. Lee","F. J. Tsai","P. C. Wu","M. C. Huang"}
p543
F0.001
sV{"D. A. Paul","R. G. Locke","L. Saiman","D. Tuttle","A. Novitsky","A. Mackley"}
p544
F0.001
sV{"U. S. Sangkomkamhang","P. Lumbiganon","W. Prasertcharoensuk","M. Laopaiboon"}
p545
F0.001
sV{"A H Zwinderman","M Munneke","G J Tijhuis","Z de Jong","J M Hazes","T P Vliet Vlieland"}
p546
F0.001
sV{"Montserrat Bacardi-Gascon","Arturo Jimenez-Cruz","Lidia M. Castaneda-Gonzalez"}
p547
F0.001
sV{"S. Ewen","F. Mahfoud","M. Bohm"}
p548
F0.001
sV{"A. Amemiya","C. R. Dolan","H. H. Ardinger","C. T. Fong","S. E. Wallace","T. D. Bird","K. Stephens","R. J. H. Smith","M. P. Adam","E. C. Delot","L. J. H. Bean","E. J. Vilain","R. A. Pagon"}
p549
F0.001
sV{"D. Russell","P. Linck","R. Hibbs","I. Russell","R. Muntz","N. H. Williams","B. C1  - Fr\u0334n RCT-s\u0326kningen CN  - Pubmed DA  - Dec DO  - 10.1093/fampra/cmh612 DP  - NLM ET  - 2004/11/09 Hounsome","R. T. Edwards","C. Wilkinson"}
p550
F0.001
sV{"Christian T. L. Janssen"}
p551
F0.001
sV{"Eugenio A Parati","Bruce M Psaty","Christopher Levi","Guido Falcone","Ioana Cotlarciuc","Bradford B Worrall","Rodney J Scott","Hugh S Markus","Jonathan Rosand","Jim Jannes","John W Cole","Sudha Seshadri","Rainer Malik","M Arfan Ikram","Christopher Oldmeadow","Karen L Furie","Kerri L Wiggins","Jane M Maguire","Matthew Traylor","Peter M Rothwell","[Collective Name] Wellcome Trust Case Control Consortium 2","[Collective Name] Australian Stroke Genetics Collaborative","Steven J Kittner","Braxton D Mitchell","Elizabeth G Holliday","Jemma C Hopewell","Giorgio B Boncoraglio","Eric Boerwinkle","Lisa F Lincz","Robert Clarke","Steve Bevan","Naomi R Wray","John Attia","James F Meschia","Joshua C Bis","Thomas H Mosley","Mike A Nalls","Cathie Sudlow","Yu-Ching Cheng","Pankaj Sharma","Martin Dichgans","[Collective Name] International Stroke Genetics Consortium","Myriam Fornage"}
p552
F0.001
sV{"G. Jakiel","K. Gorzelnik","J. G. Zimowski","T. CN  - PubMed DA  - Aug DP  - NLM ET  - 2013/11/07 Roszkowski","J. Bijok"}
p553
F0.001
sV{"Kenichi Kokubo","Taro Kamisasanuki","Kengo Hayashi","Kenichiro Kasai","Nobutada Katori"}
p554
F0.001
sV{"M Mikkonen","R Kotilainen","A Kullaa-Mikkonen"}
p555
F0.001
sV{"Business/Technology Editors"}
p556
F0.001
sV{"Sheldon H. White"}
p557
F0.001
sV{"Stephen A Geraci","Mohammed Kazi","Christian A Koch"}
p558
F0.001
sV{"P. Kluding","S. A. DA  - Winter DO  - 10.1310/let5-xnby-98q6-q8tg DP  - NLM ET  - 2005/03/01 Billinger"}
p559
F0.001
sV{"Angel Rosa-Alc\ufffd\ufffd\ufffd\ufffdzar","Ana I Rosa-Alc\ufffd\ufffd\ufffd\ufffdzar","Marina Iniesta-Sep\ufffd\ufffd\ufffdlveda"}
p560
F0.001
sV{"F Gates","P Clifton-Bligh","G Fulcher","L Hoskin","R Hansen"}
p561
F0.001
sV{"D Cioffi","J Holloway"}
p562
F0.001
sV{"Bafna Bassler Blarney Coleman Hillier Kerr Kerr Kerr Livingston Marshall Pauls Peponis Pikora Stokols Templer Zimring Andersen","Gayle Nicoll"}
p563
F0.001
sV{"Zhongsheng Sun","Huajing Teng","Tao Cai","Xusheng Huang","Ping Yu","Fang Cui","Zhaohui Chen","Fengbiao Mao","Wanshi Cai","Zhanjun Wang","Lin Chen","Jiesi Wang"}
p564
F0.001
sV{"Yong-Long Chi","Xiao-Lei Zhang","Nai-Feng Tian","Yao-Sen Wu","Xin-Lei Wu","Xiang-Yang Wang","Fang-Min Mao","Li-Jun Wu","Xu-Qi Hu"}
p565
F0.001
sV{"Chunhui Wang","Richard Hayes","Louise Kuhn","Stephen Shiboski","Jennifer S Smith","Natasha L Larke","Deborah Watson-Jones","Catherine F Houlihan","Patti E Gravitt","Karen K Smith-McCune"}
p566
F0.001
sV{"N. M. Pinheiro","R. Almeida-Reis","L. Oliva","M. A. Martins","M. L. V. Oliva","O. A. Theodoro-Junior","E. A. Leick","I. F. L. C. Tib\u0329rio","C. M. Prado","R. F. Righetti","B. T. M. Oliveira"}
p567
F0.001
sV{"D. W. Branch"}
p568
F0.001
sV{"Mitsuyoshi Motizuki","Keiji Miyazawa","Tetsuo Kondo","Keisuke Masuyama","Masao Saitoh","Hiroki Ishii","Ryohei Katoh","Kei Sakamoto","Shota Tanaka"}
p569
F0.001
sV{"A. Pavin","A. Staffieri","G. Marioni","G. Brescia","R. Rinaldi"}
p570
F0.001
sV{"J\ufffd_rgen Rehm","Gerhard Gmel","Maurizio Trevisan","Christopher T Sempos"}
p571
F0.001
sV{"M Gimpel","S Gadola","P Cooper","K Jameson","G Deakin","M Godtschailk","M Stokes","C Cooper"}
p572
F0.001
sV{"Paola Scifo","Alessandro Del Maschio","Livio Luzi","Elena Meneghini","Alberto Battezzati","Gianluca Perseghin","Massimo Danna","Stefano Benedini"}
p573
F0.001
sV{"Thomas Martin Doring","Maud Parise","Gustavo Tukamoto","Emerson Leandro Gasparetto","Tadeu Takao Almodovar Kubo","Maurice Vincent"}
p574
F0.001
sV{"E Fujimaki"}
p575
F0.001
sV{"Z. Maleki","O. Nikolskaia"}
p576
F0.001
sV{"M. Gatti","S. Bonaccorsi","V. Mottier-Pavie","F. Verni","G. Cenci"}
p577
F0.001
sV{"G Jayashree Jagadeesh","David L Nelson","Taizo Wada","Fabio Candotti"}
p578
F0.001
sV{"O Ceki\u0324","C Batman"}
p579
F0.001
sV{"Robert L. Kriel","Jennifer R. Riss","Vijay D. Ivaturi","James C. C2  - 19231138 DB  - MEDLINE DO  - http://dx.doi.org/10.1016/j.eplepsyres.2009.01.001 Cloyd","Ronald A. Siegel"}
p580
F0.001
sV{"Delia Aguado","Javier Benito","Ignacio A G\ufffd\ufffd\ufffd_mez de Segura","Mariana Abreu","Javier Garc\ufffd\ufffd\ufffd_a-Fern\ufffd\ufffd\ufffd\ufffdndez"}
p581
F0.001
sV{"Nielsen H.O.","Edwin B.","H\ufffd_nerbein M.","Hovendal C.","Liedman B.","Mortensen M.B."}
p582
F0.001
sV{"Aaron P Blaisdell","Jared Wong","Kenneth J Leising","Michael R Waldmann"}
p583
F0.001
sV{"Zhi-yuan Zhang","Wei-liu Qiu","Jia-wei Zheng"}
p584
F0.001
sV{"Martinez-Indart L","Cacicedo J","del Hoyo","Gomez-Iturriaga A","Casquero F","Lopez J L","Bilbao P","O "}
p585
F0.001
sV{"David R Jacobs","David S Ludwig","Cara B Ebbeling","Alex I Kartashov","Martha L Slattery","Linda Van Horn","Mark A Pereira"}
p586
F0.001
sV{"Carol E Barnewolt","Hiroto Hatabu","Mizuki Nishino","Deborah Levine","Henry A Feldman","Judy A Estroff","Valerie L Ward"}
p587
F0.001
sV{"M. Suter","V. Giusti"}
p588
F0.001
sV{"Kwok M Ho","Geoffrey J Dobb","Steven A R Webb"}
p589
F0.001
sV{"di Raimondo D.","Pinto A.","Lucifora B.","Tuttolomondo A.","Licata G.","Butt\ufffd\ufffd C."}
p590
F0.001
sV{"M. Runkel","J. Blum","P. M. Rommens"}
p591
F0.001
sV{"X. H. LYWXWF Wu"}
p592
F0.001
sV{"A. Ungkanungdecha","C. Chayachinda","J. Veeragul","J. Jisabai"}
p593
F0.001
sV{"Paolo Dell'Oglio","Alessandro Larcher","Nicola Fossati","Nicol\ufffd_ Maria Buffi","Alberto Abrate","Giuliana Lista","Francesco Montorsi","Francesco Mistretta","Massimo Lazzeri","Giorgio Guazzoni","Giovanni Lughezzani"}
p594
F0.001
sV{"Frances Williams","Alehegn Gelaye","Susan Steigerwalt","Yara Daloul","Hadeel Assad","Timothy R Larsen","Barryton Waanbah","Michael Williams"}
p595
F0.001
sV{"Yibin Fang","Pengfei Yang","Jianmin Liu","Yi Xu","Qinghai Huang","Wenyuan Zhao","Dongwei Dai","Yan Chen"}
p596
F0.001
sV{"A. G. Della Valle","M. Buttaro","G. Slullitel","R. Vestri","F. Comba","F. CN  - CINAHL_postop_care_150220 DB  - c8h DP  - EBSCOhost Piccaluga"}
p597
F0.001
sV{"Patwardhan S.K.","Bodas K.S.","Gundewar S.S."}
p598
F0.001
sV{"K. Prehoda","A. Novak","J. Mauser"}
p599
F0.001
sV{"S. Kato","M. Ishida","H. Sakuma"}
p600
F0.001
sV{"Diederik van de Beek","Anthony G Rudd","Lalit Kalra","Joan Montaner","Javier Garau","Pippa J Tyrrell","Stephen J Hopkins","Craig J Smith","Mark Woodhead","Angel Chamorro","Mario Di Napoli","Andreas Meisel","Peter Langhorne","Andy Vail","Amit K Kishore","Christine Roffe"}
p601
F0.001
sV{"R. A. Rosenheck","J. Tsai","A. S. Mares"}
p602
F0.001
sV{"B. A. Burt"}
p603
F0.001
sV{"J Stilkind"}
p604
F0.001
sV{"Q. X. Zhang","J. H. Tian","X. Y. Tan","A. L. Yang","X. M. Yang","Z. X. Zhang"}
p605
F0.001
sV{"St\ufffd\ufffd_ber F","Mutz N","Wrigge H","Putensen C","Zinserling J","Zech S","Von Spiegel T"}
p606
F0.001
sV{"V Cerabona","M Wachocka","U Moscato","V Camisa","M G Tucci","S Zaffina","V Montaldi","A Poscia"}
p607
F0.001
sV{"J. Skees","T. K. Race"}
p608
F0.001
sV{"S Arora","A Zhan","S Donohue","E R Dorsey","K M Biglan","V Venkataraman","M A Little"}
p609
F0.001
sV{"Paschal Sheeran","Richard Cooke"}
p610
F0.001
sV{"Makbule Gezmen-Karadag","Anke Oenema","Saskia J te Velde","Hilal Yildiran","Mai J M Chinapaw","Johannes Brug","Mine Yildirim","Eda Koksal","Saniye Bilici","Nilufer Acar-Tek","Gamze Akbulut","Nevin Sanlier","Maartje M van Stralen","Judith S B de Meij","Amika S Singh"}
p611
F0.001
sV{"C. C2  - Pmc2827243 C6  - Nihms132141 DA  - Oct DO  - 10.1053/j.gastro.2009.06.060 DP  - NLM ET  - 2009/07/15 Di Lorenzo","M. Saps","S. Nurko","P. Hyman","N. Youssef","A. Miranda","J. Cocjin"}
p612
F0.001
sV{"H. Oshima","K. Kobayashi","T. Yamamoto","M. Kasai","C. Fukaya","Y. Katayama"}
p613
F0.001
sV{"Elie A Akl","Gordon Guyatt","Stephen D Walter","Rita S Suri","Reem A Mustafa","Gihad E Nesrallah","Robert M Lindsay"}
p614
F0.001
sV{"Gary P. Wormser","Alvin E. Friedman-Kien","Miguel Sanchez"}
p615
F0.001
sV{"R A Robison","J L Nelson","B L Roeder","B L Beckstead","G B Schaalje","J C Carmen","W G Pitt","C M Runyan"}
p616
F0.001
sV{"T. Topp","C. Kuhne","S. Ruchholtz","U. Lewan","A. Kruger","T. Muller","R. Zettl"}
p617
F0.001
sV{"Norbert Gutknecht","Manuel F Carvalho","Irene Pina-Vaz","Miguel R Martins","Jose A Capelas","Miguel A Martins"}
p618
F0.001
sV{"George Davey Smith","Amanda J Bennett","Eleftheria Zeggini","Marjo-Riitta Jarvelin","Nicholas J Wareham","Lorna W Harries","Colin N A Palmer","Shah Ebrahim","Timothy M Frayling","Susan M Ring","Bridget Knight","Sian Ellard","Katharine R Owen","Rachel M Freathy","Hana Lango","Debbie A Lawlor","Lon R Cardon","John R B Perry","Jeffrey C Barrett","Andrew D Morris","Graham A Hitman","Katherine S Elliott","Ulla Sovio","Mark I McCarthy","David Melzer","Alex S F Doney","Andrew R Ness","Yoav Ben-Shlomo","Andrew T Hattersley","Ann-Marie Patch","Nicholas J Timpson","Nigel W Rayner","Mark Walker","Michael N Weedon","Ruth J F Loos","Fredrik Karpe","In\u033bs Barroso","Luigi Ferrucci","Christopher J Groves","Cecilia M Lindgren","Beverley Shields"}
p619
F0.001
sV{"Ruud R M Bos","Gerry M Raghoebar","Pepijn F M Gielkens","Boudewijn Stegenga"}
p620
F0.001
sV{"R. T. Malison","E. F. Pace-Schott","V. Coric","P. T. Morgan","R. Stickgold","Z. H. Sahul"}
p621
F0.001
sV{"[Collective Name] American Thoracic Society Respiratory Impairment and Disability Evaluation Group","Philip Harber","Margaret C Haggerty","Christopher G Slatore"}
p622
F0.001
sV{"Corinne L Coulter","Jennie M Scarvell","Jeanie M Weber"}
p623
F0.001
sV{"Vincent J P Van Heuven","Niels O Schiller","Jurriaan Witteman"}
p624
F0.001
sV{"O Serresse","C Boudreau-Lariviere","S Grelier","R Zory"}
p625
F0.001
sV{"Brooklyn. Office of Educational Assessment. New York City Board of Education"}
p626
F0.001
sV{"Amanda Devine","Nicole Austin","Richard L Prince","Kun Zhu","David Bruce"}
p627
F0.001
sV{"M. G. Bruce","J. Morris","B. McMahon","A. Tveit","D. Hurlburt","D. Bruden"}
p628
F0.001
sV{"A. A. Mangoni"}
p629
F0.001
sV{"A. S. Lee","S. Davies","P. C. Naik"}
p630
F0.001
sV{"M.M.P. Yang","S.H. Kok","G.T.C. Lee"}
p631
F0.001
sV{"A Brand","J Van der Heyden","S de Viron","H Van Oyen","N Malats"}
p632
F0.001
sV{"Hangcheng Zhou","Renbao Yang","Jiong Chen","Yunlian Xia","Yin Lu"}
p633
F0.001
sV{"D Kalina","S de Ribaupierre","O Vernet","P -F Leyvraz","B Rilliet","B Cavin"}
p634
F0.001
sV{"Eikelboom J.W.","Hirsh J."}
p635
F0.001
sV{"S. M. Smith","A. D. Marinov","R. Hirsch","D. S. Bushnell","B. T. Campfield","H. C. Blair","Y. Chaly"}
p636
F0.001
sV{"Jo Finch"}
p637
F0.001
sV{"J. H. Littell","M. Popa","B. Forsythe"}
p638
F0.001
sV{"E.-B. Malmgren-Olsson","K. Armelius","B.-\ufffd\ufffd. Armelius"}
p639
F0.001
sV{"C. Bottomley","K. Lock","S. Lais","A. Clow","G. Yu","R. Lynch","A. Renton","G. Phillips","M. Petticrew","A. Draper","P. Tobi","E. Schmidt","R. Hayes","D. Moore"}
p640
F0.001
sV{"K. Kristensson","L. Svensson","H. B. Greenberg","K. Weclewicz"}
p641
F0.001
sV{"W. Hunziker","K. H. Tan"}
p642
F0.001
sV{"A. M. Hibbs","D. M. Black","J. A. F. Zupancic","A. Cnaan","P. L. Ballard","S. R. Wadlinger","L. Palermo","W. E. Truog","R. A. Ballard"}
p643
F0.001
sV{"S. T. Visser","M. J. Postma","P. Denig","F. M. De Vries","E. Hak"}
p644
F0.001
sV{"James Lenker","W Ben Mortenson","Frank DeRuyter","Louise Demers","Jeffrey W Jutai","Marcus J Fuhrer"}
p645
F0.001
sV{"S. V. Driamov","S. Butz","P. T. Buser","C. E. Zaugg","M. Bellahcene"}
p646
F0.001
sV{"M.B. Dikshit","S. Raje","D.S. Jaju","V.R. Purandare"}
p647
F0.001
sV{"Victor Kande","Epco Hasker","Veerle Lejon","Jean-Jacques Muyembe","Patrick Mitashi","Marleen Boelaert","Pascal Lutumba"}
p648
F0.001
sV{"Gilles Montalescot","Gordon FitzGerald","Kurt G Barringhaus","[Collective Name] GRACE Investigators","Frans Van de Werf","Joel M Gore","David D McManus","Jos\u0329 L\ufffd_pez-Send\ufffd_n","Philippe Gabriel Steg","Kay Lee Park"}
p649
F0.001
sV{"Jennifer Davis-Berman"}
p650
F0.001
sV{"Venancio Mart\ufffd_nez Su\ufffd\ufffdrez"}
p651
F0.001
sV{"Muhammad Rafique","M. Ikram Shahzad","Shahida Jabeen"}
p652
F0.001
sV{"N D Osgood","T O Tengs"}
p653
F0.001
sV{"Beth Anne Clavenna-Deane"}
p654
F0.001
sV{"E A BeGole","H S Upshaw","R J Egolf"}
p655
F0.001
sV{"A. R. Lomax","P. C. CN  - Pubmed DA  - Mar DO  - 10.1017/s0007114508055608 DP  - NLM ET  - 2008/09/26 Calder"}
p656
F0.001
sV{"H. O. Lobel","P. E. Kozarsky"}
p657
F0.001
sV{"Kooy H.","Hong T.S.","Symonifka J.","Depauw N.","Wo J.Y."}
p658
F0.001
sV{"A. Ravelli","S. Magni-Manzoni","A. Pistorio","M. Bandeira","A. Martini","E. Sala","A. Falcone","A. Buoncompagni","N. Ruperto","A. Loy"}
p659
F0.001
sV{"Waleed Alhazzani","Lehana Thabane","Deborah J Cook","Wojciech Szczeklik","Anees Sindi","Qi Zhou","Sultan Altayyar","Anna Wludarczyk","Gordon H Guyatt","[Collective Name] Fluids in Sepsis and Septic Shock Group","Michael Wang","Guowei Li","Roman Jaeschke","Diane Heels-Ansdell","Alison Fox-Robichaud","Bram Rochwerg","Fayez Alshamsi","Wang-Chun Ip","Djillali Annane","Lawrence Mbuagbaw"}
p660
F0.001
sV{"Z. Hirschfeld","I. Brin","A. Fuks","M. Guelmann"}
p661
F0.001
sV{"J. Robinson","D. W. Smith","B. Colwell","S. L. Stevens","C. McMillan"}
p662
F0.001
sV{"Michael E Thase","Younghua Wang","April E Harriett","Melinda Mitton","Carol B Rockett","Barbara R Haight","Jack G Modell","Nathalie Richard","Susan VanMeter"}
p663
F0.001
sV{"T. Sentell","T. Usagawa","M. Hagiwara","T. Peacock","H. Hee Heo","M. G. Pearce","L. Choy","M. R. Dela Cruz"}
p664
F0.001
sV{"Mushro A","Niaura R S","Graham A L","Cobb N K","Fang Y","Cha S"}
p665
F0.001
sV{"Renata Vrsalovi\ufffd\ufffd\ufffd\ufffd","Eva Verona","Iva Mihatov-Stefanovi\ufffd\ufffd\ufffd\ufffd","Biserka Cicak"}
p666
F0.001
sV{"Mark Kern","Karen Dikeman","Barbara Grande","Marta Kazandjian","Terilynn Nitschke","Stephanie Daniels","Benson Massey","Reza Shaker","Caryn Easterling"}
p667
F0.001
sV{"D. M. B. Hall","E. Holroyd"}
p668
F0.001
sV{"Matthew S Dryden"}
p669
F0.001
sV{"T K Dutta","Pampa Ch Toi","Bhawana A Badhe","L H Ghotekar","Debdatta Basu"}
p670
F0.001
sV{"J. L. Li","P. Newcomb"}
p671
F0.001
sV{"H Fukuda","H Kasuda","J Saitoh","H Mitsuhata","Y Hirabayashi","K Saitoh","R Shimizu"}
p672
F0.001
sV{"N Saijo","M Yamakido","K D Tew","Y Fujiwara","K Kasahara","M Bungo","Y Sugimoto"}
p673
F0.001
sV{"Sheu-jen Huang","Maiga Chang","Wen-chi Hung","Janie Chang"}
p674
F0.001
sV{"D. A. Gould","J. McInerney","R. E. Harbaugh","J. D. Birkmeyer"}
p675
F0.001
sV{"M. Pujol","P. Barrag\ufffd\ufffdn","J.M. Tiraboschi","A. Imaz","M.\u0301. Dom\ufffd_nguez","D. Podzamczer"}
p676
F0.001
sV{"Peter Schoenknecht","Matthias L Schroeter","Johann Steiner","Karsten Mueller","Julia Sacher"}
p677
F0.001
sV{"Somjot S Brar","William A Gray"}
p678
F0.001
sV{"Siwy Ling Yang","Kuang-Ren Chung"}
p679
F0.001
sV{"T. Levy","Y. Bloch"}
p680
F0.001
sV{"William W Thatcher","Normand R St-Pierre","Dale E Bauman","Joseph S Hogan","K Larry Smith","Robert J Collier","George A Milliken","Jan K Shearer"}
p681
F0.001
sV{"B. T. Rudd"}
p682
F0.001
sV{"J J SALLEY"}
p683
F0.001
sV{"Jitendra Jethani","Shashikant Shetty","Sucheta Parija","P Vijayalakshmi"}
p684
F0.001
sV{"P Czernichow","K Albertsson-Wikland","R Gunnarsson","T Tuvemo"}
p685
F0.001
sV{"Vicenzino B Bisset L, Beller E, Jull G, Brooks P, Darnell R"}
p686
F0.001
sV{"J.-M. Zhao","O. Sjaastad"}
p687
F0.001
sV{"Jasmin Abbas","Cholpan Jasaabuu","Andreas Gunter Bach","Alexey Surov","Dominik Schramm","Andreas Wienke"}
p688
F0.001
sV{"M. Rigoldi","S. Gasperini","B. M. Del Menico","F. Nichelli","A. Boncimino","M. Calabria","P. Meregalli","R. Parini"}
p689
F0.001
sV{"Birgit Schulze-Ehlers","Achim Spiller","Nina Steffen","Gesa Busch"}
p690
F0.001
sV{"Seiler I","Baron M","Arzt M","Pfeifer M","Lange TJ"}
p691
F0.001
sV{"Vanashri Nargund-Joshi","Jean S. Lee"}
p692
F0.001
sV{"Romero M","Mercer R","Ramos S","Karolinski A"}
p693
F0.001
sV{"J R Trott","D J Morrow","D W Buntine"}
p694
F0.001
sV{"Konstantinos Nastos","Konstantinos Evangelou","Marilena Papaioannou","John Vlachogiannakos","Maria Gazouli","Apostolos Papalois","Christos Zeglinas","Ioannis Papaconstantinou","Panagis Lykoudis","Charalampos Tzathas","Anneza Yiallourou"}
p695
F0.001
sV{"C. W. Belter"}
p696
F0.001
sV{"A. Filipovich","M. Jordan","S. Davies","R. Marsh","P. Khandelwal","M. Grimley","S. Chandra","A. Kumar","S. Jodele","P.A. Mehta","K. Myers","J. Bleesing"}
p697
F0.001
sV{"Lynn M Wegner","Michelle M Macias"}
p698
F0.001
sV{"B H Mbatchou Ngahane","G Devouassoux","H Baudrand","B Guibert","N Freymond","Y Pacheco","A Traverse-Glehen"}
p699
F0.001
sV{"R F Hofstein","J M Mott","T L Barrera","E J Teng"}
p700
F0.001
sV{"S. B. Levy","A. O. Shogbon"}
p701
F0.001
sV{"S. McCormick","B. Gillis","A. Virus","M. A. Staten","C. Mobley","S. L. Volpe","J. Bridgman","L. El ghormli","D. D. Stadler","J. Hartstein"}
p702
F0.001
sV{"Emile E Voest","Saskia C C M Teunissen","Alexander de Graeff","Marija Trajkovic-Vidakovic"}
p703
F0.001
sV{"M Wabitsch","A Moss","D Kunze"}
p704
F0.001
sV{"S. G. DB  - c8h DO  - 10.1097/01.NURSE.0000343454.35505.5a DP  - EBSCOhost Camden"}
p705
F0.001
sV{"S. H. Sicherer","D. Y. M. Leung"}
p706
F0.001
sV{"M. A. Shah","S. F. Viegas","R. P. Morris","R. M. Patterson","D. Osada"}
p707
F0.001
sV{"Branislava Ivanovic","Marijana Tadic"}
p708
F0.001
sV{"A Avenell","H H Handoll"}
p709
F0.001
sV{"Fernanda Cesar","Anne A Wooldridge","Cinzia Mastrorilli","Pete W Christopherson","Kellye Joiner"}
p710
F0.001
sV{"L. Kadehjian","E. J. Cone","B. A. Goldberger"}
p711
F0.001
sV{"D Minors","J Waterhouse","G Ghirlanda","G Costa","G Tarondi"}
p712
F0.001
sV{"E. Frank","L.D. Torres","D. Kupfer","K.L. Harkness","J. Guillaumot","J.E. Roberts","S.M. Monroe"}
p713
F0.001
sV{"D. C. Heimburger"}
p714
F0.001
sV{"D. Buzducea","Buzducea Cohen Johnson Lazar Lazar Lejars Lyon Marin McDowell Mardarescu O'Leary Paxton Wood Berger","F. Lazar","E. I. Mardare"}
p715
F0.001
sV{"A. J. Ghia","V. J. Gonzalez","J. D. Tward","A. M. Stroup","D. K. Gaffney","L. Pappas"}
p716
F0.001
sV{"M. Thomas","E. Fairholme","N. Nichols","M. George"}
p717
F0.001
sV{"Miquel S\ufffd\ufffd\ufffd\ufffdnchez-Marr\ufffd\ufffd\ufffd","Geoff Holmes","Joaqu\ufffd\ufffd\ufffd_n Izquierdo","Joaquim Comas","Ioannis Athanasiadis","Karina Gibert"}
p718
F0.001
sV{"J. M. Claise","S. Neel","P. Catilina","L. Fontana","S. Ughetto"}
p719
F0.001
sV{"S. Sarkar","S. Grover"}
p720
F0.001
sV{"Althaf Ansary"}
p721
F0.001
sV{"Shauna S Roberts"}
p722
F0.001
sV{"V. E. CN  - medline DA  - Sep-Oct DB  - MEDLINE DO  - http://dx.doi.org/10.1111/j.1552-6909.2011.01275.x DP  - Ovid Technologies von Gruenigen","A. M. Burkett","J. Doyle","T. H. Kenny"}
p723
F0.001
sV{"Gerard H Koppelman","Johan C de Jongste","Liset E M Elstgeest","Henri\ufffd\ufffdtte A Smit","Ulrike Gehring","Annemien Haveman-Nies","Marjan Kerkhof","Marga B M Bekkers","Alet H Wijga","Salome Scholtens"}
p724
F0.001
sV{"B. L. Drinkwater","J. E. Denton","S. M. Horvath","P. B. Raven"}
p725
F0.001
sV{"Thirimon Moe-Byrne","Duncan Chambers","Melissa Harden","Catriona McDaid"}
p726
F0.001
sV{"Mark H Wilson","Liza Chacko","Susan Hendrickson"}
p727
F0.001
sV{"L N Meurer"}
p728
F0.001
sV{"P. L. Ritter","K. Plant","D. D. Laurent","K. R. Lorig","A. Dost","I. McNeil"}
p729
F0.001
sV{"T. R. Kosten","L. Y. Zhao","D. H. Epstein","L. Lu","J. Shi","X. Y. Zhang","Y. Liu","X. L. Zhang"}
p730
F0.001
sV{"T. Welte","R. Busse","N. Jalilvand","C. Krauth"}
p731
F0.001
sV{"Giovanni Teodori","Marta Leverone","Eraldo Occhetta","Miriam Bortnik","Paolo Marino","Marco Marcolongo"}
p732
F0.001
sV{"Charles Hennekens"}
p733
F0.001
sV{"K. F. Joyner"}
p734
F0.001
sV{"Cameron Campbell Johnson"}
p735
F0.001
sV{"E. Bonthuys"}
p736
F0.001
sV{"Jos H Verbeek","Rob Kok","Jan L Hoving","Frederieke G Schaafsma","Frank J H van Dijk","Paul B A Smits"}
p737
F0.001
sV{"G. E. Ayala","A. R. A. Anderson","D. Basanta","R. B. Lukner","O. E. Franco","S. W. Hayward","D. E. Cliffel","D. W. Strand"}
p738
F0.001
sV{"Choi GS","Kim JH","Park HS","Ye YM","Kim SH","Kim JE","Jin HJ"}
p739
F0.001
sV{"Karen K Lam","Steven C Brooks","Laurie J Morrison"}
p740
F0.001
sV{"Valentina A Volchkova","Jaroslav Vorac","Philip Lawrence","Laurie Repiquet-Paire","Viktor E Volchkov"}
p741
F0.001
sV{"R F Castien","J van Wagenberg"}
p742
F0.001
sV{"Min Zeng","Yue Pan","Qunyuan Zhang","Ke-Sheng Wang","Nagesh Aragam","Xuefeng Liu"}
p743
F0.001
sV{"T. A. Doreleijers","P. T. Cohen-Kettenis","A. L. de Vries","T. D. Steensma"}
p744
F0.001
sV{"Verena Klusmann","Isabella Heuser","Andrea Evers","Ralf Schwarzer"}
p745
F0.001
sV{"Alicia Heapy","Sally G. Haskell","M. Carrington Reid","Robert D. Kerns","Rebecca K. Papas"}
p746
F0.001
sV{"Danielle Duggan","J. Mark G. Williams","Isabelle Rudolf von Rohr","Catherine Crane","Adele Krusche","Kate Muse"}
p747
F0.001
sV{"Bruno Vincenzi","Daniele Santini","Giuseppe Tonini","Anna Maria Frezza"}
p748
F0.001
sV{"M A Sanchez","S Ritzu","V Capelli","P Boccalon","G Arcangeli"}
p749
F0.001
sV{"V. Lorusso","M. De Lena","M. Guida","M. Correale","I. Abbate","A. Latorre","A. Casamassima","M. D. Musci"}
p750
F0.001
sV{"Y Matsushima"}
p751
F0.001
sV{"P. Kruszewski","Dept of Neurology Trondheim University Hospital L.J. Stovner","Norway Trondheim","J. M. Shen","Trondheim Norway University Hospital","L. J. Stovner","Trondheim Dept. of Neurology","Address Correspondence","Addresses Author"}
p752
F0.001
sV{"F. Keefe","B. Peterson","D. Weiner"}
p753
F0.001
sV{"P Talke","J Caldwell","B Dodsont","C A Richardson"}
p754
F0.001
sV{"Address Correspondence","S. Karimifard","Addresses Author","ahmadian@sina.tums.ac.ir ","Tehran Medical Physics","Tehran Medical Physics","Department of Biomedical Systems S. Karimifard","Tums Tehran Iran Email University of Medical Sciences","A. Ahmadian","Tums Tehran Iran University of Medical Sciences","Systems Department of Biomedical"}
p755
F0.001
sV{"Ahmet Asan"}
p756
F0.001
sV{"C. N. Sessler","K. Keane","M. J. Grap","D. Strickland","S. Lubin","R. Townes","P. Dalby","J. Emerson","L. Tormey","S. Winfield"}
p757
F0.001
sV{"R. Danesi","S. Terrazzino","P. L. Canonico","A. A. Genazzani","S. Cargnin","M. Del Re"}
p758
F0.001
sV{"F Vin","F A Allaert","J P Benigni","S Sadoun"}
p759
F0.001
sV{"Raymond N. Perrin"}
p760
F0.001
sV{"Demetrios J. Kutsogiannis","Neil K. Singla","Frances Chung","Stephen R. Lane","Jeremey Levin","Joseph V.J. Pergolizzi","Brendan Johnson","Linda Blackburn","Sonia K. Singla"}
p761
F0.001
sV{"J. Saengsuwan","K. Sawanyawisuth","N. Ungtrakul","J. Saengsuwan"}
p762
F0.001
sV{"L. Starka","J. Vrbikova","M. DA  - Dec DP  - Nlm ET  - 2006/03/24 Hill","M. Duskova","I. Cermakova"}
p763
F0.001
sV{"Yasunori Ota","Masaaki Noguchi","Kei-Ji Sugimoto","Hiroshi Izumi","Norio Komatsu","Nanae Yamaguchi","Hidenori Imai","Asami Shimada","Yasunobu Sekiguchi","Mutsumi Wakabayashi"}
p764
F0.001
sV{"J. M. Neal","D. J. Kopacz","M. A. Lewis","J. J. Deck"}
p765
F0.001
sV{"Janet Webber","Fiona Liddell"}
p766
F0.001
sV{"S. Truong","K. H. Treutner","M. Jansen","C. Schraven","V. DA  - Jul DP  - NLM ET  - 1999/07/03 Schumpelick","J. Neuerburg"}
p767
F0.001
sV{"George Vithoulkas","Menachem Oberbaum","Shepherd Singer","Robbert van Haselen"}
p768
F0.001
sV{"R H Dowling","G M Murphy","P B Hylemon","G French","M J Veysey","L A Thomas"}
p769
F0.001
sV{"Ramune Grambaite","Anders M Fjell","Tormod Fladby","Kristine B Walhovd","Vidar Stenset","Ivar Reinvang"}
p770
F0.001
sV{"H. Jungk","W. Madla","V. Schottstedt","T. Alt"}
p771
F0.001
sV{"M. Sinaki"}
p772
F0.001
sV{"G. Peters","K. Becker","C. Von Eiff"}
p773
F0.001
sV{"Debbi Ann Morrissette"}
p774
F0.001
sV{"Thomas Scherer","Jose M Garcia","Victor Papusha","Ji-an Chen","Mark Asnicar","Joanna Smiechowska","Bobby Guillory","Christoph Buettner","Roy G Smith","Anriada Nassif"}
p775
F0.001
sV{"Qiang Huang","Yang Wu","Zhi Qiang Zhu","Wei Liang","Feng Shao","Han Hui Yao"}
p776
F0.001
sV{"David B Hoyt","Sandro B Rizoli","Andrew J Baker","Eileen M Bulger","Wolfgang G Junger","Joseph Cuschieri","Shawn G Rhind","Pang N Shek"}
p777
F0.001
sV{"C. Jayasumana","R. Gajanayake","S. Siribaddana"}
p778
F0.001
sV{"J. Hunt","R. A. Powell"}
p779
F0.001
sV{"Ashley McDonald","Shannon N Zenk","Colleen Corte","Kelly K Jones"}
p780
F0.001
sV{"A. M. Navar","N. A. Halsey","C. R. Sudfeld"}
p781
F0.001
sV{"Ruth H. Striegel-Moore","Emilia Barzegarnazari","Fary M. Cachelin","Catherine Veisel"}
p782
F0.001
sV{"M Chouchkova","A Engibarov"}
p783
F0.001
sV{"R Loch Macdonald","Farbod Asgarzadie-Gadim","Yeon Gyoe Jang","Daniel J Curry","Rachel N Yanowitch","Kim E Schultheiss","Jocelyn Tolentino","J\ufffd_rgen L\ufffd_ders"}
p784
F0.001
sV{"G. Rahav","G. Regev-Yochay","I. Abullaish","A. Elhamdany","R. Malley","M. Raz","A. Goral","Y. Roytman","B. Shainberg","M. Varon","A. Ziv"}
p785
F0.001
sV{"E. M. CN  - PubMed DA  - Summer DP  - NLM ET  - 1993/07/01 Bohlig","J. A. Scott-Lennox","R. D. Lennox"}
p786
F0.001
sV{"Rudd R.","Guez G.","Sanders L.M.","Baur C.","Shaw J.S."}
p787
F0.001
sV{"Alan David Widgerow","Laurence A. DB  - c8h DO  - 22101481 DP  - EBSCOhost Chait"}
p788
F0.001
sV{"Michael Luther","Kari Korpilahti","Matti R Tarkka","Heini Huhtala","Jari Laurikka","Jan-Ola Wistbacka","Pertti Loponen"}
p789
F0.001
sV{"Andrew J Winzelberg","Heidi Roberts","C Barr Taylor","Catherine Classen","Heidemarie Ernst","Cheryl Koopman","Robert E Adams","Georg W Alpers","Parvati Dev","D Ph"}
p790
F0.001
sV{"Pardis Pedram","Guang Sun"}
p791
F0.001
sV{"Glen M Blake","Tim D Spector","Ignac Fogelman","Usha Chinappen-Horsley"}
p792
F0.001
sV{"Salim Yusuf","Martin O'Donnell","Craig Anderson","Irene Marzona","Peter Sleight","Jeff Probstfield","Antonio Dans","Peggy Gao","Jackie Bosch","Koon Teo"}
p793
F0.001
sV{"D. A. Tyurin","V. A. Belov","D. N. Laikov","A. V. Akimov","E. Y. Misochko"}
p794
F0.001
sV{"C. L. Romano","G. Mineo","C. Bonora","D. Romano"}
p795
F0.001
sV{"S. Roberts"}
p796
F0.001
sV{"Z Hofman","L H Nelissen","M A Vermeeren","A van Lier","E F Wouters","A M Schols"}
p797
F0.001
sV{"Diana Duro","Augusto Goul\u0323o","Gon\u0324alo Santos","Nuno Mendon\u0324a","Isabel Santana","Eg\ufffd_dio Machado"}
p798
F0.001
sV{"Chandra Y. and Bains Sujeev S. and Egede Leonard E. Osborn"}
p799
F0.001
sV{"KATERINA1 BODOVSKI","RACHAEL3 WALSH","INBAL2 NAHUM-SHANI"}
p800
F0.001
sV{"E. Flores-Gomez","F. J. Basterra-Gortari","C. Sayon-Orea","M. A. Martinez-Gonzalez","A. Gea","M. Bes-Rastrollo"}
p801
F0.001
sV{"Debashish Chakravarthy","Elizabeth A. Hinton","Tracey C. Vlahovic","Cynthia Ann Fleck"}
p802
F0.001
sV{"Marion Habersack","Irmina-Anna Gerlich","Gero Luschin"}
p803
F0.001
sV{"J. Slusarski"}
p804
F0.001
sV{"Pizzichini E","Hart L","Paggiaro P","Hamilton A","Peters M","Korducki L","De Salvo M","De La Hoz A","Koch A"}
p805
F0.001
sV{"G Villa","A Zoppi","G D Malamani","G Marasi","A Vanasia","R Fogari"}
p806
F0.001
sV{"M F Jumean","P J Erwin","V M Montori","F Lopez-Jimenez","A Romero-Corral","V K Somers","D O Okorodudu"}
p807
F0.001
sV{"Silvia Sookoian","Carlos J Pirola"}
p808
F0.001
sV{"Lowery M."}
p809
F0.001
sV{"S. N. Pennington","I. A. Shibley"}
p810
F0.001
sV{"Fenlai Tan","Ji Jiang","Don Zhang","Dongyang Liu","Yingxiang Wang","Li Zhang","Pei Hu"}
p811
F0.001
sV{"Elefteriades J.A."}
p812
F0.001
sV{"S Y Chen","H Chen","H Y Li","J Zhang","Y H Hua"}
p813
F0.001
sV{"Ronaldo Fazzi","Ana Estela Haddad","Maria Salete Nah\ufffd\ufffds Pires Corr\u033ba"}
p814
F0.001
sV{"Hanan Al-Modallal","Ann Peden","Debra Anderson"}
p815
F0.001
sV{"B. A. Moed","S. M. Doyle","A. V. Nero","K. L. Revzan","M. B. Schwehr","R. G. Sextro","W. W. Nazaroff"}
p816
F0.001
sV{"Akikazu Ishihara","Maxey L Wellman","Andrea R Barnaba","Alicia L Bertone","Peter M Kanter","Rebecca A Schwarze","Michael L Schmall","Ron L Genovese","Lisa J Zekas","Katharine B Lewis"}
p817
F0.001
sV{"B. Vijayalakshmi","D. Siva Rama Prasad","D. Raveendranath","K. Sri Rama Murthy","A. Harinatha Reddy"}
p818
F0.001
sV{"Hawkey C.","Gorbutt N.","Guiblin H.","Kong A.","Beattie A.","Curran J.","Kamath B."}
p819
F0.001
sV{"Y.-J. Du","X.-M. Zhu","B. Sang","C.-J. Yang","C.-L. Liu"}
p820
F0.001
sV{"Sarah H O'Brien","Marisa Tucci","Antonio Rodriguez Nunez","Philip C Spinella","Li Qin","Edward Vincent S Faustino","Adrienne G Randolph","Edward Truemper","Simon Li","Kimberly Marohn","Sheila Hanson","Michael Yung","[Collective Name] PROphylaxis against ThRombosis prACTice (PROTRACT) Study Investigators of the PALISI BloodNet"}
p821
F0.001
sV{"C Pithan","M Mazariegos","N W Solomons","P F\ufffd_rst"}
p822
F0.001
sV{"M. Heuer","S. Radunz","A. Paul","G. C. Sotiropoulos","Z. Mathe","T. Trarbach","H. A. Baba"}
p823
F0.001
sV{"G. Bauer","E. Laffaire","L. Bouzas","C. Gilli","L. Novali","S. P. Rodriguez","D. Farina","H. Gonzalez"}
p824
F0.001
sV{"J. L. Hastings","G. Biolo","B. D. Levine","T. Tillery","R. M. Peshock","T. A. Dorfman","B. R. Macias","A. R. DA  - Jul DO  - 10.1152/japplphysiol.01162.2006 DP  - NLM ET  - 2007/03/24 Hargens","S. M. Schneider"}
p825
F0.001
sV{"Wolfgang Konertz","Otto Krogmann","Pascal M Dohmen","Birgit Franzbach","Emanuela Angeli","Carlo Pace Napoleone","Johannes Kroll","Gleb Tarusinov","Torsten Christ","Gaetano Gargiulo"}
p826
F0.001
sV{"David N Maine","Genevieve E Courpas","James F Weller","Jeffrey M Richman","Andrew J Rowlingson","Christopher L Wu"}
p827
F0.001
sV{"Ann J. Turner","David H. L. Olson","Carole Y. Schornagel","Mary Halsdorf","Elaine A. Blechman"}
p828
F0.001
sV{"C L\u0326liger","K Neuber","J Ring","I K\u0326hler"}
p829
F0.001
sV{"K. Nguz"}
p830
F0.001
sV{"R. Kern","A. Pronovost","P. Peng"}
p831
F0.001
sV{"L Timmermans","J C Slieker","J F Lange","E B Deerenberg","J Jeekel","D P Hogerzeil","P H C Eilers"}
p832
F0.001
sV{"P K Shestakov"}
p833
F0.001
sV{"V Cus\ufffd_","H Galvez","M Iriondo","J Campistol","I M\ufffd\ufffdlaga","A Garc\ufffd_a Cazorla"}
p834
F0.001
sV{"Department of Electrical F. Zhang","Electrical Department of","National Computer Engineering","Singapore Email elezf nus edu sg University of Singapore","Singapore National University of Singapore","F. Zhang","Engineering Computer","Address Correspondence","Y. Lian","Addresses Author"}
p835
F0.001
sV{"M. B. Philip","R. A. Hayward"}
p836
F0.001
sV{"Daiki Uchida","Yukihiro Saito","Hisashi Uchida","Atsuhiro Koya","Nobuyoshi Azuma"}
p837
F0.001
sV{"R S Lever","S A Holme"}
p838
F0.001
sV{"S. Kita","J. R. McIntosh","M. Osumi","T. Kamasaki","G. Goshima","E. O'Toole","J. Usukura"}
p839
F0.001
sV{"Girault G","Rose RJ","Weinstein JN","Ball PA","Hanscom B","Fanciullo GJ"}
p840
F0.001
sV{"A Bereket","Z Hochberg","Y Yavuz","H L Muller","R H Lustig","R Weiss","W Kiess","A P Goldstone"}
p841
F0.001
sV{"John B. Sell"}
p842
F0.001
sV{"Pyung Bok Lee","Francis Sahngun Nahm","Hyung Seok Yoo","Chul Joong Lee"}
p843
F0.001
sV{"Seung Woo Park","Jae Bock Chung","Sang Kyum Kim","Si Young Song","Joo Won Chung","Ho Keun Kim","Joo Hee Seo","Seungmin Bang"}
p844
F0.001
sV{"I. Williamson"}
p845
F0.001
sV{"Ahmad Qamar","Muhammad Shahid","Md. Abdur Rahman","Ahmed Lbath","Akhlaq Ahmad","Faizan Ur Rehman","Abdullah Murad","Bilal Sadiq"}
p846
F0.001
sV{"A Polychronaki","Ch Roussos","A Koutsoukou","I Dimitroulis","J Milic-Emili","N G Koulouris","S Retsou","E N Kosmas","M Gaga"}
p847
F0.001
sV{"K. Jonsson","A. Rydholm","I. Kristiansson","D. Heinegard","F. V. von Steyern","P. Mannfolk"}
p848
F0.001
sV{"E Huguet","O Porta","E Mart\ufffd_nez","I Mora","M Sim\ufffd_","J Pubill","J A Ortega","M T Castillo"}
p849
F0.001
sV{"Chunlin Liu","Wen-Hui Shen","Ying Ruan","Dong-Hong Chen","Yong Huang"}
p850
F0.001
sV{"S. Srikanta","O. P. Ganda","R. E. Gleason"}
p851
F0.001
sV{"K. Mantsopoulos","C. Bohr","F. Hebel"}
p852
F0.001
sV{"Komla Tsey","Melissa R Haswell","Lyndon Reilly","David Kavanagh","Chris Doran","Arlene Laliberte","Andrew Wilson","Yvonne Cadet-James"}
p853
F0.001
sV{"Ugurel S.","Schadendorf D.","Garbe C.","Trefzer U.","Egberts F.","Hassel J.","Weichenthal M.","Hauschild A.","Mauch C.","Gutzmer R."}
p854
F0.001
sV{"C. Hamilton-Craig","S. Bartoletti","M. Casella","F. Perna","M. L. Narducci","P. Santangeli","F. Pintus","A. Natale","A. Dello Russo","G. Pelargonio","G. Bencardino","J. D. Burkhardt","F. Bellocci","L. Di Biase"}
p855
F0.001
sV{"O. A. Ladipo","J. C. Konje"}
p856
F0.001
sV{"S. Christen","Q. Jiang","B. N. Ames","M. K. Shigenaga"}
p857
F0.001
sV{"Jae Jun Lee","Sang Yong Song","Soomin Ahn","Young Lyun Oh","Ji-Youn Sung","Chang Ohk Sung","Yoo-Young Lee"}
p858
F0.001
sV{"Eunice Fabiani Hilleshein","Liana Lautert","Karine Kummer Gemelli"}
p859
F0.001
sV{"Yan-Yan Li","Yun Qian","Chuan-Wei Zhou"}
p860
F0.001
sV{"Sarah McGraw","Vida M Petronis","Charles S Carver","Nancy Avis","Kristie Long Foley","Deborah F Farmer","Roselyn G Smith","Kevin Smith"}
p861
F0.001
sV{"John M O\ufffd_Callaghan","Robert D Morgan","Peter J Morris","Simon R Knight"}
p862
F0.001
sV{"Andreas Beelmann","Friedrich L\u0326sel"}
p863
F0.001
sV{"Hiroshi Akima","Kazunori Nosaka","Aya Tomita","Anthony J Blazevich","Takayuki Inami","Ryosuke Ando","Kohei Watanabe"}
p864
F0.001
sV{"Margarita Admetlla Falgueras","Josep Fust\ufffd\ufffd\ufffd Sugra\ufffd\ufffd\ufffdes"}
p865
F0.001
sV{"C. D. Smith","J. E. Skandalakis"}
p866
F0.001
sV{"J. Le","B. Riegel","B. J. Bobrow","A. L. Blewer","B. S. Abella","M. Leary","D. Buckler"}
p867
F0.001
sV{"C. Jahanchahi","C. C. Took","B. C. Ujang","D. P. Mandic"}
p868
F0.001
sV{"Junge G","Rauer B","De Simone P","Fischer L","De Carlis L","Kaiser GM","Saliba F","Duvoux C","Metselaar HJ","Dong G","Nevens F","Fung JJ"}
p869
F0.001
sV{"H. Cavusoglu","T. Cansever","A. Yilmaz","Y. Aydin","H. A. Genc","A. M. Musluman","I. Colak"}
p870
F0.001
sV{"Robert S Hoffman","Brian W Cotter","Barbara M Kirrane","Fermin Barrueto","Lewis S Nelson"}
p871
F0.001
sV{"R. Rehmani"}
p872
F0.001
sV{"R. A. Ord","A. Salama","R. Movahed","S. A. McClure"}
p873
F0.001
sV{"Goveia M.G.","Block S.L.","Rivers S.B.","Dallas M.J.","Bauder J.","Adeyi B.A.","Vesikari T.","Heaton P.M.","Boslego J.W."}
p874
F0.001
sV{"B. E. Perron","Q. Fu","L. T. Wu","M. G. Vaughn"}
p875
F0.001
sV{"Bradley S Marino"}
p876
F0.001
sV{"S\ufffd\ufffdren Brostr\ufffd\ufffdm","Gunnar Lose"}
p877
F0.001
sV{"O. Callender","J. Craven","C. Martin"}
p878
F0.001
sV{"Francitorra ME","Sanchez GS","Manrique CA","Velasco TT","Castany A R","Escriche XF","Fern\ufffd\ufffd\ufffd\ufffdndez CS","Fornell LL","\ufffd\ufffd\ufffdlvarez S\ufffd\ufffd\ufffd","Fern\ufffd\ufffd\ufffd\ufffdndez EA","Rodriguez MVF","Sim\ufffd\ufffd\ufffd_ MR","Mayo EP"}
p879
F0.001
sV{"Michio Fukumizu","Marie J Hayes","Makiko Kaga","Jun Kohyama"}
p880
F0.001
sV{"H. Choi","E. S. Kang","S. K. Lim","S. Y. Jeong","H. C. Lee","H. J. Kim","S. Kim","Y. Rhee","Y. H. Lee","J. H. Moon","K. R. Kim","C. W. Ahn","B. S. Cha","E. J. Lee"}
p881
F0.001
sV{"W. Yu","R. Pagani","L. Huang"}
p882
F0.001
sV{"Catherine Mays","Rajesh Ramanathan","Dale Harvey","Gregory Stockslager","Therese M Duane","Patricia Leavell"}
p883
F0.001
sV{"S. K. Chaturvedi","D. CN  - PubMed_140821 DA  - Jan DO  - 10.1097/YCO.0b013e328010ca65 DP  - NLM ET  - 2006/12/05 Bhugra"}
p884
F0.001
sV{"A Street","C Walsh"}
p885
F0.001
sV{"E. M. Quigley","J. K. DiBaise"}
p886
F0.001
sV{"M. Martinengo","D. F. Ardenghi","G. Reali","G. Tripodi"}
p887
F0.001
sV{"M. S. Goromossow"}
p888
F0.001
sV{"Ofelia Garcia","Jo Anne Kleifgen"}
p889
F0.001
sV{"J. Robinson-Papp","S.C. Shin"}
p890
F0.001
sV{"Stensland SH","Sobal J"}
p891
F0.001
sV{"L Lenhardt","S Mozes","A Martinkov\ufffd\ufffd"}
p892
F0.001
sV{"Maria Papapolydorou","Taslima Rahman","William D. Schafer","Lori Parker"}
p893
F0.001
sV{"Franco Roviello","Daniele Marrelli","Carla Vindigni","Valeria Pascale","Giovanni Corso"}
p894
F0.001
sV{"V.E. Zakharov","S. Dyachenko","A.C. Newell","A. Pushkarev"}
p895
F0.001
sV{"NCT01893931 "}
p896
F0.001
sV{"S. Pelofsky","P. D. Hunter"}
p897
F0.001
sV{"A. Sengupta","D. DA  - Feb DO  - 23/1/63 [pii] DP  - Nlm ET  - 2008/01/22 Karsies","G. U. Liepa"}
p898
F0.001
sV{"Jayatunga AP","Dark CH","Jahangiri M","Bradley JWP"}
p899
F0.001
sV{"J. E. Wennberg"}
p900
F0.001
sV{"A. L. Warshaw"}
p901
F0.001
sV{"Melissa E. Dichter","Karin V. Rhodes"}
p902
F0.001
sV{"Gao YH","Lin ZY","Zhang GJ","Zhong NS","Chen RC","Gao Y","Tang Y","Lin ZM","Xu G","Li HM","Guan WJ"}
p903
F0.001
sV{"Y. A. Son","G. Ustunkar","M. A. Doke","H. A. Dom","Y. Y. Tuncel"}
p904
F0.001
sV{"A. M. Walker","J. Xerry","K. Davies","N. C. Elviss","R. J. Owen"}
p905
F0.001
sV{"Dalia Elimam","Keith A Webster","Ahmed Omran","Fei Yin","Lina A Shehadeh"}
p906
F0.001
sV{"Luiza Akiko Komura Hoga","Ana Luisa Zaniboni Gomes","Luciana Magnoni Reberte"}
p907
F0.001
sV{"W. De Groote","D. Stoffelen","K. Govaerts","P. Reynders","P. L. Broos","J. Rondia"}
p908
F0.001
sV{"Thompson NC","Calverley PMA","Olsson H"}
p909
F0.001
sV{"P. Azevedo","A. Vaz-Carneiro","J. Costa"}
p910
F0.001
sV{"P. Phanthunane","M. Bertram","H. Whiteford","T. Vos"}
p911
F0.001
sV{"S. Homola"}
p912
F0.001
sV{"V Youtananukorn","P Mantangkasombut"}
p913
F0.001
sV{"E. Anegekuh, L., Sun, L., Ifeachor"}
p914
F0.001
sV{"Katoulis A.C.","Georgala K.","Georgala S.","Befon A.","Stavropoulos P.G."}
p915
F0.001
sV{"Bouchard DR","Soucy L","Senechal M","Brochu M","Dionne IJ"}
p916
F0.001
sV{"James Murphy","Amal Isaiah","Joshua E Lubek","Jeffrey S Wolf"}
p917
F0.001
sV{"Junwei Jiang","Hongchuan Wang","Hua Lou","Kai Liu","Huiwei Zhang"}
p918
F0.001
sV{"Geoffrey C. Williams","Bai Brownson Difranza Gehrman Glantz Law Mokdad Ory Panagiotakos Pechacek Pyle Sargent Sweda Whincup Whitlock Arcavi"}
p919
F0.001
sV{"John T Sharp","Weng Kee Wong","Grace S Park","Harold E Paulus","MyungShin Oh","Richard H Gold","Dinesh Khanna"}
p920
F0.001
sV{"Norah J Shire","Guy W Neff","Steven M Rudich"}
p921
F0.001
sV{"C. S. Berry-Caban","L. Bowers","S. Wallgren"}
p922
F0.001
sV{"M. Heiden","E. Lyskov","M. Barnekow-Bergkvist","M. Nakata"}
p923
F0.001
sV{"E. Idrizovic","A. Odobasic","L. Dedic","A. Pasic","M. Dervisefendic","E. Iljazovic-Latifagic","A. Odobasic","L. Arnautalic"}
p924
F0.001
sV{"John W Toumbourou","Eva Leslie","Peter Kremer","Joanne W Williams"}
p925
F0.001
sV{"Yan-Xin Zhao","Jun-Chao Xie","Xue-Yuan Liu","Han Yan"}
p926
F0.001
sV{"G Vaksmann","A Vincentelli","C Francart","M A Cajot","G M Brevi\u032cre","F Godart","J M Coullet","P Devos","C Rey"}
p927
F0.001
sV{"Allan I Binder"}
p928
F0.001
sV{"Suzanne B. Stewart","Phillip Dahm","D DB  - rzh DO  - 10.4103/0970-1591.91446 DP  - EBSCOhost"}
p929
F0.001
sV{"HongQiang Wang","Dwain K Irvin","Ashley Gragg","Xiao-xue Zhang","Christopher J Wheeler","Keith L Black","Lucia Veiga","Ryan Cordner","Mandana Zandian","Akanksha Panwar","Emmanuel Jouanneau","Yuying Zhai","Shyam Goverdhana","Armen Mardiros"}
p930
F0.001
sV{"M P Reilly","S Kuchi","G Furness"}
p931
F0.001
sV{"Annalisa Ansaloni","Jae Sun Jeong","Francesco Simone Ruggeri","Giovanni Dietler","Zhe-Ming Wang","Hilal A Lashuel"}
p932
F0.001
sV{"P. Tarraga-Lopez","J. M. Ocana-Lopez","J. Miguel-Clave","J. Solera-Albero","M. Cerdan-Oliver","M. A. Lopez-Cara","A. Celada-Rodriguez"}
p933
F0.001
sV{"Hotzel K","R ","von Brachel","Kosfelder J","Hechler T","Vocks S","Rieger E","Schulte D","Schmidt U"}
p934
F0.001
sV{"W. Frehner","S. Aeschbacher","L. Risch","T. Schon","M. Risch","G. Pare","D. Conen"}
p935
F0.001
sV{"Sandra M Walsh","Shiue Chen"}
p936
F0.001
sV{"McNeal M.M.","Sanchez S.E.","Jacob S.","Javid P.J.","Englund J.A.","Horslen S.P."}
p937
F0.001
sV{"Lucio Montebugnoli","Luca Morandi","Luca Scapoli","Annalisa Palmieri","Davide B Gissi","Maria Pia Foschini","Ilaria Manelli"}
p938
F0.001
sV{"S. McIver"}
p939
F0.001
ssS'characters'
p940
(dp941
V 
p942
F0.937
sV\u0326
p943
F0.011
sV(
p944
F0.002
sV,
p945
F0.818
sV0
p946
F0.035
sV4
p947
F0.019
sV8
p948
F0.02
sV@
p949
F0.002
sVD
p950
F0.391
sVH
p951
F0.357
sVL
p952
F0.455
sVP
p953
F0.398
sVT
p954
F0.305
sVX
p955
F0.04
sVd
p956
F0.482
sVh
p957
F0.594
sVl
p958
F0.644
sVp
p959
F0.238
sVt
p960
F0.604
sVx
p961
F0.047
sV\ufffd
p962
F0.06
sV\u0301
p963
F0.001
sV'
p964
F0.013
sV\u0329
p965
F0.011
sV/
p966
F0.029
sV\u0331
p967
F0.005
sV3
p968
F0.024
sV7
p969
F0.018
sVC
p970
F0.447
sVG
p971
F0.354
sVK
p972
F0.342
sVO
p973
F0.141
sVS
p974
F0.556
sVW
p975
F0.261
sV[
p976
F0.016
sV_
p977
F0.035
sVc
p978
F0.458
sVg
p979
F0.438
sVk
p980
F0.384
sVo
p981
F0.754
sVs
p982
F0.667
sVw
p983
F0.203
sV{
p984
F1.0
sV"
p985
F0.937
sV\u0324
p986
F0.003
sV&
p987
F0.001
sV\u032c
p988
F0.003
sV.
p989
F0.439
sV2
p990
F0.033
sV\u0334
p991
F0.006
sV6
p992
F0.018
sV:
p993
F0.002
sV\u033c
p994
F0.002
sVB
p995
F0.386
sVF
p996
F0.252
sVJ
p997
F0.436
sVN
p998
F0.317
sVR
p999
F0.392
sVV
p1000
F0.167
sVZ
p1001
F0.097
sVb
p1002
F0.307
sVf
p1003
F0.169
sVj
p1004
F0.107
sVn
p1005
F0.799
sVr
p1006
F0.75
sVv
p1007
F0.29
sVz
p1008
F0.236
sV\u0323
p1009
F0.002
sV)
p1010
F0.002
sV\u032b
p1011
F0.001
sV-
p1012
F0.191
sV1
p1013
F0.037
sV5
p1014
F0.019
sV9
p1015
F0.021
sV\u033b
p1016
F0.002
sVA
p1017
F0.484
sVE
p1018
F0.282
sVI
p1019
F0.143
sVM
p1020
F0.587
sVQ
p1021
F0.03
sVU
p1022
F0.106
sVY
p1023
F0.143
sV]
p1024
F0.016
sVa
p1025
F0.838
sVe
p1026
F0.82
sVi
p1027
F0.782
sVm
p1028
F0.485
sVq
p1029
F0.02
sVu
p1030
F0.599
sVy
p1031
F0.35
sV}
p1032
F1.0
ss.