(dp0
S'values'
p1
(dp2
V
p3
F0.208
sVActa Clin. Croat.
p4
F0.001
sVCritical Care Nursing Quarterly
p5
F0.001
sVActa Obstet Gynecol Scand
p6
F0.001
sVScandinavian journal of psychology
p7
F0.001
sVInt. J. Radiat. Oncol. Biol. Phys.
p8
F0.001
sVInfection and immunity
p9
F0.001
sVChin. J. Evid.-Based Med.
p10
F0.001
sVAIDS Care
p11
F0.001
sVAmerican Journal Of Physical Medicine & Rehabilitation / Association Of Academic Physiatrists
p12
F0.001
sVInternational Urology and Nephrology
p13
F0.001
sVPublic health reports (Washington, D.C. : 1974)
p14
F0.001
sVVox Sanguinis
p15
F0.001
sVClinical radiology
p16
F0.001
sVPharmacogenomics
p17
F0.002
sVSocial science & medicine (1982)
p18
F0.001
sVCanadian Journal of Anaesthesia
p19
F0.001
sVCirculation journal : official journal of the Japanese Circulation Society
p20
F0.001
sVAllergy: European Journal of Allergy and Clinical Immunology
p21
F0.001
sVCytokine
p22
F0.001
sVComputers & chemical engineering
p23
F0.001
sVRadiotherapy and Oncology
p24
F0.001
sVEuropean Journal of Health Economics
p25
F0.001
sVNippon Seikeigeka Gakkai zasshi
p26
F0.001
sVJournal of the American Academy of Child and Adolescent Psychiatry
p27
F0.001
sVJ. Clin. Oncol.
p28
F0.001
sVHorumon to rinsho. Clinical endocrinology
p29
F0.001
sVBMC Medical Research Methodology
p30
F0.001
sVNederlands Tijdschrift Voor Fysiotherapie
p31
F0.001
sVWorld J Pediatr Congenit Heart Surg
p32
F0.001
sVJournal of Oral & Maxillofacial Surgery
p33
F0.001
sVAmerican Indian and Alaska Native Mental Health Research: The Journal of the National Center
p34
F0.001
sVJ Hosp Infect
p35
F0.001
sVNeurobiology of aging
p36
F0.001
sVInt J Obes (Lond)
p37
F0.001
sVBasic and Clinical Pharmacology and Toxicology
p38
F0.001
sVO papel dos profissionais de saude em casos de violencia domestica: um relato de experiencia.
p39
F0.001
sVTAKAYASUSCHE ARTERIITIS MIT MULTIPLEN INTRAKRANIELLEN ANEURYSMEN
p40
F0.001
sVLeukemia and Lymphoma
p41
F0.001
sVIssues Ment Health Nurs
p42
F0.001
sVItalian Journal of Psychopathology
p43
F0.001
sVBritish Journal of Anaesthesia
p44
F0.001
sVJ Hum Hypertens
p45
F0.001
sVCurr. Vasc. Pharmacol.
p46
F0.001
sVMetabolism: Clinical and Experimental
p47
F0.001
sVPhysical therapy
p48
F0.001
sVNephrology, dialysis, transplantation : official publication of the European Dialysis and Transplant Association - European Renal Association
p49
F0.002
sVJOURNAL OF CHEMICAL PHYSICS
p50
F0.001
sVDrugs & aging
p51
F0.001
sVCancer prevention research (Philadelphia, Pa.)
p52
F0.001
sVOral surgery, oral medicine, and oral pathology
p53
F0.001
sVJ Surg Res
p54
F0.001
sVJournal of cerebral blood flow and metabolism : official journal of the International Society of Cerebral Blood Flow and Metabolism
p55
F0.001
sVNeuropsychologia
p56
F0.001
sVNature: New biology
p57
F0.001
sVTransportation Research Part D-Transport and Environment
p58
F0.001
sVFeminist Legal Studies
p59
F0.001
sVLaryngo- rhino- otologie
p60
F0.001
sVMedicinski Glasnik
p61
F0.001
sVAnaesthesia
p62
F0.001
sVClin Nutr
p63
F0.001
sVAutonomic Neuroscience: Basic and Clinical
p64
F0.001
sVOral surgery, oral medicine, oral pathology, oral radiology, and endodontics
p65
F0.001
sVDiabetes forecast
p66
F0.001
sVActa Neurochir Suppl (Wien)
p67
F0.001
sVActa clinica Belgica
p68
F0.001
sVHealth Technology Assessment Database
p69
F0.001
sVBioelectromagnetics
p70
F0.002
sVHeadache
p71
F0.001
sVJapanese Journal of Clinical Oncology
p72
F0.001
sVNepal Medical College journal : NMCJ
p73
F0.002
sVJournal of geriatric oncology
p74
F0.001
sVJohns Hopkins Medical Journal
p75
F0.001
sVBest practice & research. Clinical gastroenterology
p76
F0.001
sVThe British journal of psychiatry : the journal of mental science
p77
F0.001
sVApplied radiation and isotopes : including data, instrumentation and methods for use in agriculture, industry and medicine
p78
F0.001
sVAm. J. Cardiovasc. Drugs
p79
F0.001
sVAmerican Journal of Clinical Oncology-Cancer Clinical Trials
p80
F0.001
sVBR J ANAESTH
p81
F0.001
sVAustralian & New Zealand Journal of Mental Health Nursing
p82
F0.001
sVValue in Health
p83
F0.002
sVPlanta
p84
F0.001
sVJournal of cardiovascular medicine (Hagerstown, Md.)
p85
F0.002
sVPolskie Archiwum Medycyny Wewnetrznej
p86
F0.001
sVEXPERIMENTAL CELL RESEARCH
p87
F0.001
sVJ Anal Toxicol
p88
F0.001
sVHepatology (Baltimore, Md.)
p89
F0.001
sVJournal of Health Care for the Poor & Underserved
p90
F0.001
sVActa cytologica
p91
F0.001
sVJournal of the American Medical Informatics Association : JAMIA
p92
F0.001
sVLearning & Leading with Technology
p93
F0.001
sVAging & Mental Health
p94
F0.001
sVAddictive Behaviors
p95
F0.001
sVExperimental cell research
p96
F0.001
sVHealth Facilities Management
p97
F0.001
sVCurrent opinion in pediatrics
p98
F0.001
sVDevelopmental Psychology
p99
F0.001
sVJournal of aerosol medicine and pulmonary drug delivery
p100
F0.001
sVJ Altern Complement Med
p101
F0.001
sVBr Med Bull
p102
F0.001
sVAnnals of the Royal College of Surgeons of England
p103
F0.001
sVAcademic Medicine: Journal Of The Association Of American Medical Colleges
p104
F0.001
sVKnee surgery, sports traumatology, arthroscopy : official journal of the ESSKA
p105
F0.002
sVStomatologii\ufffd\ufffda
p106
F0.001
sVAnimal
p107
F0.001
sVAm. J. Managed Care
p108
F0.001
sVJ. Thromb. Haemost.
p109
F0.001
sVGeriatr Gerontol Int
p110
F0.001
sVJ. Am. Geriatr. Soc.
p111
F0.001
sVOral oncology
p112
F0.001
sVJournal of the neurological sciences
p113
F0.001
sVPediatrics
p114
F0.005
sVClinical cardiology
p115
F0.001
sVAnn Rheum Dis
p116
F0.002
sVJ Appl Physiol
p117
F0.001
sVSchlafst\u0326rungen bei kritisch kranken patienten
p118
F0.001
sVCroatian Medical Journal
p119
F0.001
sVJournal of Substance Abuse Treatment
p120
F0.001
sVNeuroscience
p121
F0.001
sVScandinavian cardiovascular journal : SCJ
p122
F0.001
sVConsumer Reports on Health
p123
F0.001
sVTeachers College Press
p124
F0.001
sVPhotomedicine and laser surgery
p125
F0.001
sVExperimental Aging Research
p126
F0.001
sVAmerican Journal of Epidemiology
p127
F0.001
sVEuropean Heart Journal
p128
F0.001
sVJournal of Neurocytology
p129
F0.001
sVGut
p130
F0.002
sVEuropean journal of pediatrics
p131
F0.001
sVJournal of stroke and cerebrovascular diseases : the official journal of National Stroke Association
p132
F0.002
sVBMJ 2006, 333:939
p133
F0.001
sVJournal of epidemiology and community health.
p134
F0.001
sVRevista Brasileira de terapia intensiva
p135
F0.001
sVInternational Journal of Social Psychiatry
p136
F0.001
sVIntensivmedizin und Notfallmedizin
p137
F0.001
sVMulticultural Education & Technology Journal
p138
F0.001
sVJournal of Mathematics Teacher Education
p139
F0.001
sVJornal brasileiro de pneumologia : publicacao oficial da Sociedade Brasileira de Pneumologia e Tisilogia
p140
F0.001
sVPediatric physical therapy
p141
F0.001
sVAcademic radiology
p142
F0.001
sVJ Nutr Gerontol Geriatr
p143
F0.001
sVObesity reviews : an official journal of the International Association for the Study of Obesity
p144
F0.001
sVInjury
p145
F0.001
sVGlobal journal of health science
p146
F0.001
sVJournal of medicinal chemistry
p147
F0.001
sVInternational journal of clinical and experimental pathology
p148
F0.001
sVCancer Epidemiology Biomarkers and Prevention
p149
F0.001
sVThe British Journal of Psychiatry
p150
F0.001
sVVulnerable Children and Youth Studies
p151
F0.001
sVLa Pediatria medica e chirurgica : Medical and surgical pediatrics
p152
F0.001
sVHospital practice (1995)
p153
F0.001
sVJournal of psychiatric research
p154
F0.001
sVAlternative Therapies in Health and Medicine
p155
F0.001
sVClinical Oncology (Royal College of Radiologists)
p156
F0.001
sVJOURNAL OF CELL SCIENCE
p157
F0.001
sVHarefuah
p158
F0.001
sVJournal of Huazhong University of Science and Technology. Medical Sciences
p159
F0.001
sVVaccine
p160
F0.001
sVCANCER
p161
F0.002
sVWater science and technology : a journal of the International Association on Water Pollution Research
p162
F0.001
sVAmerican Journal of Community Psychology
p163
F0.001
sVJ. Urol.
p164
F0.001
sVThe Journal of infectious diseases
p165
F0.001
sVCancer chemotherapy and pharmacology
p166
F0.002
sVTransplantation
p167
F0.001
sVScientific Session and Scientiftc Poster Abstracts
p168
F0.001
sVFocus on Alternative and Complementary Therapies
p169
F0.002
sVApplied nursing research : ANR
p170
F0.001
sVLeukemia & Lymphoma
p171
F0.001
sVPLoS medicine
p172
F0.001
sVInternational journal of obesity (2005)
p173
F0.002
sVAmerican journal of orthodontics and dentofacial orthopedics : official publication of the American Association of Orthodontists, its constituent societies, and the American Board of Orthodontics
p174
F0.001
sVHippokratia
p175
F0.001
sVActa Endocrinologica. Supplementum
p176
F0.001
sVCognitive Processing
p177
F0.001
sVPsycho-oncology
p178
F0.002
sVInt J Gynaecol Obstet
p179
F0.001
sVAm J Obstet Gynecol
p180
F0.001
sVCurrent Opinion in Infectious Diseases
p181
F0.001
sVShock (Augusta, Ga.)
p182
F0.001
sVBMC medicine
p183
F0.001
sVCanadian Forces Dental Services quarterly
p184
F0.001
sVCardiovascular therapeutics
p185
F0.001
sVEur J Cancer Care (Engl)
p186
F0.001
sVEuropean Respiratory Journal
p187
F0.001
sVUrban Studies (Routledge)
p188
F0.001
sVDiabetes technology & therapeutics
p189
F0.001
sVJournal of Sports Medicine & Physical Fitness
p190
F0.001
sVBMC Musculoskelet Disord
p191
F0.001
sVNo shinkei geka. Neurological surgery
p192
F0.001
sVJ Cardiovasc Med (Hagerstown)
p193
F0.001
sVJournal of Biomolecular Techniques
p194
F0.001
sVBiology of Blood and Marrow Transplantation
p195
F0.001
sVEuthanasie en andere medische beslissingen rond het levenseinde, 1990-1995
p196
F0.001
sVAnesthesiology
p197
F0.001
sVJ Med Toxicol
p198
F0.001
sVBirth
p199
F0.001
sVAllergy and asthma proceedings : the official journal of regional and state allergy societies
p200
F0.001
sVJournal of dental research
p201
F0.002
sVAtherosclerosis. Supplements
p202
F0.001
sVBasic Rights: Subsistence, Affluence and U.S. Foreign Policy
p203
F0.001
sVInt. J.  Pharmcy Pharm. Sci.
p204
F0.001
sVEuropean Journal Of Anaesthesiology
p205
F0.002
sVDEV. BIOL. STAND.
p206
F0.001
sVJournal of receptor and signal transduction research
p207
F0.001
sVBurns : journal of the International Society for Burn Injuries
p208
F0.001
sVInternational journal of geriatric psychiatry
p209
F0.001
sVJama
p210
F0.001
sVRheumatology (United Kingdom)
p211
F0.001
sVConference proceedings : ... Annual International Conference of the IEEE Engineering in Medicine and Biology Society. IEEE Engineering in Medicine and Biology Society. Conference
p212
F0.001
sVNeuroRehabilitation
p213
F0.001
sVThe Behavioral and brain sciences
p214
F0.001
sVPatologie asbesto correlate in congiunti di lavoratori del settore cemento-amianto.
p215
F0.002
sVPsycho-Oncology
p216
F0.001
sVJournal Of Oral And Maxillofacial Surgery: Official Journal Of The American Association Of Oral And Maxillofacial Surgeons
p217
F0.001
sVGeneral dentistry
p218
F0.001
sVInternational Journal of Behavioral Consultation and Therapy
p219
F0.001
sVIndustrial Robot: An International Journal
p220
F0.001
sVInt J Gynecol Cancer
p221
F0.001
sVActa Neurochirurgica
p222
F0.001
sVJournal of clinical anesthesia
p223
F0.001
sVAm J Public Health
p224
F0.001
sVAnesthesia And Analgesia
p225
F0.002
sVBritish journal of clinical pharmacology
p226
F0.001
sVJournal of Nursing UFPE / Revista de Enfermagem UFPE
p227
F0.001
sVHealth Education Research
p228
F0.001
sVJournal Of Anesthesia
p229
F0.001
sVJournal of sports sciences
p230
F0.001
sVClinical Interventions In Aging
p231
F0.001
sVJournal of Clinical Gastroenterology
p232
F0.001
sVLaboratory Investigation
p233
F0.001
sVParkinsonism & related disorders
p234
F0.001
sVEuropean respiratory journal
p235
F0.002
sVMedical teacher
p236
F0.001
sVCancer Treatment Reviews
p237
F0.001
sVHeart Rhythm
p238
F0.001
sVRespiration; international review of thoracic diseases
p239
F0.002
sVBMJ
p240
F0.001
sVStatistical methods in medical research
p241
F0.001
sVJ. Exp. Clin. Cancer Res.
p242
F0.001
sVChinese medical journal
p243
F0.001
sVEuropean journal of applied physiology
p244
F0.001
sVJAMA
p245
F0.001
sVArch Intern Med
p246
F0.001
sVThe Journals of Gerontology: Series A: Biological Sciences and Medical Sciences
p247
F0.001
sVStrabismus
p248
F0.001
sVClinical Biomechanics
p249
F0.001
sVJournal of Rheumatology
p250
F0.001
sVPharmacoEconomics
p251
F0.001
sVTransfusion
p252
F0.001
sVPublic health nutrition
p253
F0.001
sVJ Orthop Sci
p254
F0.002
sVCost Effectiveness and Resource Allocation
p255
F0.001
sVInternational Journal of Oral and Maxillofacial Surgery
p256
F0.001
sVAmerican Journal of Acupuncture
p257
F0.001
sVBjog
p258
F0.001
sVAnn. Hematol.
p259
F0.001
sVActa dermato-venereologica
p260
F0.001
sVJ. Chin. Integr. Med.
p261
F0.001
sVProc R Soc Med
p262
F0.001
sVDissertation Abstracts International, A: The Humanities and Social Sciences
p263
F0.001
sVJournal of Aging & Physical Activity
p264
F0.001
sVCardiol Young
p265
F0.001
sVCanadian family physician Medecin de famille canadien
p266
F0.001
sVActa radiologica (Stockholm, Sweden : 1987)
p267
F0.001
sVTob Control
p268
F0.001
sVUgeskr Laeger
p269
F0.001
sVBrain and behavior
p270
F0.001
sVAktuelle Traumatologie
p271
F0.001
sVANN. ONCOL.
p272
F0.001
sVEur. Heart J.
p273
F0.001
sVThe Australian journal of rural health
p274
F0.001
sVAnnals of Internal Medicine
p275
F0.001
sVDisease Management and Clinical Outcomes
p276
F0.001
sVDrug Topics
p277
F0.001
sVJ Grad Med Educ
p278
F0.001
sVCritical Care Nurse
p279
F0.001
sVNature
p280
F0.001
sVAmerican Journal of Education
p281
F0.001
sVJournal of environmental monitoring : JEM
p282
F0.001
sVAlcohol Research & Health
p283
F0.001
sVScience and Children
p284
F0.001
sVAnadolu kardiyoloji dergisi : AKD = the Anatolian journal of cardiology
p285
F0.001
sVComplementary Therapies in Medicine
p286
F0.001
sVTEACHING Exceptional Children Plus
p287
F0.001
sVThorax
p288
F0.001
sVCirculation
p289
F0.004
sVEpilepsy research
p290
F0.001
sVSpine
p291
F0.001
sVNutrients
p292
F0.001
sVChild: Care, Health & Development
p293
F0.001
sVJournal of the National Cancer Institute
p294
F0.003
sVSupply Chain Management
p295
F0.001
sVJ. Pediatric Infect. Dis. Soc.
p296
F0.001
sVThe Journal of clinical psychiatry
p297
F0.002
sVPlos Neglected Tropical Diseases
p298
F0.001
sVGene
p299
F0.001
sVAustralian and New Zealand Journal of Psychiatry
p300
F0.001
sVScandinavian journal of rheumatology
p301
F0.001
sVPostgraduate medical journal
p302
F0.001
sVActas urologicas espanolas
p303
F0.001
sVProtein science : a publication of the Protein Society
p304
F0.001
sVAnn N Y Acad Sci
p305
F0.001
sVMount Sinai Journal of Medicine
p306
F0.001
sVCancer
p307
F0.002
sVRev Med Chir Soc Med Nat Iasi
p308
F0.001
sVChild & Family Social Work
p309
F0.001
sVBritish journal of sports medicine
p310
F0.001
sVCNS spectrums
p311
F0.001
sVColorectal disease : the official journal of the Association of Coloproctology of Great Britain and Ireland
p312
F0.002
sVAm J Health Syst Pharm
p313
F0.001
sVCochrane Database Syst. Rev.
p314
F0.003
sVJournal of the American Board of Family Medicine : JABFM
p315
F0.001
sVInternational Journal of Neuroscience
p316
F0.001
sVJournal of applied physiology
p317
F0.001
sVAnnals of oncology : official journal of the European Society for Medical Oncology / ESMO
p318
F0.001
sVFunctional Neurology
p319
F0.002
sVBMJ Open
p320
F0.003
sVClin Obstet Gynecol
p321
F0.001
sVPhytotherapy research : PTR
p322
F0.001
sVInternational Journal of Colorectal Disease
p323
F0.001
sVArch Surg
p324
F0.001
sVInternational Journal of Oral & Maxillofacial Implants
p325
F0.001
sVJournal of plastic, reconstructive & aesthetic surgery : JPRAS
p326
F0.001
sVBMC Oral Health
p327
F0.001
sVPsychiatric Services.
p328
F0.001
sVCancer research
p329
F0.001
sVRevista latino-americana de enfermagem
p330
F0.001
sVCirculation Journal
p331
F0.001
sVJournal of Sexual Medicine
p332
F0.002
sVInternational journal of clinical and experimental medicine
p333
F0.001
sVCurrent opinion in pharmacology
p334
F0.001
sVMinerva cardioangiologica
p335
F0.001
sVPublic health nursing (Boston, Mass.)
p336
F0.002
sVOphthalmology and eye diseases
p337
F0.001
sVNeurol Res
p338
F0.001
sVJournal of biomaterials applications
p339
F0.001
sVBioMed research international
p340
F0.002
sVJ Bone Joint Surg Br
p341
F0.001
sVNicotine & Tobacco Research
p342
F0.001
sVChinese Journal of Evidence-Based Medicine
p343
F0.001
sVAnnual Abstract Supplement
p344
F0.001
sVTherapeutic advances in respiratory disease
p345
F0.001
sVFood Control
p346
F0.001
sVHepato-gastroenterology
p347
F0.001
sVPediatric allergy and immunology : official publication of the European Society of Pediatric Allergy and Immunology
p348
F0.001
sVNurs Stand
p349
F0.001
sVEuropean Journal of Endocrinology
p350
F0.001
sVEuropean heart journal
p351
F0.001
sVInternational journal of stroke : official journal of the International Stroke Society
p352
F0.001
sVSwiss Med. Wkly
p353
F0.001
sVThe Journal of antimicrobial chemotherapy
p354
F0.001
sVThe Journal Of Rheumatology
p355
F0.001
sVPain Medicine
p356
F0.001
sVEuropean archives of oto-rhino-laryngology : official journal of the European Federation of Oto-Rhino-Laryngological Societies (EUFOS) : affiliated with the German Society for Oto-Rhino-Laryngology - Head and Neck Surgery
p357
F0.001
sVJournal of nuclear medicine : official publication, Society of Nuclear Medicine
p358
F0.001
sVForsinket implementering af internationale retningslinjer for computertomografi med iodholdigt kontraststof .
p359
F0.001
sVCardiovascular and interventional radiology
p360
F0.001
sVCritical reviews in oncology/hematology
p361
F0.001
sVThe neurologist
p362
F0.001
sVFrontiers in human neuroscience
p363
F0.001
sVPRIMUS
p364
F0.001
sVRadiologic Clinics of North America
p365
F0.001
sVRevue de stomatologie, de chirurgie maxillo-faciale et de chirurgie orale
p366
F0.001
sVJ Hand Surg Am
p367
F0.003
sVRadiology
p368
F0.001
sVJ Okla State Med Assoc
p369
F0.001
sVCrit. Care Med.
p370
F0.001
sVEndodontics & dental traumatology
p371
F0.001
sVPhysiotherapy
p372
F0.002
sVCancer immunology, immunotherapy : CII
p373
F0.001
sVJournal of Science & Medicine in Sport
p374
F0.001
sVOrthopedics
p375
F0.001
sVPsychother. Psychosom.
p376
F0.001
sVCases J
p377
F0.001
sVAnnals Of Surgery
p378
F0.001
sVThe New England journal of medicine
p379
F0.001
sVReview of Scientific Instruments
p380
F0.001
sVAmerican Acupuncturist
p381
F0.001
sVUltrasound Obstet. Gynecol.
p382
F0.001
sVInt J Epidemiol
p383
F0.001
sVSkeletal Radiology
p384
F0.001
sVJournal of Psychopharmacology
p385
F0.001
sVRespirology (Carlton, Vic.)
p386
F0.001
sVJ Pediatr (Rio J)
p387
F0.001
sVThrombosis And Haemostasis
p388
F0.001
sVBritish Journal of Midwifery
p389
F0.001
sVAmerican Journal of Bioethics
p390
F0.001
sVTratamiento antibiotico intravenoso domiciliario del absceso hepatico: seguridad, eficacia y factores pronosticos de reingreso hospitalario.
p391
F0.001
sVAJR. American Journal Of Roentgenology
p392
F0.001
sVMycoses
p393
F0.001
sVMov Disord
p394
F0.001
sVActa Derm.-Venereol.
p395
F0.001
sVZeitschrift f\ufffd\ufffdr Erkrankungen der Atmungsorgane mit Folia bronchologica
p396
F0.001
sVPsychology of Women Quarterly
p397
F0.001
sVAmerican journal of veterinary research
p398
F0.001
sVMolecular Biology Reports
p399
F0.001
sVClinical medicine (London, England)
p400
F0.001
sVEnergy Policy
p401
F0.002
sVJ. Cardiovasc. Med.
p402
F0.001
sVJAAPA: Journal of the American Academy of Physician Assistants (Haymarket Media, Inc.)
p403
F0.001
sVBusiness Wire
p404
F0.001
sVPhysiological research / Academia Scientiarum Bohemoslovaca
p405
F0.001
sVCatheterization and cardiovascular interventions : official journal of the Society for Cardiac Angiography & Interventions
p406
F0.002
sVCochrane Database of Systematic Reviews
p407
F0.001
sVPLoS ONE [Electronic Resource]
p408
F0.001
sVJournal of bone and mineral research : the official journal of the American Society for Bone and Mineral Research
p409
F0.001
sVCurr. Probl. Cardiol.
p410
F0.001
sVHealth Education & Behavior
p411
F0.001
sVGeneReviews(R)
p412
F0.001
sVValue Health
p413
F0.001
sVBlood Reviews
p414
F0.001
sVJournal of the American College of Cardiology
p415
F0.001
sVAm J Crit Care
p416
F0.001
sVTech Coloproctol
p417
F0.001
sVNature Clinical Practice Neurology
p418
F0.001
sVJournal of health care for the poor and underserved
p419
F0.001
sVInternational psychogeriatrics / IPA
p420
F0.001
sVKardiologia Polska
p421
F0.001
sVPediatric annals
p422
F0.001
sVInternational Journal of Qualitative Studies in Education (QSE)
p423
F0.001
sVThe Korean journal of gastroenterology = Taehan Sohwagi Hakhoe chi
p424
F0.001
sVIndian Journal of Pathology and Microbiology
p425
F0.001
sVJ Toxicol Environ Health
p426
F0.001
sVBR. J. CANCER
p427
F0.001
sVJPN. J. ANESTHESIOL.
p428
F0.001
sVOnline Submission
p429
F0.001
sVBMC neurology
p430
F0.001
sVExperimental neurology
p431
F0.001
sVDiabet Med
p432
F0.001
sVEuropean Journal of Cancer Care
p433
F0.001
sVCardiology in the young
p434
F0.003
sVAIDS Reviews
p435
F0.001
sVOperative dentistry
p436
F0.001
sVBiomedical engineering online
p437
F0.001
sVAnnals of internal medicine
p438
F0.002
sVHelicobacter
p439
F0.001
sVCLINICAL TRIALS
p440
F0.001
sVSwiss Medical Weekly
p441
F0.001
sVPaediatrics and Child Health
p442
F0.001
sVInt J Surg
p443
F0.001
sVAnnals of medicine
p444
F0.001
sVThe journal of headache and pain
p445
F0.001
sVJournal of Social Service Research
p446
F0.001
sVJOGNN: Journal of Obstetric, Gynecologic & Neonatal Nursing
p447
F0.001
sVJournal of learning disabilities
p448
F0.001
sVDisability and rehabilitation
p449
F0.001
sVChild's nervous system : ChNS : official journal of the International Society for Pediatric Neurosurgery
p450
F0.001
sVDento maxillo facial radiology
p451
F0.001
sVCancer Research
p452
F0.001
sVCirug\ufffd_a Pedi\ufffd\ufffdtrica: Organo Oficial De La Sociedad Espa\u0331ola De Cirug\ufffd_a Pedi\ufffd\ufffdtrica
p453
F0.001
sVBmj Open
p454
F0.001
sVJournal of the International Neuropsychological Society : JINS
p455
F0.001
sVJournal of Experimental Psychology: General
p456
F0.001
sVThe British journal of social psychology / the British Psychological Society
p457
F0.001
sVArchives Of Physical Medicine And Rehabilitation
p458
F0.001
sVBlood pressure monitoring
p459
F0.001
sVThe Chartered Society of Physiotherapy Annual Congress and Exhibition: Defining Practice, Friday, October 17 to Sunday, October 19 2003, International Convention Centre, Birmingham.
p460
F0.001
sVPublic health genomics
p461
F0.001
sVPain
p462
F0.001
sVAIDS (London, England)
p463
F0.001
sVSci Eng Ethics
p464
F0.001
sVJAMA otolaryngology-- head & neck surgery
p465
F0.001
sVAACN Clinical Issues: Advanced Practice in Acute & Critical Care
p466
F0.001
sVScience (New York, N.Y.)
p467
F0.002
sVThe British journal of radiology
p468
F0.001
sVCzasopismo stomatologiczne
p469
F0.001
sVBehaviour Research and Therapy
p470
F0.001
sVAnn Fr Anesth Reanim
p471
F0.001
sVAm J Clin Nutr
p472
F0.003
sVEast African Medical Journal
p473
F0.001
sVProc. iEMSs 4th Biennial Meeting - Int. Congress on Environmental Modelling and Software: Integrating Sciences and Information Technology for Environmental Assessment and Decision Making, iEMSs 2008
p474
F0.001
sVJournal of science and medicine in sport / Sports Medicine Australia
p475
F0.001
sVGames and Economic Behavior
p476
F0.001
sVAm J Physiol Endocrinol Metab
p477
F0.001
sVActas espa\u0331olas de psiquiatr\ufffd_a
p478
F0.001
sVJournal of addictive diseases
p479
F0.001
sVClinical Neuropsychologist
p480
F0.001
sVJournal of medical imaging and radiation oncology
p481
F0.001
sVJAMA internal medicine
p482
F0.001
sVPLoS One
p483
F0.006
sVSteroids
p484
F0.001
sVClinical evidence
p485
F0.001
sVRinsho Byori
p486
F0.001
sVJ Bone Joint Surg Am
p487
F0.001
sVThe hematology journal : the official journal of the European Haematology Association / EHA
p488
F0.001
sVYonsei Medical Journal
p489
F0.001
sVMilitary Medicine
p490
F0.001
sVThe American journal of medicine
p491
F0.001
sVProceedings of the 23rd ACM international conference on Multimedia
p492
F0.001
sVMedical Teacher
p493
F0.001
sVJournal of clinical oncology : official journal of the American Society of Clinical Oncology
p494
F0.002
sVPathologie non allergique et exposition aux moisissures domestiques.
p495
F0.001
sVRespiratory medicine
p496
F0.001
sVSmall Ruminant Research
p497
F0.001
sVStroke; a journal of cerebral circulation
p498
F0.002
sVJ Dent Res
p499
F0.001
sVFoot Ankle Int
p500
F0.001
sVChest
p501
F0.003
sVRes Nurs Health
p502
F0.001
sVEuropean journal of radiology
p503
F0.001
sVAngewandte Chemie (International ed. in English)
p504
F0.001
sVDermatologic clinics
p505
F0.001
sVHuman gene therapy
p506
F0.001
sVArchives De Pediatrie
p507
F0.001
sVJournal of hypertension
p508
F0.001
sVKlinik Psikofarmakoloji Bulteni
p509
F0.001
sVScandinavian Journal of Gastroenterology
p510
F0.001
sVActa paediatrica Scandinavica. Supplement
p511
F0.001
sVLaboratoriumsMedizin
p512
F0.001
sVDissertation Abstracts International: Section B: The Sciences and Engineering
p513
F0.001
sVNeuroprotective Agents
p514
F0.001
sVPhysics in medicine and biology
p515
F0.001
sVG\u0329riatrie et Psychologie Neuropsychiatrie du Vieillissement
p516
F0.001
sVJournal of personality and social psychology
p517
F0.001
sVIndian Journal of Psychiatry
p518
F0.001
sVHaematologica
p519
F0.002
sVPsicothema
p520
F0.001
sVAm J Manag Care
p521
F0.001
sVClinical & Translational Oncology: Official Publication of the Federation of Spanish Oncology Societes & of the National Cancer Institute of Mexico
p522
F0.001
sVNihon Koshu Eisei Zasshi
p523
F0.001
sVEuropean Journal of Cancer
p524
F0.001
sVHawaii J Med Public Health
p525
F0.001
sVWorld journal for pediatric & congenital heart surgery
p526
F0.001
sVAmerican journal of infection control
p527
F0.001
sVJ Hand Surg Br
p528
F0.001
sVPaliativn\ufffd_ Schanzova osteotomie p\ufffd\ufffdi nereponibiln\ufffd_ luxaci ky\ufffd\ufffdeln\ufffd_ho kloubu u pacient\ufffd\ufffd s d\ufffd\ufffdtskou mozkovou obrnou v adolescentn\ufffd_m v\ufffd\ufffdu
p529
F0.001
sVExposicion severa a plomo ambiental en una poblacion infantil de Antofagasta, Chile.
p530
F0.001
sVAnnals of Emergency Medicine American College of Emergency Physician's Research Forum
p531
F0.001
sVFamily & Community Health
p532
F0.001
sVAnnals of Oncology
p533
F0.001
sVEmergency Radiology
p534
F0.001
sVAm. J. Trop. Med. Hyg.
p535
F0.001
sVJournal of the American Veterinary Medical Association
p536
F0.001
sVPloS one
p537
F0.001
sVMolecular Biology of the Cell. Conference: Annual Meeting of the American Society for Cell Biology, ASCB
p538
F0.001
sVBmc Cancer
p539
F0.001
sVJournal of the American Dietetic Association
p540
F0.001
sVThe European respiratory journal
p541
F0.002
sVAm Rev Respir Dis
p542
F0.001
sVJournal of Psychiatric Research
p543
F0.001
sVJournal of Consulting and Clinical Psychology
p544
F0.002
sVEur J Gen Pract
p545
F0.001
sVEuropean journal of clinical nutrition
p546
F0.001
sVCHUNG-HUA I HSUEH TSA CHIH [CHINESE MEDICAL JOURNAL]
p547
F0.001
sVPsychosomatic medicine
p548
F0.001
sVBulletin of mathematical biology
p549
F0.001
sVOncology nursing forum
p550
F0.001
sVOphthalmic surgery and lasers
p551
F0.001
sVKekkaku : [Tuberculosis]
p552
F0.001
sVNicotine Tob Res
p553
F0.001
sVHealth & Social Work
p554
F0.001
sVCurrent Immunology Reviews
p555
F0.001
sVInternational journal of colorectal disease
p556
F0.001
sVNowoczesne biomateria\ufffd\ufffdy jako opatrunki hemostatyczne w chirurgii oszczedzajacej miazsz nerki--model zwierzecy. Doniesienie wstepne.
p557
F0.001
sVArchives of gynecology and obstetrics
p558
F0.001
sVOccupational and environmental medicine
p559
F0.001
sVCochrane Database Syst Rev
p560
F0.002
sVMcNeill Mathematics Program
p561
F0.001
sVJournal of Women & Aging
p562
F0.001
sVProceedings of the Asme Pressure Vessels and Piping Conference 2010, Vol 7
p563
F0.001
sVBulletin of the World Health Organization
p564
F0.001
sVSupplement: Active Living Research - Niche to Norm
p565
F0.001
sVCritical care medicine
p566
F0.001
sVTurk. J. Pediatr.
p567
F0.001
sVRespirology
p568
F0.001
sVJ Clin Microbiol
p569
F0.001
sVBundesgesundheitsblatt, Gesundheitsforschung, Gesundheitsschutz
p570
F0.001
sVIntensive care medicine
p571
F0.001
sVLancet
p572
F0.001
sVClinical infectious diseases : an official publication of the Infectious Diseases Society of America
p573
F0.001
sVPALLIATIVE MED.
p574
F0.001
sVHernia : the journal of hernias and abdominal wall surgery
p575
F0.001
sVScandinavian journal of infectious diseases. Supplementum
p576
F0.001
sVJournal of Women's Health (15409996)
p577
F0.001
sVJournal of clinical hypertension (Greenwich, Conn.)
p578
F0.001
sVInteractive Cardiovascular & Thoracic Surgery
p579
F0.001
sVNeurologia (Barcelona, Spain)
p580
F0.001
sVPhysica D: Nonlinear Phenomena
p581
F0.001
sVIEEE transactions on nuclear science
p582
F0.001
sVFemale pelvic medicine & reconstructive surgery
p583
F0.001
sVMicrob Drug Resist
p584
F0.001
sVAdministration and policy in mental health
p585
F0.001
sVJournal of Cardiovascular Electrophysiology
p586
F0.001
sVJournal of Allergy and Clinical Immunology
p587
F0.001
sVEndocrinology
p588
F0.002
sVPhysiotherapy Theory and Practice
p589
F0.001
sVExpert Opin Drug Metab Toxicol
p590
F0.001
sVJ. Card. Surg.
p591
F0.001
sVEastern Mediterranean Health Journal
p592
F0.001
sVJournal of cancer research and clinical oncology
p593
F0.001
sVJournal of Epidemiology & Community Health
p594
F0.001
sVAnnals of the New York Academy of Sciences
p595
F0.001
sVInternational Journal of Obesity
p596
F0.001
sVPain practice
p597
F0.001
sVCase Reports in Medicine
p598
F0.001
sVJ Pain Res
p599
F0.001
sVVeterinary clinical pathology / American Society for Veterinary Clinical Pathology
p600
F0.001
sVImpfstoffe: Akzeptanz und Sicherheit.
p601
F0.001
sVThe International journal of developmental biology
p602
F0.001
sVThe Lancet
p603
F0.001
sVIndian journal of ophthalmology
p604
F0.001
sVJPN. J. CANCER RES.
p605
F0.001
sVJournal of Korean Neurosurgical Society
p606
F0.001
sVOral surgery, oral medicine, oral pathology and oral radiology
p607
F0.001
sVNeurosurgical Focus
p608
F0.001
sVBrain and Language
p609
F0.001
sVAging Ment Health
p610
F0.001
sVPharmacoeconomics
p611
F0.002
sVMuscle & nerve
p612
F0.001
sVOccupational Medicine-Oxford
p613
F0.001
sVHealth Educ Behav
p614
F0.001
sVAlcohol Clin Exp Res
p615
F0.001
sVInternational journal of medical informatics
p616
F0.001
sVPsychological medicine
p617
F0.001
sVJournal of Neurotrauma
p618
F0.001
sVProQuest LLC
p619
F0.002
sVMedicine and science in sports and exercise
p620
F0.001
sVEinstein (Sao Paulo)
p621
F0.001
sVSurg. Endosc. Interv. Tech.
p622
F0.001
sVTurkish Online Journal of Educational Technology - TOJET
p623
F0.001
sVCancer Biotherapy
p624
F0.001
sVCurrent Opinion in Ophthalmology
p625
F0.001
sVInternational Journal of Medical Informatics
p626
F0.001
sVFertility and sterility
p627
F0.001
sVJRSM open
p628
F0.001
sVCNS Drugs
p629
F0.001
sVIndian Journal of Physiology and Pharmacology
p630
F0.001
sVFASEB Journal. Conference: Experimental Biology
p631
F0.001
sVAmerican journal of respiratory and critical care medicine
p632
F0.002
sVNeuropsychopharmacology
p633
F0.001
sVEuropean journal of emergency medicine : official journal of the European Society for Emergency Medicine
p634
F0.001
sVThe Cochrane Database Of Systematic Reviews
p635
F0.001
sVNeurosurgery
p636
F0.001
sVInternational Medicine & Health Guidance News [Guo Ji Yi Yao Wei Sheng Dao Bao]
p637
F0.001
sVEuropean journal of heart failure
p638
F0.001
sVMolecular plant pathology
p639
F0.001
sVChin. Med
p640
F0.001
sVSurgical infections
p641
F0.001
sVThe Journal of heart valve disease
p642
F0.001
sVEuropean journal of cardiovascular nursing : journal of the Working Group on Cardiovascular Nursing of the European Society of Cardiology
p643
F0.001
sVProceedings of the National Academy of Sciences of the United States of America
p644
F0.001
sVThe Journal of biological chemistry
p645
F0.001
sVEnergy and Buildings
p646
F0.001
sVPr\u0329vention de l'insuffisance r\u0329nale induite par les produits de contrnste iodes
p647
F0.001
sVEating Behaviors
p648
F0.001
sVJournal of clinical epidemiology
p649
F0.001
sVChinese Journal of New Drugs
p650
F0.001
sVJournal of Clinical and Diagnostic Research
p651
F0.001
sVAm J Perinatol
p652
F0.001
sVThe Science of the total environment
p653
F0.001
sVPrediccion de la masa muscular apendicular esqueletica basado en mediciones antropometricas en Adultos Mayores Chilenos.
p654
F0.001
sVJournal of Environmental Psychology
p655
F0.001
sVActa Neurol Scand
p656
F0.001
sVJournal of the American Geriatrics Society
p657
F0.002
sVPsychological assessment
p658
F0.001
sVAnesthesiology (Hagerstown)
p659
F0.001
sVRADIOLOGY
p660
F0.001
sVWiener Medizinische Wochenschrift
p661
F0.001
sVOral diseases
p662
F0.001
sVObesity (Silver Spring, Md.)
p663
F0.002
sVDiseases of the esophagus : official journal of the International Society for Diseases of the Esophagus / I.S.D.E
p664
F0.001
sVBmj-British Medical Journal
p665
F0.001
sVIntegrative Physiological and Behavioral Science
p666
F0.001
sVInternational urogynecology journal
p667
F0.001
sVCurrent drug targets
p668
F0.001
sVJ. Clin. Psychiatry
p669
F0.001
sVEuropean journal of applied physiology and occupational physiology
p670
F0.001
sVGait & Posture
p671
F0.001
sVProceedings of SPIE - The International Society for Optical Engineering
p672
F0.001
sVSocial Science and Medicine
p673
F0.001
sVBiomedical reports
p674
F0.001
sVEuropean journal of preventive cardiology
p675
F0.001
sVOnkologie
p676
F0.001
sVJournal of International Education Research
p677
F0.001
sVNeurology
p678
F0.001
sVSheng wu yi xue gong cheng xue za zhi = Journal of biomedical engineering = Shengwu yixue gongchengxue zazhi
p679
F0.001
sVChronic Illness
p680
F0.001
sVSurgery
p681
F0.001
sVInternational archives of occupational and environmental health
p682
F0.001
sVAmerican Journal of Clinical Nutrition
p683
F0.001
sVTransfusion and apheresis science : official journal of the World Apheresis Association : official journal of the European Society for Haemapheresis
p684
F0.001
sVThe Journal of hospital infection
p685
F0.001
sVUrologe A
p686
F0.001
sVMicrosurgery
p687
F0.001
sVPaediatrics & child health
p688
F0.001
sVReviews in endocrine & metabolic disorders
p689
F0.001
sVPain Practice
p690
F0.001
sVAm. J. Ther.
p691
F0.001
sVExpert opinion on emerging drugs
p692
F0.001
sVPediatric Infectious Disease Journal
p693
F0.001
sVEnvironmental toxicology and pharmacology
p694
F0.001
sVJOURNAL OF CELL BIOLOGY
p695
F0.001
sVJournal of Epidemiology and Community Health
p696
F0.001
sVBritish Journal of Dermatology.
p697
F0.001
sVArchives of General Psychiatry
p698
F0.001
sVInt. Angiol.
p699
F0.001
sVAnn Pharmacother
p700
F0.001
sVJournal of cardiovascular electrophysiology
p701
F0.001
sVObesity surgery
p702
F0.001
sVNeuropharmacology
p703
F0.001
sVDas Mikorklima der Wohnungen und seine hygienische Normierung.
p704
F0.001
sVViolencia contra a crianca: revelando o perfil dos atendimentos em servicos de emergencia, Brasil, 2006 e 2007.
p705
F0.001
sVKorean Journal of Anesthesiology
p706
F0.001
sVClinical psychology review
p707
F0.001
sVPrev Med
p708
F0.001
sVEnvironmental monitoring and assessment
p709
F0.001
sVComputerized Medical Imaging and Graphics: The Official Journal of the Computerized Medical Imaging Society
p710
F0.001
sVRevista de Neurologia
p711
F0.001
sVBMC public Health
p712
F0.001
sVTumour biology : the journal of the International Society for Oncodevelopmental Biology and Medicine
p713
F0.003
sVJournal of Biological Chemistry
p714
F0.001
sVJAMA neurology
p715
F0.001
sVRheumatology (Oxford)
p716
F0.002
sVThe journal of ECT
p717
F0.001
sVPharmacy practice
p718
F0.001
sVSleep
p719
F0.001
sVTransactions of the Royal Society of Tropical Medicine and Hygiene
p720
F0.001
ssS'characters'
p721
(dp722
Vj
p723
F0.09
sVp
p724
F0.248
sV 
p725
F0.709
sV'
p726
F0.004
sV&
p727
F0.043
sV)
p728
F0.04
sV(
p729
F0.04
sV-
p730
F0.028
sV,
p731
F0.046
sV/
p732
F0.011
sV.
p733
F0.087
sV1
p734
F0.008
sV0
p735
F0.009
sV3
p736
F0.003
sV2
p737
F0.009
sV5
p738
F0.005
sV4
p739
F0.003
sV7
p740
F0.005
sV6
p741
F0.003
sV9
p742
F0.008
sV8
p743
F0.003
sV;
p744
F0.004
sV:
p745
F0.088
sV=
p746
F0.003
sVA
p747
F0.209
sVC
p748
F0.205
sVB
p749
F0.101
sVE
p750
F0.124
sVD
p751
F0.064
sVG
p752
F0.043
sVF
p753
F0.032
sVI
p754
F0.114
sVH
p755
F0.081
sVK
p756
F0.012
sVJ
p757
F0.241
sVM
p758
F0.145
sVL
p759
F0.04
sVO
p760
F0.093
sVN
p761
F0.105
sVQ
p762
F0.005
sVP
p763
F0.157
sVS
p764
F0.186
sVR
p765
F0.108
sVU
p766
F0.019
sVT
p767
F0.103
sVW
p768
F0.02
sVV
p769
F0.017
sVY
p770
F0.012
sVX
p771
F0.001
sV[
p772
F0.004
sVZ
p773
F0.004
sV]
p774
F0.004
sV_
p775
F0.003
sVa
p776
F0.643
sVc
p777
F0.525
sVb
p778
F0.11
sVe
p779
F0.682
sVd
p780
F0.383
sVg
p781
F0.34
sVf
p782
F0.285
sVi
p783
F0.62
sVh
p784
F0.404
sVk
p785
F0.052
sV\u0326
p786
F0.001
sVm
p787
F0.294
sVl
p788
F0.577
sVo
p789
F0.608
sVn
p790
F0.631
sVq
p791
F0.005
sV\u0329
p792
F0.002
sVs
p793
F0.491
sVr
p794
F0.642
sVu
p795
F0.458
sVt
p796
F0.568
sVw
p797
F0.044
sVv
p798
F0.133
sVy
p799
F0.325
sVx
p800
F0.039
sVz
p801
F0.016
sV\ufffd
p802
F0.006
sV\u0331
p803
F0.002
ss.