(dp0
S'output'
p1
(lp2
(I1
I2
tp3
a(I0
I0
tp4
a(I2
I0
tp5
a(I5
I0
tp6
a(I2
I2
tp7
a(I4
I2
tp8
a(I1
I0
tp9
a(I5
I2
tp10
a(I0
I2
tp11
a(I4
I0
tp12
asS'runtime'
p13
F0.8259890079498291
sS'name'
p14
S'["katara", ["trackNo.rel.txt"]]'
p15
s.