(dp0
S'output'
p1
(lp2
(I1
I2
tp3
a(I0
I0
tp4
a(I5
I0
tp5
a(I4
I2
tp6
a(I1
I0
tp7
a(I5
I2
tp8
a(I0
I2
tp9
a(I4
I0
tp10
asS'runtime'
p11
F1.074904203414917
sS'name'
p12
S'["katara", ["cinematography.rel.txt"]]'
p13
s.