(dp0
S'output'
p1
(lp2
(I1
I2
tp3
a(I0
I0
tp4
a(I5
I0
tp5
a(I4
I2
tp6
a(I1
I0
tp7
a(I5
I2
tp8
a(I0
I2
tp9
asS'runtime'
p10
F1.1616239547729492
sS'name'
p11
S'["katara", ["description.rel.txt"]]'
p12
s.