(dp0
S'output'
p1
(lp2
(I1
I2
tp3
a(I0
I0
tp4
a(I3
I0
tp5
a(I5
I0
tp6
a(I4
I2
tp7
a(I1
I0
tp8
a(I5
I2
tp9
a(I0
I2
tp10
asS'runtime'
p11
F1.0309958457946777
sS'name'
p12
S'["katara", ["associatedActs.rel.txt"]]'
p13
s.