(dp0
S'output'
p1
(lp2
(I2122
I5
tp3
a(I224
I51
tp4
a(I2122
I51
tp5
a(I1345
I5
tp6
a(I1946
I5
tp7
a(I1345
I51
tp8
a(I224
I5
tp9
a(I1173
I5
tp10
a(I1935
I51
tp11
a(I1935
I5
tp12
a(I1946
I51
tp13
a(I1173
I51
tp14
asS'runtime'
p15
F0.29738616943359375
sS'name'
p16
S'["fd_checker", [["app_ci_id", "total_cases"]]]'
p17
s.