(dp0
S'output'
p1
(lp2
(I1263
I12
tp3
a(I1307
I23
tp4
a(I1263
I23
tp5
a(I296
I23
tp6
a(I296
I12
tp7
a(I2247
I12
tp8
a(I492
I12
tp9
a(I1307
I12
tp10
a(I279
I23
tp11
a(I1744
I23
tp12
a(I663
I23
tp13
a(I1802
I23
tp14
a(I663
I12
tp15
a(I279
I12
tp16
a(I1802
I12
tp17
a(I492
I23
tp18
a(I2247
I23
tp19
a(I1744
I12
tp20
asS'runtime'
p21
F0.2996490001678467
sS'name'
p22
S'["fd_checker", [["bus_hours", "app_status"]]]'
p23
s.