(dp0
S'output'
p1
(lp2
(I1480
I25
tp3
a(I1622
I25
tp4
a(I400
I4
tp5
a(I1471
I4
tp6
a(I399
I25
tp7
a(I1622
I4
tp8
a(I400
I25
tp9
a(I1503
I4
tp10
a(I730
I4
tp11
a(I1472
I25
tp12
a(I1471
I25
tp13
a(I399
I4
tp14
a(I1480
I4
tp15
a(I1503
I25
tp16
a(I730
I25
tp17
a(I1472
I4
tp18
asS'runtime'
p19
F0.31171298027038574
sS'name'
p20
S'["fd_checker", [["ci_id", "urgency"]]]'
p21
s.