(dp0
S'output'
p1
(lp2
(I670
I12
tp3
a(I653
I12
tp4
a(I663
I37
tp5
a(I677
I37
tp6
a(I651
I37
tp7
a(I677
I12
tp8
a(I671
I37
tp9
a(I667
I12
tp10
a(I653
I37
tp11
a(I672
I12
tp12
a(I671
I12
tp13
a(I672
I37
tp14
a(I670
I37
tp15
a(I667
I37
tp16
a(I663
I12
tp17
a(I651
I12
tp18
asS'runtime'
p19
F0.29458189010620117
sS'name'
p20
S'["fd_checker", [["pri_staff_loc", "app_status"]]]'
p21
s.