(dp0
S'output'
p1
(lp2
(I82
I0
tp3
a(I1586
I0
tp4
a(I1443
I0
tp5
a(I2196
I0
tp6
a(I1443
I10
tp7
a(I1999
I0
tp8
a(I1999
I10
tp9
a(I1876
I0
tp10
a(I1876
I10
tp11
a(I2196
I10
tp12
a(I1586
I10
tp13
a(I1439
I0
tp14
a(I1439
I10
tp15
a(I82
I10
tp16
asS'runtime'
p17
F0.3041419982910156
sS'name'
p18
S'["fd_checker", [["app_nm", "id"]]]'
p19
s.