(dp0
S'output'
p1
(lp2
(I1024
I1
tp3
a(I1028
I10
tp4
a(I1035
I10
tp5
a(I1030
I1
tp6
a(I1029
I10
tp7
a(I1030
I10
tp8
a(I1027
I10
tp9
a(I1027
I1
tp10
a(I1026
I1
tp11
a(I1026
I10
tp12
a(I2063
I10
tp13
a(I1035
I1
tp14
a(I1024
I10
tp15
a(I1025
I10
tp16
a(I1029
I1
tp17
a(I2063
I1
tp18
a(I1028
I1
tp19
a(I1025
I1
tp20
a(I1023
I10
tp21
a(I1023
I1
tp22
asS'runtime'
p23
F0.30815911293029785
sS'name'
p24
S'["fd_checker", [["tracking", "app_nm"]]]'
p25
s.