(dp0
S'output'
p1
(lp2
(I430
I60
tp3
a(I1963
I43
tp4
a(I934
I43
tp5
a(I1894
I60
tp6
a(I2024
I43
tp7
a(I939
I60
tp8
a(I317
I43
tp9
a(I463
I60
tp10
a(I1167
I43
tp11
a(I378
I43
tp12
a(I2217
I60
tp13
a(I2177
I60
tp14
a(I1781
I43
tp15
a(I1671
I60
tp16
a(I1565
I43
tp17
a(I2222
I43
tp18
a(I211
I60
tp19
a(I1888
I43
tp20
a(I720
I60
tp21
a(I1967
I60
tp22
a(I2071
I60
tp23
a(I333
I60
tp24
a(I244
I60
tp25
a(I854
I43
tp26
a(I1479
I43
tp27
a(I1541
I60
tp28
a(I434
I43
tp29
a(I1049
I60
tp30
a(I511
I43
tp31
a(I573
I60
tp32
a(I1898
I43
tp33
a(I1484
I43
tp34
a(I869
I43
tp35
a(I606
I60
tp36
a(I1748
I60
tp37
a(I114
I60
tp38
a(I406
I60
tp39
a(I971
I43
tp40
a(I354
I43
tp41
a(I1204
I43
tp42
a(I175
I43
tp43
a(I1155
I60
tp44
a(I533
I43
tp45
a(I2198
I43
tp46
a(I187
I60
tp47
a(I2259
I43
tp48
a(I2173
I60
tp49
a(I1651
I60
tp50
a(I785
I60
tp51
a(I1943
I60
tp52
a(I309
I60
tp53
a(I220
I60
tp54
a(I1664
I43
tp55
a(I891
I43
tp56
a(I1516
I43
tp57
a(I1960
I60
tp58
a(I549
I60
tp59
a(I1249
I43
tp60
a(I1070
I43
tp61
a(I1695
I43
tp62
a(I650
I43
tp63
a(I582
I60
tp64
a(I1813
I60
tp65
a(I1724
I60
tp66
a(I90
I60
tp67
a(I41
I43
tp68
a(I1997
I43
tp69
a(I415
I60
tp70
a(I878
I60
tp71
a(I1008
I43
tp72
a(I929
I60
tp73
a(I1180
I43
tp74
a(I1382
I43
tp75
a(I151
I43
tp76
a(I1387
I60
tp77
a(I1187
I43
tp78
a(I212
I43
tp79
a(I765
I43
tp80
a(I655
I60
tp81
a(I1615
I43
tp82
a(I1545
I43
tp83
a(I163
I60
tp84
a(I2235
I43
tp85
a(I1304
I60
tp86
a(I2149
I60
tp87
a(I1796
I43
tp88
a(I1627
I60
tp89
a(I2189
I43
tp90
a(I1151
I60
tp91
a(I285
I60
tp92
a(I196
I60
tp93
a(I1728
I43
tp94
a(I1257
I60
tp95
a(I1936
I60
tp96
a(I2167
I60
tp97
a(I525
I60
tp98
a(I1460
I60
tp99
a(I33
I60
tp100
a(I968
I60
tp101
a(I1671
I43
tp102
a(I882
I43
tp103
a(I1107
I43
tp104
a(I1732
I43
tp105
a(I2222
I60
tp106
a(I66
I60
tp107
a(I1061
I43
tp108
a(I2224
I43
tp109
a(I2109
I43
tp110
a(I94
I43
tp111
a(I1822
I60
tp112
a(I391
I60
tp113
a(I854
I60
tp114
a(I2173
I43
tp115
a(I1163
I43
tp116
a(I188
I43
tp117
a(I887
I60
tp118
a(I1591
I43
tp119
a(I1777
I43
tp120
a(I139
I60
tp121
a(I1652
I43
tp122
a(I1598
I43
tp123
a(I623
I43
tp124
a(I2125
I60
tp125
a(I1603
I60
tp126
a(I121
I60
tp127
a(I1127
I60
tp128
a(I261
I60
tp129
a(I172
I60
tp130
a(I635
I60
tp131
a(I1233
I60
tp132
a(I757
I60
tp133
a(I1436
I60
tp134
a(I944
I60
tp135
a(I468
I60
tp136
a(I1083
I43
tp137
a(I1708
I43
tp138
a(I2198
I60
tp139
a(I1144
I43
tp140
a(I1676
I60
tp141
a(I1688
I43
tp142
a(I740
I43
tp143
a(I1037
I43
tp144
a(I2241
I43
tp145
a(I70
I43
tp146
a(I2146
I43
tp147
a(I899
I43
tp148
a(I477
I43
tp149
a(I830
I60
tp150
a(I282
I43
tp151
a(I863
I60
tp152
a(I1070
I60
tp153
a(I1200
I43
tp154
a(I371
I60
tp155
a(I769
I60
tp156
a(I1628
I43
tp157
a(I1574
I43
tp158
a(I599
I43
tp159
a(I2101
I60
tp160
a(I1579
I60
tp161
a(I1635
I43
tp162
a(I384
I43
tp163
a(I2042
I43
tp164
a(I1014
I43
tp165
a(I2097
I60
tp166
a(I2084
I43
tp167
a(I415
I43
tp168
a(I733
I60
tp169
a(I1177
I43
tp170
a(I241
I60
tp171
a(I773
I43
tp172
a(I444
I60
tp173
a(I1698
I43
tp174
a(I1120
I43
tp175
a(I1908
I60
tp176
a(I1160
I60
tp177
a(I1074
I43
tp178
a(I1151
I43
tp179
a(I107
I43
tp180
a(I1656
I60
tp181
a(I936
I43
tp182
a(I1489
I43
tp183
a(I314
I60
tp184
a(I921
I60
tp185
a(I335
I43
tp186
a(I265
I43
tp187
a(I1778
I60
tp188
a(I1665
I43
tp189
a(I2224
I60
tp190
a(I347
I60
tp191
a(I1477
I60
tp192
a(I1807
I60
tp193
a(I2077
I60
tp194
a(I1611
I43
tp195
a(I636
I43
tp196
a(I1079
I60
tp197
a(I1944
I60
tp198
a(I587
I60
tp199
a(I320
I43
tp200
a(I111
I60
tp201
a(I1839
I43
tp202
a(I795
I43
tp203
a(I391
I43
tp204
a(I856
I43
tp205
a(I620
I60
tp206
a(I1976
I43
tp207
a(I217
I60
tp208
a(I896
I60
tp209
a(I1230
I43
tp210
a(I185
I43
tp211
a(I810
I43
tp212
a(I1973
I60
tp213
a(I1481
I60
tp214
a(I953
I43
tp215
a(I1127
I43
tp216
a(I1721
I60
tp217
a(I1632
I60
tp218
a(I912
I43
tp219
a(I2193
I60
tp220
a(I311
I43
tp221
a(I497
I43
tp222
a(I1754
I60
tp223
a(I372
I43
tp224
a(I318
I43
tp225
a(I1705
I43
tp226
a(I730
I43
tp227
a(I1857
I60
tp228
a(I1925
I43
tp229
a(I1055
I60
tp230
a(I1648
I43
tp231
a(I563
I60
tp232
a(I87
I60
tp233
a(I1602
I43
tp234
a(I1658
I60
tp235
a(I685
I60
tp236
a(I2260
I60
tp237
a(I1827
I60
tp238
a(I193
I60
tp239
a(I1206
I43
tp240
a(I161
I43
tp241
a(I786
I43
tp242
a(I133
I60
tp243
a(I1378
I60
tp244
a(I238
I43
tp245
a(I863
I43
tp246
a(I1949
I60
tp247
a(I1625
I43
tp248
a(I1457
I60
tp249
a(I1221
I43
tp250
a(I981
I60
tp251
a(I892
I60
tp252
a(I1697
I60
tp253
a(I1608
I60
tp254
a(I1014
I60
tp255
a(I266
I60
tp256
a(I2163
I60
tp257
a(I1730
I60
tp258
a(I348
I43
tp259
a(I1384
I43
tp260
a(I355
I43
tp261
a(I2179
I43
tp262
a(I2176
I43
tp263
a(I1031
I60
tp264
a(I2236
I60
tp265
a(I1803
I60
tp266
a(I1824
I43
tp267
a(I169
I60
tp268
a(I80
I60
tp269
a(I1243
I43
tp270
a(I2088
I60
tp271
a(I1562
I43
tp272
a(I1048
I43
tp273
a(I1601
I43
tp274
a(I644
I43
tp275
a(I1197
I43
tp276
a(I957
I60
tp277
a(I633
I43
tp278
a(I1258
I43
tp279
a(I376
I60
tp280
a(I2106
I60
tp281
a(I1673
I60
tp282
a(I1584
I60
tp283
a(I2127
I43
tp284
a(I4
I60
tp285
a(I498
I60
tp286
a(I2058
I43
tp287
a(I2139
I60
tp288
a(I1706
I60
tp289
a(I1230
I60
tp290
a(I738
I60
tp291
a(I1734
I43
tp292
a(I136
I43
tp293
a(I766
I43
tp294
a(I1946
I43
tp295
a(I917
I43
tp296
a(I39
I60
tp297
a(I2244
I43
tp298
a(I2035
I60
tp299
a(I145
I60
tp300
a(I1303
I60
tp301
a(I1133
I60
tp302
a(I876
I43
tp303
a(I1320
I60
tp304
a(I1654
I43
tp305
a(I933
I60
tp306
a(I609
I43
tp307
a(I1234
I43
tp308
a(I2040
I43
tp309
a(I441
I60
tp310
a(I352
I60
tp311
a(I1454
I43
tp312
a(I1055
I43
tp313
a(I2082
I60
tp314
a(I1905
I60
tp315
a(I1560
I60
tp316
a(I966
I60
tp317
a(I1084
I60
tp318
a(I474
I60
tp319
a(I2164
I43
tp320
a(I2110
I43
tp321
a(I425
I43
tp322
a(I2115
I60
tp323
a(I1206
I60
tp324
a(I323
I43
tp325
a(I238
I60
tp326
a(I368
I43
tp327
a(I332
I43
tp328
a(I540
I43
tp329
a(I742
I43
tp330
a(I1576
I43
tp331
a(I747
I60
tp332
a(I547
I43
tp333
a(I125
I43
tp334
a(I15
I60
tp335
a(I1929
I43
tp336
a(I954
I43
tp337
a(I2220
I43
tp338
a(I2188
I60
tp339
a(I2128
I60
tp340
a(I345
I43
tp341
a(I787
I60
tp342
a(I1773
I60
tp343
a(I617
I60
tp344
a(I1296
I60
tp345
a(I1775
I60
tp346
a(I2103
I60
tp347
a(I32
I43
tp348
a(I417
I60
tp349
a(I328
I60
tp350
a(I1031
I43
tp351
a(I2093
I43
tp352
a(I242
I43
tp353
a(I1491
I43
tp354
a(I1645
I43
tp355
a(I1060
I60
tp356
a(I450
I60
tp357
a(I568
I60
tp358
a(I2086
I43
tp359
a(I401
I43
tp360
a(I2091
I60
tp361
a(I2147
I43
tp362
a(I538
I60
tp363
a(I478
I43
tp364
a(I1182
I60
tp365
a(I1595
I43
tp366
a(I2077
I43
tp367
a(I696
I43
tp368
a(I1484
I60
tp369
a(I523
I43
tp370
a(I247
I60
tp371
a(I1975
I43
tp372
a(I584
I43
tp373
a(I1137
I43
tp374
a(I930
I43
tp375
a(I2036
I43
tp376
a(I1786
I43
tp377
a(I321
I43
tp378
a(I1649
I43
tp379
a(I142
I43
tp380
a(I593
I60
tp381
a(I2168
I60
tp382
a(I1751
I60
tp383
a(I117
I60
tp384
a(I393
I60
tp385
a(I304
I60
tp386
a(I1467
I43
tp387
a(I1068
I43
tp388
a(I1768
I60
tp389
a(I39
I43
tp390
a(I1381
I60
tp391
a(I1036
I60
tp392
a(I426
I60
tp393
a(I100
I43
tp394
a(I544
I60
tp395
a(I1902
I43
tp396
a(I2177
I43
tp397
a(I1482
I43
tp398
a(I2123
I43
tp399
a(I454
I43
tp400
a(I1158
I60
tp401
a(I1621
I60
tp402
a(I2200
I60
tp403
a(I1453
I60
tp404
a(I190
I60
tp405
a(I873
I43
tp406
a(I1476
I43
tp407
a(I1654
I60
tp408
a(I1930
I60
tp409
a(I223
I60
tp410
a(I1454
I60
tp411
a(I560
I43
tp412
a(I961
I60
tp413
a(I1958
I43
tp414
a(I983
I43
tp415
a(I1963
I60
tp416
a(I788
I43
tp417
a(I1487
I60
tp418
a(I1922
I60
tp419
a(I374
I43
tp420
a(I179
I43
tp421
a(I2233
I60
tp422
a(I1727
I60
tp423
a(I93
I60
tp424
a(I772
I60
tp425
a(I1235
I60
tp426
a(I280
I60
tp427
a(I1833
I60
tp428
a(I2035
I43
tp429
a(I1504
I43
tp430
a(I1268
I60
tp431
a(I402
I60
tp432
a(I76
I43
tp433
a(I520
I60
tp434
a(I1458
I43
tp435
a(I1597
I60
tp436
a(I642
I60
tp437
a(I1893
I43
tp438
a(I166
I60
tp439
a(I296
I43
tp440
a(I2256
I43
tp441
a(I1630
I60
tp442
a(I1138
I60
tp443
a(I199
I60
tp444
a(I1634
I60
tp445
a(I1890
I43
tp446
a(I2218
I43
tp447
a(I1463
I60
tp448
a(I1954
I43
tp449
a(I971
I60
tp450
a(I495
I60
tp451
a(I1199
I43
tp452
a(I155
I43
tp453
a(I1557
I43
tp454
a(I69
I60
tp455
a(I513
I43
tp456
a(I1211
I60
tp457
a(I365
I43
tp458
a(I590
I43
tp459
a(I1585
I43
tp460
a(I170
I43
tp461
a(I2242
I60
tp462
a(I610
I43
tp463
a(I1244
I60
tp464
a(I752
I60
tp465
a(I20
I60
tp466
a(I1573
I60
tp467
a(I874
I60
tp468
a(I1081
I60
tp469
a(I142
I60
tp470
a(I1674
I43
tp471
a(I2057
I43
tp472
a(I646
I43
tp473
a(I1606
I60
tp474
a(I707
I43
tp475
a(I638
I60
tp476
a(I1065
I43
tp477
a(I90
I43
tp478
a(I2113
I43
tp479
a(I1902
I60
tp480
a(I2032
I43
tp481
a(I947
I60
tp482
a(I471
I60
tp483
a(I1175
I43
tp484
a(I1594
I60
tp485
a(I192
I43
tp486
a(I1187
I60
tp487
a(I488
I60
tp488
a(I566
I43
tp489
a(I146
I43
tp490
a(I627
I43
tp491
a(I1314
I60
tp492
a(I223
I43
tp493
a(I1309
I60
tp494
a(I769
I43
tp495
a(I728
I60
tp496
a(I2246
I43
tp497
a(I341
I60
tp498
a(I645
I43
tp499
a(I2051
I43
tp500
a(I1549
I60
tp501
a(I570
I43
tp502
a(I1906
I43
tp503
a(I1727
I43
tp504
a(I1521
I43
tp505
a(I683
I43
tp506
a(I744
I43
tp507
a(I1041
I43
tp508
a(I66
I43
tp509
a(I911
I43
tp510
a(I73
I43
tp511
a(I1525
I43
tp512
a(I2166
I43
tp513
a(I2172
I60
tp514
a(I923
I60
tp515
a(I1067
I43
tp516
a(I447
I60
tp517
a(I2072
I60
tp518
a(I1163
I60
tp519
a(I464
I60
tp520
a(I687
I60
tp521
a(I1647
I43
tp522
a(I603
I43
tp523
a(I199
I43
tp524
a(I1196
I60
tp525
a(I1659
I60
tp526
a(I403
I43
tp527
a(I4
I43
tp528
a(I557
I43
tp529
a(I1806
I43
tp530
a(I317
I60
tp531
a(I618
I43
tp532
a(I1377
I60
tp533
a(I1474
I43
tp534
a(I1781
I60
tp535
a(I1033
I60
tp536
a(I1968
I60
tp537
a(I350
I60
tp538
a(I985
I43
tp539
a(I1066
I60
tp540
a(I1764
I43
tp541
a(I590
I60
tp542
a(I720
I43
tp543
a(I98
I60
tp544
a(I356
I60
tp545
a(I119
I43
tp546
a(I49
I43
tp547
a(I948
I43
tp548
a(I1501
I43
tp549
a(I126
I43
tp550
a(I899
I60
tp551
a(I277
I43
tp552
a(I423
I60
tp553
a(I2157
I43
tp554
a(I1887
I60
tp555
a(I663
I60
tp556
a(I1623
I43
tp557
a(I1517
I60
tp558
a(I1635
I60
tp559
a(I236
I43
tp560
a(I2038
I43
tp561
a(I440
I43
tp562
a(I204
I60
tp563
a(I594
I43
tp564
a(I1843
I43
tp565
a(I814
I43
tp566
a(I394
I43
tp567
a(I1265
I60
tp568
a(I1797
I43
tp569
a(I326
I60
tp570
a(I533
I60
tp571
a(I1468
I60
tp572
a(I672
I43
tp573
a(I1641
I43
tp574
a(I1042
I60
tp575
a(I1740
I43
tp576
a(I566
I60
tp577
a(I1248
I60
tp578
a(I74
I60
tp579
a(I924
I43
tp580
a(I102
I43
tp581
a(I1830
I60
tp582
a(I1960
I43
tp583
a(I107
I60
tp584
a(I931
I43
tp585
a(I509
I43
tp586
a(I399
I60
tp587
a(I314
I43
tp588
a(I1717
I43
tp589
a(I1371
I60
tp590
a(I895
I60
tp591
a(I147
I60
tp592
a(I1660
I43
tp593
a(I1611
I60
tp594
a(I416
I43
tp595
a(I180
I60
tp596
a(I1819
I43
tp597
a(I790
I43
tp598
a(I2166
I60
tp599
a(I1733
I60
tp600
a(I1644
I60
tp601
a(I851
I43
tp602
a(I1241
I60
tp603
a(I1920
I60
tp604
a(I447
I43
tp605
a(I765
I60
tp606
a(I1209
I43
tp607
a(I1834
I43
tp608
a(I952
I60
tp609
a(I542
I60
tp610
a(I50
I60
tp611
a(I2090
I43
tp612
a(I888
I43
tp613
a(I2239
I60
tp614
a(I1806
I60
tp615
a(I1936
I43
tp616
a(I907
I43
tp617
a(I968
I43
tp618
a(I1208
I60
tp619
a(I1693
I43
tp620
a(I367
I43
tp621
a(I1754
I43
tp622
a(I725
I43
tp623
a(I871
I60
tp624
a(I379
I60
tp625
a(I2195
I43
tp626
a(I2109
I60
tp627
a(I977
I60
tp628
a(I1111
I60
tp629
a(I156
I60
tp630
a(I2142
I60
tp631
a(I1709
I60
tp632
a(I1452
I43
tp633
a(I1128
I60
tp634
a(I423
I43
tp635
a(I741
I60
tp636
a(I1185
I43
tp637
a(I1810
I43
tp638
a(I1816
I43
tp639
a(I249
I60
tp640
a(I928
I60
tp641
a(I1262
I43
tp642
a(I1887
I43
tp643
a(I518
I60
tp644
a(I1916
I60
tp645
a(I26
I60
tp646
a(I233
I43
tp647
a(I2069
I43
tp648
a(I2215
I60
tp649
a(I2038
I60
tp650
a(I1290
I60
tp651
a(I814
I60
tp652
a(I944
I43
tp653
a(I897
I60
tp654
a(I1372
I43
tp655
a(I1318
I43
tp656
a(I343
I43
tp657
a(I1730
I43
tp658
a(I1379
I43
tp659
a(I148
I43
tp660
a(I701
I43
tp661
a(I1737
I43
tp662
a(I762
I43
tp663
a(I2232
I43
tp664
a(I1563
I60
tp665
a(I477
I60
tp666
a(I97
I43
tp667
a(I2186
I43
tp668
a(I2118
I60
tp669
a(I1193
I60
tp670
a(I1104
I60
tp671
a(I864
I43
tp672
a(I628
I60
tp673
a(I2058
I60
tp674
a(I460
I43
tp675
a(I904
I60
tp676
a(I1238
I43
tp677
a(I589
I60
tp678
a(I1043
I43
tp679
a(I1668
I43
tp680
a(I895
I43
tp681
a(I1657
I43
tp682
a(I2
I60
tp683
a(I1253
I43
tp684
a(I209
I43
tp685
a(I2192
I43
tp686
a(I30
I43
tp687
a(I2106
I43
tp688
a(I1522
I60
tp689
a(I437
I43
tp690
a(I790
I60
tp691
a(I380
I43
tp692
a(I1783
I43
tp693
a(I1160
I43
tp694
a(I1713
I43
tp695
a(I738
I43
tp696
a(I1588
I43
tp697
a(I559
I43
tp698
a(I324
I43
tp699
a(I1941
I43
tp700
a(I1063
I60
tp701
a(I453
I60
tp702
a(I768
I60
tp703
a(I571
I60
tp704
a(I974
I43
tp705
a(I2239
I43
tp706
a(I1169
I60
tp707
a(I1922
I43
tp708
a(I546
I43
tp709
a(I604
I60
tp710
a(I201
I60
tp711
a(I112
I60
tp712
a(I404
I60
tp713
a(I1275
I43
tp714
a(I1900
I43
tp715
a(I871
I43
tp716
a(I1080
I43
tp717
a(I1633
I43
tp718
a(I234
I60
tp719
a(I1465
I60
tp720
a(I1229
I43
tp721
a(I2070
I60
tp722
a(I1034
I43
tp723
a(I6
I43
tp724
a(I2082
I43
tp725
a(I67
I43
tp726
a(I413
I43
tp727
a(I2159
I43
tp728
a(I1449
I43
tp729
a(I474
I43
tp730
a(I2171
I60
tp731
a(I1738
I60
tp732
a(I1262
I60
tp733
a(I1564
I43
tp734
a(I1766
I43
tp735
a(I535
I43
tp736
a(I1771
I60
tp737
a(I596
I43
tp738
a(I1149
I43
tp739
a(I1039
I60
tp740
a(I1476
I60
tp741
a(I547
I60
tp742
a(I950
I43
tp743
a(I2215
I43
tp744
a(I408
I43
tp745
a(I580
I60
tp746
a(I1811
I60
tp747
a(I177
I60
tp748
a(I88
I60
tp749
a(I2226
I43
tp750
a(I1641
I60
tp751
a(I1844
I60
tp752
a(I210
I60
tp753
a(I1441
I60
tp754
a(I355
I60
tp755
a(I1266
I43
tp756
a(I43
I43
tp757
a(I1592
I60
tp758
a(I450
I43
tp759
a(I506
I60
tp760
a(I457
I43
tp761
a(I2147
I60
tp762
a(I1714
I60
tp763
a(I885
I43
tp764
a(I1238
I60
tp765
a(I2192
I60
tp766
a(I2218
I60
tp767
a(I1547
I43
tp768
a(I572
I43
tp769
a(I1271
I60
tp770
a(I1608
I43
tp771
a(I523
I60
tp772
a(I1440
I43
tp773
a(I1828
I43
tp774
a(I2252
I43
tp775
a(I792
I43
tp776
a(I556
I60
tp777
a(I2043
I60
tp778
a(I1924
I60
tp779
a(I388
I43
tp780
a(I941
I43
tp781
a(I377
I43
tp782
a(I1617
I60
tp783
a(I1820
I60
tp784
a(I1466
I60
tp785
a(I132
I60
tp786
a(I2229
I43
tp787
a(I1063
I43
tp788
a(I1450
I60
tp789
a(I1124
I43
tp790
a(I974
I60
tp791
a(I80
I43
tp792
a(I482
I60
tp793
a(I2172
I43
tp794
a(I1478
I43
tp795
a(I503
I43
tp796
a(I433
I43
tp797
a(I2123
I60
tp798
a(I1690
I60
tp799
a(I308
I43
tp800
a(I861
I43
tp801
a(I510
I43
tp802
a(I1214
I60
tp803
a(I1897
I43
tp804
a(I2156
I60
tp805
a(I741
I43
tp806
a(I1247
I60
tp807
a(I1584
I43
tp808
a(I23
I60
tp809
a(I1845
I43
tp810
a(I1812
I43
tp811
a(I1626
I60
tp812
a(I768
I43
tp813
a(I129
I60
tp814
a(I353
I43
tp815
a(I978
I43
tp816
a(I1203
I43
tp817
a(I174
I43
tp818
a(I1561
I43
tp819
a(I625
I60
tp820
a(I1157
I43
tp821
a(I2217
I43
tp822
a(I917
I60
tp823
a(I828
I60
tp824
a(I2205
I43
tp825
a(I1889
I60
tp826
a(I195
I60
tp827
a(I458
I60
tp828
a(I2099
I60
tp829
a(I225
I60
tp830
a(I284
I43
tp831
a(I1190
I60
tp832
a(I1320
I43
tp833
a(I491
I60
tp834
a(I698
I60
tp835
a(I1694
I43
tp836
a(I2221
I60
tp837
a(I649
I43
tp838
a(I1223
I60
tp839
a(I731
I60
tp840
a(I1964
I60
tp841
a(I2044
I43
tp842
a(I361
I60
tp843
a(I16
I60
tp844
a(I2231
I60
tp845
a(I150
I43
tp846
a(I1240
I43
tp847
a(I2028
I60
tp848
a(I211
I43
tp849
a(I601
I60
tp850
a(I125
I60
tp851
a(I569
I43
tp852
a(I1194
I43
tp853
a(I1153
I60
tp854
a(I165
I43
tp855
a(I2242
I43
tp856
a(I1776
I60
tp857
a(I926
I60
tp858
a(I1044
I60
tp859
a(I434
I60
tp860
a(I1898
I60
tp861
a(I1296
I43
tp862
a(I1377
I43
tp863
a(I364
I60
tp864
a(I1670
I43
tp865
a(I695
I43
tp866
a(I328
I43
tp867
a(I881
I43
tp868
a(I1731
I43
tp869
a(I756
I43
tp870
a(I1053
I43
tp871
a(I1662
I60
tp872
a(I707
I60
tp873
a(I185
I60
tp874
a(I231
I60
tp875
a(I973
I43
tp876
a(I2180
I43
tp877
a(I2169
I43
tp878
a(I1971
I60
tp879
a(I337
I60
tp880
a(I901
I60
tp881
a(I1069
I60
tp882
a(I2199
I43
tp883
a(I187
I43
tp884
a(I577
I60
tp885
a(I1590
I43
tp886
a(I101
I60
tp887
a(I780
I60
tp888
a(I1651
I43
tp889
a(I141
I43
tp890
a(I622
I43
tp891
a(I1247
I43
tp892
a(I202
I43
tp893
a(I1605
I43
tp894
a(I902
I60
tp895
a(I1276
I60
tp896
a(I2020
I43
tp897
a(I410
I60
tp898
a(I2100
I43
tp899
a(I2051
I60
tp900
a(I650
I60
tp901
a(I2071
I43
tp902
a(I174
I60
tp903
a(I304
I43
tp904
a(I65
I60
tp905
a(I732
I43
tp906
a(I1638
I60
tp907
a(I1768
I43
tp908
a(I683
I60
tp909
a(I739
I43
tp910
a(I61
I43
tp911
a(I207
I60
tp912
a(I1935
I43
tp913
a(I1097
I43
tp914
a(I2145
I43
tp915
a(I1947
I60
tp916
a(I1471
I60
tp917
a(I281
I43
tp918
a(I979
I60
tp919
a(I553
I60
tp920
a(I1488
I60
tp921
a(I1711
I60
tp922
a(I77
I60
tp923
a(I1012
I60
tp924
a(I1627
I43
tp925
a(I598
I43
tp926
a(I1223
I43
tp927
a(I178
I43
tp928
a(I1817
I60
tp929
a(I1581
I43
tp930
a(I1252
I60
tp931
a(I1642
I43
tp932
a(I386
I60
tp933
a(I2076
I43
tp934
a(I613
I43
tp935
a(I2083
I43
tp936
a(I414
I43
tp937
a(I1374
I60
tp938
a(I882
I60
tp939
a(I557
I60
tp940
a(I150
I60
tp941
a(I1452
I60
tp942
a(I1122
I60
tp943
a(I183
I60
tp944
a(I1143
I43
tp945
a(I520
I43
tp946
a(I1073
I43
tp947
a(I98
I43
tp948
a(I1972
I43
tp949
a(I1150
I43
tp950
a(I943
I43
tp951
a(I1301
I43
tp952
a(I1447
I60
tp953
a(I955
I60
tp954
a(I334
I43
tp955
a(I2104
I60
tp956
a(I1687
I60
tp957
a(I331
I60
tp958
a(I635
I43
tp959
a(I1260
I43
tp960
a(I1704
I60
tp961
a(I231
I43
tp962
a(I1464
I43
tp963
a(I1228
I60
tp964
a(I1618
I43
tp965
a(I36
I43
tp966
a(I589
I43
tp967
a(I1838
I43
tp968
a(I390
I43
tp969
a(I1557
I60
tp970
a(I451
I43
tp971
a(I382
I60
tp972
a(I1590
I60
tp973
a(I159
I60
tp974
a(I622
I60
tp975
a(I752
I43
tp976
a(I1948
I43
tp977
a(I1126
I43
tp978
a(I919
I43
tp979
a(I1955
I43
tp980
a(I980
I43
tp981
a(I1722
I60
tp982
a(I931
I60
tp983
a(I310
I43
tp984
a(I371
I43
tp985
a(I2080
I60
tp986
a(I1919
I60
tp987
a(I729
I43
tp988
a(I325
I43
tp989
a(I920
I60
tp990
a(I2202
I60
tp991
a(I2025
I60
tp992
a(I1293
I60
tp993
a(I1204
I60
tp994
a(I12
I43
tp995
a(I1814
I43
tp996
a(I626
I43
tp997
a(I1471
I43
tp998
a(I2096
I43
tp999
a(I1829
I43
tp1000
a(I358
I60
tp1001
a(I488
I43
tp1002
a(I785
I43
tp1003
a(I862
I43
tp1004
a(I1566
I60
tp1005
a(I1074
I60
tp1006
a(I245
I43
tp1007
a(I135
I60
tp1008
a(I598
I60
tp1009
a(I1602
I60
tp1010
a(I2073
I43
tp1011
a(I956
I43
tp1012
a(I631
I60
tp1013
a(I907
I60
tp1014
a(I1997
I60
tp1015
a(I431
I60
tp1016
a(I347
I43
tp1017
a(I1749
I43
tp1018
a(I1895
I60
tp1019
a(I5
I60
tp1020
a(I705
I43
tp1021
a(I448
I60
tp1022
a(I526
I43
tp1023
a(I362
I43
tp1024
a(I171
I60
tp1025
a(I1525
I60
tp1026
a(I1180
I60
tp1027
a(I212
I60
tp1028
a(I1447
I43
tp1029
a(I1765
I60
tp1030
a(I810
I60
tp1031
a(I1952
I60
tp1032
a(I334
I60
tp1033
a(I464
I43
tp1034
a(I1542
I60
tp1035
a(I2094
I43
tp1036
a(I643
I43
tp1037
a(I221
I43
tp1038
a(I574
I60
tp1039
a(I1257
I43
tp1040
a(I26
I43
tp1041
a(I607
I60
tp1042
a(I1838
I60
tp1043
a(I1968
I43
tp1044
a(I115
I60
tp1045
a(I407
I60
tp1046
a(I1562
I60
tp1047
a(I128
I43
tp1048
a(I1379
I60
tp1049
a(I424
I60
tp1050
a(I758
I43
tp1051
a(I338
I43
tp1052
a(I563
I43
tp1053
a(I159
I43
tp1054
a(I1501
I60
tp1055
a(I1156
I60
tp1056
a(I1619
I60
tp1057
a(I1009
I60
tp1058
a(I664
I60
tp1059
a(I2182
I43
tp1060
a(I277
I60
tp1061
a(I188
I60
tp1062
a(I2243
I43
tp1063
a(I2174
I60
tp1064
a(I1741
I60
tp1065
a(I1652
I60
tp1066
a(I786
I60
tp1067
a(I1249
I60
tp1068
a(I1928
I60
tp1069
a(I310
I60
tp1070
a(I1376
I60
tp1071
a(I1842
I43
tp1072
a(I2203
I43
tp1073
a(I1919
I43
tp1074
a(I875
I43
tp1075
a(I2079
I43
tp1076
a(I550
I60
tp1077
a(I1233
I43
tp1078
a(I2
I43
tp1079
a(I58
I60
tp1080
a(I1054
I43
tp1081
a(I79
I43
tp1082
a(I1461
I43
tp1083
a(I583
I60
tp1084
a(I1814
I60
tp1085
a(I91
I60
tp1086
a(I2163
I43
tp1087
a(I2117
I43
tp1088
a(I2255
I60
tp1089
a(I400
I60
tp1090
a(I879
I60
tp1091
a(I1583
I43
tp1092
a(I135
I43
tp1093
a(I600
I43
tp1094
a(I1921
I43
tp1095
a(I1595
I60
tp1096
a(I196
I43
tp1097
a(I749
I43
tp1098
a(I1998
I43
tp1099
a(I509
I60
tp1100
a(I164
I60
tp1101
a(I554
I43
tp1102
a(I2219
I43
tp1103
a(I2150
I60
tp1104
a(I1717
I60
tp1105
a(I1628
I60
tp1106
a(I1136
I60
tp1107
a(I1828
I60
tp1108
a(I1895
I43
tp1109
a(I1016
I43
tp1110
a(I526
I60
tp1111
a(I34
I60
tp1112
a(I241
I43
tp1113
a(I116
I43
tp1114
a(I62
I43
tp1115
a(I67
I60
tp1116
a(I2139
I43
tp1117
a(I469
I43
tp1118
a(I909
I43
tp1119
a(I1115
I43
tp1120
a(I1823
I60
tp1121
a(I2154
I43
tp1122
a(I855
I60
tp1123
a(I1559
I43
tp1124
a(I1620
I43
tp1125
a(I576
I43
tp1126
a(I172
I43
tp1127
a(I872
I60
tp1128
a(I1974
I43
tp1129
a(I485
I60
tp1130
a(I140
I60
tp1131
a(I530
I43
tp1132
a(I1944
I43
tp1133
a(I607
I43
tp1134
a(I1693
I60
tp1135
a(I1604
I60
tp1136
a(I1201
I60
tp1137
a(I262
I60
tp1138
a(I725
I60
tp1139
a(I636
I60
tp1140
a(I640
I43
tp1141
a(I2096
I60
tp1142
a(I1234
I60
tp1143
a(I1676
I43
tp1144
a(I758
I60
tp1145
a(I1
I60
tp1146
a(I92
I43
tp1147
a(I38
I43
tp1148
a(I2022
I60
tp1149
a(I1128
I43
tp1150
a(I43
I60
tp1151
a(I99
I43
tp1152
a(I1295
I43
tp1153
a(I1481
I43
tp1154
a(I506
I43
tp1155
a(I1909
I43
tp1156
a(I1799
I60
tp1157
a(I1307
I60
tp1158
a(I225
I43
tp1159
a(I339
I60
tp1160
a(I1596
I43
tp1161
a(I2069
I60
tp1162
a(I101
I43
tp1163
a(I1547
I60
tp1164
a(I937
I60
tp1165
a(I848
I60
tp1166
a(I1071
I60
tp1167
a(I461
I60
tp1168
a(I372
I60
tp1169
a(I982
I43
tp1170
a(I583
I43
tp1171
a(I1669
I60
tp1172
a(I1580
I60
tp1173
a(I787
I43
tp1174
a(I1177
I60
tp1175
a(I1965
I43
tp1176
a(I701
I60
tp1177
a(I2026
I43
tp1178
a(I120
I60
tp1179
a(I734
I60
tp1180
a(I1668
I60
tp1181
a(I2020
I60
tp1182
a(I242
I60
tp1183
a(I1698
I60
tp1184
a(I1998
I60
tp1185
a(I1104
I43
tp1186
a(I1153
I43
tp1187
a(I75
I43
tp1188
a(I1527
I43
tp1189
a(I904
I43
tp1190
a(I1457
I43
tp1191
a(I482
I43
tp1192
a(I1885
I43
tp1193
a(I303
I43
tp1194
a(I1690
I43
tp1195
a(I1978
I43
tp1196
a(I315
I60
tp1197
a(I1779
I60
tp1198
a(I913
I60
tp1199
a(I1047
I60
tp1200
a(I437
I60
tp1201
a(I348
I60
tp1202
a(I2078
I60
tp1203
a(I1901
I60
tp1204
a(I420
I60
tp1205
a(I620
I43
tp1206
a(I1064
I60
tp1207
a(I677
I60
tp1208
a(I588
I60
tp1209
a(I420
I43
tp1210
a(I96
I60
tp1211
a(I1198
I43
tp1212
a(I1823
I43
tp1213
a(I1649
I60
tp1214
a(I1941
I60
tp1215
a(I218
I60
tp1216
a(I1011
I43
tp1217
a(I169
I43
tp1218
a(I2261
I43
tp1219
a(I1974
I60
tp1220
a(I1482
I60
tp1221
a(I640
I60
tp1222
a(I112
I43
tp1223
a(I1308
I43
tp1224
a(I279
I43
tp1225
a(I1515
I60
tp1226
a(I1315
I43
tp1227
a(I340
I43
tp1228
a(I893
I43
tp1229
a(I2121
I43
tp1230
a(I1743
I43
tp1231
a(I1673
I43
tp1232
a(I698
I43
tp1233
a(I1755
I60
tp1234
a(I203
I43
tp1235
a(I413
I60
tp1236
a(I324
I60
tp1237
a(I531
I60
tp1238
a(I2054
I60
tp1239
a(I965
I43
tp1240
a(I1385
I60
tp1241
a(I1040
I60
tp1242
a(I396
I43
tp1243
a(I72
I60
tp1244
a(I1799
I43
tp1245
a(I1010
I43
tp1246
a(I1235
I43
tp1247
a(I1625
I60
tp1248
a(I1149
I60
tp1249
a(I1593
I43
tp1250
a(I194
I60
tp1251
a(I1189
I43
tp1252
a(I145
I43
tp1253
a(I1258
I60
tp1254
a(I222
I43
tp1255
a(I1950
I60
tp1256
a(I1458
I60
tp1257
a(I982
I60
tp1258
a(I2131
I60
tp1259
a(I1291
I43
tp1260
a(I316
I43
tp1261
a(I1015
I60
tp1262
a(I1719
I43
tp1263
a(I1905
I43
tp1264
a(I1780
I43
tp1265
a(I1726
I43
tp1266
a(I751
I43
tp1267
a(I2253
I60
tp1268
a(I2164
I60
tp1269
a(I1731
I60
tp1270
a(I1956
I43
tp1271
a(I1109
I43
tp1272
a(I1255
I60
tp1273
a(I389
I60
tp1274
a(I300
I60
tp1275
a(I763
I60
tp1276
a(I910
I43
tp1277
a(I2240
I60
tp1278
a(I885
I60
tp1279
a(I540
I60
tp1280
a(I137
I60
tp1281
a(I163
I43
tp1282
a(I1211
I43
tp1283
a(I1601
I60
tp1284
a(I1272
I43
tp1285
a(I48
I60
tp1286
a(I170
I60
tp1287
a(I633
I60
tp1288
a(I1312
I60
tp1289
a(I1646
I43
tp1290
a(I1226
I43
tp1291
a(I1793
I60
tp1292
a(I198
I43
tp1293
a(I1926
I60
tp1294
a(I3
I43
tp1295
a(I958
I60
tp1296
a(I617
I43
tp1297
a(I410
I43
tp1298
a(I2107
I60
tp1299
a(I1674
I60
tp1300
a(I1198
I60
tp1301
a(I499
I60
tp1302
a(I1756
I43
tp1303
a(I727
I43
tp1304
a(I2229
I60
tp1305
a(I1707
I60
tp1306
a(I1763
I43
tp1307
a(I532
I43
tp1308
a(I1231
I60
tp1309
a(I739
I60
tp1310
a(I118
I43
tp1311
a(I947
I43
tp1312
a(I1474
I60
tp1313
a(I861
I60
tp1314
a(I1804
I60
tp1315
a(I369
I60
tp1316
a(I24
I60
tp1317
a(I1577
I60
tp1318
a(I1101
I60
tp1319
a(I2036
I60
tp1320
a(I146
I60
tp1321
a(I609
I60
tp1322
a(I1622
I43
tp1323
a(I323
I60
tp1324
a(I1202
I43
tp1325
a(I235
I43
tp1326
a(I1637
I43
tp1327
a(I934
I60
tp1328
a(I593
I43
tp1329
a(I386
I43
tp1330
a(I442
I60
tp1331
a(I1438
I43
tp1332
a(I463
I43
tp1333
a(I393
I43
tp1334
a(I2083
I60
tp1335
a(I1906
I60
tp1336
a(I821
I43
tp1337
a(I967
I60
tp1338
a(I475
I60
tp1339
a(I2053
I60
tp1340
a(I2205
I60
tp1341
a(I2116
I60
tp1342
a(I1739
I43
tp1343
a(I764
I43
tp1344
a(I1207
I60
tp1345
a(I1122
I43
tp1346
a(I239
I60
tp1347
a(I1967
I43
tp1348
a(I923
I43
tp1349
a(I2188
I43
tp1350
a(I984
I43
tp1351
a(I748
I60
tp1352
a(I345
I60
tp1353
a(I0
I60
tp1354
a(I313
I43
tp1355
a(I938
I43
tp1356
a(I1553
I60
tp1357
a(I585
I60
tp1358
a(I788
I60
tp1359
a(I1659
I43
tp1360
a(I1255
I43
tp1361
a(I618
I60
tp1362
a(I1060
I43
tp1363
a(I1613
I43
tp1364
a(I910
I60
tp1365
a(I16
I43
tp1366
a(I418
I60
tp1367
a(I2108
I43
tp1368
a(I2095
I43
tp1369
a(I2102
I43
tp1370
a(I1475
I43
tp1371
a(I500
I43
tp1372
a(I446
I43
tp1373
a(I1833
I43
tp1374
a(I858
I43
tp1375
a(I1815
I43
tp1376
a(I2181
I60
tp1377
a(I1646
I60
tp1378
a(I1776
I43
tp1379
a(I691
I60
tp1380
a(I2094
I60
tp1381
a(I215
I60
tp1382
a(I1943
I43
tp1383
a(I960
I43
tp1384
a(I1955
I60
tp1385
a(I321
I60
tp1386
a(I232
I60
tp1387
a(I914
I43
tp1388
a(I366
I43
tp1389
a(I1053
I60
tp1390
a(I1753
I43
tp1391
a(I561
I60
tp1392
a(I832
I43
tp1393
a(I2202
I43
tp1394
a(I594
I60
tp1395
a(I1036
I43
tp1396
a(I1736
I60
tp1397
a(I118
I60
tp1398
a(I1261
I43
tp1399
a(I1650
I43
tp1400
a(I394
I60
tp1401
a(I428
I43
tp1402
a(I476
I43
tp1403
a(I422
I43
tp1404
a(I1382
I60
tp1405
a(I890
I60
tp1406
a(I1886
I43
tp1407
a(I655
I43
tp1408
a(I1269
I43
tp1409
a(I1159
I60
tp1410
a(I1622
I60
tp1411
a(I191
I60
tp1412
a(I396
I60
tp1413
a(I2161
I60
tp1414
a(I2031
I43
tp1415
a(I1655
I60
tp1416
a(I297
I60
tp1417
a(I208
I60
tp1418
a(I1455
I60
tp1419
a(I1371
I43
tp1420
a(I342
I43
tp1421
a(I967
I43
tp1422
a(I1176
I43
tp1423
a(I1729
I43
tp1424
a(I147
I43
tp1425
a(I772
I43
tp1426
a(I1325
I43
tp1427
a(I1550
I43
tp1428
a(I61
I60
tp1429
a(I761
I43
tp1430
a(I1386
I43
tp1431
a(I504
I60
tp1432
a(I2234
I60
tp1433
a(I1712
I60
tp1434
a(I94
I60
tp1435
a(I645
I60
tp1436
a(I1890
I60
tp1437
a(I1722
I43
tp1438
a(I1488
I43
tp1439
a(I866
I60
tp1440
a(I887
I43
tp1441
a(I1667
I43
tp1442
a(I1245
I43
tp1443
a(I894
I43
tp1444
a(I1598
I60
tp1445
a(I1940
I60
tp1446
a(I643
I60
tp1447
a(I153
I60
tp1448
a(I21
I43
tp1449
a(I167
I60
tp1450
a(I1146
I43
tp1451
a(I1969
I43
tp1452
a(I1631
I60
tp1453
a(I2105
I43
tp1454
a(I1139
I60
tp1455
a(I1466
I43
tp1456
a(I866
I43
tp1457
a(I1152
I43
tp1458
a(I379
I43
tp1459
a(I513
I60
tp1460
a(I1448
I60
tp1461
a(I1782
I43
tp1462
a(I184
I43
tp1463
a(I737
I43
tp1464
a(I333
I43
tp1465
a(I558
I43
tp1466
a(I138
I43
tp1467
a(I2210
I60
tp1468
a(I2033
I60
tp1469
a(I1541
I43
tp1470
a(I70
I60
tp1471
a(I1301
I60
tp1472
a(I2238
I43
tp1473
a(I2243
I60
tp1474
a(I1810
I60
tp1475
a(I366
I60
tp1476
a(I1899
I43
tp1477
a(I870
I43
tp1478
a(I1574
I60
tp1479
a(I1704
I43
tp1480
a(I875
I60
tp1481
a(I1082
I60
tp1482
a(I143
I60
tp1483
a(I1033
I43
tp1484
a(I58
I43
tp1485
a(I2113
I60
tp1486
a(I1607
I60
tp1487
a(I2081
I43
tp1488
a(I1115
I60
tp1489
a(I546
I60
tp1490
a(I639
I60
tp1491
a(I492
I60
tp1492
a(I915
I60
tp1493
a(I2193
I43
tp1494
a(I901
I43
tp1495
a(I745
I60
tp1496
a(I1903
I60
tp1497
a(I160
I43
tp1498
a(I852
I60
tp1499
a(I1563
I43
tp1500
a(I456
I60
tp1501
a(I534
I43
tp1502
a(I1159
I43
tp1503
a(I1624
I43
tp1504
a(I370
I43
tp1505
a(I2186
I60
tp1506
a(I1220
I43
tp1507
a(I1664
I60
tp1508
a(I191
I43
tp1509
a(I1188
I60
tp1510
a(I1578
I43
tp1511
a(I696
I60
tp1512
a(I2214
I43
tp1513
a(I2219
I60
tp1514
a(I342
I60
tp1515
a(I1550
I60
tp1516
a(I651
I43
tp1517
a(I375
I60
tp1518
a(I1079
I43
tp1519
a(I1265
I43
tp1520
a(I34
I43
tp1521
a(I1248
I43
tp1522
a(I2089
I60
tp1523
a(I111
I43
tp1524
a(I1913
I60
tp1525
a(I615
I60
tp1526
a(I449
I43
tp1527
a(I123
I60
tp1528
a(I721
I60
tp1529
a(I2149
I43
tp1530
a(I245
I60
tp1531
a(I924
I60
tp1532
a(I762
I60
tp1533
a(I1600
I43
tp1534
a(I571
I43
tp1535
a(I1196
I43
tp1536
a(I1896
I60
tp1537
a(I167
I43
tp1538
a(I632
I43
tp1539
a(I1164
I60
tp1540
a(I1554
I43
tp1541
a(I672
I60
tp1542
a(I2030
I43
tp1543
a(I1631
I43
tp1544
a(I586
I43
tp1545
a(I1749
I60
tp1546
a(I1660
I60
tp1547
a(I387
I43
tp1548
a(I318
I60
tp1549
a(I1782
I60
tp1550
a(I1034
I60
tp1551
a(I351
I60
tp1552
a(I558
I60
tp1553
a(I2065
I60
tp1554
a(I1062
I43
tp1555
a(I87
I43
tp1556
a(I1067
I60
tp1557
a(I916
I43
tp1558
a(I1469
I43
tp1559
a(I99
I60
tp1560
a(I2171
I43
tp1561
a(I1208
I43
tp1562
a(I2125
I43
tp1563
a(I221
I60
tp1564
a(I900
I60
tp1565
a(I408
I60
tp1566
a(I1784
I60
tp1567
a(I1961
I60
tp1568
a(I608
I43
tp1569
a(I804
I43
tp1570
a(I204
I43
tp1571
a(I648
I60
tp1572
a(I1607
I43
tp1573
a(I562
I43
tp1574
a(I1811
I43
tp1575
a(I639
I43
tp1576
a(I1725
I60
tp1577
a(I1636
I60
tp1578
a(I770
I60
tp1579
a(I1144
I60
tp1580
a(I424
I43
tp1581
a(I977
I43
tp1582
a(I2103
I43
tp1583
a(I1266
I60
tp1584
a(I181
I43
tp1585
a(I327
I60
tp1586
a(I534
I60
tp1587
a(I1099
I43
tp1588
a(I124
I43
tp1589
a(I1928
I43
tp1590
a(I75
I60
tp1591
a(I868
I60
tp1592
a(I2248
I60
tp1593
a(I1831
I60
tp1594
a(I344
I43
tp1595
a(I641
I43
tp1596
a(I2162
I43
tp1597
a(I384
I60
tp1598
a(I298
I43
tp1599
a(I1473
I60
tp1600
a(I1937
I60
tp1601
a(I1461
I60
tp1602
a(I1372
I60
tp1603
a(I969
I60
tp1604
a(I880
I60
tp1605
a(I2122
I43
tp1606
a(I148
I60
tp1607
a(I2043
I43
tp1608
a(I1644
I43
tp1609
a(I615
I43
tp1610
a(I1612
I60
tp1611
a(I1209
I60
tp1612
a(I1120
I60
tp1613
a(I400
I43
tp1614
a(I1802
I43
tp1615
a(I774
I43
tp1616
a(I1734
I60
tp1617
a(I1242
I60
tp1618
a(I157
I43
tp1619
a(I766
I60
tp1620
a(I1193
I43
tp1621
a(I218
I43
tp1622
a(I160
I60
tp1623
a(I543
I60
tp1624
a(I2030
I60
tp1625
a(I1136
I43
tp1626
a(I51
I60
tp1627
a(I1303
I43
tp1628
a(I1917
I43
tp1629
a(I1075
I43
tp1630
a(I173
I60
tp1631
a(I1315
I60
tp1632
a(I961
I43
tp1633
a(I694
I43
tp1634
a(I1925
I60
tp1635
a(I351
I43
tp1636
a(I1555
I60
tp1637
a(I945
I60
tp1638
a(I856
I60
tp1639
a(I469
I60
tp1640
a(I380
I60
tp1641
a(I877
I60
tp1642
a(I2110
I60
tp1643
a(I1677
I60
tp1644
a(I1588
I60
tp1645
a(I978
I60
tp1646
a(I1185
I60
tp1647
a(I2167
I43
tp1648
a(I2034
I43
tp1649
a(I2143
I60
tp1650
a(I2097
I43
tp1651
a(I742
I60
tp1652
a(I872
I43
tp1653
a(I1169
I43
tp1654
a(I194
I43
tp1655
a(I250
I60
tp1656
a(I1246
I43
tp1657
a(I15
I43
tp1658
a(I201
I43
tp1659
a(I629
I43
tp1660
a(I2099
I43
tp1661
a(I2053
I43
tp1662
a(I2039
I60
tp1663
a(I229
I43
tp1664
a(I1291
I60
tp1665
a(I1775
I43
tp1666
a(I731
I43
tp1667
a(I327
I43
tp1668
a(I536
I43
tp1669
a(I1787
I60
tp1670
a(I132
I43
tp1671
a(I685
I43
tp1672
a(I121
I43
tp1673
a(I746
I43
tp1674
a(I2086
I60
tp1675
a(I1909
I60
tp1676
a(I1564
I60
tp1677
a(I1161
I60
tp1678
a(I1072
I60
tp1679
a(I478
I60
tp1680
a(I596
I60
tp1681
a(I2119
I60
tp1682
a(I1831
I43
tp1683
a(I1194
I60
tp1684
a(I1657
I60
tp1685
a(I1755
I43
tp1686
a(I848
I43
tp1687
a(I226
I60
tp1688
a(I1222
I43
tp1689
a(I247
I43
tp1690
a(I177
I43
tp1691
a(I52
I43
tp1692
a(I605
I43
tp1693
a(I1108
I60
tp1694
a(I3
I60
tp1695
a(I405
I43
tp1696
a(I109
I43
tp1697
a(I2176
I60
tp1698
a(I1523
I60
tp1699
a(I791
I60
tp1700
a(I1751
I43
tp1701
a(I538
I43
tp1702
a(I621
I60
tp1703
a(I1763
I60
tp1704
a(I364
I43
tp1705
a(I421
I60
tp1706
a(I332
I60
tp1707
a(I722
I43
tp1708
a(I1971
I43
tp1709
a(I942
I43
tp1710
a(I543
I43
tp1711
a(I1885
I60
tp1712
a(I1540
I60
tp1713
a(I1048
I60
tp1714
a(I454
I60
tp1715
a(I572
I60
tp1716
a(I1633
I60
tp1717
a(I694
I60
tp1718
a(I202
I60
tp1719
a(I1259
I43
tp1720
a(I230
I43
tp1721
a(I1958
I60
tp1722
a(I1064
I43
tp1723
a(I1617
I43
tp1724
a(I235
I60
tp1725
a(I35
I43
tp1726
a(I1487
I43
tp1727
a(I442
I43
tp1728
a(I950
I60
tp1729
a(I2066
I43
tp1730
a(I331
I43
tp1731
a(I2143
I43
tp1732
a(I193
I43
tp1733
a(I1788
I43
tp1734
a(I1953
I60
tp1735
a(I2261
I60
tp1736
a(I216
I60
tp1737
a(I1739
I60
tp1738
a(I1263
I60
tp1739
a(I397
I60
tp1740
a(I308
I60
tp1741
a(I1947
I43
tp1742
a(I918
I43
tp1743
a(I1772
I60
tp1744
a(I979
I43
tp1745
a(I580
I43
tp1746
a(I1133
I43
tp1747
a(I893
I60
tp1748
a(I548
I60
tp1749
a(I1962
I43
tp1750
a(I933
I43
tp1751
a(I1784
I43
tp1752
a(I1609
I60
tp1753
a(I1812
I60
tp1754
a(I178
I60
tp1755
a(I1642
I60
tp1756
a(I1515
I43
tp1757
a(I1040
I43
tp1758
a(I11
I43
tp1759
a(I1463
I43
tp1760
a(I72
I43
tp1761
a(I625
I43
tp1762
a(I418
I43
tp1763
a(I1821
I43
tp1764
a(I1470
I43
tp1765
a(I495
I43
tp1766
a(I2153
I43
tp1767
a(I1475
I60
tp1768
a(I853
I43
tp1769
a(I2119
I43
tp1770
a(I1760
I60
tp1771
a(I507
I60
tp1772
a(I2148
I60
tp1773
a(I1715
I60
tp1774
a(I81
I60
tp1775
a(I1239
I60
tp1776
a(I642
I43
tp1777
a(I284
I60
tp1778
a(I153
I43
tp1779
a(I955
I43
tp1780
a(I556
I43
tp1781
a(I1256
I60
tp1782
a(I869
I60
tp1783
a(I524
I60
tp1784
a(I1938
I43
tp1785
a(I377
I60
tp1786
a(I32
I60
tp1787
a(I970
I43
tp1788
a(I1585
I60
tp1789
a(I646
I60
tp1790
a(I1109
I60
tp1791
a(I2044
I60
tp1792
a(I154
I60
tp1793
a(I361
I43
tp1794
a(I1618
I60
tp1795
a(I942
I60
tp1796
a(I48
I43
tp1797
a(I1964
I43
tp1798
a(I1446
I43
tp1799
a(I471
I43
tp1800
a(I1451
I60
tp1801
a(I1914
I60
tp1802
a(I276
I43
tp1803
a(I829
I43
tp1804
a(I975
I60
tp1805
a(I890
I43
tp1806
a(I2156
I43
tp1807
a(I2124
I60
tp1808
a(I1691
I60
tp1809
a(I578
I60
tp1810
a(I1215
I60
tp1811
a(I25
I43
tp1812
a(I723
I60
tp1813
a(I2246
I60
tp1814
a(I1720
I60
tp1815
a(I973
I60
tp1816
a(I1321
I60
tp1817
a(I1232
I60
tp1818
a(I756
I60
tp1819
a(I353
I60
tp1820
a(I8
I60
tp1821
a(I451
I60
tp1822
a(I1440
I60
tp1823
a(I946
I43
tp1824
a(I1561
I60
tp1825
a(I1785
I43
tp1826
a(I130
I60
tp1827
a(I1381
I43
tp1828
a(I337
I43
tp1829
a(I158
I43
tp1830
a(I2234
I43
tp1831
a(I626
I60
tp1832
a(I918
I60
tp1833
a(I1796
I60
tp1834
a(I1483
I43
tp1835
a(I508
I43
tp1836
a(I951
I60
tp1837
a(I459
I60
tp1838
a(I1716
I43
tp1839
a(I2122
I60
tp1840
a(I1918
I43
tp1841
a(I687
I43
tp1842
a(I2189
I60
tp1843
a(I2100
I60
tp1844
a(I1667
I60
tp1845
a(I1924
I43
tp1846
a(I1045
I43
tp1847
a(I1191
I60
tp1848
a(I1
I43
tp1849
a(I699
I60
tp1850
a(I78
I43
tp1851
a(I1957
I43
tp1852
a(I1297
I60
tp1853
a(I821
I60
tp1854
a(I732
I60
tp1855
a(I329
I60
tp1856
a(I240
I60
tp1857
a(I1913
I43
tp1858
a(I2028
I43
tp1859
a(I1061
I60
tp1860
a(I1761
I43
tp1861
a(I362
I60
tp1862
a(I569
I60
tp1863
a(I1504
I60
tp1864
a(I1582
I43
tp1865
a(I1162
I43
tp1866
a(I2223
I43
tp1867
a(I134
I43
tp1868
a(I2210
I43
tp1869
a(I195
I43
tp1870
a(I126
I60
tp1871
a(I553
I43
tp1872
a(I205
I43
tp1873
a(I927
I60
tp1874
a(I435
I60
tp1875
a(I1692
I43
tp1876
a(I1894
I43
tp1877
a(I663
I43
tp1878
a(I2076
I60
tp1879
a(I1899
I60
tp1880
a(I1699
I43
tp1881
a(I724
I43
tp1882
a(I1167
I60
tp1883
a(I1082
I43
tp1884
a(I115
I43
tp1885
a(I2169
I60
tp1886
a(I1939
I60
tp1887
a(I305
I60
tp1888
a(I69
I43
tp1889
a(I1769
I60
tp1890
a(I1037
I60
tp1891
a(I1972
I60
tp1892
a(I338
I60
tp1893
a(I780
I43
tp1894
a(I1480
I60
tp1895
a(I1558
I43
tp1896
a(I1619
I43
tp1897
a(I2223
I60
tp1898
a(I1215
I43
tp1899
a(I171
I43
tp1900
a(I1573
I43
tp1901
a(I102
I60
tp1902
a(I232
I43
tp1903
a(I606
I43
tp1904
a(I399
I43
tp1905
a(I804
I60
tp1906
a(I1842
I60
tp1907
a(I1013
I43
tp1908
a(I903
I60
tp1909
a(I411
I60
tp1910
a(I2052
I60
tp1911
a(I1675
I43
tp1912
a(I700
I43
tp1913
a(I1736
I43
tp1914
a(I312
I60
tp1915
a(I651
I60
tp1916
a(I175
I60
tp1917
a(I91
I43
tp1918
a(I2145
I60
tp1919
a(I1639
I60
tp1920
a(I773
I60
tp1921
a(I684
I60
tp1922
a(I1147
I60
tp1923
a(I281
I60
tp1924
a(I45
I43
tp1925
a(I1294
I43
tp1926
a(I1745
I60
tp1927
a(I1269
I60
tp1928
a(I1948
I60
tp1929
a(I521
I60
tp1930
a(I1456
I60
tp1931
a(I980
I60
tp1932
a(I921
I43
tp1933
a(I1191
I43
tp1934
a(I1656
I43
tp1935
a(I554
I60
tp1936
a(I1252
I43
tp1937
a(I1549
I43
tp1938
a(I78
I60
tp1939
a(I208
I43
tp1940
a(I1473
I43
tp1941
a(I1610
I43
tp1942
a(I582
I43
tp1943
a(I1818
I60
tp1944
a(I436
I43
tp1945
a(I2025
I43
tp1946
a(I387
I60
tp1947
a(I1274
I43
tp1948
a(I192
I60
tp1949
a(I1375
I60
tp1950
a(I1582
I60
tp1951
a(I1712
I43
tp1952
a(I1932
I60
tp1953
a(I883
I60
tp1954
a(I151
I60
tp1955
a(I1111
I43
tp1956
a(I1940
I43
tp1957
a(I1615
I60
tp1958
a(I896
I43
tp1959
a(I168
I60
tp1960
a(I82
I43
tp1961
a(I2154
I60
tp1962
a(I1771
I43
tp1963
a(I302
I43
tp1964
a(I927
I43
tp1965
a(I1245
I60
tp1966
a(I1689
I43
tp1967
a(I753
I60
tp1968
a(I21
I60
tp1969
a(I956
I60
tp1970
a(I1632
I43
tp1971
a(I530
I60
tp1972
a(I1228
I43
tp1973
a(I1672
I60
tp1974
a(I1058
I43
tp1975
a(I1857
I43
tp1976
a(I2227
I60
tp1977
a(I619
I43
tp1978
a(I412
I43
tp1979
a(I1318
I60
tp1980
a(I1448
I43
tp1981
a(I770
I43
tp1982
a(I419
I43
tp1983
a(I1978
I60
tp1984
a(I1822
I43
tp1985
a(I1205
I43
tp1986
a(I1558
I60
tp1987
a(I859
I60
tp1988
a(I383
I60
tp1989
a(I1148
I43
tp1990
a(I1591
I60
tp1991
a(I152
I60
tp1992
a(I1099
I60
tp1993
a(I489
I60
tp1994
a(I144
I60
tp1995
a(I623
I60
tp1996
a(I1307
I43
tp1997
a(I278
I43
tp1998
a(I903
I43
tp1999
a(I1221
I60
tp2000
a(I1132
I60
tp2001
a(I339
I43
tp2002
a(I729
I60
tp2003
a(I1517
I43
tp2004
a(I697
I43
tp2005
a(I440
I60
tp2006
a(I1904
I60
tp2007
a(I30
I60
tp2008
a(I1639
I43
tp2009
a(I2203
I60
tp2010
a(I2026
I60
tp2011
a(I1451
I43
tp2012
a(I1294
I60
tp2013
a(I395
I43
tp2014
a(I456
I43
tp2015
a(I1009
I43
tp2016
a(I1376
I43
tp2017
a(I884
I43
tp2018
a(I830
I43
tp2019
a(I1242
I43
tp2020
a(I2041
I60
tp2021
a(I213
I43
tp2022
a(I359
I60
tp2023
a(I1114
I43
tp2024
a(I1696
I60
tp2025
a(I2073
I60
tp2026
a(I1567
I60
tp2027
a(I1075
I60
tp2028
a(I972
I43
tp2029
a(I465
I60
tp2030
a(I599
I60
tp2031
a(I1197
I60
tp2032
a(I315
I43
tp2033
a(I705
I60
tp2034
a(I616
I60
tp2035
a(I1718
I43
tp2036
a(I376
I43
tp2037
a(I908
I60
tp2038
a(I1298
I43
tp2039
a(I1779
I43
tp2040
a(I416
I60
tp2041
a(I750
I43
tp2042
a(I1375
I43
tp2043
a(I330
I43
tp2044
a(I1969
I60
tp2045
a(I1733
I43
tp2046
a(I6
I60
tp2047
a(I920
I43
tp2048
a(I2228
I43
tp2049
a(I2179
I60
tp2050
a(I302
I60
tp2051
a(I432
I43
tp2052
a(I1665
I60
tp2053
a(I860
I43
tp2054
a(I1766
I60
tp2055
a(I1896
I43
tp2056
a(I867
I43
tp2057
a(I189
I43
tp2058
a(I335
I60
tp2059
a(I1039
I43
tp2060
a(I250
I43
tp2061
a(I1653
I43
tp2062
a(I1543
I60
tp2063
a(I1051
I60
tp2064
a(I575
I60
tp2065
a(I1786
I60
tp2066
a(I409
I43
tp2067
a(I83
I60
tp2068
a(I909
I60
tp2069
a(I1839
I60
tp2070
a(I352
I43
tp2071
a(I116
I60
tp2072
a(I932
I43
tp2073
a(I392
I60
tp2074
a(I726
I43
tp2075
a(I1560
I43
tp2076
a(I1485
I43
tp2077
a(I531
I43
tp2078
a(I1156
I43
tp2079
a(I1709
I43
tp2080
a(I383
I43
tp2081
a(I1469
I60
tp2082
a(I1145
I43
tp2083
a(I2204
I43
tp2084
a(I888
I60
tp2085
a(I2211
I43
tp2086
a(I1620
I60
tp2087
a(I1010
I60
tp2088
a(I278
I60
tp2089
a(I2175
I60
tp2090
a(I2200
I43
tp2091
a(I1250
I60
tp2092
a(I311
I60
tp2093
a(I1271
I43
tp2094
a(I648
I43
tp2095
a(I1201
I43
tp2096
a(I226
I43
tp2097
a(I1076
I43
tp2098
a(I1629
I43
tp2099
a(I551
I60
tp2100
a(I385
I43
tp2101
a(I59
I60
tp2102
a(I2131
I43
tp2103
a(I462
I43
tp2104
a(I2232
I60
tp2105
a(I1815
I60
tp2106
a(I181
I60
tp2107
a(I92
I60
tp2108
a(I730
I60
tp2109
a(I1645
I60
tp2110
a(I763
I43
tp2111
a(I1921
I60
tp2112
a(I1832
I60
tp2113
a(I359
I43
tp2114
a(I568
I43
tp2115
a(I1121
I43
tp2116
a(I1746
I43
tp2117
a(I248
I43
tp2118
a(I164
I43
tp2119
a(I864
I60
tp2120
a(I1966
I43
tp2121
a(I1567
I43
tp2122
a(I1478
I60
tp2123
a(I2248
I43
tp2124
a(I1596
I60
tp2125
a(I986
I60
tp2126
a(I510
I60
tp2127
a(I937
I43
tp2128
a(I1718
I60
tp2129
a(I161
I60
tp2130
a(I750
I60
tp2131
a(I880
I43
tp2132
a(I2257
I60
tp2133
a(I1956
I60
tp2134
a(I23
I43
tp2135
a(I1259
I60
tp2136
a(I1059
I43
tp2137
a(I84
I43
tp2138
a(I637
I43
tp2139
a(I35
I60
tp2140
a(I2107
I43
tp2141
a(I438
I43
tp2142
a(I2168
I43
tp2143
a(I499
I43
tp2144
a(I157
I60
tp2145
a(I857
I43
tp2146
a(I1299
I60
tp2147
a(I453
I43
tp2148
a(I1129
I60
tp2149
a(I1808
I60
tp2150
a(I544
I43
tp2151
a(I537
I60
tp2152
a(I140
I43
tp2153
a(I1942
I43
tp2154
a(I1543
I43
tp2155
a(I1472
I60
tp2156
a(I1604
I43
tp2157
a(I575
I43
tp2158
a(I1917
I60
tp2159
a(I2225
I43
tp2160
a(I962
I60
tp2161
a(I1080
I60
tp2162
a(I2240
I43
tp2163
a(I913
I43
tp2164
a(I2127
I60
tp2165
a(I1694
I60
tp2166
a(I1202
I60
tp2167
a(I373
I43
tp2168
a(I726
I60
tp2169
a(I2191
I60
tp2170
a(I2201
I43
tp2171
a(I357
I43
tp2172
a(I11
I60
tp2173
a(I475
I43
tp2174
a(I2023
I60
tp2175
a(I280
I43
tp2176
a(I44
I60
tp2177
a(I2098
I43
tp2178
a(I2070
I43
tp2179
a(I654
I43
tp2180
a(I2175
I43
tp2181
a(I490
I43
tp2182
a(I1105
I60
tp2183
a(I629
I60
tp2184
a(I1308
I60
tp2185
a(I905
I60
tp2186
a(I340
I60
tp2187
a(I1580
I43
tp2188
a(I551
I43
tp2189
a(I1893
I60
tp2190
a(I1548
I60
tp2191
a(I938
I60
tp2192
a(I1954
I60
tp2193
a(I462
I60
tp2194
a(I2255
I43
tp2195
a(I966
I43
tp2196
a(I1670
I60
tp2197
a(I771
I43
tp2198
a(I349
I43
tp2199
a(I1385
I43
tp2200
a(I154
I43
tp2201
a(I1210
I43
tp2202
a(I128
I60
tp2203
a(I735
I60
tp2204
a(I1966
I60
tp2205
a(I1072
I43
tp2206
a(I243
I60
tp2207
a(I1300
I43
tp2208
a(I365
I60
tp2209
a(I1914
I43
tp2210
a(I886
I43
tp2211
a(I466
I43
tp2212
a(I691
I43
tp2213
a(I1707
I43
tp2214
a(I605
I60
tp2215
a(I1049
I43
tp2216
a(I1747
I60
tp2217
a(I113
I60
tp2218
a(I792
I60
tp2219
a(I405
I60
tp2220
a(I316
I60
tp2221
a(I1834
I60
tp2222
a(I1780
I60
tp2223
a(I914
I60
tp2224
a(I588
I43
tp2225
a(I1032
I60
tp2226
a(I438
I60
tp2227
a(I1970
I43
tp2228
a(I2079
I60
tp2229
a(I2121
I60
tp2230
a(I2231
I43
tp2231
a(I130
I43
tp2232
a(I186
I60
tp2233
a(I1146
I60
tp2234
a(I1182
I43
tp2235
a(I207
I43
tp2236
a(I137
I43
tp2237
a(I1650
I60
tp2238
a(I565
I43
tp2239
a(I2230
I43
tp2240
a(I1942
I60
tp2241
a(I219
I60
tp2242
a(I459
I43
tp2243
a(I1975
I60
tp2244
a(I344
I60
tp2245
a(I1483
I60
tp2246
a(I1711
I43
tp2247
a(I728
I43
tp2248
a(I1516
I60
tp2249
a(I1723
I60
tp2250
a(I89
I60
tp2251
a(I877
I43
tp2252
a(I1102
I43
tp2253
a(I1845
I60
tp2254
a(I1756
I60
tp2255
a(I2128
I43
tp2256
a(I1264
I60
tp2257
a(I414
I60
tp2258
a(I532
I60
tp2259
a(I2165
I43
tp2260
a(I2023
I43
tp2261
a(I1386
I60
tp2262
a(I1593
I60
tp2263
a(I654
I60
tp2264
a(I162
I60
tp2265
a(I1158
I43
tp2266
a(I183
I43
tp2267
a(I369
I43
tp2268
a(I1219
I43
tp2269
a(I244
I43
tp2270
a(I541
I43
tp2271
a(I190
I43
tp2272
a(I1150
I60
tp2273
a(I1577
I43
tp2274
a(I602
I43
tp2275
a(I1977
I60
tp2276
a(I1050
I43
tp2277
a(I2072
I43
tp2278
a(I1888
I60
tp2279
a(I2221
I43
tp2280
a(I1951
I60
tp2281
a(I1459
I60
tp2282
a(I983
I60
tp2283
a(I1687
I43
tp2284
a(I1748
I43
tp2285
a(I704
I43
tp2286
a(I1699
I60
tp2287
a(I300
I43
tp2288
a(I1078
I43
tp2289
a(I33
I43
tp2290
a(I1139
I43
tp2291
a(I110
I43
tp2292
a(I735
I43
tp2293
a(I1821
I60
tp2294
a(I1732
I60
tp2295
a(I1240
I60
tp2296
a(I390
I60
tp2297
a(I853
I60
tp2298
a(I764
I60
tp2299
a(I832
I60
tp2300
a(I2225
I60
tp2301
a(I1804
I43
tp2302
a(I886
I60
tp2303
a(I138
I60
tp2304
a(I1195
I43
tp2305
a(I220
I43
tp2306
a(I166
I43
tp2307
a(I1126
I60
tp2308
a(I1256
I43
tp2309
a(I1553
I43
tp2310
a(I578
I43
tp2311
a(I634
I60
tp2312
a(I1630
I43
tp2313
a(I2157
I60
tp2314
a(I585
I43
tp2315
a(I2037
I43
tp2316
a(I1927
I60
tp2317
a(I2258
I43
tp2318
a(I959
I60
tp2319
a(I985
I60
tp2320
a(I467
I60
tp2321
a(I1724
I43
tp2322
a(I2108
I60
tp2323
a(I1675
I60
tp2324
a(I41
I60
tp2325
a(I976
I60
tp2326
a(I1199
I60
tp2327
a(I500
I60
tp2328
a(I889
I60
tp2329
a(I86
I43
tp2330
a(I2230
I60
tp2331
a(I1797
I60
tp2332
a(I1708
I60
tp2333
a(I915
I43
tp2334
a(I1069
I43
tp2335
a(I829
I60
tp2336
a(I740
I60
tp2337
a(I1130
I43
tp2338
a(I248
I60
tp2339
a(I1545
I60
tp2340
a(I862
I60
tp2341
a(I370
I60
tp2342
a(I1578
I60
tp2343
a(I1102
I60
tp2344
a(I1232
I43
tp2345
a(I2220
I60
tp2346
a(I610
I60
tp2347
a(I1606
I43
tp2348
a(I631
I43
tp2349
a(I8
I43
tp2350
a(I561
I43
tp2351
a(I1261
I60
tp2352
a(I1460
I43
tp2353
a(I638
I43
tp2354
a(I431
I43
tp2355
a(I1818
I43
tp2356
a(I789
I43
tp2357
a(I935
I60
tp2358
a(I1728
I60
tp2359
a(I443
I60
tp2360
a(I2116
I43
tp2361
a(I2084
I60
tp2362
a(I1907
I60
tp2363
a(I1175
I60
tp2364
a(I476
I60
tp2365
a(I1920
I43
tp2366
a(I2041
I43
tp2367
a(I123
I43
tp2368
a(I748
I43
tp2369
a(I952
I43
tp2370
a(I1106
I43
tp2371
a(I313
I60
tp2372
a(I77
I43
tp2373
a(I1951
I43
tp2374
a(I972
I60
tp2375
a(I906
I43
tp2376
a(I1777
I60
tp2377
a(I1045
I60
tp2378
a(I2161
I43
tp2379
a(I346
I60
tp2380
a(I1485
I60
tp2381
a(I297
I43
tp2382
a(I1554
I60
tp2383
a(I2254
I43
tp2384
a(I1078
I60
tp2385
a(I586
I60
tp2386
a(I110
I60
tp2387
a(I240
I43
tp2388
a(I1643
I43
tp2389
a(I1436
I43
tp2390
a(I407
I43
tp2391
a(I619
I60
tp2392
a(I468
I43
tp2393
a(I1021
I43
tp2394
a(I911
I60
tp2395
a(I419
I60
tp2396
a(I2057
I60
tp2397
a(I217
I43
tp2398
a(I2182
I60
tp2399
a(I1688
I60
tp2400
a(I1168
I60
tp2401
a(I1647
I60
tp2402
a(I928
I43
tp2403
a(I964
I43
tp2404
a(I200
I60
tp2405
a(I1302
I43
tp2406
a(I1927
I43
tp2407
a(I114
I43
tp2408
a(I1753
I60
tp2409
a(I959
I43
tp2410
a(I1721
I43
tp2411
a(I322
I60
tp2412
a(I1464
I60
tp2413
a(I350
I43
tp2414
a(I1054
I60
tp2415
a(I932
I60
tp2416
a(I562
I60
tp2417
a(I86
I60
tp2418
a(I2259
I60
tp2419
a(I1826
I60
tp2420
a(I444
I43
tp2421
a(I119
I60
tp2422
a(I1480
I43
tp2423
a(I2033
I43
tp2424
a(I395
I60
tp2425
a(I1908
I43
tp2426
a(I2090
I60
tp2427
a(I879
I43
tp2428
a(I1237
I43
tp2429
a(I1383
I60
tp2430
a(I428
I60
tp2431
a(I891
I60
tp2432
a(I14
I43
tp2433
a(I1489
I60
tp2434
a(I1623
I60
tp2435
a(I1013
I60
tp2436
a(I265
I60
tp2437
a(I176
I60
tp2438
a(I2162
I60
tp2439
a(I1729
I60
tp2440
a(I1640
I60
tp2441
a(I935
I43
tp2442
a(I1253
I60
tp2443
a(I1697
I43
tp2444
a(I298
I60
tp2445
a(I761
I60
tp2446
a(I1293
I43
tp2447
a(I1774
I43
tp2448
a(I2191
I43
tp2449
a(I326
I43
tp2450
a(I1477
I43
tp2451
a(I131
I43
tp2452
a(I62
I60
tp2453
a(I745
I43
tp2454
a(I173
I43
tp2455
a(I2235
I60
tp2456
a(I1802
I60
tp2457
a(I95
I60
tp2458
a(I1456
I43
tp2459
a(I1830
I43
tp2460
a(I855
I43
tp2461
a(I1213
I43
tp2462
a(I867
I60
tp2463
a(I2153
I60
tp2464
a(I246
I43
tp2465
a(I51
I43
tp2466
a(I2105
I60
tp2467
a(I1599
I60
tp2468
a(I644
I60
tp2469
a(I1107
I60
tp2470
a(I497
I60
tp2471
a(I5
I43
tp2472
a(I1705
I60
tp2473
a(I1616
I60
tp2474
a(I1229
I60
tp2475
a(I2089
I43
tp2476
a(I737
I60
tp2477
a(I1750
I43
tp2478
a(I2256
I60
tp2479
a(I1555
I43
tp2480
a(I363
I43
tp2481
a(I1765
I43
tp2482
a(I38
I60
tp2483
a(I168
I43
tp2484
a(I721
I43
tp2485
a(I2260
I43
tp2486
a(I542
I43
tp2487
a(I537
I43
tp2488
a(I2211
I60
tp2489
a(I2034
I60
tp2490
a(I949
I43
tp2491
a(I71
I60
tp2492
a(I1302
I60
tp2493
a(I602
I60
tp2494
a(I2244
I60
tp2495
a(I892
I43
tp2496
a(I1672
I43
tp2497
a(I133
I43
tp2498
a(I1250
I43
tp2499
a(I367
I60
tp2500
a(I1071
I43
tp2501
a(I2081
I60
tp2502
a(I1575
I60
tp2503
a(I88
I43
tp2504
a(I876
I60
tp2505
a(I1083
I60
tp2506
a(I473
I60
tp2507
a(I237
I43
tp2508
a(I1486
I43
tp2509
a(I441
I43
tp2510
a(I1594
I43
tp2511
a(I2114
I60
tp2512
a(I1205
I60
tp2513
a(I2065
I43
tp2514
a(I624
I60
tp2515
a(I2142
I43
tp2516
a(I916
I60
tp2517
a(I1787
I43
tp2518
a(I1383
I43
tp2519
a(I1592
I43
tp2520
a(I746
I60
tp2521
a(I1188
I43
tp2522
a(I1741
I43
tp2523
a(I14
I60
tp2524
a(I144
I43
tp2525
a(I2236
I43
tp2526
a(I518
I43
tp2527
a(I579
I43
tp2528
a(I925
I43
tp2529
a(I1961
I43
tp2530
a(I986
I43
tp2531
a(I1380
I43
tp2532
a(I1824
I60
tp2533
a(I1774
I60
tp2534
a(I1904
I43
tp2535
a(I865
I60
tp2536
a(I343
I60
tp2537
a(I1047
I43
tp2538
a(I1108
I43
tp2539
a(I1661
I43
tp2540
a(I941
I60
tp2541
a(I473
I43
tp2542
a(I1059
I60
tp2543
a(I449
I60
tp2544
a(I360
I60
tp2545
a(I1462
I43
tp2546
a(I417
I43
tp2547
a(I1523
I43
tp2548
a(I1666
I60
tp2549
a(I494
I43
tp2550
a(I95
I43
tp2551
a(I600
I60
tp2552
a(I2118
I43
tp2553
a(I213
I60
tp2554
a(I124
I60
tp2555
a(I722
I60
tp2556
a(I1164
I43
tp2557
a(I246
I60
tp2558
a(I1778
I43
tp2559
a(I2226
I60
tp2560
a(I1599
I43
tp2561
a(I555
I43
tp2562
a(I616
I43
tp2563
a(I1937
I43
tp2564
a(I962
I43
tp2565
a(I1018
I60
tp2566
a(I1946
I60
tp2567
a(I1626
I43
tp2568
a(I969
I43
tp2569
a(I1750
I60
tp2570
a(I795
I60
tp2571
a(I491
I43
tp2572
a(I319
I60
tp2573
a(I1084
I43
tp2574
a(I1783
I60
tp2575
a(I2040
I60
tp2576
a(I13
I60
tp2577
a(I425
I60
tp2578
a(I336
I60
tp2579
a(I559
I60
tp2580
a(I948
I60
tp2581
a(I825
I60
tp2582
a(I470
I43
tp2583
a(I71
I43
tp2584
a(I1157
I60
tp2585
a(I736
I60
tp2586
a(I900
I43
tp2587
a(I576
I60
tp2588
a(I1678
I43
tp2589
a(I189
I60
tp2590
a(I100
I60
tp2591
a(I2155
I43
tp2592
a(I485
I43
tp2593
a(I1653
I60
tp2594
a(I1929
I60
tp2595
a(I1840
I60
tp2596
a(I222
I60
tp2597
a(I1575
I43
tp2598
a(I1962
I60
tp2599
a(I1636
I43
tp2600
a(I1486
I60
tp2601
a(I1015
I43
tp2602
a(I392
I43
tp2603
a(I945
I43
tp2604
a(I1795
I43
tp2605
a(I1373
I43
tp2606
a(I2159
I60
tp2607
a(I1726
I60
tp2608
a(I771
I60
tp2609
a(I149
I43
tp2610
a(I295
I60
tp2611
a(I1773
I43
tp2612
a(I1759
I60
tp2613
a(I2233
I43
tp2614
a(I1267
I60
tp2615
a(I940
I43
tp2616
a(I401
I60
tp2617
a(I535
I60
tp2618
a(I858
I60
tp2619
a(I1977
I43
tp2620
a(I507
I43
tp2621
a(I108
I43
tp2622
a(I552
I60
tp2623
a(I1910
I43
tp2624
a(I165
I60
tp2625
a(I76
I60
tp2626
a(I229
I60
tp2627
a(I461
I43
tp2628
a(I1629
I60
tp2629
a(I266
I43
tp2630
a(I1137
I60
tp2631
a(I1669
I43
tp2632
a(I198
I60
tp2633
a(I549
I43
tp2634
a(I1938
I60
tp2635
a(I1612
I43
tp2636
a(I1462
I60
tp2637
a(I970
I60
tp2638
a(I2066
I60
tp2639
a(I494
I60
tp2640
a(I2027
I43
tp2641
a(I1832
I43
tp2642
a(I803
I43
tp2643
a(I381
I43
tp2644
a(I1231
I43
tp2645
a(I1161
I43
tp2646
a(I186
I43
tp2647
a(I2241
I60
tp2648
a(I1589
I43
tp2649
a(I1735
I60
tp2650
a(I2160
I60
tp2651
a(I1243
I60
tp2652
a(I1304
I43
tp2653
a(I767
I60
tp2654
a(I1068
I60
tp2655
a(I109
I60
tp2656
a(I873
I60
tp2657
a(I528
I60
tp2658
a(I2031
I60
tp2659
a(I141
I60
tp2660
a(I52
I60
tp2661
a(I1691
I43
tp2662
a(I1658
I43
tp2663
a(I1605
I60
tp2664
a(I1453
I43
tp2665
a(I498
I43
tp2666
a(I723
I43
tp2667
a(I1901
I43
tp2668
a(I319
I43
tp2669
a(I637
I60
tp2670
a(I1081
I43
tp2671
a(I1706
I43
tp2672
a(I677
I43
tp2673
a(I1378
I43
tp2674
a(I1438
I60
tp2675
a(I889
I43
tp2676
a(I946
I60
tp2677
a(I470
I60
tp2678
a(I2111
I60
tp2679
a(I1678
I60
tp2680
a(I1808
I43
tp2681
a(I503
I60
tp2682
a(I1207
I43
tp2683
a(I162
I43
tp2684
a(I1268
I43
tp2685
a(I1459
I43
tp2686
a(I1214
I43
tp2687
a(I239
I43
tp2688
a(I1219
I60
tp2689
a(I597
I43
tp2690
a(I743
I60
tp2691
a(I398
I43
tp2692
a(I373
I60
tp2693
a(I1581
I60
tp2694
a(I699
I43
tp2695
a(I2024
I60
tp2696
a(I295
I43
tp2697
a(I613
I60
tp2698
a(I216
I43
tp2699
a(I356
I43
tp2700
a(I1058
I60
tp2701
a(I1134
I43
tp2702
a(I1759
I43
tp2703
a(I2160
I43
tp2704
a(I1788
I60
tp2705
a(I922
I60
tp2706
a(I446
I60
tp2707
a(I2087
I60
tp2708
a(I1910
I60
tp2709
a(I2158
I43
tp2710
a(I1162
I60
tp2711
a(I1267
I43
tp2712
a(I1244
I43
tp2713
a(I1190
I43
tp2714
a(I215
I43
tp2715
a(I1195
I60
tp2716
a(I1251
I43
tp2717
a(I20
I43
tp2718
a(I573
I43
tp2719
a(I1609
I43
tp2720
a(I634
I43
tp2721
a(I2104
I43
tp2722
a(I435
I43
tp2723
a(I2253
I43
tp2724
a(I349
I60
tp2725
a(I793
I43
tp2726
a(I1491
I60
tp2727
a(I389
I43
tp2728
a(I1613
I60
tp2729
a(I1065
I60
tp2730
a(I736
I43
tp2731
a(I97
I60
tp2732
a(I1110
I43
tp2733
a(I1735
I43
tp2734
a(I1939
I43
tp2735
a(I1540
I43
tp2736
a(I767
I43
tp2737
a(I1764
I60
tp2738
a(I898
I60
tp2739
a(I1272
I60
tp2740
a(I422
I60
tp2741
a(I1957
I60
tp2742
a(I81
I43
tp2743
a(I1274
I60
tp2744
a(I926
I43
tp2745
a(I1886
I60
tp2746
a(I964
I60
tp2747
a(I309
I43
tp2748
a(I455
I60
tp2749
a(I1932
I43
tp2750
a(I1227
I43
tp2751
a(I695
I60
tp2752
a(I1655
I43
tp2753
a(I1032
I43
tp2754
a(I472
I60
tp2755
a(I203
I60
tp2756
a(I1662
I43
tp2757
a(I1455
I43
tp2758
a(I2080
I43
tp2759
a(I411
I43
tp2760
a(I1813
I43
tp2761
a(I1959
I60
tp2762
a(I472
I43
tp2763
a(I236
I60
tp2764
a(I1467
I60
tp2765
a(I2111
I43
tp2766
a(I426
I43
tp2767
a(I1041
I60
tp2768
a(I565
I60
tp2769
a(I73
I60
tp2770
a(I1008
I60
tp2771
a(I276
I60
tp2772
a(I1147
I43
tp2773
a(I1772
I43
tp2774
a(I743
I43
tp2775
a(I1829
I60
tp2776
a(I1740
I60
tp2777
a(I1720
I43
tp2778
a(I548
I43
tp2779
a(I1101
I43
tp2780
a(I398
I60
tp2781
a(I1930
I43
tp2782
a(I902
I43
tp2783
a(I963
I43
tp2784
a(I285
I43
tp2785
a(I894
I60
tp2786
a(I1321
I43
tp2787
a(I346
I43
tp2788
a(I1316
I43
tp2789
a(I1610
I60
tp2790
a(I1134
I60
tp2791
a(I1264
I43
tp2792
a(I179
I60
tp2793
a(I1638
I43
tp2794
a(I2165
I60
tp2795
a(I1643
I60
tp2796
a(I1492
I43
tp2797
a(I1935
I60
tp2798
a(I448
I43
tp2799
a(I822
I43
tp2800
a(I2087
I43
tp2801
a(I432
I60
tp2802
a(I402
I43
tp2803
a(I883
I43
tp2804
a(I2148
I43
tp2805
a(I541
I60
tp2806
a(I1241
I43
tp2807
a(I49
I60
tp2808
a(I984
I60
tp2809
a(I508
I60
tp2810
a(I2238
I60
tp2811
a(I1952
I43
tp2812
a(I1716
I60
tp2813
a(I82
I60
tp2814
a(I524
I43
tp2815
a(I1138
I43
tp2816
a(I939
I43
tp2817
a(I870
I60
tp2818
a(I929
I43
tp2819
a(I1297
I43
tp2820
a(I322
I43
tp2821
a(I378
I60
tp2822
a(I1114
I60
tp2823
a(I1374
I43
tp2824
a(I143
I43
tp2825
a(I329
I43
tp2826
a(I757
I43
tp2827
a(I647
I60
tp2828
a(I1110
I60
tp2829
a(I155
I60
tp2830
a(I2227
I43
tp2831
a(I1953
I43
tp2832
a(I1468
I43
tp2833
a(I2181
I43
tp2834
a(I1143
I60
tp2835
a(I1976
I60
tp2836
a(I1826
I43
tp2837
a(I205
I60
tp2838
a(I943
I60
tp2839
a(I1903
I43
tp2840
a(I859
I43
tp2841
a(I2124
I43
tp2842
a(I455
I43
tp2843
a(I664
I43
tp2844
a(I525
I43
tp2845
a(I25
I60
tp2846
a(I960
I60
tp2847
a(I1038
I43
tp2848
a(I249
I43
tp2849
a(I874
I43
tp2850
a(I2214
I60
tp2851
a(I2037
I60
tp2852
a(I1692
I60
tp2853
a(I1200
I60
tp2854
a(I1666
I43
tp2855
a(I724
I60
tp2856
a(I2101
I43
tp2857
a(I2247
I60
tp2858
a(I1959
I43
tp2859
a(I2254
I60
tp2860
a(I1785
I60
tp2861
a(I976
I43
tp2862
a(I354
I60
tp2863
a(I375
I43
tp2864
a(I305
I43
tp2865
a(I1155
I43
tp2866
a(I180
I43
tp2867
a(I733
I43
tp2868
a(I382
I43
tp2869
a(I1769
I43
tp2870
a(I131
I60
tp2871
a(I1945
I60
tp2872
a(I2117
I60
tp2873
a(I1119
I60
tp2874
a(I627
I60
tp2875
a(I641
I60
tp2876
a(I919
I60
tp2877
a(I1634
I43
tp2878
a(I749
I60
tp2879
a(I1380
I60
tp2880
a(I492
I43
tp2881
a(I936
I60
tp2882
a(I1270
I43
tp2883
a(I460
I60
tp2884
a(I312
I43
tp2885
a(I46
I43
tp2886
a(I865
I43
tp2887
a(I1521
I60
tp2888
a(I1176
I60
tp2889
a(I789
I60
tp2890
a(I700
I60
tp2891
a(I1715
I43
tp2892
a(I1298
I60
tp2893
a(I1761
I60
tp2894
a(I822
I60
tp2895
a(I330
I60
tp2896
a(I2258
I60
tp2897
a(I1387
I43
tp2898
a(I156
I43
tp2899
a(I358
I43
tp2900
a(I1062
I60
tp2901
a(I1745
I43
tp2902
a(I363
I60
tp2903
a(I570
I60
tp2904
a(I1566
I43
tp2905
a(I2093
I60
tp2906
a(I521
I43
tp2907
a(I1973
I43
tp2908
a(I1760
I43
tp2909
a(I603
I60
tp2910
a(I127
I60
tp2911
a(I1260
I60
tp2912
a(I403
I60
tp2913
a(I1916
I43
tp2914
a(I1816
I60
tp2915
a(I45
I60
tp2916
a(I233
I60
tp2917
a(I912
I60
tp2918
a(I436
I60
tp2919
a(I1051
I43
tp2920
a(I22
I43
tp2921
a(I647
I43
tp2922
a(I1900
I60
tp2923
a(I83
I43
tp2924
a(I1152
I60
tp2925
a(I1021
I60
tp2926
a(I1465
I43
tp2927
a(I1066
I43
tp2928
a(I184
I60
tp2929
a(I1314
I43
tp2930
a(I2114
I43
tp2931
a(I1737
I60
tp2932
a(I1648
I60
tp2933
a(I36
I60
tp2934
a(I1038
I60
tp2935
a(I1168
I43
tp2936
a(I139
I43
tp2937
a(I1542
I43
tp2938
a(I200
I43
tp2939
a(I753
I43
tp2940
a(I1603
I43
tp2941
a(I628
I43
tp2942
a(I1949
I43
tp2943
a(I574
I43
tp2944
a(I579
I60
tp2945
a(I981
I43
tp2946
a(I2247
I43
tp2947
a(I2052
I43
tp2948
a(I1843
I60
tp2949
a(I209
I60
tp2950
a(I412
I60
tp2951
a(I1965
I60
tp2952
a(I1220
I60
tp2953
a(I59
I43
tp2954
a(I684
I43
tp2955
a(I1384
I60
tp2956
a(I120
I43
tp2957
a(I1441
I43
tp2958
a(I1042
I43
tp2959
a(I152
I43
tp2960
a(I13
I43
tp2961
a(I1518
I43
tp2962
a(I1119
I43
tp2963
a(I940
I60
tp2964
a(I74
I43
tp2965
a(I2146
I60
tp2966
a(I1713
I60
tp2967
a(I1624
I60
tp2968
a(I774
I60
tp2969
a(I1237
I60
tp2970
a(I1148
I60
tp2971
a(I282
I60
tp2972
a(I2174
I43
tp2973
a(I489
I43
tp2974
a(I1746
I60
tp2975
a(I1270
I60
tp2976
a(I46
I60
tp2977
a(I176
I43
tp2978
a(I1579
I43
tp2979
a(I604
I43
tp2980
a(I550
I43
tp2981
a(I1640
I43
tp2982
a(I555
I60
tp2983
a(I2042
I60
tp2984
a(I404
I43
tp2985
a(I957
I43
tp2986
a(I79
I60
tp2987
a(I1807
I43
tp2988
a(I1018
I43
tp2989
a(I2252
I60
tp2990
a(I1819
I60
tp2991
a(I388
I60
tp2992
a(I851
I60
tp2993
a(I1696
I43
tp2994
a(I1449
I60
tp2995
a(I1583
I60
tp2996
a(I96
I43
tp2997
a(I884
I60
tp2998
a(I136
I60
tp2999
a(I1494
I43
tp3000
a(I50
I43
tp3001
a(I1299
I43
tp3002
a(I1689
I60
tp3003
a(I1600
I60
tp3004
a(I127
I43
tp3005
a(I1213
I60
tp3006
a(I1124
I60
tp3007
a(I632
I60
tp3008
a(I2150
I43
tp3009
a(I465
I43
tp3010
a(I2155
I60
tp3011
a(I1210
I60
tp3012
a(I1246
I60
tp3013
a(I374
I60
tp3014
a(I22
I60
tp3015
a(I1616
I43
tp3016
a(I2195
I60
tp3017
a(I587
I43
tp3018
a(I2039
I43
tp3019
a(I261
I43
tp3020
a(I1844
I43
tp3021
a(I2228
I60
tp3022
a(I1795
I60
tp3023
a(I1319
I60
tp3024
a(I129
I43
tp3025
a(I89
I43
tp3026
a(I1559
I60
tp3027
a(I949
I60
tp3028
a(I860
I60
tp3029
a(I457
I60
tp3030
a(I368
I60
tp3031
a(I2098
I60
tp3032
a(I1132
I43
tp3033
a(I1576
I60
tp3034
a(I965
I60
tp3035
a(I1189
I60
tp3036
a(I1889
I43
tp3037
a(I490
I60
tp3038
a(I697
I60
tp3039
a(I608
I60
tp3040
a(I1710
I43
tp3041
a(I2095
I60
tp3042
a(I1290
I43
tp3043
a(I262
I43
tp3044
a(I1222
I60
tp3045
a(I325
I60
tp3046
a(I31
I60
tp3047
a(I1518
I60
tp3048
a(I624
I43
tp3049
a(I1820
I43
tp3050
a(I2022
I43
tp3051
a(I791
I43
tp3052
a(I2204
I60
tp3053
a(I2027
I60
tp3054
a(I1827
I43
tp3055
a(I852
I43
tp3056
a(I1295
I60
tp3057
a(I2199
I60
tp3058
a(I803
I60
tp3059
a(I182
I43
tp3060
a(I1016
I60
tp3061
a(I243
I43
tp3062
a(I1791
I60
tp3063
a(I925
I60
tp3064
a(I601
I43
tp3065
a(I1043
I60
tp3066
a(I433
I60
tp3067
a(I197
I43
tp3068
a(I1793
I43
tp3069
a(I1897
I60
tp3070
a(I868
I43
tp3071
a(I1312
I43
tp3072
a(I1076
I60
tp3073
a(I466
I60
tp3074
a(I908
I43
tp3075
a(I584
I60
tp3076
a(I1522
I43
tp3077
a(I1747
I43
tp3078
a(I1661
I60
tp3079
a(I2158
I60
tp3080
a(I230
I60
tp3081
a(I360
I43
tp3082
a(I1050
I60
tp3083
a(I734
I43
tp3084
a(I1970
I60
tp3085
a(I117
I43
tp3086
a(I7
I60
tp3087
a(I1494
I60
tp3088
a(I2180
I60
tp3089
a(I1803
I43
tp3090
a(I828
I43
tp3091
a(I897
I43
tp3092
a(I1527
I60
tp3093
a(I303
I60
tp3094
a(I1263
I43
tp3095
a(I219
I43
tp3096
a(I1621
I43
tp3097
a(I1767
I60
tp3098
a(I24
I43
tp3099
a(I577
I43
tp3100
a(I1275
I60
tp3101
a(I409
I60
tp3102
a(I320
I60
tp3103
a(I234
I43
tp3104
a(I2257
I43
tp3105
a(I649
I60
tp3106
a(I560
I60
tp3107
a(I2078
I43
tp3108
a(I84
I60
tp3109
a(I1723
I43
tp3110
a(I1319
I43
tp3111
a(I1637
I60
tp3112
a(I1145
I60
tp3113
a(I1677
I43
tp3114
a(I336
I43
tp3115
a(I1738
I43
tp3116
a(I1472
I43
tp3117
a(I93
I43
tp3118
a(I1470
I60
tp3119
a(I1129
I43
tp3120
a(I922
I43
tp3121
a(I1503
I60
tp3122
a(I1710
I60
tp3123
a(I1840
I43
tp3124
a(I1011
I60
tp3125
a(I279
I60
tp3126
a(I1239
I43
tp3127
a(I1044
I43
tp3128
a(I1597
I43
tp3129
a(I1743
I60
tp3130
a(I2102
I60
tp3131
a(I0
I43
tp3132
a(I1316
I60
tp3133
a(I1251
I60
tp3134
a(I385
I60
tp3135
a(I296
I60
tp3136
a(I630
I43
tp3137
a(I210
I43
tp3138
a(I357
I60
tp3139
a(I430
I43
tp3140
a(I31
I43
tp3141
a(I1373
I60
tp3142
a(I1817
I43
tp3143
a(I881
I60
tp3144
a(I536
I60
tp3145
a(I2054
I43
tp3146
a(I149
I60
tp3147
a(I2115
I43
tp3148
a(I1907
I43
tp3149
a(I953
I60
tp3150
a(I1121
I60
tp3151
a(I182
I60
tp3152
a(I1714
I43
tp3153
a(I1791
I43
tp3154
a(I747
I43
tp3155
a(I1446
I60
tp3156
a(I552
I43
tp3157
a(I1105
I43
tp3158
a(I898
I43
tp3159
a(I954
I60
tp3160
a(I1950
I43
tp3161
a(I975
I43
tp3162
a(I905
I43
tp3163
a(I1479
I60
tp3164
a(I1725
I43
tp3165
a(I511
I60
tp3166
a(I1276
I43
tp3167
a(I1719
I60
tp3168
a(I1227
I60
tp3169
a(I237
I60
tp3170
a(I1226
I60
tp3171
a(I751
I60
tp3172
a(I793
I60
tp3173
a(I406
I43
tp3174
a(I7
I43
tp3175
a(I704
I60
tp3176
a(I467
I43
tp3177
a(I857
I60
tp3178
a(I621
I43
tp3179
a(I381
I60
tp3180
a(I825
I43
tp3181
a(I1450
I43
tp3182
a(I2091
I43
tp3183
a(I421
I43
tp3184
a(I1589
I60
tp3185
a(I1097
I60
tp3186
a(I2032
I60
tp3187
a(I158
I60
tp3188
a(I1300
I60
tp3189
a(I1767
I43
tp3190
a(I1130
I60
tp3191
a(I528
I43
tp3192
a(I930
I60
tp3193
a(I1926
I43
tp3194
a(I951
I43
tp3195
a(I113
I43
tp3196
a(I65
I43
tp3197
a(I1012
I43
tp3198
a(I1309
I43
tp3199
a(I958
I43
tp3200
a(I1918
I60
tp3201
a(I963
I60
tp3202
a(I341
I43
tp3203
a(I2088
I43
tp3204
a(I2201
I60
tp3205
a(I1695
I60
tp3206
a(I1203
I60
tp3207
a(I727
I60
tp3208
a(I1325
I60
tp3209
a(I1945
I43
tp3210
a(I443
I43
tp3211
a(I44
I43
tp3212
a(I744
I60
tp3213
a(I504
I43
tp3214
a(I12
I60
tp3215
a(I197
I60
tp3216
a(I397
I43
tp3217
a(I878
I43
tp3218
a(I1503
I43
tp3219
a(I1565
I60
tp3220
a(I108
I60
tp3221
a(I458
I43
tp3222
a(I1073
I60
tp3223
a(I134
I60
tp3224
a(I597
I60
tp3225
a(I1492
I60
tp3226
a(I1106
I60
tp3227
a(I1548
I43
tp3228
a(I630
I60
tp3229
a(I906
I60
tp3230
asS'runtime'
p3231
F0.2851691246032715
sS'name'
p3232
S'["fd_checker", [["health_info", "application_business_owner"]]]'
p3233
s.