(dp0
S'output'
p1
(lp2
(I1584
I11
tp3
a(I326
I10
tp4
a(I1584
I10
tp5
a(I1716
I10
tp6
a(I326
I11
tp7
a(I1730
I11
tp8
a(I1713
I11
tp9
a(I401
I11
tp10
a(I2
I11
tp11
a(I1716
I11
tp12
a(I2
I10
tp13
a(I401
I10
tp14
a(I1713
I10
tp15
a(I1730
I10
tp16
a(I1709
I10
tp17
a(I1709
I11
tp18
asS'runtime'
p19
F0.32253217697143555
sS'name'
p20
S'["fd_checker", [["app_nm", "status"]]]'
p21
s.