(dp0
S'output'
p1
(lp2
(I726
I52
tp3
a(I1981
I7
tp4
a(I1981
I52
tp5
a(I946
I7
tp6
a(I946
I52
tp7
a(I727
I52
tp8
a(I1628
I52
tp9
a(I726
I7
tp10
a(I1628
I7
tp11
a(I727
I7
tp12
asS'runtime'
p13
F0.3055741786956787
sS'name'
p14
S'["fd_checker", [["name", "description"]]]'
p15
s.