(dp0
S'output'
p1
(lp2
(I727
I4
tp3
a(I1628
I4
tp4
a(I1981
I4
tp5
a(I946
I4
tp6
a(I946
I7
tp7
a(I726
I4
tp8
a(I1981
I7
tp9
a(I726
I7
tp10
a(I1628
I7
tp11
a(I727
I7
tp12
asS'runtime'
p13
F0.30323100090026855
sS'name'
p14
S'["fd_checker", [["name", "ci_id"]]]'
p15
s.