(dp0
S'output'
p1
(lp2
(I56
I51
tp3
a(I994
I50
tp4
a(I64
I51
tp5
a(I793
I51
tp6
a(I1747
I50
tp7
a(I1347
I50
tp8
a(I417
I51
tp9
a(I675
I51
tp10
a(I1551
I50
tp11
a(I1328
I51
tp12
a(I1498
I51
tp13
a(I683
I51
tp14
a(I1329
I50
tp15
a(I505
I51
tp16
a(I1388
I51
tp17
a(I1003
I51
tp18
a(I1569
I50
tp19
a(I1389
I50
tp20
a(I2018
I50
tp21
a(I308
I50
tp22
a(I1980
I50
tp23
a(I753
I51
tp24
a(I1103
I50
tp25
a(I1455
I51
tp26
a(I267
I50
tp27
a(I592
I50
tp28
a(I1848
I50
tp29
a(I1849
I51
tp30
a(I684
I51
tp31
a(I2115
I51
tp32
a(I1941
I50
tp33
a(I1948
I51
tp34
a(I258
I51
tp35
a(I421
I50
tp36
a(I636
I51
tp37
a(I1015
I51
tp38
a(I637
I50
tp39
a(I586
I51
tp40
a(I638
I51
tp41
a(I1850
I51
tp42
a(I421
I51
tp43
a(I1281
I50
tp44
a(I50
I51
tp45
a(I429
I51
tp46
a(I660
I50
tp47
a(I1333
I50
tp48
a(I661
I51
tp49
a(I1215
I50
tp50
a(I992
I51
tp51
a(I1366
I51
tp52
a(I1933
I51
tp53
a(I670
I50
tp54
a(I587
I51
tp55
a(I639
I51
tp56
a(I679
I50
tp57
a(I2021
I51
tp58
a(I424
I51
tp59
a(I425
I50
tp60
a(I307
I50
tp61
a(I665
I50
tp62
a(I1860
I50
tp63
a(I1979
I50
tp64
a(I1861
I51
tp65
a(I630
I50
tp66
a(I1520
I50
tp67
a(I1811
I50
tp68
a(I1871
I50
tp69
a(I1999
I51
tp70
a(I1353
I51
tp71
a(I2229
I50
tp72
a(I1360
I50
tp73
a(I1564
I50
tp74
a(I1361
I51
tp75
a(I157
I51
tp76
a(I214
I51
tp77
a(I423
I51
tp78
a(I1810
I51
tp79
a(I1566
I50
tp80
a(I1276
I50
tp81
a(I1363
I50
tp82
a(I1284
I51
tp83
a(I1277
I51
tp84
a(I1108
I50
tp85
a(I1278
I50
tp86
a(I1762
I51
tp87
a(I1561
I50
tp88
a(I708
I50
tp89
a(I1184
I51
tp90
a(I1921
I51
tp91
a(I1118
I50
tp92
a(I659
I50
tp93
a(I836
I51
tp94
a(I667
I50
tp95
a(I1863
I51
tp96
a(I55
I51
tp97
a(I1846
I50
tp98
a(I1882
I50
tp99
a(I568
I51
tp100
a(I1922
I51
tp101
a(I1506
I50
tp102
a(I1772
I50
tp103
a(I542
I51
tp104
a(I988
I50
tp105
a(I1016
I50
tp106
a(I1518
I51
tp107
a(I1356
I51
tp108
a(I1526
I51
tp109
a(I276
I50
tp110
a(I1104
I50
tp111
a(I745
I51
tp112
a(I642
I50
tp113
a(I1358
I51
tp114
a(I686
I50
tp115
a(I839
I50
tp116
a(I579
I51
tp117
a(I671
I50
tp118
a(I1115
I50
tp119
a(I652
I51
tp120
a(I653
I50
tp121
a(I740
I51
tp122
a(I2124
I50
tp123
a(I1106
I51
tp124
a(I1512
I50
tp125
a(I1792
I51
tp126
a(I2126
I50
tp127
a(I581
I50
tp128
a(I1172
I50
tp129
a(I1173
I51
tp130
a(I823
I51
tp131
a(I1350
I50
tp132
a(I1216
I50
tp133
a(I2128
I51
tp134
a(I1914
I51
tp135
a(I2129
I50
tp136
a(I1337
I50
tp137
a(I1344
I51
tp138
a(I485
I51
tp139
a(I673
I51
tp140
a(I272
I50
tp141
a(I1279
I50
tp142
a(I155
I51
tp143
a(I682
I50
tp144
a(I1142
I50
tp145
a(I1022
I51
tp146
a(I1946
I50
tp147
a(I452
I51
tp148
a(I640
I51
tp149
a(I224
I50
tp150
a(I2194
I50
tp151
a(I1865
I51
tp152
a(I634
I50
tp153
a(I728
I51
tp154
a(I674
I51
tp155
a(I56
I50
tp156
a(I64
I50
tp157
a(I1347
I51
tp158
a(I2196
I51
tp159
a(I1551
I51
tp160
a(I762
I51
tp161
a(I1328
I50
tp162
a(I156
I51
tp163
a(I1498
I50
tp164
a(I1329
I51
tp165
a(I514
I51
tp166
a(I1439
I50
tp167
a(I2240
I51
tp168
a(I1388
I50
tp169
a(I1569
I51
tp170
a(I1389
I51
tp171
a(I1013
I50
tp172
a(I1866
I51
tp173
a(I1391
I50
tp174
a(I1103
I51
tp175
a(I267
I51
tp176
a(I1399
I50
tp177
a(I1171
I50
tp178
a(I1757
I50
tp179
a(I1348
I51
tp180
a(I684
I50
tp181
a(I1330
I51
tp182
a(I1758
I51
tp183
a(I2018
I51
tp184
a(I1003
I50
tp185
a(I1941
I51
tp186
a(I1948
I50
tp187
a(I258
I50
tp188
a(I483
I50
tp189
a(I1170
I51
tp190
a(I636
I50
tp191
a(I723
I50
tp192
a(I644
I51
tp193
a(I637
I51
tp194
a(I268
I51
tp195
a(I586
I50
tp196
a(I681
I50
tp197
a(I638
I50
tp198
a(I1141
I50
tp199
a(I1850
I50
tp200
a(I545
I50
tp201
a(I1281
I51
tp202
a(I50
I50
tp203
a(I1835
I50
tp204
a(I1333
I51
tp205
a(I1215
I51
tp206
a(I992
I50
tp207
a(I1366
I50
tp208
a(I1747
I51
tp209
a(I1442
I51
tp210
a(I679
I51
tp211
a(I424
I50
tp212
a(I425
I51
tp213
a(I1745
I50
tp214
a(I1282
I51
tp215
a(I307
I51
tp216
a(I665
I51
tp217
a(I1979
I51
tp218
a(I1012
I51
tp219
a(I843
I50
tp220
a(I1370
I51
tp221
a(I994
I51
tp222
a(I1811
I51
tp223
a(I793
I50
tp224
a(I417
I50
tp225
a(I675
I50
tp226
a(I1871
I51
tp227
a(I683
I50
tp228
a(I2229
I51
tp229
a(I505
I50
tp230
a(I214
I50
tp231
a(I308
I51
tp232
a(I1810
I50
tp233
a(I778
I50
tp234
a(I1980
I51
tp235
a(I753
I50
tp236
a(I1363
I51
tp237
a(I1284
I50
tp238
a(I1455
I50
tp239
a(I592
I51
tp240
a(I1848
I51
tp241
a(I1999
I50
tp242
a(I1762
I50
tp243
a(I1849
I50
tp244
a(I1561
I51
tp245
a(I1184
I50
tp246
a(I2115
I50
tp247
a(I157
I50
tp248
a(I659
I51
tp249
a(I836
I50
tp250
a(I667
I51
tp251
a(I1015
I50
tp252
a(I568
I50
tp253
a(I1922
I50
tp254
a(I778
I51
tp255
a(I429
I50
tp256
a(I660
I51
tp257
a(I542
I50
tp258
a(I661
I50
tp259
a(I1933
I50
tp260
a(I670
I51
tp261
a(I587
I50
tp262
a(I639
I50
tp263
a(I1518
I50
tp264
a(I2021
I50
tp265
a(I1356
I50
tp266
a(I1526
I50
tp267
a(I1860
I51
tp268
a(I1358
I50
tp269
a(I1861
I50
tp270
a(I630
I51
tp271
a(I839
I51
tp272
a(I1520
I51
tp273
a(I671
I51
tp274
a(I1115
I51
tp275
a(I652
I50
tp276
a(I653
I51
tp277
a(I1353
I50
tp278
a(I1360
I51
tp279
a(I1564
I51
tp280
a(I1361
I50
tp281
a(I740
I50
tp282
a(I423
I50
tp283
a(I745
I50
tp284
a(I1106
I50
tp285
a(I1566
I51
tp286
a(I1276
I51
tp287
a(I1277
I50
tp288
a(I512
I50
tp289
a(I1792
I50
tp290
a(I581
I51
tp291
a(I1108
I51
tp292
a(I1278
I51
tp293
a(I708
I51
tp294
a(I1921
I50
tp295
a(I1118
I51
tp296
a(I2128
I50
tp297
a(I1914
I50
tp298
a(I2129
I51
tp299
a(I1337
I51
tp300
a(I1344
I50
tp301
a(I1863
I50
tp302
a(I55
I50
tp303
a(I1279
I51
tp304
a(I1846
I51
tp305
a(I1022
I50
tp306
a(I1882
I51
tp307
a(I1506
I51
tp308
a(I452
I50
tp309
a(I640
I50
tp310
a(I1772
I51
tp311
a(I512
I51
tp312
a(I988
I51
tp313
a(I1016
I51
tp314
a(I728
I50
tp315
a(I674
I50
tp316
a(I2196
I50
tp317
a(I762
I50
tp318
a(I156
I50
tp319
a(I514
I50
tp320
a(I1439
I51
tp321
a(I2240
I50
tp322
a(I276
I51
tp323
a(I1104
I51
tp324
a(I642
I51
tp325
a(I686
I51
tp326
a(I1866
I50
tp327
a(I579
I50
tp328
a(I1391
I51
tp329
a(I1399
I51
tp330
a(I1171
I51
tp331
a(I1757
I51
tp332
a(I1348
I50
tp333
a(I1330
I50
tp334
a(I1758
I50
tp335
a(I2124
I51
tp336
a(I1512
I51
tp337
a(I483
I51
tp338
a(I1170
I50
tp339
a(I723
I51
tp340
a(I2126
I51
tp341
a(I644
I50
tp342
a(I268
I50
tp343
a(I1172
I51
tp344
a(I681
I51
tp345
a(I1173
I50
tp346
a(I823
I50
tp347
a(I1141
I51
tp348
a(I1350
I51
tp349
a(I1216
I51
tp350
a(I545
I51
tp351
a(I1835
I51
tp352
a(I485
I50
tp353
a(I673
I50
tp354
a(I272
I51
tp355
a(I1442
I50
tp356
a(I155
I50
tp357
a(I682
I51
tp358
a(I1142
I51
tp359
a(I1946
I51
tp360
a(I1745
I51
tp361
a(I1282
I50
tp362
a(I224
I51
tp363
a(I2194
I51
tp364
a(I1865
I50
tp365
a(I1012
I50
tp366
a(I1013
I51
tp367
a(I634
I51
tp368
a(I843
I51
tp369
a(I1370
I50
tp370
asS'runtime'
p371
F0.300548791885376
sS'name'
p372
S'["fd_checker", [["total_cases", "chg"]]]'
p373
s.