(dp0
S'output'
p1
(lp2
(I730
I24
tp3
a(I1480
I24
tp4
a(I399
I24
tp5
a(I1471
I7
tp6
a(I1622
I7
tp7
a(I1472
I24
tp8
a(I1472
I7
tp9
a(I1471
I24
tp10
a(I399
I7
tp11
a(I1480
I7
tp12
a(I730
I7
tp13
a(I1503
I24
tp14
a(I400
I24
tp15
a(I1622
I24
tp16
a(I400
I7
tp17
a(I1503
I7
tp18
asS'runtime'
p19
F0.3025510311126709
sS'name'
p20
S'["fd_checker", [["name", "impact"]]]'
p21
s.