(dp0
S'output'
p1
(lp2
(I730
I24
tp3
a(I1480
I24
tp4
a(I399
I24
tp5
a(I1622
I24
tp6
a(I400
I4
tp7
a(I1471
I4
tp8
a(I1472
I24
tp9
a(I1622
I4
tp10
a(I1503
I4
tp11
a(I1471
I24
tp12
a(I730
I4
tp13
a(I1472
I4
tp14
a(I399
I4
tp15
a(I1503
I24
tp16
a(I400
I24
tp17
a(I1480
I4
tp18
asS'runtime'
p19
F0.305466890335083
sS'name'
p20
S'["fd_checker", [["ci_id", "impact"]]]'
p21
s.