(dp0
S'output'
p1
(lp2
(I1390
I49
tp3
a(I729
I49
tp4
a(I424
I12
tp5
a(I1398
I49
tp6
a(I2007
I12
tp7
a(I990
I49
tp8
a(I588
I49
tp9
a(I663
I12
tp10
a(I156
I12
tp11
a(I587
I12
tp12
a(I2001
I49
tp13
a(I2128
I12
tp14
a(I157
I49
tp15
a(I1003
I49
tp16
a(I1217
I12
tp17
a(I726
I12
tp18
a(I1367
I49
tp19
a(I1849
I12
tp20
a(I1358
I12
tp21
a(I423
I49
tp22
a(I835
I49
tp23
a(I642
I49
tp24
a(I1392
I12
tp25
a(I990
I12
tp26
a(I686
I49
tp27
a(I483
I12
tp28
a(I663
I49
tp29
a(I583
I12
tp30
a(I1509
I49
tp31
a(I2213
I12
tp32
a(I2124
I12
tp33
a(I1284
I49
tp34
a(I1215
I12
tp35
a(I708
I12
tp36
a(I1289
I49
tp37
a(I730
I49
tp38
a(I629
I49
tp39
a(I1311
I12
tp40
a(I1338
I12
tp41
a(I1769
I12
tp42
a(I751
I49
tp43
a(I1278
I12
tp44
a(I2140
I12
tp45
a(I1349
I49
tp46
a(I2002
I49
tp47
a(I1056
I12
tp48
a(I1184
I49
tp49
a(I654
I12
tp50
a(I1004
I49
tp51
a(I2117
I49
tp52
a(I1798
I49
tp53
a(I1236
I49
tp54
a(I688
I12
tp55
a(I1133
I12
tp56
a(I1834
I49
tp57
a(I1334
I12
tp58
a(I836
I49
tp59
a(I251
I49
tp60
a(I841
I49
tp61
a(I1863
I49
tp62
a(I1397
I12
tp63
a(I2000
I12
tp64
a(I2126
I49
tp65
a(I995
I49
tp66
a(I2115
I12
tp67
a(I55
I49
tp68
a(I684
I12
tp69
a(I1115
I12
tp70
a(I269
I49
tp71
a(I1342
I49
tp72
a(I681
I49
tp73
a(I1745
I12
tp74
a(I823
I12
tp75
a(I1141
I49
tp76
a(I1350
I49
tp77
a(I747
I12
tp78
a(I1946
I12
tp79
a(I1455
I12
tp80
a(I1386
I49
tp81
a(I568
I49
tp82
a(I1010
I49
tp83
a(I576
I49
tp84
a(I1518
I12
tp85
a(I1011
I12
tp86
a(I1236
I12
tp87
a(I252
I49
tp88
a(I842
I49
tp89
a(I743
I12
tp90
a(I1869
I49
tp91
a(I2005
I12
tp92
a(I1498
I12
tp93
a(I1507
I49
tp94
a(I1005
I12
tp95
a(I651
I49
tp96
a(I675
I12
tp97
a(I1497
I49
tp98
a(I682
I49
tp99
a(I1142
I49
tp100
a(I306
I49
tp101
a(I1216
I12
tp102
a(I307
I12
tp103
a(I1922
I12
tp104
a(I1946
I49
tp105
a(I1848
I12
tp106
a(I1862
I12
tp107
a(I1745
I49
tp108
a(I1392
I49
tp109
a(I2150
I49
tp110
a(I747
I49
tp111
a(I2087
I12
tp112
a(I2003
I49
tp113
a(I987
I12
tp114
a(I2194
I49
tp115
a(I480
I12
tp116
a(I671
I12
tp117
a(I1165
I49
tp118
a(I669
I12
tp119
a(I2011
I49
tp120
a(I634
I49
tp121
a(I1013
I49
tp122
a(I2177
I49
tp123
a(I1014
I49
tp124
a(I227
I12
tp125
a(I793
I49
tp126
a(I1351
I12
tp127
a(I255
I49
tp128
a(I724
I12
tp129
a(I652
I49
tp130
a(I1498
I49
tp131
a(I1400
I12
tp132
a(I35
I49
tp133
a(I651
I12
tp134
a(I1519
I49
tp135
a(I688
I49
tp136
a(I589
I12
tp137
a(I1283
I12
tp138
a(I505
I49
tp139
a(I1281
I12
tp140
a(I1221
I12
tp141
a(I1132
I12
tp142
a(I257
I49
tp143
a(I748
I49
tp144
a(I1762
I12
tp145
a(I422
I12
tp146
a(I2004
I49
tp147
a(I753
I49
tp148
a(I1359
I49
tp149
a(I1006
I49
tp150
a(I1396
I12
tp151
a(I1571
I12
tp152
a(I1394
I12
tp153
a(I1569
I12
tp154
a(I485
I12
tp155
a(I1395
I49
tp156
a(I580
I49
tp157
a(I2017
I49
tp158
a(I64
I12
tp159
a(I1792
I49
tp160
a(I585
I49
tp161
a(I1813
I49
tp162
a(I1507
I12
tp163
a(I1141
I12
tp164
a(I593
I49
tp165
a(I1744
I12
tp166
a(I1342
I12
tp167
a(I835
I12
tp168
a(I1849
I49
tp169
a(I833
I12
tp170
a(I823
I49
tp171
a(I1880
I49
tp172
a(I1883
I12
tp173
a(I634
I12
tp174
a(I1947
I49
tp175
a(I1014
I12
tp176
a(I60
I12
tp177
a(I258
I49
tp178
a(I655
I49
tp179
a(I2128
I49
tp180
a(I1123
I12
tp181
a(I1130
I49
tp182
a(I630
I12
tp183
a(I1344
I49
tp184
a(I1911
I12
tp185
a(I753
I12
tp186
a(I1879
I12
tp187
a(I1365
I49
tp188
a(I1396
I49
tp189
a(I1040
I12
tp190
a(I2004
I12
tp191
a(I2002
I12
tp192
a(I586
I49
tp193
a(I69
I12
tp194
a(I1004
I12
tp195
a(I594
I49
tp196
a(I672
I12
tp197
a(I270
I12
tp198
a(I638
I49
tp199
a(I155
I49
tp200
a(I1811
I12
tp201
a(I1850
I49
tp202
a(I1366
I12
tp203
a(I751
I12
tp204
a(I749
I12
tp205
a(I1443
I12
tp206
a(I1879
I49
tp207
a(I421
I49
tp208
a(I452
I49
tp209
a(I640
I49
tp210
a(I429
I49
tp211
a(I1100
I49
tp212
a(I661
I49
tp213
a(I1013
I12
tp214
a(I668
I12
tp215
a(I681
I12
tp216
a(I592
I12
tp217
a(I669
I49
tp218
a(I728
I49
tp219
a(I1366
I49
tp220
a(I731
I12
tp221
a(I224
I12
tp222
a(I1870
I12
tp223
a(I1363
I12
tp224
a(I1361
I12
tp225
a(I1347
I49
tp226
a(I2196
I49
tp227
a(I1551
I49
tp228
a(I2000
I49
tp229
a(I156
I49
tp230
a(I993
I12
tp231
a(I2021
I49
tp232
a(I677
I12
tp233
a(I588
I12
tp234
a(I1280
I12
tp235
a(I2240
I49
tp236
a(I1842
I49
tp237
a(I727
I12
tp238
a(I422
I49
tp239
a(I1850
I12
tp240
a(I1359
I12
tp241
a(I1357
I12
tp242
a(I1861
I49
tp243
a(I2012
I12
tp244
a(I2009
I49
tp245
a(I1508
I49
tp246
a(I1913
I12
tp247
a(I991
I12
tp248
a(I989
I12
tp249
a(I484
I12
tp250
a(I659
I12
tp251
a(I2121
I12
tp252
a(I657
I12
tp253
a(I643
I49
tp254
a(I1748
I49
tp255
a(I1289
I12
tp256
a(I1103
I49
tp257
a(I750
I49
tp258
a(I267
I49
tp259
a(I727
I49
tp260
a(I1846
I12
tp261
a(I1339
I12
tp262
a(I1279
I12
tp263
a(I514
I12
tp264
a(I1564
I12
tp265
a(I1361
I49
tp266
a(I655
I12
tp267
a(I2208
I49
tp268
a(I2196
I12
tp269
a(I2194
I12
tp270
a(I214
I49
tp271
a(I778
I12
tp272
a(I1810
I49
tp273
a(I159
I49
tp274
a(I781
I49
tp275
a(I1752
I12
tp276
a(I840
I49
tp277
a(I1862
I49
tp278
a(I841
I12
tp279
a(I752
I12
tp280
a(I1867
I49
tp281
a(I2208
I12
tp282
a(I1398
I12
tp283
a(I54
I49
tp284
a(I644
I49
tp285
a(I59
I49
tp286
a(I268
I49
tp287
a(I1016
I12
tp288
a(I680
I49
tp289
a(I1109
I49
tp290
a(I267
I12
tp291
a(I657
I49
tp292
a(I1762
I49
tp293
a(I638
I12
tp294
a(I1748
I12
tp295
a(I1354
I49
tp296
a(I709
I49
tp297
a(I837
I12
tp298
a(I748
I12
tp299
a(I1947
I12
tp300
a(I1921
I49
tp301
a(I1362
I49
tp302
a(I1348
I12
tp303
a(I745
I49
tp304
a(I1383
I49
tp305
a(I2010
I12
tp306
a(I1519
I12
tp307
a(I1391
I12
tp308
a(I1010
I12
tp309
a(I1185
I12
tp310
a(I680
I12
tp311
a(I2213
I49
tp312
a(I1125
I12
tp313
a(I1011
I49
tp314
a(I1215
I49
tp315
a(I1868
I49
tp316
a(I1867
I12
tp317
a(I1360
I12
tp318
a(I1551
I12
tp319
a(I60
I49
tp320
a(I1496
I49
tp321
a(I2006
I12
tp322
a(I1110
I49
tp323
a(I658
I49
tp324
a(I992
I12
tp325
a(I1183
I12
tp326
a(I676
I12
tp327
a(I674
I12
tp328
a(I1105
I12
tp329
a(I679
I49
tp330
a(I1813
I12
tp331
a(I1391
I49
tp332
a(I1922
I49
tp333
a(I271
I49
tp334
a(I1744
I49
tp335
a(I715
I49
tp336
a(I306
I12
tp337
a(I746
I49
tp338
a(I1863
I12
tp339
a(I1860
I49
tp340
a(I307
I49
tp341
a(I1387
I12
tp342
a(I2010
I49
tp343
a(I1912
I12
tp344
a(I1495
I12
tp345
a(I988
I12
tp346
a(I656
I12
tp347
a(I1103
I12
tp348
a(I989
I49
tp349
a(I594
I12
tp350
a(I1811
I49
tp351
a(I1934
I12
tp352
a(I254
I49
tp353
a(I1365
I12
tp354
a(I1276
I12
tp355
a(I2117
I12
tp356
a(I1871
I49
tp357
a(I1040
I49
tp358
a(I1518
I49
tp359
a(I35
I12
tp360
a(I1495
I49
tp361
a(I1526
I49
tp362
a(I652
I12
tp363
a(I665
I12
tp364
a(I576
I12
tp365
a(I256
I49
tp366
a(I308
I12
tp367
a(I1282
I12
tp368
a(I2119
I49
tp369
a(I2015
I49
tp370
a(I308
I49
tp371
a(I1105
I49
tp372
a(I1330
I12
tp373
a(I752
I49
tp374
a(I1358
I49
tp375
a(I1347
I12
tp376
a(I1345
I12
tp377
a(I840
I12
tp378
a(I423
I12
tp379
a(I1363
I49
tp380
a(I1914
I12
tp381
a(I2016
I49
tp382
a(I661
I12
tp383
a(I1812
I49
tp384
a(I585
I12
tp385
a(I1520
I12
tp386
a(I592
I49
tp387
a(I1848
I49
tp388
a(I1142
I12
tp389
a(I1834
I12
tp390
a(I836
I12
tp391
a(I834
I12
tp392
a(I1877
I49
tp393
a(I654
I49
tp394
a(I643
I12
tp395
a(I1913
I49
tp396
a(I641
I12
tp397
a(I1876
I49
tp398
a(I581
I12
tp399
a(I659
I49
tp400
a(I2122
I12
tp401
a(I1106
I49
tp402
a(I1184
I12
tp403
a(I667
I49
tp404
a(I275
I12
tp405
a(I273
I12
tp406
a(I259
I49
tp407
a(I1364
I49
tp408
a(I1400
I49
tp409
a(I1386
I12
tp410
a(I1561
I12
tp411
a(I2014
I49
tp412
a(I56
I12
tp413
a(I1173
I49
tp414
a(I1104
I12
tp415
a(I271
I12
tp416
a(I269
I12
tp417
a(I1812
I12
tp418
a(I1810
I12
tp419
a(I1878
I49
tp420
a(I1217
I49
tp421
a(I1875
I12
tp422
a(I1442
I12
tp423
a(I1873
I12
tp424
a(I1382
I12
tp425
a(I1859
I49
tp426
a(I660
I49
tp427
a(I2014
I12
tp428
a(I52
I12
tp429
a(I668
I49
tp430
a(I2013
I49
tp431
a(I485
I49
tp432
a(I1100
I12
tp433
a(I260
I49
tp434
a(I682
I12
tp435
a(I1792
I12
tp436
a(I1847
I12
tp437
a(I725
I49
tp438
a(I732
I12
tp439
a(I273
I49
tp440
a(I745
I12
tp441
a(I1871
I12
tp442
a(I254
I12
tp443
a(I1869
I12
tp444
a(I1364
I12
tp445
a(I1362
I12
tp446
a(I453
I12
tp447
a(I160
I49
tp448
a(I1022
I49
tp449
a(I1171
I12
tp450
a(I994
I12
tp451
a(I664
I12
tp452
a(I1800
I49
tp453
a(I678
I12
tp454
a(I1109
I12
tp455
a(I741
I12
tp456
a(I1851
I12
tp457
a(I1344
I12
tp458
a(I1791
I12
tp459
a(I1865
I49
tp460
a(I839
I49
tp461
a(I52
I49
tp462
a(I1873
I49
tp463
a(I674
I49
tp464
a(I1520
I49
tp465
a(I1165
I12
tp466
a(I660
I12
tp467
a(I658
I12
tp468
a(I726
I49
tp469
a(I274
I49
tp470
a(I671
I49
tp471
a(I1115
I49
tp472
a(I723
I12
tp473
a(I762
I49
tp474
a(I1352
I49
tp475
a(I1329
I49
tp476
a(I514
I49
tp477
a(I1935
I49
tp478
a(I1360
I49
tp479
a(I429
I12
tp480
a(I1564
I49
tp481
a(I2140
I49
tp482
a(I2085
I12
tp483
a(I1569
I49
tp484
a(I640
I12
tp485
a(I1389
I49
tp486
a(I158
I49
tp487
a(I580
I12
tp488
a(I2009
I12
tp489
a(I1286
I12
tp490
a(I272
I12
tp491
a(I2111
I12
tp492
a(I1276
I49
tp493
a(I1221
I49
tp494
a(I1349
I12
tp495
a(I842
I12
tp496
a(I1874
I49
tp497
a(I1056
I49
tp498
a(I1399
I12
tp499
a(I1108
I49
tp500
a(I656
I49
tp501
a(I158
I12
tp502
a(I1524
I12
tp503
a(I677
I49
tp504
a(I268
I12
tp505
a(I708
I49
tp506
a(I1130
I12
tp507
a(I1330
I49
tp508
a(I2240
I12
tp509
a(I639
I12
tp510
a(I685
I49
tp511
a(I1758
I49
tp512
a(I2118
I12
tp513
a(I1329
I12
tp514
a(I744
I49
tp515
a(I838
I12
tp516
a(I1382
I49
tp517
a(I1311
I49
tp518
a(I762
I12
tp519
a(I1872
I12
tp520
a(I2008
I49
tp521
a(I2011
I12
tp522
a(I569
I12
tp523
a(I2126
I12
tp524
a(I987
I49
tp525
a(I2177
I12
tp526
a(I695
I12
tp527
a(I1126
I12
tp528
a(I783
I49
tp529
a(I1758
I12
tp530
a(I744
I12
tp531
a(I1868
I12
tp532
a(I251
I12
tp533
a(I1881
I12
tp534
a(I1279
I49
tp535
a(I1390
I12
tp536
a(I452
I12
tp537
a(I9
I49
tp538
a(I1948
I12
tp539
a(I678
I49
tp540
a(I2111
I49
tp541
a(I1524
I49
tp542
a(I1022
I12
tp543
a(I270
I49
tp544
a(I1108
I12
tp545
a(I259
I12
tp546
a(I1106
I12
tp547
a(I257
I12
tp548
a(I1800
I12
tp549
a(I69
I49
tp550
a(I275
I49
tp551
a(I1281
I49
tp552
a(I2169
I12
tp553
a(I1284
I12
tp554
a(I1772
I49
tp555
a(I743
I49
tp556
a(I1333
I49
tp557
a(I1877
I12
tp558
a(I1370
I12
tp559
a(I2121
I49
tp560
a(I988
I49
tp561
a(I1847
I49
tp562
a(I2007
I49
tp563
a(I1016
I49
tp564
a(I54
I12
tp565
a(I1509
I12
tp566
a(I993
I49
tp567
a(I686
I12
tp568
a(I583
I49
tp569
a(I995
I12
tp570
a(I611
I49
tp571
a(I629
I12
tp572
a(I1442
I49
tp573
a(I1935
I12
tp574
a(I1870
I49
tp575
a(I1859
I12
tp576
a(I1002
I49
tp577
a(I1352
I12
tp578
a(I715
I12
tp579
a(I1875
I49
tp580
a(I833
I49
tp581
a(I480
I49
tp582
a(I1883
I49
tp583
a(I425
I49
tp584
a(I2087
I49
tp585
a(I1173
I12
tp586
a(I276
I49
tp587
a(I666
I12
tp588
a(I1282
I49
tp589
a(I1104
I49
tp590
a(I2123
I49
tp591
a(I665
I49
tp592
a(I1125
I49
tp593
a(I1334
I49
tp594
a(I729
I12
tp595
a(I1133
I49
tp596
a(I1339
I49
tp597
a(I1346
I12
tp598
a(I1370
I49
tp599
a(I994
I49
tp600
a(I16
I12
tp601
a(I1860
I12
tp602
a(I1546
I49
tp603
a(I1399
I49
tp604
a(I1171
I49
tp605
a(I155
I12
tp606
a(I586
I12
tp607
a(I991
I49
tp608
a(I589
I49
tp609
a(I2229
I49
tp610
a(I725
I12
tp611
a(I636
I12
tp612
a(I1835
I12
tp613
a(I834
I49
tp614
a(I1328
I12
tp615
a(I1912
I49
tp616
a(I1546
I12
tp617
a(I644
I12
tp618
a(I2124
I49
tp619
a(I642
I12
tp620
a(I666
I49
tp621
a(I568
I12
tp622
a(I1512
I49
tp623
a(I582
I12
tp624
a(I1126
I49
tp625
a(I483
I49
tp626
a(I2123
I12
tp627
a(I783
I12
tp628
a(I781
I12
tp629
a(I276
I12
tp630
a(I274
I12
tp631
a(I695
I49
tp632
a(I1752
I49
tp633
a(I214
I12
tp634
a(I723
I49
tp635
a(I1337
I12
tp636
a(I731
I49
tp637
a(I1880
I12
tp638
a(I1941
I12
tp639
a(I1172
I49
tp640
a(I1561
I49
tp641
a(I2017
I12
tp642
a(I1512
I12
tp643
a(I2119
I12
tp644
a(I1526
I12
tp645
a(I1185
I49
tp646
a(I256
I12
tp647
a(I1216
I49
tp648
a(I1005
I49
tp649
a(I1876
I12
tp650
a(I1333
I12
tp651
a(I1835
I49
tp652
a(I1874
I12
tp653
a(I1383
I12
tp654
a(I837
I49
tp655
a(I484
I49
tp656
a(I672
I49
tp657
a(I2013
I12
tp658
a(I1508
I12
tp659
a(I1506
I12
tp660
a(I1015
I12
tp661
a(I1286
I49
tp662
a(I2118
I49
tp663
a(I683
I12
tp664
a(I2127
I49
tp665
a(I272
I49
tp666
a(I732
I49
tp667
a(I746
I12
tp668
a(I255
I12
tp669
a(I253
I12
tp670
a(I1351
I49
tp671
a(I1941
I49
tp672
a(I2015
I12
tp673
a(I1172
I12
tp674
a(I569
I49
tp675
a(I778
I49
tp676
a(I679
I12
tp677
a(I1110
I12
tp678
a(I1183
I49
tp679
a(I224
I49
tp680
a(I1348
I49
tp681
a(I728
I12
tp682
a(I1864
I49
tp683
a(I742
I12
tp684
a(I838
I49
tp685
a(I1865
I12
tp686
a(I1872
I49
tp687
a(I253
I49
tp688
a(I843
I49
tp689
a(I2008
I12
tp690
a(I56
I49
tp691
a(I1914
I49
tp692
a(I2012
I49
tp693
a(I1497
I12
tp694
a(I64
I49
tp695
a(I1006
I12
tp696
a(I670
I49
tp697
a(I1798
I12
tp698
a(I2229
I12
tp699
a(I675
I49
tp700
a(I1328
I49
tp701
a(I1934
I49
tp702
a(I683
I49
tp703
a(I2169
I49
tp704
a(I1921
I12
tp705
a(I724
I49
tp706
a(I1861
I12
tp707
a(I1772
I12
tp708
a(I1354
I12
tp709
a(I1357
I49
tp710
a(I1851
I49
tp711
a(I1769
I49
tp712
a(I1002
I12
tp713
a(I38
I12
tp714
a(I1393
I49
tp715
a(I1999
I49
tp716
a(I670
I12
tp717
a(I630
I49
tp718
a(I793
I12
tp719
a(I1367
I12
tp720
a(I1170
I49
tp721
a(I1350
I12
tp722
a(I227
I49
tp723
a(I843
I12
tp724
a(I425
I12
tp725
a(I1455
I49
tp726
a(I1443
I49
tp727
a(I676
I49
tp728
a(I2016
I12
tp729
a(I159
I12
tp730
a(I157
I12
tp731
a(I684
I49
tp732
a(I2129
I12
tp733
a(I2115
I49
tp734
a(I1131
I12
tp735
a(I1948
I49
tp736
a(I593
I12
tp737
a(I839
I12
tp738
a(I741
I49
tp739
a(I421
I12
tp740
a(I1394
I49
tp741
a(I1791
I49
tp742
a(I749
I49
tp743
a(I1566
I49
tp744
a(I1395
I12
tp745
a(I1393
I12
tp746
a(I2150
I12
tp747
a(I2005
I49
tp748
a(I1571
I49
tp749
a(I2127
I12
tp750
a(I512
I49
tp751
a(I636
I49
tp752
a(I1015
I49
tp753
a(I581
I49
tp754
a(I709
I12
tp755
a(I1278
I49
tp756
a(I252
I12
tp757
a(I9
I12
tp758
a(I1353
I49
tp759
a(I16
I49
tp760
a(I1566
I12
tp761
a(I1389
I12
tp762
a(I1881
I49
tp763
a(I2085
I49
tp764
a(I2021
I12
tp765
a(I59
I12
tp766
a(I1280
I49
tp767
a(I1118
I49
tp768
a(I260
I12
tp769
a(I258
I12
tp770
a(I742
I49
tp771
a(I1123
I49
tp772
a(I2129
I49
tp773
a(I1842
I12
tp774
a(I1131
I49
tp775
a(I1337
I49
tp776
a(I1864
I12
tp777
a(I1878
I12
tp778
a(I2006
I49
tp779
a(I1345
I49
tp780
a(I1353
I12
tp781
a(I992
I49
tp782
a(I2003
I12
tp783
a(I2001
I12
tp784
a(I1496
I12
tp785
a(I55
I12
tp786
a(I1397
I49
tp787
a(I582
I49
tp788
a(I1003
I12
tp789
a(I1118
I12
tp790
a(I685
I12
tp791
a(I587
I49
tp792
a(I611
I12
tp793
a(I1846
I49
tp794
a(I639
I49
tp795
a(I750
I12
tp796
a(I1387
I49
tp797
a(I424
I49
tp798
a(I38
I49
tp799
a(I512
I12
tp800
a(I1506
I49
tp801
a(I1170
I12
tp802
a(I1999
I12
tp803
a(I2122
I49
tp804
a(I1911
I49
tp805
a(I664
I49
tp806
a(I453
I49
tp807
a(I667
I12
tp808
a(I641
I49
tp809
a(I505
I12
tp810
a(I160
I12
tp811
a(I1132
I49
tp812
a(I1338
I49
tp813
a(I1283
I49
tp814
a(I730
I12
tp815
a(I1346
I49
tp816
asS'runtime'
p817
F0.2926158905029297
sS'name'
p818
S'["fd_checker", [["prb", "app_status"]]]'
p819
s.