(dp0
S'output'
p1
(lp2
(I1586
I45
tp3
a(I682
I10
tp4
a(I1876
I10
tp5
a(I1275
I10
tp6
a(I283
I45
tp7
a(I82
I10
tp8
a(I1876
I45
tp9
a(I1782
I10
tp10
a(I1276
I10
tp11
a(I667
I10
tp12
a(I667
I45
tp13
a(I283
I10
tp14
a(I647
I10
tp15
a(I1276
I45
tp16
a(I299
I45
tp17
a(I299
I10
tp18
a(I1782
I45
tp19
a(I682
I45
tp20
a(I647
I45
tp21
a(I1275
I45
tp22
a(I82
I45
tp23
a(I1586
I10
tp24
asS'runtime'
p25
F0.30516695976257324
sS'name'
p26
S'["fd_checker", [["app_nm", "ccard_data"]]]'
p27
s.