(dp0
S'output'
p1
(lp2
(I1024
I1
tp3
a(I1027
I1
tp4
a(I1029
I37
tp5
a(I1035
I37
tp6
a(I1028
I37
tp7
a(I1030
I1
tp8
a(I1023
I37
tp9
a(I1026
I1
tp10
a(I2063
I1
tp11
a(I1025
I37
tp12
a(I1035
I1
tp13
a(I1024
I37
tp14
a(I2063
I37
tp15
a(I1029
I1
tp16
a(I1026
I37
tp17
a(I1027
I37
tp18
a(I1028
I1
tp19
a(I1025
I1
tp20
a(I1030
I37
tp21
a(I1023
I1
tp22
asS'runtime'
p23
F0.3064749240875244
sS'name'
p24
S'["fd_checker", [["tracking", "pri_staff_loc"]]]'
p25
s.