(dp0
S'output'
p1
(lp2
(I2246
I51
tp3
a(I1030
I9
tp4
a(I1841
I9
tp5
a(I1413
I9
tp6
a(I1918
I9
tp7
a(I234
I51
tp8
a(I425
I9
tp9
a(I1498
I9
tp10
a(I439
I9
tp11
a(I647
I51
tp12
a(I417
I51
tp13
a(I30
I51
tp14
a(I1328
I51
tp15
a(I1498
I51
tp16
a(I1648
I51
tp17
a(I280
I9
tp18
a(I1890
I9
tp19
a(I1328
I9
tp20
a(I1568
I51
tp21
a(I1131
I9
tp22
a(I1160
I51
tp23
a(I515
I51
tp24
a(I960
I9
tp25
a(I1999
I51
tp26
a(I954
I51
tp27
a(I1162
I9
tp28
a(I1989
I9
tp29
a(I962
I51
tp30
a(I1981
I51
tp31
a(I1616
I9
tp32
a(I1214
I9
tp33
a(I635
I51
tp34
a(I1083
I51
tp35
a(I597
I9
tp36
a(I214
I9
tp37
a(I227
I51
tp38
a(I1630
I51
tp39
a(I1455
I51
tp40
a(I1819
I9
tp41
a(I633
I9
tp42
a(I426
I9
tp43
a(I1880
I9
tp44
a(I229
I9
tp45
a(I1821
I51
tp46
a(I2079
I51
tp47
a(I1082
I9
tp48
a(I23
I9
tp49
a(I1648
I9
tp50
a(I1526
I9
tp51
a(I82
I9
tp52
a(I13
I51
tp53
a(I1086
I51
tp54
a(I1134
I9
tp55
a(I1739
I51
tp56
a(I1976
I51
tp57
a(I49
I51
tp58
a(I689
I9
tp59
a(I1984
I51
tp60
a(I1739
I9
tp61
a(I955
I51
tp62
a(I2078
I51
tp63
a(I1313
I51
tp64
a(I953
I9
tp65
a(I1015
I51
tp66
a(I787
I51
tp67
a(I228
I51
tp68
a(I573
I9
tp69
a(I1822
I9
tp70
a(I1003
I9
tp71
a(I586
I51
tp72
a(I1623
I9
tp73
a(I8
I51
tp74
a(I577
I51
tp75
a(I609
I9
tp76
a(I1613
I51
tp77
a(I638
I51
tp78
a(I1001
I51
tp79
a(I1035
I51
tp80
a(I1528
I51
tp81
a(I1649
I51
tp82
a(I1858
I51
tp83
a(I241
I9
tp84
a(I2116
I51
tp85
a(I1087
I51
tp86
a(I1865
I51
tp87
a(I1035
I9
tp88
a(I2126
I9
tp89
a(I1921
I51
tp90
a(I2078
I9
tp91
a(I50
I51
tp92
a(I1332
I51
tp93
a(I1502
I51
tp94
a(I1776
I51
tp95
a(I667
I9
tp96
a(I1131
I51
tp97
a(I956
I51
tp98
a(I728
I9
tp99
a(I742
I9
tp100
a(I1314
I51
tp101
a(I339
I51
tp102
a(I1776
I9
tp103
a(I125
I9
tp104
a(I299
I9
tp105
a(I1622
I9
tp106
a(I954
I9
tp107
a(I1943
I9
tp108
a(I1987
I51
tp109
a(I788
I51
tp110
a(I958
I51
tp111
a(I1616
I51
tp112
a(I1979
I9
tp113
a(I587
I51
tp114
a(I1585
I9
tp115
a(I610
I9
tp116
a(I1029
I9
tp117
a(I639
I51
tp118
a(I832
I51
tp119
a(I587
I9
tp120
a(I1242
I9
tp121
a(I2209
I51
tp122
a(I1217
I9
tp123
a(I815
I9
tp124
a(I1508
I9
tp125
a(I1038
I9
tp126
a(I1242
I51
tp127
a(I1863
I9
tp128
a(I422
I51
tp129
a(I2159
I9
tp130
a(I1038
I51
tp131
a(I670
I9
tp132
a(I1055
I9
tp133
a(I1974
I9
tp134
a(I1718
I9
tp135
a(I483
I9
tp136
a(I1300
I9
tp137
a(I340
I51
tp138
a(I300
I9
tp139
a(I89
I9
tp140
a(I1367
I51
tp141
a(I1779
I51
tp142
a(I1988
I51
tp143
a(I1865
I9
tp144
a(I336
I9
tp145
a(I1982
I9
tp146
a(I89
I51
tp147
a(I1980
I9
tp148
a(I1317
I51
tp149
a(I515
I9
tp150
a(I1325
I51
tp151
a(I2016
I9
tp152
a(I1003
I51
tp153
a(I2022
I51
tp154
a(I2193
I9
tp155
a(I1218
I9
tp156
a(I2045
I9
tp157
a(I1195
I9
tp158
a(I214
I51
tp159
a(I1601
I51
tp160
a(I850
I9
tp161
a(I2048
I9
tp162
a(I1039
I51
tp163
a(I827
I9
tp164
a(I1900
I9
tp165
a(I1315
I51
tp166
a(I1862
I51
tp167
a(I663
I51
tp168
a(I484
I9
tp169
a(I2079
I9
tp170
a(I511
I51
tp171
a(I1079
I9
tp172
a(I54
I51
tp173
a(I2113
I9
tp174
a(I1780
I51
tp175
a(I1312
I9
tp176
a(I751
I51
tp177
a(I944
I51
tp178
a(I299
I51
tp179
a(I759
I51
tp180
a(I531
I51
tp181
a(I996
I51
tp182
a(I944
I9
tp183
a(I1341
I9
tp184
a(I1566
I9
tp185
a(I539
I51
tp186
a(I1973
I9
tp187
a(I1443
I9
tp188
a(I2196
I9
tp189
a(I333
I51
tp190
a(I2009
I9
tp191
a(I1973
I51
tp192
a(I2246
I9
tp193
a(I573
I51
tp194
a(I1024
I51
tp195
a(I2009
I51
tp196
a(I631
I9
tp197
a(I1654
I51
tp198
a(I1863
I51
tp199
a(I1783
I9
tp200
a(I609
I51
tp201
a(I655
I51
tp202
a(I1899
I51
tp203
a(I1864
I51
tp204
a(I2116
I9
tp205
a(I514
I9
tp206
a(I292
I51
tp207
a(I1118
I9
tp208
a(I1824
I51
tp209
a(I650
I51
tp210
a(I1238
I9
tp211
a(I300
I51
tp212
a(I5
I51
tp213
a(I1319
I51
tp214
a(I1920
I9
tp215
a(I336
I51
tp216
a(I160
I51
tp217
a(I330
I9
tp218
a(I1319
I9
tp219
a(I1784
I9
tp220
a(I125
I51
tp221
a(I2050
I51
tp222
a(I2010
I9
tp223
a(I951
I9
tp224
a(I1160
I9
tp225
a(I1987
I9
tp226
a(I999
I9
tp227
a(I628
I51
tp228
a(I559
I9
tp229
a(I542
I51
tp230
a(I2148
I9
tp231
a(I2010
I51
tp232
a(I1195
I51
tp233
a(I49
I9
tp234
a(I610
I51
tp235
a(I999
I51
tp236
a(I2237
I9
tp237
a(I2080
I51
tp238
a(I1225
I9
tp239
a(I1900
I51
tp240
a(I1977
I51
tp241
a(I227
I9
tp242
a(I1027
I51
tp243
a(I1275
I9
tp244
a(I2140
I51
tp245
a(I1080
I9
tp246
a(I2073
I51
tp247
a(I674
I9
tp248
a(I489
I9
tp249
a(I1306
I9
tp250
a(I1526
I51
tp251
a(I948
I51
tp252
a(I1997
I9
tp253
a(I283
I9
tp254
a(I1306
I51
tp255
a(I741
I9
tp256
a(I1988
I9
tp257
a(I1188
I51
tp258
a(I543
I51
tp259
a(I2011
I51
tp260
a(I1925
I51
tp261
a(I1055
I51
tp262
a(I571
I9
tp263
a(I632
I9
tp264
a(I228
I9
tp265
a(I1028
I51
tp266
a(I2045
I51
tp267
a(I814
I51
tp268
a(I1327
I9
tp269
a(I1276
I9
tp270
a(I8
I9
tp271
a(I1783
I51
tp272
a(I22
I9
tp273
a(I35
I51
tp274
a(I1325
I9
tp275
a(I1413
I51
tp276
a(I1877
I51
tp277
a(I1527
I51
tp278
a(I280
I51
tp279
a(I2227
I51
tp280
a(I740
I51
tp281
a(I1087
I9
tp282
a(I1515
I9
tp283
a(I1687
I9
tp284
a(I719
I9
tp285
a(I2012
I51
tp286
a(I1341
I51
tp287
a(I1599
I51
tp288
a(I655
I9
tp289
a(I572
I9
tp290
a(I1641
I9
tp291
a(I1607
I51
tp292
a(I1508
I51
tp293
a(I1297
I51
tp294
a(I2031
I9
tp295
a(I2014
I51
tp296
a(I815
I51
tp297
a(I1179
I9
tp298
a(I1834
I9
tp299
a(I614
I51
tp300
a(I1864
I9
tp301
a(I1880
I51
tp302
a(I1083
I9
tp303
a(I2178
I9
tp304
a(I639
I9
tp305
a(I1884
I9
tp306
a(I1878
I9
tp307
a(I1878
I51
tp308
a(I72
I51
tp309
a(I1217
I51
tp310
a(I1300
I51
tp311
a(I2063
I9
tp312
a(I1470
I51
tp313
a(I13
I9
tp314
a(I1049
I9
tp315
a(I691
I51
tp316
a(I1994
I51
tp317
a(I126
I9
tp318
a(I1049
I51
tp319
a(I1718
I51
tp320
a(I691
I9
tp321
a(I493
I51
tp322
a(I1310
I51
tp323
a(I1282
I51
tp324
a(I725
I51
tp325
a(I536
I9
tp326
a(I1636
I51
tp327
a(I1182
I9
tp328
a(I155
I51
tp329
a(I2230
I9
tp330
a(I2019
I9
tp331
a(I1615
I9
tp332
a(I1216
I9
tp333
a(I1613
I9
tp334
a(I814
I9
tp335
a(I774
I51
tp336
a(I1879
I51
tp337
a(I1862
I9
tp338
a(I1218
I51
tp339
a(I1649
I9
tp340
a(I2237
I51
tp341
a(I640
I51
tp342
a(I1997
I51
tp343
a(I444
I9
tp344
a(I233
I9
tp345
a(I1877
I9
tp346
a(I1027
I9
tp347
a(I1025
I9
tp348
a(I692
I51
tp349
a(I27
I9
tp350
a(I1515
I51
tp351
a(I682
I9
tp352
a(I21
I51
tp353
a(I486
I51
tp354
a(I728
I51
tp355
a(I674
I51
tp356
a(I511
I9
tp357
a(I1311
I51
tp358
a(I57
I51
tp359
a(I732
I9
tp360
a(I1669
I51
tp361
a(I1782
I9
tp362
a(I2113
I51
tp363
a(I1347
I51
tp364
a(I2196
I51
tp365
a(I2050
I9
tp366
a(I1339
I9
tp367
a(I156
I51
tp368
a(I326
I51
tp369
a(I1971
I9
tp370
a(I514
I51
tp371
a(I543
I9
tp372
a(I558
I51
tp373
a(I1023
I51
tp374
a(I2139
I51
tp375
a(I803
I51
tp376
a(I158
I51
tp377
a(I1029
I51
tp378
a(I234
I9
tp379
a(I1621
I51
tp380
a(I1830
I51
tp381
a(I2208
I51
tp382
a(I422
I9
tp383
a(I1028
I9
tp384
a(I1026
I9
tp385
a(I30
I9
tp386
a(I28
I9
tp387
a(I1579
I51
tp388
a(I22
I51
tp389
a(I437
I9
tp390
a(I1918
I51
tp391
a(I1290
I9
tp392
a(I437
I51
tp393
a(I1784
I51
tp394
a(I292
I9
tp395
a(I1536
I51
tp396
a(I1340
I9
tp397
a(I1663
I9
tp398
a(I725
I9
tp399
a(I1972
I9
tp400
a(I559
I51
tp401
a(I2022
I9
tp402
a(I804
I51
tp403
a(I159
I51
tp404
a(I1630
I9
tp405
a(I555
I9
tp406
a(I1162
I51
tp407
a(I603
I51
tp408
a(I1622
I51
tp409
a(I1985
I51
tp410
a(I1214
I51
tp411
a(I1817
I9
tp412
a(I23
I51
tp413
a(I1080
I51
tp414
a(I2225
I51
tp415
a(I50
I9
tp416
a(I644
I51
tp417
a(I1925
I9
tp418
a(I1919
I51
tp419
a(I1088
I51
tp420
a(I1817
I51
tp421
a(I229
I51
tp422
a(I21
I9
tp423
a(I2159
I51
tp424
a(I57
I9
tp425
a(I2167
I51
tp426
a(I17
I51
tp427
a(I1759
I51
tp428
a(I1951
I9
tp429
a(I1737
I9
tp430
a(I950
I9
tp431
a(I722
I51
tp432
a(I335
I9
tp433
a(I1984
I9
tp434
a(I333
I9
tp435
a(I558
I9
tp436
a(I1787
I9
tp437
a(I1369
I9
tp438
a(I1623
I51
tp439
a(I632
I51
tp440
a(I1777
I51
tp441
a(I1188
I9
tp442
a(I2244
I51
tp443
a(I592
I9
tp444
a(I2013
I9
tp445
a(I2238
I9
tp446
a(I1369
I51
tp447
a(I1001
I9
tp448
a(I1818
I9
tp449
a(I1015
I9
tp450
a(I1621
I9
tp451
a(I232
I51
tp452
a(I820
I9
tp453
a(I1793
I9
tp454
a(I606
I51
tp455
a(I1818
I51
tp456
a(I439
I51
tp457
a(I1617
I51
tp458
a(I253
I9
tp459
a(I1502
I9
tp460
a(I2126
I51
tp461
a(I35
I9
tp462
a(I1091
I51
tp463
a(I1037
I51
tp464
a(I1607
I9
tp465
a(I425
I51
tp466
a(I1530
I51
tp467
a(I1985
I9
tp468
a(I1943
I51
tp469
a(I2105
I51
tp470
a(I740
I9
tp471
a(I1311
I9
tp472
a(I1326
I51
tp473
a(I960
I51
tp474
a(I1979
I51
tp475
a(I160
I9
tp476
a(I1347
I9
tp477
a(I1778
I51
tp478
a(I1345
I9
tp479
a(I943
I9
tp480
a(I1568
I9
tp481
a(I2031
I51
tp482
a(I1619
I51
tp483
a(I555
I51
tp484
a(I1991
I9
tp485
a(I1794
I9
tp486
a(I1599
I9
tp487
a(I1819
I51
tp488
a(I1989
I51
tp489
a(I1315
I9
tp490
a(I1618
I51
tp491
a(I1974
I51
tp492
a(I589
I51
tp493
a(I832
I9
tp494
a(I635
I9
tp495
a(I1092
I51
tp496
a(I1086
I9
tp497
a(I426
I51
tp498
a(I716
I51
tp499
a(I72
I9
tp500
a(I1238
I51
tp501
a(I641
I9
tp502
a(I493
I9
tp503
a(I718
I9
tp504
a(I716
I9
tp505
a(I1980
I51
tp506
a(I1126
I51
tp507
a(I2073
I9
tp508
a(I718
I51
tp509
a(I2016
I51
tp510
a(I1781
I9
tp511
a(I584
I51
tp512
a(I1977
I9
tp513
a(I1994
I9
tp514
a(I1982
I51
tp515
a(I692
I9
tp516
a(I592
I51
tp517
a(I955
I9
tp518
a(I586
I9
tp519
a(I1781
I51
tp520
a(I1990
I51
tp521
a(I774
I9
tp522
a(I1636
I9
tp523
a(I1634
I9
tp524
a(I159
I9
tp525
a(I157
I9
tp526
a(I638
I9
tp527
a(I827
I51
tp528
a(I12
I51
tp529
a(I2230
I51
tp530
a(I1268
I9
tp531
a(I1327
I51
tp532
a(I1822
I51
tp533
a(I996
I9
tp534
a(I14
I9
tp535
a(I12
I9
tp536
a(I644
I9
tp537
a(I642
I9
tp538
a(I14
I51
tp539
a(I1469
I9
tp540
a(I1312
I51
tp541
a(I667
I51
tp542
a(I1530
I9
tp543
a(I1025
I51
tp544
a(I1322
I9
tp545
a(I719
I51
tp546
a(I1326
I9
tp547
a(I1113
I9
tp548
a(I1823
I51
tp549
a(I326
I9
tp550
a(I1759
I9
tp551
a(I958
I9
tp552
a(I1113
I51
tp553
a(I956
I9
tp554
a(I1562
I9
tp555
a(I759
I9
tp556
a(I1687
I51
tp557
a(I1991
I51
tp558
a(I1000
I51
tp559
a(I946
I51
tp560
a(I2019
I51
tp561
a(I1614
I9
tp562
a(I539
I9
tp563
a(I1562
I51
tp564
a(I1297
I9
tp565
a(I998
I51
tp566
a(I614
I9
tp567
a(I337
I51
tp568
a(I2244
I9
tp569
a(I1023
I9
tp570
a(I1614
I51
tp571
a(I1021
I9
tp572
a(I1885
I51
tp573
a(I232
I9
tp574
a(I803
I9
tp575
a(I1876
I9
tp576
a(I1951
I51
tp577
a(I1024
I9
tp578
a(I2063
I51
tp579
a(I577
I9
tp580
a(I1912
I9
tp581
a(I5
I9
tp582
a(I1841
I51
tp583
a(I1026
I51
tp584
a(I260
I51
tp585
a(I253
I51
tp586
a(I1053
I9
tp587
a(I1824
I9
tp588
a(I1091
I9
tp589
a(I1089
I9
tp590
a(I687
I9
tp591
a(I670
I51
tp592
a(I2139
I9
tp593
a(I1317
I9
tp594
a(I536
I51
tp595
a(I1161
I51
tp596
a(I1538
I9
tp597
a(I542
I9
tp598
a(I330
I51
tp599
a(I1367
I9
tp600
a(I949
I9
tp601
a(I1800
I51
tp602
a(I338
I51
tp603
a(I1999
I9
tp604
a(I1615
I51
tp605
a(I949
I51
tp606
a(I2182
I51
tp607
a(I804
I9
tp608
a(I1860
I51
tp609
a(I831
I51
tp610
a(I2048
I51
tp611
a(I1275
I51
tp612
a(I1992
I9
tp613
a(I1152
I9
tp614
a(I2193
I51
tp615
a(I1356
I51
tp616
a(I1225
I51
tp617
a(I1079
I51
tp618
a(I486
I9
tp619
a(I1092
I9
tp620
a(I17
I9
tp621
a(I1090
I9
tp622
a(I1919
I9
tp623
a(I2140
I9
tp624
a(I663
I9
tp625
a(I724
I9
tp626
a(I722
I9
tp627
a(I2170
I51
tp628
a(I331
I51
tp629
a(I1734
I51
tp630
a(I1641
I51
tp631
a(I689
I51
tp632
a(I1971
I51
tp633
a(I331
I9
tp634
a(I571
I51
tp635
a(I741
I51
tp636
a(I950
I51
tp637
a(I1192
I51
tp638
a(I961
I9
tp639
a(I1566
I51
tp640
a(I2178
I51
tp641
a(I816
I51
tp642
a(I2011
I9
tp643
a(I1276
I51
tp644
a(I583
I9
tp645
a(I631
I51
tp646
a(I1830
I9
tp647
a(I1619
I9
tp648
a(I1634
I51
tp649
a(I1617
I9
tp650
a(I2013
I51
tp651
a(I816
I9
tp652
a(I1356
I9
tp653
a(I1793
I51
tp654
a(I1663
I51
tp655
a(I1881
I9
tp656
a(I650
I9
tp657
a(I1030
I51
tp658
a(I241
I51
tp659
a(I708
I51
tp660
a(I1469
I51
tp661
a(I1920
I51
tp662
a(I1881
I51
tp663
a(I332
I51
tp664
a(I1527
I9
tp665
a(I744
I51
tp666
a(I1332
I9
tp667
a(I1972
I51
tp668
a(I1118
I51
tp669
a(I943
I51
tp670
a(I334
I9
tp671
a(I332
I9
tp672
a(I572
I51
tp673
a(I742
I51
tp674
a(I951
I51
tp675
a(I962
I9
tp676
a(I334
I51
tp677
a(I2014
I9
tp678
a(I2012
I9
tp679
a(I1291
I51
tp680
a(I1000
I9
tp681
a(I1345
I51
tp682
a(I545
I9
tp683
a(I1618
I9
tp684
a(I1177
I9
tp685
a(I1443
I51
tp686
a(I1585
I51
tp687
a(I1794
I51
tp688
a(I2225
I9
tp689
a(I1021
I51
tp690
a(I1821
I9
tp691
a(I1177
I51
tp692
a(I1882
I9
tp693
a(I1455
I9
tp694
a(I2080
I9
tp695
a(I1882
I51
tp696
a(I260
I9
tp697
a(I61
I9
tp698
a(I1310
I9
tp699
a(I2211
I51
tp700
a(I283
I51
tp701
a(I2170
I9
tp702
a(I693
I9
tp703
a(I641
I51
tp704
a(I82
I51
tp705
a(I126
I51
tp706
a(I335
I51
tp707
a(I489
I51
tp708
a(I523
I51
tp709
a(I693
I51
tp710
a(I1976
I9
tp711
a(I1990
I9
tp712
a(I1779
I9
tp713
a(I1777
I9
tp714
a(I546
I9
tp715
a(I523
I9
tp716
a(I584
I9
tp717
a(I583
I51
tp718
a(I820
I51
tp719
a(I1890
I51
tp720
a(I1885
I9
tp721
a(I155
I9
tp722
a(I444
I51
tp723
a(I787
I9
tp724
a(I1860
I9
tp725
a(I2148
I51
tp726
a(I1858
I9
tp727
a(I157
I51
tp728
a(I1661
I9
tp729
a(I1883
I51
tp730
a(I417
I9
tp731
a(I1039
I9
tp732
a(I640
I9
tp733
a(I1037
I9
tp734
a(I25
I9
tp735
a(I1528
I9
tp736
a(I1669
I9
tp737
a(I1899
I9
tp738
a(I642
I51
tp739
a(I25
I51
tp740
a(I1339
I51
tp741
a(I730
I9
tp742
a(I2227
I9
tp743
a(I1780
I9
tp744
a(I1778
I9
tp745
a(I526
I9
tp746
a(I730
I51
tp747
a(I339
I9
tp748
a(I337
I9
tp749
a(I2208
I9
tp750
a(I526
I51
tp751
a(I1981
I9
tp752
a(I158
I9
tp753
a(I1823
I9
tp754
a(I156
I9
tp755
a(I1179
I51
tp756
a(I1192
I9
tp757
a(I1661
I51
tp758
a(I788
I9
tp759
a(I1876
I51
tp760
a(I589
I9
tp761
a(I1836
I9
tp762
a(I1992
I51
tp763
a(I1884
I51
tp764
a(I1912
I51
tp765
a(I1470
I9
tp766
a(I1834
I51
tp767
a(I26
I9
tp768
a(I483
I51
tp769
a(I687
I51
tp770
a(I78
I9
tp771
a(I26
I51
tp772
a(I1340
I51
tp773
a(I647
I9
tp774
a(I1126
I9
tp775
a(I708
I9
tp776
a(I1053
I51
tp777
a(I78
I51
tp778
a(I1290
I51
tp779
a(I744
I9
tp780
a(I1089
I51
tp781
a(I340
I9
tp782
a(I1313
I9
tp783
a(I338
I9
tp784
a(I1536
I9
tp785
a(I1995
I51
tp786
a(I2182
I9
tp787
a(I1579
I9
tp788
a(I1538
I51
tp789
a(I1216
I51
tp790
a(I1995
I9
tp791
a(I2105
I9
tp792
a(I1800
I9
tp793
a(I545
I51
tp794
a(I628
I9
tp795
a(I1601
I9
tp796
a(I1268
I51
tp797
a(I1182
I51
tp798
a(I603
I9
tp799
a(I597
I51
tp800
a(I1883
I9
tp801
a(I484
I51
tp802
a(I831
I9
tp803
a(I633
I51
tp804
a(I27
I51
tp805
a(I1879
I9
tp806
a(I54
I9
tp807
a(I2211
I9
tp808
a(I850
I51
tp809
a(I724
I51
tp810
a(I1088
I9
tp811
a(I233
I51
tp812
a(I1082
I51
tp813
a(I1152
I51
tp814
a(I732
I51
tp815
a(I1734
I9
tp816
a(I1090
I51
tp817
a(I1314
I9
tp818
a(I61
I51
tp819
a(I1134
I51
tp820
a(I1322
I51
tp821
a(I1291
I9
tp822
a(I682
I51
tp823
a(I1787
I51
tp824
a(I1996
I51
tp825
a(I2167
I9
tp826
a(I948
I9
tp827
a(I1921
I9
tp828
a(I946
I9
tp829
a(I751
I9
tp830
a(I1737
I51
tp831
a(I1996
I9
tp832
a(I1782
I51
tp833
a(I998
I9
tp834
a(I531
I9
tp835
a(I546
I51
tp836
a(I1282
I9
tp837
a(I606
I9
tp838
a(I953
I51
tp839
a(I1161
I9
tp840
a(I1836
I51
tp841
a(I1013
I9
tp842
a(I1654
I9
tp843
a(I961
I51
tp844
a(I2209
I9
tp845
a(I2238
I51
tp846
a(I28
I51
tp847
a(I1013
I51
tp848
asS'runtime'
p849
F0.3022449016571045
sS'name'
p850
S'["fd_checker", [["product_nm", "total_cases"]]]'
p851
s.