(dp0
S'output'
p1
(lp2
(I730
I24
tp3
a(I833
I24
tp4
a(I2177
I5
tp5
a(I2177
I24
tp6
a(I833
I5
tp7
a(I730
I5
tp8
a(I990
I5
tp9
a(I990
I24
tp10
asS'runtime'
p11
F0.29845499992370605
sS'name'
p12
S'["fd_checker", [["app_ci_id", "impact"]]]'
p13
s.