(dp0
S'output'
p1
(lp2
(I833
I25
tp3
a(I2177
I5
tp4
a(I833
I5
tp5
a(I730
I5
tp6
a(I990
I5
tp7
a(I990
I25
tp8
a(I730
I25
tp9
a(I2177
I25
tp10
asS'runtime'
p11
F0.2978940010070801
sS'name'
p12
S'["fd_checker", [["app_ci_id", "urgency"]]]'
p13
s.