(dp0
S'output'
p1
(lp2
(I1283
I25
tp3
a(I1285
I10
tp4
a(I1283
I10
tp5
a(I1282
I10
tp6
a(I1285
I25
tp7
a(I1282
I25
tp8
asS'runtime'
p9
F0.3030831813812256
sS'name'
p10
S'["fd_checker", [["app_nm", "urgency"]]]'
p11
s.