(dp0
S'output'
p1
(lp2
(I1030
I9
tp3
a(I1918
I9
tp4
a(I425
I9
tp5
a(I1498
I9
tp6
a(I280
I9
tp7
a(I1822
I33
tp8
a(I1328
I9
tp9
a(I1974
I9
tp10
a(I484
I33
tp11
a(I1162
I9
tp12
a(I640
I33
tp13
a(I1214
I9
tp14
a(I597
I9
tp15
a(I214
I9
tp16
a(I1291
I33
tp17
a(I1322
I33
tp18
a(I2244
I9
tp19
a(I633
I9
tp20
a(I426
I9
tp21
a(I229
I9
tp22
a(I998
I33
tp23
a(I337
I33
tp24
a(I23
I9
tp25
a(I1526
I9
tp26
a(I82
I9
tp27
a(I655
I9
tp28
a(I1976
I9
tp29
a(I691
I9
tp30
a(I1242
I33
tp31
a(I26
I33
tp32
a(I647
I33
tp33
a(I573
I9
tp34
a(I1822
I9
tp35
a(I1003
I9
tp36
a(I2105
I9
tp37
a(I1328
I33
tp38
a(I609
I9
tp39
a(I330
I33
tp40
a(I1784
I33
tp41
a(I338
I33
tp42
a(I1536
I33
tp43
a(I241
I9
tp44
a(I2182
I33
tp45
a(I1035
I9
tp46
a(I2126
I9
tp47
a(I559
I33
tp48
a(I1976
I33
tp49
a(I2139
I33
tp50
a(I214
I33
tp51
a(I667
I9
tp52
a(I1322
I9
tp53
a(I603
I33
tp54
a(I1225
I33
tp55
a(I1776
I9
tp56
a(I125
I9
tp57
a(I299
I9
tp58
a(I2126
I33
tp59
a(I2050
I33
tp60
a(I1943
I9
tp61
a(I23
I33
tp62
a(I1152
I9
tp63
a(I1029
I33
tp64
a(I54
I33
tp65
a(I2079
I33
tp66
a(I1585
I9
tp67
a(I610
I9
tp68
a(I1109
I33
tp69
a(I587
I9
tp70
a(I1242
I9
tp71
a(I2159
I33
tp72
a(I1217
I9
tp73
a(I2167
I33
tp74
a(I1863
I9
tp75
a(I1566
I33
tp76
a(I1973
I33
tp77
a(I1899
I9
tp78
a(I573
I33
tp79
a(I483
I9
tp80
a(I1300
I9
tp81
a(I632
I33
tp82
a(I89
I9
tp83
a(I336
I9
tp84
a(I1030
I33
tp85
a(I241
I33
tp86
a(I1783
I9
tp87
a(I1035
I33
tp88
a(I1860
I9
tp89
a(I1087
I33
tp90
a(I2193
I9
tp91
a(I1218
I9
tp92
a(I1195
I9
tp93
a(I1776
I33
tp94
a(I125
I33
tp95
a(I1943
I33
tp96
a(I1974
I33
tp97
a(I1900
I9
tp98
a(I1951
I33
tp99
a(I1029
I9
tp100
a(I484
I9
tp101
a(I2079
I9
tp102
a(I1585
I33
tp103
a(I610
I33
tp104
a(I2031
I33
tp105
a(I1977
I9
tp106
a(I587
I33
tp107
a(I639
I33
tp108
a(I2139
I9
tp109
a(I514
I9
tp110
a(I1566
I9
tp111
a(I1443
I33
tp112
a(I1973
I9
tp113
a(I1526
I33
tp114
a(I82
I33
tp115
a(I126
I33
tp116
a(I489
I33
tp117
a(I1327
I33
tp118
a(I1972
I9
tp119
a(I718
I33
tp120
a(I545
I33
tp121
a(I1003
I33
tp122
a(I1920
I9
tp123
a(I330
I9
tp124
a(I1784
I9
tp125
a(I1528
I9
tp126
a(I1951
I9
tp127
a(I559
I9
tp128
a(I2208
I9
tp129
a(I1607
I9
tp130
a(I667
I33
tp131
a(I1225
I9
tp132
a(I719
I33
tp133
a(I299
I33
tp134
a(I996
I33
tp135
a(I1152
I33
tp136
a(I674
I9
tp137
a(I489
I9
tp138
a(I576
I9
tp139
a(I1834
I33
tp140
a(I2159
I9
tp141
a(I283
I9
tp142
a(I1356
I9
tp143
a(I1217
I33
tp144
a(I1863
I33
tp145
a(I2063
I33
tp146
a(I1899
I33
tp147
a(I1687
I33
tp148
a(I571
I9
tp149
a(I292
I33
tp150
a(I632
I9
tp151
a(I631
I33
tp152
a(I336
I33
tp153
a(I22
I9
tp154
a(I1783
I33
tp155
a(I536
I33
tp156
a(I2208
I33
tp157
a(I1087
I9
tp158
a(I1515
I9
tp159
a(I2193
I33
tp160
a(I1218
I33
tp161
a(I1615
I33
tp162
a(I1195
I33
tp163
a(I719
I9
tp164
a(I1900
I33
tp165
a(I233
I33
tp166
a(I1027
I33
tp167
a(I572
I9
tp168
a(I2078
I33
tp169
a(I674
I33
tp170
a(I1622
I9
tp171
a(I57
I33
tp172
a(I682
I33
tp173
a(I2031
I9
tp174
a(I631
I9
tp175
a(I1834
I9
tp176
a(I1356
I33
tp177
a(I639
I9
tp178
a(I1884
I9
tp179
a(I514
I33
tp180
a(I558
I33
tp181
a(I1443
I9
tp182
a(I2063
I9
tp183
a(I1971
I33
tp184
a(I543
I33
tp185
a(I2238
I33
tp186
a(I571
I33
tp187
a(I49
I9
tp188
a(I126
I9
tp189
a(I234
I33
tp190
a(I1327
I9
tp191
a(I1325
I9
tp192
a(I22
I33
tp193
a(I1028
I33
tp194
a(I536
I9
tp195
a(I30
I33
tp196
a(I437
I33
tp197
a(I35
I33
tp198
a(I1615
I9
tp199
a(I1216
I9
tp200
a(I1613
I9
tp201
a(I1920
I33
tp202
a(I1862
I9
tp203
a(I1649
I9
tp204
a(I444
I9
tp205
a(I233
I9
tp206
a(I1027
I9
tp207
a(I572
I33
tp208
a(I1025
I9
tp209
a(I50
I9
tp210
a(I1622
I33
tp211
a(I27
I9
tp212
a(I682
I9
tp213
a(I1599
I33
tp214
a(I1630
I33
tp215
a(I1607
I33
tp216
a(I1919
I9
tp217
a(I1782
I9
tp218
a(I1817
I33
tp219
a(I1413
I33
tp220
a(I1339
I9
tp221
a(I1086
I33
tp222
a(I1971
I9
tp223
a(I996
I9
tp224
a(I543
I9
tp225
a(I72
I33
tp226
a(I2140
I9
tp227
a(I49
I33
tp228
a(I577
I9
tp229
a(I1824
I9
tp230
a(I1687
I9
tp231
a(I234
I9
tp232
a(I422
I9
tp233
a(I283
I33
tp234
a(I1028
I9
tp235
a(I1026
I9
tp236
a(I30
I9
tp237
a(I28
I9
tp238
a(I335
I33
tp239
a(I437
I9
tp240
a(I1369
I33
tp241
a(I586
I33
tp242
a(I1613
I33
tp243
a(I638
I33
tp244
a(I292
I9
tp245
a(I1818
I33
tp246
a(I1972
I33
tp247
a(I1340
I9
tp248
a(I1649
I33
tp249
a(I444
I33
tp250
a(I546
I33
tp251
a(I50
I33
tp252
a(I1502
I33
tp253
a(I1530
I33
tp254
a(I1630
I9
tp255
a(I1515
I33
tp256
a(I1817
I9
tp257
a(I1977
I33
tp258
a(I1413
I9
tp259
a(I1339
I33
tp260
a(I1890
I9
tp261
a(I1347
I33
tp262
a(I2140
I33
tp263
a(I57
I9
tp264
a(I1023
I33
tp265
a(I1824
I33
tp266
a(I422
I33
tp267
a(I1876
I33
tp268
a(I1884
I33
tp269
a(I335
I9
tp270
a(I333
I9
tp271
a(I558
I9
tp272
a(I1787
I9
tp273
a(I1369
I9
tp274
a(I89
I33
tp275
a(I592
I9
tp276
a(I2238
I9
tp277
a(I1818
I9
tp278
a(I1015
I9
tp279
a(I1238
I9
tp280
a(I1340
I33
tp281
a(I1793
I9
tp282
a(I1325
I33
tp283
a(I1781
I33
tp284
a(I1502
I9
tp285
a(I35
I9
tp286
a(I1216
I33
tp287
a(I1862
I33
tp288
a(I1268
I33
tp289
a(I1890
I33
tp290
a(I2105
I33
tp291
a(I1347
I9
tp292
a(I1345
I9
tp293
a(I1568
I9
tp294
a(I644
I33
tp295
a(I1025
I33
tp296
a(I1919
I33
tp297
a(I27
I33
tp298
a(I1794
I9
tp299
a(I1599
I9
tp300
a(I1113
I33
tp301
a(I832
I9
tp302
a(I1782
I33
tp303
a(I635
I9
tp304
a(I1759
I33
tp305
a(I333
I33
tp306
a(I1787
I33
tp307
a(I1086
I9
tp308
a(I1830
I9
tp309
a(I72
I9
tp310
a(I641
I9
tp311
a(I493
I9
tp312
a(I1238
I33
tp313
a(I716
I9
tp314
a(I577
I33
tp315
a(I2073
I9
tp316
a(I232
I33
tp317
a(I1026
I33
tp318
a(I1781
I9
tp319
a(I28
I33
tp320
a(I5
I33
tp321
a(I586
I9
tp322
a(I774
I9
tp323
a(I638
I9
tp324
a(I1297
I33
tp325
a(I1268
I9
tp326
a(I718
I9
tp327
a(I1568
I33
tp328
a(I542
I33
tp329
a(I644
I9
tp330
a(I642
I9
tp331
a(I2244
I33
tp332
a(I1530
I9
tp333
a(I1113
I9
tp334
a(I326
I9
tp335
a(I635
I33
tp336
a(I1759
I9
tp337
a(I759
I9
tp338
a(I539
I9
tp339
a(I1092
I33
tp340
a(I1297
I9
tp341
a(I716
I33
tp342
a(I1023
I9
tp343
a(I1648
I9
tp344
a(I232
I9
tp345
a(I1876
I9
tp346
a(I1024
I9
tp347
a(I1925
I33
tp348
a(I5
I9
tp349
a(I584
I33
tp350
a(I592
I33
tp351
a(I1015
I33
tp352
a(I787
I33
tp353
a(I1793
I33
tp354
a(I1538
I9
tp355
a(I542
I9
tp356
a(I1367
I9
tp357
a(I1528
I33
tp358
a(I1332
I33
tp359
a(I334
I33
tp360
a(I339
I33
tp361
a(I1345
I33
tp362
a(I486
I9
tp363
a(I1092
I9
tp364
a(I1109
I9
tp365
a(I788
I33
tp366
a(I1794
I33
tp367
a(I663
I9
tp368
a(I1648
I33
tp369
a(I1177
I33
tp370
a(I2078
I9
tp371
a(I1823
I33
tp372
a(I832
I33
tp373
a(I1925
I9
tp374
a(I331
I9
tp375
a(I260
I33
tp376
a(I641
I33
tp377
a(I583
I9
tp378
a(I493
I33
tp379
a(I1310
I33
tp380
a(I1860
I33
tp381
a(I340
I33
tp382
a(I1367
I33
tp383
a(I1779
I33
tp384
a(I774
I33
tp385
a(I1332
I9
tp386
a(I334
I9
tp387
a(I332
I9
tp388
a(I486
I33
tp389
a(I642
I33
tp390
a(I25
I33
tp391
a(I663
I33
tp392
a(I1177
I9
tp393
a(I2225
I9
tp394
a(I730
I33
tp395
a(I1823
I9
tp396
a(I1821
I9
tp397
a(I326
I33
tp398
a(I1780
I33
tp399
a(I526
I33
tp400
a(I331
I33
tp401
a(I759
I33
tp402
a(I2080
I9
tp403
a(I531
I33
tp404
a(I539
I33
tp405
a(I260
I9
tp406
a(I1161
I33
tp407
a(I1192
I33
tp408
a(I61
I9
tp409
a(I1310
I9
tp410
a(I2211
I33
tp411
a(I545
I9
tp412
a(I1024
I33
tp413
a(I1918
I33
tp414
a(I1779
I9
tp415
a(I1777
I9
tp416
a(I546
I9
tp417
a(I523
I9
tp418
a(I584
I9
tp419
a(I78
I33
tp420
a(I708
I33
tp421
a(I787
I9
tp422
a(I332
I33
tp423
a(I1538
I33
tp424
a(I417
I9
tp425
a(I1162
I33
tp426
a(I640
I9
tp427
a(I1037
I9
tp428
a(I25
I9
tp429
a(I576
I33
tp430
a(I1214
I33
tp431
a(I597
I33
tp432
a(I628
I33
tp433
a(I2225
I33
tp434
a(I730
I9
tp435
a(I1780
I9
tp436
a(I633
I33
tp437
a(I1778
I9
tp438
a(I229
I33
tp439
a(I526
I9
tp440
a(I2080
I33
tp441
a(I339
I9
tp442
a(I337
I9
tp443
a(I2073
I33
tp444
a(I1192
I9
tp445
a(I61
I33
tp446
a(I1579
I33
tp447
a(I788
I9
tp448
a(I589
I9
tp449
a(I1777
I33
tp450
a(I26
I9
tp451
a(I523
I33
tp452
a(I78
I9
tp453
a(I647
I9
tp454
a(I606
I33
tp455
a(I708
I9
tp456
a(I583
I33
tp457
a(I609
I33
tp458
a(I340
I9
tp459
a(I338
I9
tp460
a(I1536
I9
tp461
a(I417
I33
tp462
a(I1037
I33
tp463
a(I2182
I9
tp464
a(I1579
I9
tp465
a(I425
I33
tp466
a(I1498
I33
tp467
a(I628
I9
tp468
a(I280
I33
tp469
a(I603
I9
tp470
a(I1778
I33
tp471
a(I2050
I9
tp472
a(I54
I9
tp473
a(I589
I33
tp474
a(I1291
I9
tp475
a(I2167
I9
tp476
a(I1821
I33
tp477
a(I426
I33
tp478
a(I998
I9
tp479
a(I531
I9
tp480
a(I606
I9
tp481
a(I483
I33
tp482
a(I1300
I33
tp483
a(I1161
I9
tp484
a(I655
I33
tp485
a(I2211
I9
tp486
a(I691
I33
tp487
a(I1830
I33
tp488
asS'runtime'
p489
F0.30440783500671387
sS'name'
p490
S'["fd_checker", [["product_nm", "division"]]]'
p491
s.