(dp0
S'output'
p1
(lp2
(I894
I58
tp3
a(I1728
I58
tp4
a(I199
I58
tp5
a(I2253
I35
tp6
a(I557
I58
tp7
a(I1134
I58
tp8
a(I1463
I58
tp9
a(I1727
I35
tp10
a(I736
I35
tp11
a(I332
I35
tp12
a(I1110
I35
tp13
a(I102
I35
tp14
a(I744
I35
tp15
a(I690
I35
tp16
a(I1703
I58
tp17
a(I2075
I58
tp18
a(I911
I35
tp19
a(I73
I35
tp20
a(I1525
I35
tp21
a(I81
I35
tp22
a(I138
I58
tp23
a(I1244
I58
tp24
a(I819
I58
tp25
a(I144
I58
tp26
a(I20
I58
tp27
a(I955
I58
tp28
a(I2238
I58
tp29
a(I634
I58
tp30
a(I1313
I58
tp31
a(I1647
I35
tp32
a(I2157
I58
tp33
a(I1227
I35
tp34
a(I1655
I35
tp35
a(I1585
I35
tp36
a(I610
I35
tp37
a(I403
I35
tp38
a(I4
I35
tp39
a(I1806
I35
tp40
a(I2080
I35
tp41
a(I870
I58
tp42
a(I618
I35
tp43
a(I411
I35
tp44
a(I2088
I35
tp45
a(I769
I35
tp46
a(I2197
I58
tp47
a(I736
I58
tp48
a(I1110
I58
tp49
a(I1439
I58
tp50
a(I1797
I58
tp51
a(I1743
I58
tp52
a(I471
I58
tp53
a(I1231
I35
tp54
a(I829
I58
tp55
a(I1147
I35
tp56
a(I1679
I58
tp57
a(I743
I35
tp58
a(I948
I35
tp59
a(I1101
I35
tp60
a(I1306
I35
tp61
a(I277
I35
tp62
a(I25
I58
tp63
a(I1220
I58
tp64
a(I1131
I58
tp65
a(I285
I35
tp66
a(I931
I58
tp67
a(I2214
I58
tp68
a(I610
I58
tp69
a(I2080
I58
tp70
a(I1264
I35
tp71
a(I472
I58
tp72
a(I2139
I35
tp73
a(I1638
I35
tp74
a(I1778
I35
tp75
a(I440
I35
tp76
a(I2062
I58
tp77
a(I495
I58
tp78
a(I814
I35
tp79
a(I1439
I35
tp80
a(I448
I35
tp81
a(I2085
I35
tp82
a(I394
I35
tp83
a(I1797
I35
tp84
a(I822
I35
tp85
a(I2087
I35
tp86
a(I402
I35
tp87
a(I1735
I35
tp88
a(I847
I35
tp89
a(I447
I58
tp90
a(I805
I58
tp91
a(I853
I58
tp92
a(I178
I58
tp93
a(I2243
I58
tp94
a(I524
I35
tp95
a(I1138
I35
tp96
a(I931
I35
tp97
a(I346
I58
tp98
a(I1
I58
tp99
a(I1196
I58
tp100
a(I314
I35
tp101
a(I939
I35
tp102
a(I1554
I58
tp103
a(I228
I58
tp104
a(I907
I58
tp105
a(I1297
I35
tp106
a(I322
I35
tp107
a(I586
I58
tp108
a(I1521
I58
tp109
a(I2056
I58
tp110
a(I1904
I58
tp111
a(I1492
I58
tp112
a(I448
I58
tp113
a(I1850
I58
tp114
a(I1761
I58
tp115
a(I822
I58
tp116
a(I1468
I35
tp117
a(I1880
I35
tp118
a(I1826
I35
tp119
a(I851
I35
tp120
a(I1476
I35
tp121
a(I447
I35
tp122
a(I1062
I58
tp123
a(I1834
I35
tp124
a(I859
I35
tp125
a(I805
I35
tp126
a(I455
I35
tp127
a(I2223
I58
tp128
a(I1217
I35
tp129
a(I423
I58
tp130
a(I813
I35
tp131
a(I781
I58
tp132
a(I1887
I58
tp133
a(I2202
I58
tp134
a(I663
I58
tp135
a(I1277
I58
tp136
a(I322
I58
tp137
a(I233
I58
tp138
a(I968
I35
tp139
a(I1909
I58
tp140
a(I204
I58
tp141
a(I115
I58
tp142
a(I2173
I35
tp143
a(I1754
I35
tp144
a(I2203
I58
tp145
a(I562
I58
tp146
a(I1497
I58
tp147
a(I375
I35
tp148
a(I305
I35
tp149
a(I2195
I35
tp150
a(I733
I35
tp151
a(I1468
I58
tp152
a(I1379
I58
tp153
a(I424
I58
tp154
a(I1826
I58
tp155
a(I1737
I58
tp156
a(I2162
I35
tp157
a(I1619
I58
tp158
a(I664
I58
tp159
a(I1879
I35
tp160
a(I888
I35
tp161
a(I1038
I58
tp162
a(I335
I58
tp163
a(I484
I35
tp164
a(I1262
I35
tp165
a(I1887
I35
tp166
a(I640
I35
tp167
a(I1602
I58
tp168
a(I1235
I58
tp169
a(I399
I58
tp170
a(I560
I58
tp171
a(I225
I35
tp172
a(I850
I35
tp173
a(I1863
I58
tp174
a(I233
I35
tp175
a(I895
I58
tp176
a(I2069
I35
tp177
a(I1253
I58
tp178
a(I298
I58
tp179
a(I209
I58
tp180
a(I693
I58
tp181
a(I181
I35
tp182
a(I2130
I58
tp183
a(I1996
I35
tp184
a(I180
I58
tp185
a(I91
I58
tp186
a(I1379
I35
tp187
a(I148
I35
tp188
a(I538
I58
tp189
a(I1473
I58
tp190
a(I1551
I35
tp191
a(I1737
I35
tp192
a(I762
I35
tp193
a(I1387
I35
tp194
a(I156
I35
tp195
a(I358
I35
tp196
a(I1444
I58
tp197
a(I2232
I35
tp198
a(I1745
I35
tp199
a(I514
I35
tp200
a(I400
I58
tp201
a(I1802
I58
tp202
a(I1713
I58
tp203
a(I2240
I35
tp204
a(I774
I58
tp205
a(I1578
I58
tp206
a(I1907
I35
tp207
a(I1684
I58
tp208
a(I1595
I58
tp209
a(I2194
I35
tp210
a(I640
I58
tp211
a(I2239
I58
tp212
a(I2104
I58
tp213
a(I1043
I35
tp214
a(I1668
I35
tp215
a(I895
I35
tp216
a(I1657
I35
tp217
a(I989
I58
tp218
a(I1051
I35
tp219
a(I1253
I35
tp220
a(I22
I35
tp221
a(I647
I35
tp222
a(I871
I58
tp223
a(I1261
I35
tp224
a(I2237
I58
tp225
a(I1229
I58
tp226
a(I274
I58
tp227
a(I2114
I35
tp228
a(I1111
I58
tp229
a(I156
I58
tp230
a(I67
I58
tp231
a(I1282
I58
tp232
a(I1008
I35
tp233
a(I496
I58
tp234
a(I1160
I35
tp235
a(I2198
I58
tp236
a(I2240
I58
tp237
a(I1588
I35
tp238
a(I481
I58
tp239
a(I559
I35
tp240
a(I1168
I35
tp241
a(I139
I35
tp242
a(I1542
I35
tp243
a(I753
I35
tp244
a(I1949
I35
tp245
a(I974
I35
tp246
a(I2239
I35
tp247
a(I872
I58
tp248
a(I1529
I58
tp249
a(I1017
I35
tp250
a(I2215
I58
tp251
a(I22
I58
tp252
a(I1112
I58
tp253
a(I1704
I58
tp254
a(I1080
I35
tp255
a(I965
I58
tp256
a(I676
I35
tp257
a(I1327
I35
tp258
a(I1088
I35
tp259
a(I1034
I35
tp260
a(I59
I35
tp261
a(I684
I35
tp262
a(I2114
I58
tp263
a(I1441
I35
tp264
a(I1042
I35
tp265
a(I67
I35
tp266
a(I13
I35
tp267
a(I2159
I35
tp268
a(I474
I35
tp269
a(I132
I58
tp270
a(I746
I58
tp271
a(I1778
I58
tp272
a(I2216
I58
tp273
a(I457
I58
tp274
a(I628
I58
tp275
a(I1307
I58
tp276
a(I596
I35
tp277
a(I2010
I58
tp278
a(I1665
I58
tp279
a(I176
I35
tp280
a(I1579
I35
tp281
a(I604
I35
tp282
a(I2235
I35
tp283
a(I550
I35
tp284
a(I1892
I58
tp285
a(I1547
I58
tp286
a(I1986
I35
tp287
a(I848
I58
tp288
a(I957
I35
tp289
a(I1222
I58
tp290
a(I2191
I58
tp291
a(I965
I35
tp292
a(I1088
I58
tp293
a(I941
I58
tp294
a(I120
I58
tp295
a(I1518
I58
tp296
a(I823
I58
tp297
a(I2090
I58
tp298
a(I2260
I35
tp299
a(I96
I35
tp300
a(I1181
I58
tp301
a(I1881
I35
tp302
a(I2243
I35
tp303
a(I1494
I35
tp304
a(I104
I35
tp305
a(I50
I35
tp306
a(I1063
I58
tp307
a(I1502
I35
tp308
a(I271
I35
tp309
a(I457
I35
tp310
a(I2168
I35
tp311
a(I722
I58
tp312
a(I2150
I35
tp313
a(I465
I35
tp314
a(I751
I58
tp315
a(I1772
I58
tp316
a(I76
I58
tp317
a(I433
I58
tp318
a(I604
I58
tp319
a(I1283
I58
tp320
a(I1011
I58
tp321
a(I499
I35
tp322
a(I1897
I58
tp323
a(I404
I58
tp324
a(I315
I58
tp325
a(I1764
I35
tp326
a(I1018
I58
tp327
a(I673
I58
tp328
a(I1868
I58
tp329
a(I1616
I35
tp330
a(I1738
I58
tp331
a(I587
I35
tp332
a(I792
I35
tp333
a(I1969
I35
tp334
a(I994
I35
tp335
a(I388
I35
tp336
a(I1970
I35
tp337
a(I377
I35
tp338
a(I1002
I35
tp339
a(I1064
I58
tp340
a(I955
I35
tp341
a(I129
I35
tp342
a(I96
I58
tp343
a(I1494
I58
tp344
a(I2066
I58
tp345
a(I1157
I58
tp346
a(I1772
I35
tp347
a(I1124
I35
tp348
a(I1260
I58
tp349
a(I189
I58
tp350
a(I1531
I35
tp351
a(I1039
I58
tp352
a(I103
I35
tp353
a(I1889
I35
tp354
a(I1653
I58
tp355
a(I1283
I35
tp356
a(I308
I35
tp357
a(I1485
I35
tp358
a(I2109
I58
tp359
a(I1897
I35
tp360
a(I666
I35
tp361
a(I409
I58
tp362
a(I580
I58
tp363
a(I1515
I58
tp364
a(I1873
I58
tp365
a(I291
I58
tp366
a(I1781
I35
tp367
a(I994
I58
tp368
a(I649
I58
tp369
a(I1844
I58
tp370
a(I1755
I58
tp371
a(I1812
I35
tp372
a(I624
I35
tp373
a(I2075
I35
tp374
a(I1145
I58
tp375
a(I791
I35
tp376
a(I206
I58
tp377
a(I268
I35
tp378
a(I174
I35
tp379
a(I944
I58
tp380
a(I72
I58
tp381
a(I1157
I35
tp382
a(I182
I35
tp383
a(I1470
I58
tp384
a(I1671
I35
tp385
a(I2222
I35
tp386
a(I1710
I58
tp387
a(I165
I58
tp388
a(I2175
I58
tp389
a(I882
I35
tp390
a(I1312
I35
tp391
a(I370
I58
tp392
a(I1629
I58
tp393
a(I2179
I58
tp394
a(I908
I35
tp395
a(I1686
I35
tp396
a(I902
I35
tp397
a(I1522
I35
tp398
a(I291
I35
tp399
a(I385
I58
tp400
a(I556
I58
tp401
a(I649
I35
tp402
a(I299
I35
tp403
a(I1077
I35
tp404
a(I267
I58
tp405
a(I657
I35
tp406
a(I940
I58
tp407
a(I881
I58
tp408
a(I1731
I58
tp409
a(I852
I58
tp410
a(I1604
I35
tp411
a(I1210
I58
tp412
a(I182
I58
tp413
a(I1803
I35
tp414
a(I828
I35
tp415
a(I1240
I35
tp416
a(I914
I35
tp417
a(I211
I35
tp418
a(I1614
I35
tp419
a(I1446
I58
tp420
a(I1194
I35
tp421
a(I219
I35
tp422
a(I165
I35
tp423
a(I577
I35
tp424
a(I1312
I58
tp425
a(I173
I35
tp426
a(I2063
I35
tp427
a(I1686
I58
tp428
a(I141
I58
tp429
a(I1247
I58
tp430
a(I2257
I35
tp431
a(I1605
I58
tp432
a(I23
I58
tp433
a(I2213
I58
tp434
a(I637
I58
tp435
a(I1723
I35
tp436
a(I2163
I35
tp437
a(I1319
I35
tp438
a(I328
I35
tp439
a(I1731
I35
tp440
a(I756
I35
tp441
a(I1677
I35
tp442
a(I702
I35
tp443
a(I336
I35
tp444
a(I2109
I35
tp445
a(I1114
I35
tp446
a(I85
I35
tp447
a(I857
I58
tp448
a(I1796
I58
tp449
a(I1707
I58
tp450
a(I2180
I35
tp451
a(I93
I35
tp452
a(I828
I58
tp453
a(I739
I58
tp454
a(I2169
I35
tp455
a(I1186
I58
tp456
a(I1097
I58
tp457
a(I158
I58
tp458
a(I2003
I58
tp459
a(I24
I58
tp460
a(I1800
I58
tp461
a(I1239
I35
tp462
a(I248
I35
tp463
a(I271
I58
tp464
a(I1597
I35
tp465
a(I622
I35
tp466
a(I1247
I35
tp467
a(I0
I35
tp468
a(I202
I35
tp469
a(I1288
I58
tp470
a(I752
I58
tp471
a(I630
I35
tp472
a(I373
I58
tp473
a(I2100
I35
tp474
a(I2057
I58
tp475
a(I1581
I58
tp476
a(I1784
I58
tp477
a(I2054
I35
tp478
a(I2062
I35
tp479
a(I613
I58
tp480
a(I885
I58
tp481
a(I1760
I35
tp482
a(I373
I35
tp483
a(I2229
I35
tp484
a(I1785
I58
tp485
a(I475
I58
tp486
a(I1714
I35
tp487
a(I739
I35
tp488
a(I922
I58
tp489
a(I2028
I58
tp490
a(I1097
I35
tp491
a(I122
I35
tp492
a(I747
I35
tp493
a(I804
I58
tp494
a(I1105
I35
tp495
a(I898
I35
tp496
a(I1162
I58
tp497
a(I1073
I58
tp498
a(I281
I35
tp499
a(I1680
I58
tp500
a(I1044
I58
tp501
a(I1979
I58
tp502
a(I0
I58
tp503
a(I1658
I58
tp504
a(I630
I58
tp505
a(I1276
I35
tp506
a(I430
I58
tp507
a(I1634
I35
tp508
a(I1028
I35
tp509
a(I1894
I58
tp510
a(I349
I58
tp511
a(I2157
I35
tp512
a(I613
I35
tp513
a(I406
I35
tp514
a(I7
I35
tp515
a(I1793
I35
tp516
a(I1760
I58
tp517
a(I231
I58
tp518
a(I621
I35
tp519
a(I414
I35
tp520
a(I589
I58
tp521
a(I2091
I35
tp522
a(I2059
I58
tp523
a(I1495
I58
tp524
a(I451
I58
tp525
a(I1853
I58
tp526
a(I944
I35
tp527
a(I898
I58
tp528
a(I809
I58
tp529
a(I520
I35
tp530
a(I1150
I35
tp531
a(I780
I58
tp532
a(I691
I58
tp533
a(I2094
I58
tp534
a(I1049
I58
tp535
a(I951
I35
tp536
a(I113
I35
tp537
a(I334
I35
tp538
a(I1276
I58
tp539
a(I232
I58
tp540
a(I1634
I58
tp541
a(I1465
I58
tp542
a(I606
I58
tp543
a(I1636
I58
tp544
a(I406
I58
tp545
a(I1496
I58
tp546
a(I1464
I35
tp547
a(I1870
I58
tp548
a(I325
I58
tp549
a(I1472
I35
tp550
a(I1736
I58
tp551
a(I207
I58
tp552
a(I1846
I35
tp553
a(I2120
I35
tp554
a(I565
I58
tp555
a(I451
I35
tp556
a(I397
I35
tp557
a(I809
I35
tp558
a(I1471
I58
tp559
a(I427
I58
tp560
a(I1829
I58
tp561
a(I106
I58
tp562
a(I785
I58
tp563
a(I1877
I35
tp564
a(I1548
I35
tp565
a(I1012
I58
tp566
a(I667
I58
tp567
a(I1990
I58
tp568
a(I980
I35
tp569
a(I1025
I58
tp570
a(I988
I35
tp571
a(I57
I58
tp572
a(I1252
I58
tp573
a(I371
I35
tp574
a(I317
I35
tp575
a(I729
I35
tp576
a(I325
I35
tp577
a(I1472
I58
tp578
a(I1846
I58
tp579
a(I301
I58
tp580
a(I504
I58
tp581
a(I2136
I58
tp582
a(I878
I58
tp583
a(I1712
I58
tp584
a(I183
I58
tp585
a(I2175
I35
tp586
a(I1471
I35
tp587
a(I541
I58
tp588
a(I1883
I35
tp589
a(I1829
I35
tp590
a(I854
I35
tp591
a(I230
I35
tp592
a(I488
I35
tp593
a(I434
I35
tp594
a(I1447
I58
tp595
a(I1316
I58
tp596
a(I862
I35
tp597
a(I2164
I35
tp598
a(I2104
I35
tp599
a(I82
I58
tp600
a(I687
I58
tp601
a(I1687
I58
tp602
a(I12
I58
tp603
a(I988
I58
tp604
a(I643
I58
tp605
a(I2073
I35
tp606
a(I1779
I35
tp607
a(I947
I58
tp608
a(I272
I58
tp609
a(I1257
I58
tp610
a(I1992
I35
tp611
a(I1700
I35
tp612
a(I378
I58
tp613
a(I1228
I58
tp614
a(I1139
I58
tp615
a(I1674
I58
tp616
a(I971
I35
tp617
a(I1586
I58
tp618
a(I152
I35
tp619
a(I1329
I35
tp620
a(I354
I35
tp621
a(I526
I35
tp622
a(I626
I58
tp623
a(I362
I35
tp624
a(I2198
I35
tp625
a(I793
I35
tp626
a(I854
I58
tp627
a(I1688
I58
tp628
a(I159
I58
tp629
a(I1871
I58
tp630
a(I1508
I35
tp631
a(I1664
I35
tp632
a(I1866
I35
tp633
a(I891
I35
tp634
a(I1516
I35
tp635
a(I487
I35
tp636
a(I1249
I35
tp637
a(I1874
I35
tp638
a(I643
I35
tp639
a(I1257
I35
tp640
a(I26
I35
tp641
a(I964
I58
tp642
a(I875
I58
tp643
a(I1855
I35
tp644
a(I1233
I58
tp645
a(I2229
I58
tp646
a(I1717
I35
tp647
a(I354
I58
tp648
a(I1204
I58
tp649
a(I1115
I58
tp650
a(I1172
I35
tp651
a(I1562
I58
tp652
a(I915
I58
tp653
a(I2170
I58
tp654
a(I1786
I35
tp655
a(I1180
I35
tp656
a(I1382
I35
tp657
a(I151
I35
tp658
a(I2190
I58
tp659
a(I1538
I35
tp660
a(I563
I35
tp661
a(I765
I35
tp662
a(I159
I35
tp663
a(I2213
I35
tp664
a(I456
I58
tp665
a(I830
I58
tp666
a(I1664
I58
tp667
a(I135
I58
tp668
a(I1863
I35
tp669
a(I749
I58
tp670
a(I2219
I58
tp671
a(I1070
I58
tp672
a(I2111
I58
tp673
a(I631
I58
tp674
a(I912
I58
tp675
a(I672
I35
tp676
a(I306
I58
tp677
a(I2013
I58
tp678
a(I431
I58
tp679
a(I70
I35
tp680
a(I680
I35
tp681
a(I789
I58
tp682
a(I1895
I58
tp683
a(I79
I35
tp684
a(I1019
I35
tp685
a(I17
I35
tp686
a(I1260
I35
tp687
a(I330
I58
tp688
a(I241
I58
tp689
a(I1180
I58
tp690
a(I1091
I58
tp691
a(I1538
I58
tp692
a(I212
I58
tp693
a(I123
I58
tp694
a(I1540
I35
tp695
a(I1505
I58
tp696
a(I1583
I35
tp697
a(I1770
I58
tp698
a(I2093
I58
tp699
a(I1163
I35
tp700
a(I188
I35
tp701
a(I1591
I35
tp702
a(I600
I35
tp703
a(I1777
I35
tp704
a(I546
I35
tp705
a(I432
I58
tp706
a(I196
I35
tp707
a(I1998
I35
tp708
a(I806
I58
tp709
a(I554
I35
tp710
a(I1896
I58
tp711
a(I961
I35
tp712
a(I2226
I35
tp713
a(I672
I58
tp714
a(I607
I58
tp715
a(I2171
I58
tp716
a(I1989
I58
tp717
a(I407
I58
tp718
a(I1021
I58
tp719
a(I1083
I35
tp720
a(I1708
I35
tp721
a(I679
I35
tp722
a(I1091
I35
tp723
a(I116
I35
tp724
a(I1037
I35
tp725
a(I62
I35
tp726
a(I921
I35
tp727
a(I1498
I35
tp728
a(I469
I35
tp729
a(I217
I58
tp730
a(I1156
I58
tp731
a(I1067
I58
tp732
a(I2146
I35
tp733
a(I2181
I58
tp734
a(I477
I35
tp735
a(I188
I58
tp736
a(I99
I58
tp737
a(I2154
I35
tp738
a(I546
I58
tp739
a(I1481
I58
tp740
a(I1652
I58
tp741
a(I1620
I35
tp742
a(I1200
I35
tp743
a(I408
I58
tp744
a(I1628
I35
tp745
a(I1574
I35
tp746
a(I599
I35
tp747
a(I782
I58
tp748
a(I463
I58
tp749
a(I1981
I35
tp750
a(I1006
I35
tp751
a(I607
I35
tp752
a(I384
I35
tp753
a(I1730
I58
tp754
a(I648
I58
tp755
a(I1989
I35
tp756
a(I1014
I35
tp757
a(I1278
I58
tp758
a(I583
I58
tp759
a(I1144
I58
tp760
a(I997
I58
tp761
a(I1847
I58
tp762
a(I821
I58
tp763
a(I1120
I35
tp764
a(I309
I35
tp765
a(I879
I58
tp766
a(I2146
I58
tp767
a(I1721
I58
tp768
a(I1128
I35
tp769
a(I1209
I35
tp770
a(I1074
I35
tp771
a(I99
I35
tp772
a(I282
I58
tp773
a(I193
I58
tp774
a(I1295
I35
tp775
a(I1481
I35
tp776
a(I506
I35
tp777
a(I107
I35
tp778
a(I1746
I58
tp779
a(I164
I58
tp780
a(I75
I58
tp781
a(I1489
I35
tp782
a(I522
I58
tp783
a(I1457
I58
tp784
a(I1628
I58
tp785
a(I2248
I58
tp786
a(I1872
I58
tp787
a(I384
I58
tp788
a(I1332
I58
tp789
a(I1697
I58
tp790
a(I1014
I58
tp791
a(I1611
I35
tp792
a(I636
I35
tp793
a(I1816
I35
tp794
a(I2018
I35
tp795
a(I787
I35
tp796
a(I2026
I35
tp797
a(I795
I35
tp798
a(I2060
I35
tp799
a(I997
I35
tp800
a(I391
I35
tp801
a(I1153
I35
tp802
a(I1120
I58
tp803
a(I1005
I35
tp804
a(I973
I58
tp805
a(I1823
I58
tp806
a(I855
I58
tp807
a(I1213
I58
tp808
a(I112
I35
tp809
a(I169
I58
tp810
a(I2077
I58
tp811
a(I904
I35
tp812
a(I2167
I58
tp813
a(I1332
I35
tp814
a(I1534
I35
tp815
a(I303
I35
tp816
a(I51
I58
tp817
a(I2141
I35
tp818
a(I1690
I35
tp819
a(I661
I35
tp820
a(I1286
I35
tp821
a(I311
I35
tp822
a(I497
I35
tp823
a(I2224
I58
tp824
a(I669
I35
tp825
a(I636
I58
tp826
a(I1315
I58
tp827
a(I2018
I58
tp828
a(I1673
I58
tp829
a(I1510
I35
tp830
a(I990
I58
tp831
a(I1555
I58
tp832
a(I856
I58
tp833
a(I1662
I35
tp834
a(I824
I35
tp835
a(I1230
I58
tp836
a(I420
I35
tp837
a(I1455
I35
tp838
a(I1198
I35
tp839
a(I1823
I35
tp840
a(I832
I35
tp841
a(I778
I35
tp842
a(I1203
I58
tp843
a(I428
I35
tp844
a(I1206
I35
tp845
a(I161
I35
tp846
a(I786
I35
tp847
a(I1799
I58
tp848
a(I169
I35
tp849
a(I831
I58
tp850
a(I2261
I35
tp851
a(I1189
I58
tp852
a(I490
I58
tp853
a(I145
I58
tp854
a(I998
I58
tp855
a(I1906
I58
tp856
a(I1071
I58
tp857
a(I372
I58
tp858
a(I1315
I35
tp859
a(I340
I35
tp860
a(I730
I58
tp861
a(I1580
I58
tp862
a(I1673
I35
tp863
a(I2200
I58
tp864
a(I348
I35
tp865
a(I294
I35
tp866
a(I612
I58
tp867
a(I1291
I58
tp868
a(I1681
I35
tp869
a(I706
I35
tp870
a(I1994
I58
tp871
a(I1905
I58
tp872
a(I2176
I35
tp873
a(I966
I58
tp874
a(I1876
I58
tp875
a(I1787
I58
tp876
a(I832
I58
tp877
a(I2145
I35
tp878
a(I1206
I58
tp879
a(I1852
I35
tp880
a(I2072
I58
tp881
a(I238
I58
tp882
a(I1072
I58
tp883
a(I1860
I35
tp884
a(I2111
I35
tp885
a(I831
I35
tp886
a(I1593
I35
tp887
a(I925
I58
tp888
a(I1243
I35
tp889
a(I1189
I35
tp890
a(I214
I35
tp891
a(I313
I58
tp892
a(I1601
I35
tp893
a(I807
I58
tp894
a(I1197
I35
tp895
a(I222
I35
tp896
a(I2205
I58
tp897
a(I466
I58
tp898
a(I367
I35
tp899
a(I1630
I58
tp900
a(I348
I58
tp901
a(I3
I58
tp902
a(I1661
I58
tp903
a(I976
I35
tp904
a(I706
I58
tp905
a(I617
I58
tp906
a(I2176
I58
tp907
a(I1780
I35
tp908
a(I1640
I35
tp909
a(I417
I58
tp910
a(I588
I58
tp911
a(I1523
I58
tp912
a(I1866
I58
tp913
a(I331
I35
tp914
a(I1109
I35
tp915
a(I1734
I35
tp916
a(I689
I35
tp917
a(I1117
I35
tp918
a(I910
I35
tp919
a(I1237
I58
tp920
a(I1763
I58
tp921
a(I725
I35
tp922
a(I808
I58
tp923
a(I2183
I35
tp924
a(I1182
I58
tp925
a(I972
I58
tp926
a(I214
I58
tp927
a(I1275
I35
tp928
a(I953
I58
tp929
a(I901
I58
tp930
a(I1900
I35
tp931
a(I868
I35
tp932
a(I1646
I35
tp933
a(I1024
I35
tp934
a(I1226
I35
tp935
a(I783
I58
tp936
a(I1654
I35
tp937
a(I609
I35
tp938
a(I1234
I35
tp939
a(I3
I35
tp940
a(I205
I35
tp941
a(I2095
I35
tp942
a(I617
I35
tp943
a(I410
I35
tp944
a(I1279
I58
tp945
a(I324
I58
tp946
a(I235
I58
tp947
a(I1637
I58
tp948
a(I682
I58
tp949
a(I593
I58
tp950
a(I1909
I35
tp951
a(I393
I58
tp952
a(I564
I58
tp953
a(I1499
I58
tp954
a(I1763
I35
tp955
a(I532
I35
tp956
a(I1857
I58
tp957
a(I275
I58
tp958
a(I2106
I58
tp959
a(I1146
I35
tp960
a(I1771
I35
tp961
a(I540
I35
tp962
a(I2203
I35
tp963
a(I742
I35
tp964
a(I1828
I58
tp965
a(I1739
I58
tp966
a(I784
I58
tp967
a(I125
I35
tp968
a(I1158
I58
tp969
a(I2220
I35
tp970
a(I901
I35
tp971
a(I190
I58
tp972
a(I1024
I58
tp973
a(I1654
I58
tp974
a(I109
I58
tp975
a(I1015
I58
tp976
a(I1010
I35
tp977
a(I405
I35
tp978
a(I1373
I58
tp979
a(I2158
I58
tp980
a(I1637
I35
tp981
a(I6
I35
tp982
a(I149
I58
tp983
a(I1255
I58
tp984
a(I1645
I35
tp985
a(I1438
I35
tp986
a(I300
I58
tp987
a(I393
I35
tp988
a(I1613
I58
tp989
a(I2136
I35
tp990
a(I2140
I35
tp991
a(I658
I58
tp992
a(I2086
I35
tp993
a(I401
I35
tp994
a(I540
I58
tp995
a(I1475
I58
tp996
a(I1968
I58
tp997
a(I1833
I58
tp998
a(I507
I58
tp999
a(I1732
I35
tp1000
a(I954
I58
tp1001
a(I865
I58
tp1002
a(I1804
I58
tp1003
a(I1552
I35
tp1004
a(I1706
I58
tp1005
a(I523
I35
tp1006
a(I984
I35
tp1007
a(I1137
I35
tp1008
a(I930
I35
tp1009
a(I166
I58
tp1010
a(I938
I35
tp1011
a(I1256
I58
tp1012
a(I1711
I35
tp1013
a(I321
I35
tp1014
a(I991
I58
tp1015
a(I2258
I58
tp1016
a(I1060
I35
tp1017
a(I2241
I58
tp1018
a(I2140
I58
tp1019
a(I381
I58
tp1020
a(I1467
I35
tp1021
a(I1068
I35
tp1022
a(I1825
I35
tp1023
a(I1589
I58
tp1024
a(I1475
I35
tp1025
a(I500
I35
tp1026
a(I446
I35
tp1027
a(I2241
I35
tp1028
a(I1833
I35
tp1029
a(I858
I35
tp1030
a(I454
I35
tp1031
a(I1130
I58
tp1032
a(I1809
I58
tp1033
a(I483
I58
tp1034
a(I930
I58
tp1035
a(I1691
I58
tp1036
a(I2004
I35
tp1037
a(I560
I35
tp1038
a(I2012
I35
tp1039
a(I1928
I58
tp1040
a(I1081
I58
tp1041
a(I983
I35
tp1042
a(I142
I58
tp1043
a(I1232
I58
tp1044
a(I1341
I35
tp1045
a(I366
I35
tp1046
a(I991
I35
tp1047
a(I1606
I58
tp1048
a(I8
I58
tp1049
a(I880
I58
tp1050
a(I374
I35
tp1051
a(I638
I58
tp1052
a(I967
I58
tp1053
a(I2170
I35
tp1054
a(I1325
I58
tp1055
a(I1528
I58
tp1056
a(I2116
I58
tp1057
a(I1902
I58
tp1058
a(I357
I58
tp1059
a(I1207
I58
tp1060
a(I1013
I58
tp1061
a(I1504
I35
tp1062
a(I338
I58
tp1063
a(I1565
I58
tp1064
a(I76
I35
tp1065
a(I1878
I35
tp1066
a(I1913
I58
tp1067
a(I1512
I35
tp1068
a(I597
I58
tp1069
a(I483
I35
tp1070
a(I1886
I35
tp1071
a(I655
I35
tp1072
a(I2160
I35
tp1073
a(I491
I35
tp1074
a(I1106
I58
tp1075
a(I459
I58
tp1076
a(I849
I35
tp1077
a(I1721
I35
tp1078
a(I906
I58
tp1079
a(I817
I58
tp1080
a(I2012
I58
tp1081
a(I1667
I58
tp1082
a(I788
I58
tp1083
a(I699
I58
tp1084
a(I1057
I58
tp1085
a(I374
I58
tp1086
a(I1995
I35
tp1087
a(I1020
I35
tp1088
a(I1176
I35
tp1089
a(I1378
I35
tp1090
a(I147
I35
tp1091
a(I772
I35
tp1092
a(I1550
I35
tp1093
a(I614
I58
tp1094
a(I1386
I35
tp1095
a(I155
I35
tp1096
a(I357
I35
tp1097
a(I513
I35
tp1098
a(I1504
I58
tp1099
a(I365
I35
tp1100
a(I2092
I58
tp1101
a(I1878
I58
tp1102
a(I333
I58
tp1103
a(I1183
I58
tp1104
a(I2193
I35
tp1105
a(I1541
I58
tp1106
a(I215
I58
tp1107
a(I573
I58
tp1108
a(I1511
I35
tp1109
a(I264
I35
tp1110
a(I1667
I35
tp1111
a(I692
I35
tp1112
a(I1869
I35
tp1113
a(I894
I35
tp1114
a(I435
I58
tp1115
a(I2077
I35
tp1116
a(I1050
I35
tp1117
a(I21
I35
tp1118
a(I646
I35
tp1119
a(I1988
I58
tp1120
a(I1899
I58
tp1121
a(I2153
I58
tp1122
a(I1020
I58
tp1123
a(I675
I58
tp1124
a(I2105
I35
tp1125
a(I1378
I58
tp1126
a(I1033
I58
tp1127
a(I350
I58
tp1128
a(I1764
I58
tp1129
a(I216
I58
tp1130
a(I1175
I35
tp1131
a(I184
I35
tp1132
a(I590
I58
tp1133
a(I1587
I35
tp1134
a(I1484
I58
tp1135
a(I558
I35
tp1136
a(I1183
I35
tp1137
a(I192
I35
tp1138
a(I138
I35
tp1139
a(I1480
I58
tp1140
a(I883
I35
tp1141
a(I566
I35
tp1142
a(I1854
I58
tp1143
a(I146
I35
tp1144
a(I1159
I58
tp1145
a(I2238
I35
tp1146
a(I829
I35
tp1147
a(I1773
I58
tp1148
a(I1720
I58
tp1149
a(I191
I58
tp1150
a(I2246
I35
tp1151
a(I549
I58
tp1152
a(I1655
I58
tp1153
a(I1696
I35
tp1154
a(I2005
I35
tp1155
a(I1292
I35
tp1156
a(I1753
I58
tp1157
a(I411
I58
tp1158
a(I1813
I58
tp1159
a(I675
I35
tp1160
a(I769
I58
tp1161
a(I1103
I35
tp1162
a(I1033
I35
tp1163
a(I58
I35
tp1164
a(I683
I35
tp1165
a(I946
I35
tp1166
a(I996
I58
tp1167
a(I651
I58
tp1168
a(I1041
I35
tp1169
a(I66
I35
tp1170
a(I2156
I35
tp1171
a(I1644
I58
tp1172
a(I1265
I58
tp1173
a(I473
I35
tp1174
a(I2166
I35
tp1175
a(I1147
I58
tp1176
a(I192
I58
tp1177
a(I2164
I58
tp1178
a(I1594
I58
tp1179
a(I566
I58
tp1180
a(I1212
I35
tp1181
a(I1624
I35
tp1182
a(I970
I58
tp1183
a(I2149
I58
tp1184
a(I595
I35
tp1185
a(I1220
I35
tp1186
a(I1724
I58
tp1187
a(I191
I35
tp1188
a(I1830
I58
tp1189
a(I285
I58
tp1190
a(I603
I35
tp1191
a(I549
I35
tp1192
a(I199
I35
tp1193
a(I1985
I35
tp1194
a(I1696
I58
tp1195
a(I167
I58
tp1196
a(I557
I35
tp1197
a(I525
I58
tp1198
a(I1631
I58
tp1199
a(I2251
I58
tp1200
a(I815
I58
tp1201
a(I140
I58
tp1202
a(I387
I58
tp1203
a(I2082
I58
tp1204
a(I912
I35
tp1205
a(I66
I58
tp1206
a(I1001
I58
tp1207
a(I1703
I35
tp1208
a(I1140
I35
tp1209
a(I111
I35
tp1210
a(I720
I35
tp1211
a(I2166
I58
tp1212
a(I2101
I35
tp1213
a(I1493
I35
tp1214
a(I1241
I58
tp1215
a(I119
I35
tp1216
a(I1817
I58
tp1217
a(I1501
I35
tp1218
a(I270
I35
tp1219
a(I1212
I58
tp1220
a(I1008
I58
tp1221
a(I168
I58
tp1222
a(I2149
I35
tp1223
a(I542
I58
tp1224
a(I1604
I58
tp1225
a(I2186
I35
tp1226
a(I1211
I35
tp1227
a(I1623
I35
tp1228
a(I632
I35
tp1229
a(I1806
I58
tp1230
a(I261
I58
tp1231
a(I228
I35
tp1232
a(I1631
I35
tp1233
a(I586
I35
tp1234
a(I1672
I58
tp1235
a(I143
I58
tp1236
a(I2056
I35
tp1237
a(I993
I35
tp1238
a(I757
I58
tp1239
a(I387
I35
tp1240
a(I1607
I58
tp1241
a(I2064
I35
tp1242
a(I1001
I35
tp1243
a(I639
I58
tp1244
a(I2145
I58
tp1245
a(I2167
I35
tp1246
a(I1983
I35
tp1247
a(I977
I58
tp1248
a(I1845
I35
tp1249
a(I1903
I58
tp1250
a(I2231
I35
tp1251
a(I948
I58
tp1252
a(I859
I58
tp1253
a(I2142
I58
tp1254
a(I916
I35
tp1255
a(I1306
I58
tp1256
a(I1217
I58
tp1257
a(I1530
I35
tp1258
a(I1131
I35
tp1259
a(I924
I35
tp1260
a(I249
I58
tp1261
a(I1188
I58
tp1262
a(I1099
I58
tp1263
a(I1282
I35
tp1264
a(I307
I35
tp1265
a(I665
I35
tp1266
a(I261
I35
tp1267
a(I2101
I58
tp1268
a(I440
I58
tp1269
a(I1660
I35
tp1270
a(I814
I58
tp1271
a(I1811
I35
tp1272
a(I375
I58
tp1273
a(I639
I35
tp1274
a(I416
I35
tp1275
a(I733
I58
tp1276
a(I1819
I35
tp1277
a(I790
I35
tp1278
a(I345
I58
tp1279
a(I424
I35
tp1280
a(I615
I58
tp1281
a(I1997
I58
tp1282
a(I2072
I35
tp1283
a(I18
I58
tp1284
a(I655
I58
tp1285
a(I1879
I58
tp1286
a(I143
I35
tp1287
a(I924
I58
tp1288
a(I1648
I35
tp1289
a(I1136
I58
tp1290
a(I1193
I58
tp1291
a(I1928
I35
tp1292
a(I314
I58
tp1293
a(I225
I58
tp1294
a(I1164
I58
tp1295
a(I1075
I58
tp1296
a(I907
I35
tp1297
a(I1685
I35
tp1298
a(I344
I35
tp1299
a(I1521
I35
tp1300
a(I290
I35
tp1301
a(I1693
I35
tp1302
a(I1660
I58
tp1303
a(I594
I58
tp1304
a(I298
I35
tp1305
a(I616
I58
tp1306
a(I2014
I58
tp1307
a(I416
I58
tp1308
a(I1815
I35
tp1309
a(I790
I58
tp1310
a(I1880
I58
tp1311
a(I351
I58
tp1312
a(I1848
I35
tp1313
a(I1444
I35
tp1314
a(I1856
I35
tp1315
a(I1802
I35
tp1316
a(I827
I35
tp1317
a(I2227
I35
tp1318
a(I423
I35
tp1319
a(I1185
I35
tp1320
a(I1810
I35
tp1321
a(I2199
I58
tp1322
a(I781
I35
tp1323
a(I1193
I35
tp1324
a(I218
I35
tp1325
a(I1855
I58
tp1326
a(I900
I58
tp1327
a(I811
I58
tp1328
a(I1514
I58
tp1329
a(I1169
I58
tp1330
a(I290
I58
tp1331
a(I201
I58
tp1332
a(I1051
I58
tp1333
a(I1754
I58
tp1334
a(I83
I58
tp1335
a(I2138
I58
tp1336
a(I1722
I35
tp1337
a(I1372
I35
tp1338
a(I1318
I35
tp1339
a(I343
I35
tp1340
a(I1730
I35
tp1341
a(I701
I35
tp1342
a(I351
I35
tp1343
a(I1113
I35
tp1344
a(I392
I58
tp1345
a(I979
I35
tp1346
a(I1856
I58
tp1347
a(I327
I58
tp1348
a(I1458
I35
tp1349
a(I2106
I35
tp1350
a(I685
I58
tp1351
a(I888
I58
tp1352
a(I1262
I58
tp1353
a(I2079
I58
tp1354
a(I949
I58
tp1355
a(I864
I35
tp1356
a(I437
I35
tp1357
a(I1949
I58
tp1358
a(I460
I35
tp1359
a(I1238
I35
tp1360
a(I1849
I58
tp1361
a(I872
I35
tp1362
a(I1190
I58
tp1363
a(I818
I35
tp1364
a(I1831
I58
tp1365
a(I1246
I35
tp1366
a(I108
I58
tp1367
a(I201
I35
tp1368
a(I629
I35
tp1369
a(I209
I35
tp1370
a(I2099
I35
tp1371
a(I266
I58
tp1372
a(I177
I58
tp1373
a(I1372
I58
tp1374
a(I1027
I58
tp1375
a(I1139
I35
tp1376
a(I1641
I58
tp1377
a(I148
I58
tp1378
a(I59
I58
tp1379
a(I762
I58
tp1380
a(I1441
I58
tp1381
a(I1612
I58
tp1382
a(I2232
I58
tp1383
a(I380
I35
tp1384
a(I1794
I58
tp1385
a(I1783
I35
tp1386
a(I536
I35
tp1387
a(I1713
I35
tp1388
a(I738
I35
tp1389
a(I132
I35
tp1390
a(I1934
I35
tp1391
a(I121
I35
tp1392
a(I746
I35
tp1393
a(I1832
I58
tp1394
a(I2216
I35
tp1395
a(I897
I35
tp1396
a(I864
I58
tp1397
a(I1238
I58
tp1398
a(I543
I58
tp1399
a(I1892
I35
tp1400
a(I514
I58
tp1401
a(I957
I58
tp1402
a(I147
I58
tp1403
a(I1807
I58
tp1404
a(I871
I35
tp1405
a(I1633
I35
tp1406
a(I1027
I35
tp1407
a(I52
I35
tp1408
a(I1229
I35
tp1409
a(I1641
I35
tp1410
a(I498
I58
tp1411
a(I153
I58
tp1412
a(I1259
I58
tp1413
a(I2082
I35
tp1414
a(I413
I35
tp1415
a(I1617
I58
tp1416
a(I380
I58
tp1417
a(I2071
I58
tp1418
a(I2090
I35
tp1419
a(I2132
I58
tp1420
a(I738
I58
tp1421
a(I1588
I58
tp1422
a(I102
I58
tp1423
a(I1556
I35
tp1424
a(I1700
I58
tp1425
a(I2143
I58
tp1426
a(I1766
I35
tp1427
a(I535
I35
tp1428
a(I974
I58
tp1429
a(I1808
I58
tp1430
a(I1149
I35
tp1431
a(I942
I35
tp1432
a(I543
I35
tp1433
a(I1331
I58
tp1434
a(I819
I35
tp1435
a(I950
I35
tp1436
a(I2215
I35
tp1437
a(I1214
I58
tp1438
a(I519
I58
tp1439
a(I2058
I58
tp1440
a(I1133
I58
tp1441
a(I1080
I58
tp1442
a(I933
I58
tp1443
a(I652
I35
tp1444
a(I1877
I58
tp1445
a(I1689
I58
tp1446
a(I1064
I35
tp1447
a(I474
I58
tp1448
a(I129
I58
tp1449
a(I1487
I35
tp1450
a(I1682
I58
tp1451
a(I356
I58
tp1452
a(I11
I58
tp1453
a(I450
I35
tp1454
a(I2255
I58
tp1455
a(I1743
I35
tp1456
a(I625
I58
tp1457
a(I2143
I35
tp1458
a(I2184
I58
tp1459
a(I596
I58
tp1460
a(I1531
I58
tp1461
a(I1889
I58
tp1462
a(I950
I58
tp1463
a(I1547
I35
tp1464
a(I572
I35
tp1465
a(I2008
I35
tp1466
a(I816
I58
tp1467
a(I580
I35
tp1468
a(I981
I58
tp1469
a(I987
I35
tp1470
a(I2252
I35
tp1471
a(I933
I35
tp1472
a(I941
I35
tp1473
a(I909
I58
tp1474
a(I2015
I58
tp1475
a(I791
I58
tp1476
a(I332
I58
tp1477
a(I80
I35
tp1478
a(I450
I58
tp1479
a(I361
I58
tp1480
a(I1063
I35
tp1481
a(I72
I35
tp1482
a(I2247
I35
tp1483
a(I1470
I35
tp1484
a(I495
I35
tp1485
a(I243
I58
tp1486
a(I1882
I35
tp1487
a(I690
I58
tp1488
a(I601
I58
tp1489
a(I503
I35
tp1490
a(I433
I35
tp1491
a(I861
I35
tp1492
a(I572
I58
tp1493
a(I1507
I58
tp1494
a(I853
I35
tp1495
a(I1865
I58
tp1496
a(I1478
I35
tp1497
a(I926
I58
tp1498
a(I1540
I58
tp1499
a(I1584
I35
tp1500
a(I792
I58
tp1501
a(I1630
I35
tp1502
a(I1016
I35
tp1503
a(I2015
I35
tp1504
a(I768
I35
tp1505
a(I970
I35
tp1506
a(I1032
I58
tp1507
a(I353
I35
tp1508
a(I117
I58
tp1509
a(I1991
I58
tp1510
a(I361
I35
tp1511
a(I1023
I58
tp1512
a(I2197
I35
tp1513
a(I1761
I35
tp1514
a(I1381
I58
tp1515
a(I426
I58
tp1516
a(I337
I58
tp1517
a(I1263
I58
tp1518
a(I308
I58
tp1519
a(I219
I58
tp1520
a(I1621
I58
tp1521
a(I1507
I35
tp1522
a(I276
I35
tp1523
a(I666
I58
tp1524
a(I577
I58
tp1525
a(I1679
I35
tp1526
a(I1865
I35
tp1527
a(I890
I35
tp1528
a(I1515
I35
tp1529
a(I284
I35
tp1530
a(I486
I35
tp1531
a(I548
I58
tp1532
a(I1483
I58
tp1533
a(I1873
I35
tp1534
a(I642
I35
tp1535
a(I25
I35
tp1536
a(I2132
I35
tp1537
a(I1812
I58
tp1538
a(I1723
I58
tp1539
a(I768
I58
tp1540
a(I174
I58
tp1541
a(I1264
I58
tp1542
a(I1796
I35
tp1543
a(I2079
I35
tp1544
a(I114
I35
tp1545
a(I1638
I58
tp1546
a(I93
I58
tp1547
a(I1179
I35
tp1548
a(I1381
I35
tp1549
a(I150
I35
tp1550
a(I134
I35
tp1551
a(I1537
I35
tp1552
a(I999
I58
tp1553
a(I158
I35
tp1554
a(I2234
I35
tp1555
a(I402
I58
tp1556
a(I2148
I58
tp1557
a(I2242
I35
tp1558
a(I847
I58
tp1559
a(I1239
I58
tp1560
a(I335
I35
tp1561
a(I284
I58
tp1562
a(I195
I58
tp1563
a(I1597
I58
tp1564
a(I1747
I58
tp1565
a(I642
I58
tp1566
a(I553
I58
tp1567
a(I1288
I35
tp1568
a(I1716
I35
tp1569
a(I687
I35
tp1570
a(I1296
I35
tp1571
a(I267
I35
tp1572
a(I1138
I58
tp1573
a(I1670
I35
tp1574
a(I881
I35
tp1575
a(I1053
I35
tp1576
a(I78
I35
tp1577
a(I1205
I58
tp1578
a(I1699
I58
tp1579
a(I530
I58
tp1580
a(I1000
I58
tp1581
a(I1374
I58
tp1582
a(I2007
I35
tp1583
a(I150
I58
tp1584
a(I1240
I58
tp1585
a(I1208
I35
tp1586
a(I1614
I58
tp1587
a(I69
I58
tp1588
a(I804
I35
tp1589
a(I1582
I35
tp1590
a(I1216
I35
tp1591
a(I1162
I35
tp1592
a(I187
I35
tp1593
a(I812
I35
tp1594
a(I2242
I58
tp1595
a(I1590
I35
tp1596
a(I195
I35
tp1597
a(I141
I35
tp1598
a(I553
I35
tp1599
a(I1215
I58
tp1600
a(I171
I58
tp1601
a(I2225
I35
tp1602
a(I1573
I58
tp1603
a(I874
I58
tp1604
a(I756
I58
tp1605
a(I1699
I35
tp1606
a(I724
I35
tp1607
a(I1114
I58
tp1608
a(I1793
I58
tp1609
a(I304
I35
tp1610
a(I2074
I58
tp1611
a(I1082
I35
tp1612
a(I1707
I35
tp1613
a(I732
I35
tp1614
a(I678
I35
tp1615
a(I2020
I58
tp1616
a(I1675
I58
tp1617
a(I1090
I35
tp1618
a(I115
I35
tp1619
a(I61
I35
tp1620
a(I1497
I35
tp1621
a(I69
I35
tp1622
a(I382
I58
tp1623
a(I1216
I58
tp1624
a(I1590
I58
tp1625
a(I2190
I35
tp1626
a(I248
I58
tp1627
a(I622
I58
tp1628
a(I1619
I35
tp1629
a(I951
I58
tp1630
a(I2218
I58
tp1631
a(I978
I35
tp1632
a(I224
I35
tp1633
a(I1627
I35
tp1634
a(I1573
I35
tp1635
a(I598
I35
tp1636
a(I2100
I58
tp1637
a(I232
I35
tp1638
a(I1529
I35
tp1639
a(I341
I58
tp1640
a(I1191
I58
tp1641
a(I1581
I35
tp1642
a(I606
I35
tp1643
a(I399
I35
tp1644
a(I1549
I58
tp1645
a(I2076
I35
tp1646
a(I850
I58
tp1647
a(I1461
I35
tp1648
a(I732
I58
tp1649
a(I1090
I58
tp1650
a(I2025
I58
tp1651
a(I1736
I35
tp1652
a(I122
I58
tp1653
a(I1996
I58
tp1654
a(I1744
I35
tp1655
a(I1143
I35
tp1656
a(I920
I35
tp1657
a(I1073
I35
tp1658
a(I98
I35
tp1659
a(I1294
I35
tp1660
a(I358
I58
tp1661
a(I106
I35
tp1662
a(I1192
I58
tp1663
a(I224
I58
tp1664
a(I598
I58
tp1665
a(I927
I58
tp1666
a(I2194
I58
tp1667
a(I1656
I35
tp1668
a(I1285
I58
tp1669
a(I1252
I35
tp1670
a(I2076
I58
tp1671
a(I317
I58
tp1672
a(I339
I58
tp1673
a(I1167
I58
tp1674
a(I231
I35
tp1675
a(I1618
I35
tp1676
a(I2231
I58
tp1677
a(I436
I35
tp1678
a(I589
I35
tp1679
a(I2025
I35
tp1680
a(I2059
I35
tp1681
a(I1663
I58
tp1682
a(I390
I35
tp1683
a(I708
I58
tp1684
a(I619
I58
tp1685
a(I1066
I58
tp1686
a(I2001
I58
tp1687
a(I419
I58
tp1688
a(I1136
I35
tp1689
a(I98
I58
tp1690
a(I777
I58
tp1691
a(I1883
I58
tp1692
a(I752
I35
tp1693
a(I1273
I58
tp1694
a(I919
I35
tp1695
a(I334
I58
tp1696
a(I1168
I58
tp1697
a(I751
I35
tp1698
a(I302
I35
tp1699
a(I927
I35
tp1700
a(I1542
I58
tp1701
a(I200
I58
tp1702
a(I1011
I35
tp1703
a(I310
I35
tp1704
a(I574
I58
tp1705
a(I903
I58
tp1706
a(I2138
I35
tp1707
a(I2250
I58
tp1708
a(I1517
I58
tp1709
a(I1464
I58
tp1710
a(I293
I58
tp1711
a(I1663
I35
tp1712
a(I1440
I35
tp1713
a(I1970
I58
tp1714
a(I12
I35
tp1715
a(I1814
I35
tp1716
a(I1881
I58
tp1717
a(I626
I35
tp1718
a(I419
I35
tp1719
a(I1639
I58
tp1720
a(I684
I58
tp1721
a(I2259
I58
tp1722
a(I777
I35
tp1723
a(I427
I35
tp1724
a(I1042
I58
tp1725
a(I395
I58
tp1726
a(I785
I35
tp1727
a(I74
I58
tp1728
a(I1009
I58
tp1729
a(I1859
I58
tp1730
a(I980
I58
tp1731
a(I891
I58
tp1732
a(I2174
I58
tp1733
a(I2086
I58
tp1734
a(I1249
I58
tp1735
a(I310
I58
tp1736
a(I956
I35
tp1737
a(I1314
I35
tp1738
a(I339
I35
tp1739
a(I964
I35
tp1740
a(I1852
I58
tp1741
a(I550
I58
tp1742
a(I347
I35
tp1743
a(I293
I35
tp1744
a(I705
I35
tp1745
a(I2133
I58
tp1746
a(I1440
I58
tp1747
a(I301
I35
tp1748
a(I2191
I35
tp1749
a(I1814
I58
tp1750
a(I269
I58
tp1751
a(I1375
I58
tp1752
a(I1733
I58
tp1753
a(I943
I58
tp1754
a(I151
I58
tp1755
a(I431
I35
tp1756
a(I2210
I58
tp1757
a(I765
I58
tp1758
a(I179
I58
tp1759
a(I1615
I58
tp1760
a(I1447
I35
tp1761
a(I456
I35
tp1762
a(I1859
I35
tp1763
a(I884
I35
tp1764
a(I830
I35
tp1765
a(I464
I35
tp1766
a(I1242
I35
tp1767
a(I213
I35
tp1768
a(I985
I58
tp1769
a(I221
I35
tp1770
a(I956
I58
tp1771
a(I867
I58
tp1772
a(I882
I58
tp1773
a(I1314
I58
tp1774
a(I1225
I58
tp1775
a(I286
I58
tp1776
a(I1732
I58
tp1777
a(I1107
I58
tp1778
a(I152
I58
tp1779
a(I1706
I35
tp1780
a(I376
I35
tp1781
a(I526
I58
tp1782
a(I1616
I58
tp1783
a(I1725
I35
tp1784
a(I750
I35
tp1785
a(I1375
I35
tp1786
a(I128
I35
tp1787
a(I330
I35
tp1788
a(I1733
I35
tp1789
a(I758
I35
tp1790
a(I501
I58
tp1791
a(I1709
I58
tp1792
a(I383
I58
tp1793
a(I2182
I35
tp1794
a(I1697
I35
tp1795
a(I741
I58
tp1796
a(I1591
I58
tp1797
a(I1888
I35
tp1798
a(I623
I58
tp1799
a(I1896
I35
tp1800
a(I1842
I35
tp1801
a(I867
I35
tp1802
a(I26
I58
tp1803
a(I961
I58
tp1804
a(I1039
I35
tp1805
a(I1225
I35
tp1806
a(I250
I35
tp1807
a(I875
I35
tp1808
a(I1653
I35
tp1809
a(I932
I58
tp1810
a(I1233
I35
tp1811
a(I2
I35
tp1812
a(I1290
I58
tp1813
a(I1201
I58
tp1814
a(I409
I35
tp1815
a(I2102
I35
tp1816
a(I1172
I58
tp1817
a(I1083
I58
tp1818
a(I128
I58
tp1819
a(I1786
I58
tp1820
a(I1662
I58
tp1821
a(I758
I58
tp1822
a(I1560
I35
tp1823
a(I1762
I35
tp1824
a(I624
I58
tp1825
a(I1156
I35
tp1826
a(I383
I35
tp1827
a(I1145
I35
tp1828
a(I477
I58
tp1829
a(I539
I35
tp1830
a(I741
I35
tp1831
a(I326
I35
tp1832
a(I1888
I58
tp1833
a(I359
I58
tp1834
a(I749
I35
tp1835
a(I2219
I35
tp1836
a(I1567
I58
tp1837
a(I2187
I58
tp1838
a(I876
I35
tp1839
a(I599
I58
tp1840
a(I364
I58
tp1841
a(I1981
I58
tp1842
a(I1776
I35
tp1843
a(I2
I58
tp1844
a(I937
I58
tp1845
a(I1895
I35
tp1846
a(I648
I35
tp1847
a(I1076
I35
tp1848
a(I1278
I35
tp1849
a(I908
I58
tp1850
a(I656
I35
tp1851
a(I2102
I58
tp1852
a(I1522
I58
tp1853
a(I1030
I35
tp1854
a(I1681
I58
tp1855
a(I241
I35
tp1856
a(I1023
I35
tp1857
a(I462
I35
tp1858
a(I1059
I58
tp1859
a(I885
I35
tp1860
a(I360
I58
tp1861
a(I1762
I58
tp1862
a(I734
I58
tp1863
a(I2093
I35
tp1864
a(I2061
I58
tp1865
a(I600
I58
tp1866
a(I1559
I35
tp1867
a(I1998
I58
tp1868
a(I453
I58
tp1869
a(I164
I35
tp1870
a(I1567
I35
tp1871
a(I576
I35
tp1872
a(I522
I35
tp1873
a(I1864
I58
tp1874
a(I172
I35
tp1875
a(I2192
I58
tp1876
a(I2248
I35
tp1877
a(I929
I35
tp1878
a(I530
I35
tp1879
a(I1543
I58
tp1880
a(I2256
I35
tp1881
a(I937
I35
tp1882
a(I575
I58
tp1883
a(I234
I58
tp1884
a(I913
I58
tp1885
a(I1676
I35
tp1886
a(I116
I58
tp1887
a(I795
I58
tp1888
a(I2078
I58
tp1889
a(I1059
I35
tp1890
a(I84
I35
tp1891
a(I1498
I58
tp1892
a(I1153
I58
tp1893
a(I1466
I35
tp1894
a(I1067
I35
tp1895
a(I92
I35
tp1896
a(I185
I58
tp1897
a(I1380
I58
tp1898
a(I1035
I58
tp1899
a(I1474
I35
tp1900
a(I336
I58
tp1901
a(I445
I35
tp1902
a(I1649
I58
tp1903
a(I857
I35
tp1904
a(I1456
I35
tp1905
a(I453
I35
tp1906
a(I1620
I58
tp1907
a(I2130
I35
tp1908
a(I576
I58
tp1909
a(I1608
I35
tp1910
a(I1596
I35
tp1911
a(I1006
I58
tp1912
a(I2003
I35
tp1913
a(I311
I58
tp1914
a(I575
I35
tp1915
a(I669
I58
tp1916
a(I2011
I35
tp1917
a(I982
I35
tp1918
a(I583
I35
tp1919
a(I1465
I35
tp1920
a(I551
I58
tp1921
a(I990
I35
tp1922
a(I1933
I58
tp1923
a(I210
I58
tp1924
a(I1815
I58
tp1925
a(I92
I58
tp1926
a(I771
I58
tp1927
a(I2054
I58
tp1928
a(I934
I58
tp1929
a(I1199
I58
tp1930
a(I1474
I58
tp1931
a(I1385
I58
tp1932
a(I506
I58
tp1933
a(I161
I58
tp1934
a(I1104
I35
tp1935
a(I75
I35
tp1936
a(I1714
I58
tp1937
a(I1625
I58
tp1938
a(I1527
I35
tp1939
a(I280
I35
tp1940
a(I1457
I35
tp1941
a(I482
I35
tp1942
a(I1885
I35
tp1943
a(I654
I35
tp1944
a(I1596
I58
tp1945
a(I2209
I35
tp1946
a(I490
I35
tp1947
a(I552
I58
tp1948
a(I2107
I58
tp1949
a(I2151
I58
tp1950
a(I982
I58
tp1951
a(I1816
I58
tp1952
a(I287
I58
tp1953
a(I645
I58
tp1954
a(I612
I35
tp1955
a(I1994
I35
tp1956
a(I368
I35
tp1957
a(I620
I35
tp1958
a(I1377
I35
tp1959
a(I2002
I35
tp1960
a(I771
I35
tp1961
a(I973
I35
tp1962
a(I1385
I35
tp1963
a(I154
I35
tp1964
a(I68
I58
tp1965
a(I1003
I58
tp1966
a(I2260
I58
tp1967
a(I2254
I35
tp1968
a(I2152
I58
tp1969
a(I482
I58
tp1970
a(I137
I58
tp1971
a(I889
I58
tp1972
a(I1243
I58
tp1973
a(I230
I58
tp1974
a(I1690
I58
tp1975
a(I1601
I58
tp1976
a(I19
I58
tp1977
a(I1914
I35
tp1978
a(I1308
I35
tp1979
a(I633
I58
tp1980
a(I279
I35
tp1981
a(I1666
I35
tp1982
a(I691
I35
tp1983
a(I524
I58
tp1984
a(I287
I35
tp1985
a(I1049
I35
tp1986
a(I1459
I58
tp1987
a(I645
I35
tp1988
a(I1843
I35
tp1989
a(I958
I58
tp1990
a(I263
I58
tp1991
a(I2074
I35
tp1992
a(I877
I58
tp1993
a(I824
I58
tp1994
a(I1198
I58
tp1995
a(I1203
I35
tp1996
a(I1650
I35
tp1997
a(I1117
I58
tp1998
a(I396
I35
tp1999
a(I1799
I35
tp2000
a(I808
I35
tp2001
a(I917
I58
tp2002
a(I2023
I58
tp2003
a(I1182
I35
tp2004
a(I207
I35
tp2005
a(I137
I35
tp2006
a(I565
I35
tp2007
a(I145
I35
tp2008
a(I1913
I35
tp2009
a(I458
I58
tp2010
a(I369
I58
tp2011
a(I1308
I58
tp2012
a(I1219
I58
tp2013
a(I947
I35
tp2014
a(I272
I35
tp2015
a(I1666
I58
tp2016
a(I1577
I58
tp2017
a(I340
I58
tp2018
a(I2068
I58
tp2019
a(I609
I58
tp2020
a(I1548
I58
tp2021
a(I2221
I58
tp2022
a(I1291
I35
tp2023
a(I316
I35
tp2024
a(I1719
I35
tp2025
a(I728
I35
tp2026
a(I1905
I35
tp2027
a(I674
I35
tp2028
a(I324
I35
tp2029
a(I1102
I35
tp2030
a(I57
I35
tp2031
a(I682
I35
tp2032
a(I2024
I58
tp2033
a(I65
I35
tp2034
a(I1549
I35
tp2035
a(I735
I58
tp2036
a(I1809
I35
tp2037
a(I972
I35
tp2038
a(I1828
I35
tp2039
a(I125
I58
tp2040
a(I371
I58
tp2041
a(I807
I35
tp2042
a(I1569
I35
tp2043
a(I1219
I35
tp2044
a(I244
I35
tp2045
a(I190
I35
tp2046
a(I1577
I35
tp2047
a(I602
I35
tp2048
a(I434
I58
tp2049
a(I198
I35
tp2050
a(I1284
I58
tp2051
a(I1195
I58
tp2052
a(I1898
I58
tp2053
a(I1553
I58
tp2054
a(I316
I58
tp2055
a(I227
I58
tp2056
a(I981
I35
tp2057
a(I674
I58
tp2058
a(I585
I58
tp2059
a(I729
I58
tp2060
a(I70
I58
tp2061
a(I1748
I35
tp2062
a(I1328
I35
tp2063
a(I1756
I35
tp2064
a(I1702
I35
tp2065
a(I727
I35
tp2066
a(I910
I58
tp2067
a(I1132
I35
tp2068
a(I1085
I35
tp2069
a(I110
I35
tp2070
a(I735
I35
tp2071
a(I776
I58
tp2072
a(I118
I35
tp2073
a(I1069
I58
tp2074
a(I1646
I58
tp2075
a(I101
I58
tp2076
a(I1279
I35
tp2077
a(I1248
I35
tp2078
a(I1007
I58
tp2079
a(I1622
I35
tp2080
a(I1256
I35
tp2081
a(I1202
I35
tp2082
a(I227
I35
tp2083
a(I410
I58
tp2084
a(I321
I58
tp2085
a(I1516
I58
tp2086
a(I585
I35
tp2087
a(I235
I35
tp2088
a(I1874
I58
tp2089
a(I292
I58
tp2090
a(I203
I58
tp2091
a(I593
I35
tp2092
a(I386
I35
tp2093
a(I650
I58
tp2094
a(I561
I58
tp2095
a(I1756
I58
tp2096
a(I532
I58
tp2097
a(I1467
I58
tp2098
a(I2055
I58
tp2099
a(I1031
I35
tp2100
a(I1825
I58
tp2101
a(I118
I58
tp2102
a(I1739
I35
tp2103
a(I764
I35
tp2104
a(I1122
I35
tp2105
a(I915
I35
tp2106
a(I242
I35
tp2107
a(I1382
I58
tp2108
a(I1130
I35
tp2109
a(I923
I35
tp2110
a(I2188
I35
tp2111
a(I101
I35
tp2112
a(I262
I35
tp2113
a(I1281
I35
tp2114
a(I1248
I58
tp2115
a(I109
I35
tp2116
a(I1622
I58
tp2117
a(I77
I58
tp2118
a(I975
I58
tp2119
a(I983
I58
tp2120
a(I463
I35
tp2121
a(I2161
I58
tp2122
a(I1341
I58
tp2123
a(I1659
I35
tp2124
a(I386
I58
tp2125
a(I297
I58
tp2126
a(I1255
I35
tp2127
a(I8
I35
tp2128
a(I1460
I35
tp2129
a(I1613
I35
tp2130
a(I638
I35
tp2131
a(I268
I58
tp2132
a(I16
I35
tp2133
a(I1818
I35
tp2134
a(I2108
I35
tp2135
a(I789
I35
tp2136
a(I537
I58
tp2137
a(I439
I35
tp2138
a(I1643
I58
tp2139
a(I825
I58
tp2140
a(I2116
I35
tp2141
a(I959
I35
tp2142
a(I764
I58
tp2143
a(I1443
I58
tp2144
a(I821
I35
tp2145
a(I2217
I58
tp2146
a(I1122
I58
tp2147
a(I1801
I58
tp2148
a(I2233
I58
tp2149
a(I94
I58
tp2150
a(I2135
I35
tp2151
a(I1683
I58
tp2152
a(I984
I58
tp2153
a(I2199
I35
tp2154
a(I952
I35
tp2155
a(I505
I58
tp2156
a(I1726
I35
tp2157
a(I1326
I35
tp2158
a(I960
I35
tp2159
a(I906
I35
tp2160
a(I1224
I58
tp2161
a(I289
I35
tp2162
a(I53
I58
tp2163
a(I297
I35
tp2164
a(I959
I58
tp2165
a(I2226
I58
tp2166
a(I2137
I58
tp2167
a(I1729
I35
tp2168
a(I1317
I58
tp2169
a(I273
I58
tp2170
a(I2108
I58
tp2171
a(I1036
I35
tp2172
a(I500
I58
tp2173
a(I155
I58
tp2174
a(I1557
I58
tp2175
a(I1443
I35
tp2176
a(I468
I35
tp2177
a(I858
I58
tp2178
a(I513
I58
tp2179
a(I1708
I58
tp2180
a(I1801
I35
tp2181
a(I826
I35
tp2182
a(I476
I35
tp2183
a(I422
I35
tp2184
a(I740
I58
tp2185
a(I1780
I58
tp2186
a(I1098
I58
tp2187
a(I217
I35
tp2188
a(I531
I58
tp2189
a(I112
I58
tp2190
a(I2004
I58
tp2191
a(I1990
I35
tp2192
a(I960
I58
tp2193
a(I1544
I35
tp2194
a(I1980
I35
tp2195
a(I366
I58
tp2196
a(I1200
I58
tp2197
a(I1988
I35
tp2198
a(I245
I58
tp2199
a(I1574
I58
tp2200
a(I1371
I35
tp2201
a(I1317
I35
tp2202
a(I342
I35
tp2203
a(I967
I35
tp2204
a(I1510
I58
tp2205
a(I935
I58
tp2206
a(I1325
I35
tp2207
a(I350
I35
tp2208
a(I1293
I58
tp2209
a(I2084
I58
tp2210
a(I2178
I35
tp2211
a(I1175
I58
tp2212
a(I476
I58
tp2213
a(I131
I58
tp2214
a(I1789
I58
tp2215
a(I1715
I58
tp2216
a(I1040
I58
tp2217
a(I745
I58
tp2218
a(I1480
I35
tp2219
a(I518
I58
tp2220
a(I1908
I35
tp2221
a(I1854
I35
tp2222
a(I879
I35
tp2223
a(I627
I58
tp2224
a(I459
I35
tp2225
a(I1074
I58
tp2226
a(I1862
I35
tp2227
a(I887
I35
tp2228
a(I817
I35
tp2229
a(I1245
I35
tp2230
a(I14
I35
tp2231
a(I902
I58
tp2232
a(I1891
I58
tp2233
a(I936
I58
tp2234
a(I1310
I58
tp2235
a(I342
I58
tp2236
a(I1176
I58
tp2237
a(I1550
I58
tp2238
a(I5
I58
tp2239
a(I996
I35
tp2240
a(I1774
I35
tp2241
a(I1152
I35
tp2242
a(I379
I35
tp2243
a(I911
I58
tp2244
a(I2178
I58
tp2245
a(I1782
I35
tp2246
a(I737
I35
tp2247
a(I1525
I58
tp2248
a(I131
I35
tp2249
a(I333
I35
tp2250
a(I2060
I58
tp2251
a(I745
I35
tp2252
a(I452
I58
tp2253
a(I363
I58
tp2254
a(I1765
I58
tp2255
a(I810
I58
tp2256
a(I721
I58
tp2257
a(I1647
I58
tp2258
a(I692
I58
tp2259
a(I603
I58
tp2260
a(I313
I35
tp2261
a(I1891
I35
tp2262
a(I660
I35
tp2263
a(I1050
I58
tp2264
a(I1985
I58
tp2265
a(I403
I58
tp2266
a(I1274
I35
tp2267
a(I1899
I35
tp2268
a(I668
I35
tp2269
a(I870
I35
tp2270
a(I1867
I58
tp2271
a(I1026
I35
tp2272
a(I51
I35
tp2273
a(I1286
I58
tp2274
a(I1488
I35
tp2275
a(I5
I35
tp2276
a(I318
I58
tp2277
a(I1152
I58
tp2278
a(I1782
I58
tp2279
a(I237
I58
tp2280
a(I184
I58
tp2281
a(I558
I58
tp2282
a(I1555
I35
tp2283
a(I119
I58
tp2284
a(I1968
I35
tp2285
a(I2065
I58
tp2286
a(I1749
I58
tp2287
a(I160
I35
tp2288
a(I1237
I35
tp2289
a(I1501
I58
tp2290
a(I1563
I35
tp2291
a(I1765
I35
tp2292
a(I534
I35
tp2293
a(I1159
I35
tp2294
a(I168
I35
tp2295
a(I277
I58
tp2296
a(I1383
I58
tp2297
a(I1773
I35
tp2298
a(I542
I35
tp2299
a(I428
I58
tp2300
a(I786
I58
tp2301
a(I2214
I35
tp2302
a(I1623
I58
tp2303
a(I1900
I58
tp2304
a(I668
I58
tp2305
a(I579
I58
tp2306
a(I1026
I58
tp2307
a(I1672
I35
tp2308
a(I58
I58
tp2309
a(I993
I58
tp2310
a(I1071
I35
tp2311
a(I1680
I35
tp2312
a(I651
I35
tp2313
a(I1079
I35
tp2314
a(I88
I35
tp2315
a(I1265
I35
tp2316
a(I1980
I58
tp2317
a(I1486
I35
tp2318
a(I294
I58
tp2319
a(I1384
I58
tp2320
a(I2134
I35
tp2321
a(I160
I58
tp2322
a(I2142
I35
tp2323
a(I534
I58
tp2324
a(I1624
I58
tp2325
a(I95
I58
tp2326
a(I1592
I35
tp2327
a(I1477
I58
tp2328
a(I1188
I35
tp2329
a(I1600
I35
tp2330
a(I571
I35
tp2331
a(I1196
I35
tp2332
a(I167
I35
tp2333
a(I2153
I35
tp2334
a(I1554
I35
tp2335
a(I579
I35
tp2336
a(I525
I35
tp2337
a(I986
I35
tp2338
a(I2251
I35
tp2339
a(I1599
I58
tp2340
a(I644
I58
tp2341
a(I555
I58
tp2342
a(I1258
I58
tp2343
a(I1010
I58
tp2344
a(I969
I58
tp2345
a(I665
I58
tp2346
a(I1819
I58
tp2347
a(I6
I58
tp2348
a(I1108
I35
tp2349
a(I851
I58
tp2350
a(I2134
I58
tp2351
a(I1116
I35
tp2352
a(I2185
I35
tp2353
a(I1062
I35
tp2354
a(I87
I35
tp2355
a(I270
I58
tp2356
a(I1231
I58
tp2357
a(I1469
I35
tp2358
a(I494
I35
tp2359
a(I95
I35
tp2360
a(I1734
I58
tp2361
a(I136
I58
tp2362
a(I1477
I35
tp2363
a(I502
I35
tp2364
a(I766
I58
tp2365
a(I1600
I58
tp2366
a(I71
I58
tp2367
a(I632
I58
tp2368
a(I2141
I58
tp2369
a(I2155
I58
tp2370
a(I485
I58
tp2371
a(I1215
I35
tp2372
a(I1599
I35
tp2373
a(I608
I35
tp2374
a(I1693
I58
tp2375
a(I204
I35
tp2376
a(I2006
I35
tp2377
a(I1607
I35
tp2378
a(I616
I35
tp2379
a(I725
I58
tp2380
a(I1575
I58
tp2381
a(I2014
I35
tp2382
a(I783
I35
tp2383
a(I2195
I58
tp2384
a(I969
I35
tp2385
a(I1234
I58
tp2386
a(I2209
I58
tp2387
a(I977
I35
tp2388
a(I945
I58
tp2389
a(I1116
I58
tp2390
a(I1795
I58
tp2391
a(I916
I58
tp2392
a(I827
I58
tp2393
a(I1530
I58
tp2394
a(I1185
I58
tp2395
a(I502
I58
tp2396
a(I1099
I35
tp2397
a(I124
I35
tp2398
a(I1506
I35
tp2399
a(I275
I35
tp2400
a(I900
I35
tp2401
a(I1678
I35
tp2402
a(I178
I35
tp2403
a(I742
I58
tp2404
a(I1514
I35
tp2405
a(I283
I35
tp2406
a(I485
I35
tp2407
a(I641
I35
tp2408
a(I2069
I58
tp2409
a(I608
I58
tp2410
a(I2220
I58
tp2411
a(I2006
I58
tp2412
a(I461
I58
tp2413
a(I1669
I58
tp2414
a(I1004
I35
tp2415
a(I343
I58
tp2416
a(I701
I58
tp2417
a(I1904
I35
tp2418
a(I1551
I58
tp2419
a(I2009
I58
tp2420
a(I615
I35
tp2421
a(I392
I35
tp2422
a(I1795
I35
tp2423
a(I820
I35
tp2424
a(I1997
I35
tp2425
a(I400
I35
tp2426
a(I1178
I35
tp2427
a(I149
I35
tp2428
a(I774
I35
tp2429
a(I2027
I58
tp2430
a(I157
I35
tp2431
a(I124
I58
tp2432
a(I803
I58
tp2433
a(I1013
I35
tp2434
a(I1506
I58
tp2435
a(I1161
I58
tp2436
a(I478
I58
tp2437
a(I2000
I58
tp2438
a(I2022
I35
tp2439
a(I1043
I58
tp2440
a(I344
I58
tp2441
a(I1657
I58
tp2442
a(I312
I35
tp2443
a(I1552
I58
tp2444
a(I2223
I35
tp2445
a(I320
I35
tp2446
a(I266
I35
tp2447
a(I584
I58
tp2448
a(I1669
I35
tp2449
a(I1982
I58
tp2450
a(I274
I35
tp2451
a(I1287
I58
tp2452
a(I1901
I58
tp2453
a(I1848
I58
tp2454
a(I319
I58
tp2455
a(I1694
I35
tp2456
a(I1665
I35
tp2457
a(I677
I58
tp2458
a(I1783
I58
tp2459
a(I1824
I35
tp2460
a(I559
I58
tp2461
a(I1832
I35
tp2462
a(I803
I35
tp2463
a(I218
I58
tp2464
a(I897
I58
tp2465
a(I1068
I58
tp2466
a(I1161
I35
tp2467
a(I186
I35
tp2468
a(I811
I35
tp2469
a(I1589
I35
tp2470
a(I100
I58
tp2471
a(I779
I58
tp2472
a(I1169
I35
tp2473
a(I194
I35
tp2474
a(I1482
I58
tp2475
a(I1186
I35
tp2476
a(I454
I58
tp2477
a(I723
I58
tp2478
a(I1275
I58
tp2479
a(I2237
I35
tp2480
a(I320
I58
tp2481
a(I1722
I58
tp2482
a(I1633
I58
tp2483
a(I2135
I58
tp2484
a(I1340
I35
tp2485
a(I1752
I35
tp2486
a(I1726
I58
tp2487
a(I1698
I35
tp2488
a(I723
I35
tp2489
a(I319
I35
tp2490
a(I1081
I35
tp2491
a(I413
I58
tp2492
a(I731
I35
tp2493
a(I2159
I58
tp2494
a(I677
I35
tp2495
a(I327
I35
tp2496
a(I1089
I35
tp2497
a(I1824
I58
tp2498
a(I295
I58
tp2499
a(I685
I35
tp2500
a(I653
I58
tp2501
a(I1759
I58
tp2502
a(I535
I58
tp2503
a(I1149
I58
tp2504
a(I1907
I58
tp2505
a(I194
I58
tp2506
a(I105
I58
tp2507
a(I1831
I35
tp2508
a(I1214
I35
tp2509
a(I239
I35
tp2510
a(I848
I35
tp2511
a(I1626
I35
tp2512
a(I597
I35
tp2513
a(I1222
I35
tp2514
a(I247
I35
tp2515
a(I177
I35
tp2516
a(I2162
I58
tp2517
a(I2160
I58
tp2518
a(I605
I35
tp2519
a(I398
I35
tp2520
a(I1340
I58
tp2521
a(I1251
I58
tp2522
a(I296
I58
tp2523
a(I1698
I58
tp2524
a(I1609
I58
tp2525
a(I670
I58
tp2526
a(I1871
I35
tp2527
a(I2253
I58
tp2528
a(I536
I58
tp2529
a(I1751
I35
tp2530
a(I1934
I58
tp2531
a(I389
I58
tp2532
a(I356
I35
tp2533
a(I2156
I58
tp2534
a(I1134
I35
tp2535
a(I1759
I35
tp2536
a(I512
I35
tp2537
a(I496
I35
tp2538
a(I364
I35
tp2539
a(I2184
I35
tp2540
a(I97
I35
tp2541
a(I722
I35
tp2542
a(I1735
I58
tp2543
a(I2192
I35
tp2544
a(I105
I35
tp2545
a(I1906
I35
tp2546
a(I767
I58
tp2547
a(I170
I58
tp2548
a(I81
I58
tp2549
a(I1868
I35
tp2550
a(I52
I58
tp2551
a(I987
I58
tp2552
a(I505
I35
tp2553
a(I1251
I35
tp2554
a(I20
I35
tp2555
a(I1609
I35
tp2556
a(I634
I35
tp2557
a(I1259
I35
tp2558
a(I377
I58
tp2559
a(I15
I35
tp2560
a(I1227
I58
tp2561
a(I1617
I35
tp2562
a(I435
I35
tp2563
a(I815
I35
tp2564
a(I1585
I58
tp2565
a(I646
I58
tp2566
a(I2058
I35
tp2567
a(I389
I35
tp2568
a(I1556
I58
tp2569
a(I2066
I35
tp2570
a(I512
I58
tp2571
a(I2202
I35
tp2572
a(I1576
I35
tp2573
a(I1788
I35
tp2574
a(I2113
I58
tp2575
a(I2225
I58
tp2576
a(I942
I58
tp2577
a(I503
I58
tp2578
a(I767
I35
tp2579
a(I861
I58
tp2580
a(I918
I35
tp2581
a(I519
I35
tp2582
a(I743
I58
tp2583
a(I1133
I35
tp2584
a(I926
I35
tp2585
a(I1101
I58
tp2586
a(I146
I58
tp2587
a(I2007
I58
tp2588
a(I963
I58
tp2589
a(I2246
I58
tp2590
a(I1986
I58
tp2591
a(I1032
I35
tp2592
a(I353
I58
tp2593
a(I1292
I58
tp2594
a(I1040
I35
tp2595
a(I11
I35
tp2596
a(I1813
I35
tp2597
a(I1463
I35
tp2598
a(I472
I35
tp2599
a(I625
I35
tp2600
a(I418
I35
tp2601
a(I1788
I58
tp2602
a(I426
I35
tp2603
a(I744
I58
tp2604
a(I2087
I58
tp2605
a(I918
I58
tp2606
a(I2008
I58
tp2607
a(I479
I58
tp2608
a(I239
I58
tp2609
a(I548
I35
tp2610
a(I1984
I35
tp2611
a(I499
I58
tp2612
a(I556
I35
tp2613
a(I2185
I58
tp2614
a(I1313
I35
tp2615
a(I1077
I58
tp2616
a(I963
I35
tp2617
a(I909
I35
tp2618
a(I1226
I58
tp2619
a(I346
I35
tp2620
a(I1983
I58
tp2621
a(I4
I58
tp2622
a(I939
I58
tp2623
a(I618
I58
tp2624
a(I1297
I58
tp2625
a(I467
I58
tp2626
a(I946
I58
tp2627
a(I2088
I58
tp2628
a(I418
I58
tp2629
a(I329
I58
tp2630
a(I1179
I58
tp2631
a(I198
I58
tp2632
a(I1492
I35
tp2633
a(I1882
I58
tp2634
a(I1537
I58
tp2635
a(I1610
I35
tp2636
a(I211
I58
tp2637
a(I1850
I35
tp2638
a(I1500
I35
tp2639
a(I635
I35
tp2640
a(I1446
I35
tp2641
a(I471
I35
tp2642
a(I1858
I35
tp2643
a(I720
I58
tp2644
a(I2148
I35
tp2645
a(I748
I58
tp2646
a(I479
I35
tp2647
a(I1241
I35
tp2648
a(I2063
I58
tp2649
a(I1648
I58
tp2650
a(I1984
I58
tp2651
a(I455
I58
tp2652
a(I813
I58
tp2653
a(I1016
I58
tp2654
a(I1642
I58
tp2655
a(I1781
I58
tp2656
a(I992
I35
tp2657
a(I1053
I58
tp2658
a(I1991
I35
tp2659
a(I1000
I35
tp2660
a(I85
I58
tp2661
a(I1374
I35
tp2662
a(I236
I58
tp2663
a(I329
I35
tp2664
a(I757
I35
tp2665
a(I2169
I58
tp2666
a(I337
I35
tp2667
a(I2064
I58
tp2668
a(I394
I58
tp2669
a(I305
I58
tp2670
a(I1500
I58
tp2671
a(I1155
I58
tp2672
a(I1858
I58
tp2673
a(I1769
I58
tp2674
a(I276
I58
tp2675
a(I187
I58
tp2676
a(I890
I58
tp2677
a(I1903
I35
tp2678
a(I1651
I58
tp2679
a(I1483
I35
tp2680
a(I664
I35
tp2681
a(I213
I58
tp2682
a(I866
I35
tp2683
a(I1038
I35
tp2684
a(I370
I35
tp2685
a(I249
I35
tp2686
a(I874
I35
tp2687
a(I1738
I35
tp2688
a(I1
I35
tp2689
a(I992
I58
tp2690
a(I671
I58
tp2691
a(I1608
I58
tp2692
a(I1029
I58
tp2693
a(I940
I35
tp2694
a(I2020
I35
tp2695
a(I61
I58
tp2696
a(I2028
I35
tp2697
a(I999
I35
tp2698
a(I1235
I35
tp2699
a(I1155
I35
tp2700
a(I180
I35
tp2701
a(I2234
I58
tp2702
a(I382
I35
tp2703
a(I1769
I35
tp2704
a(I538
I35
tp2705
a(I281
I58
tp2706
a(I1476
I58
tp2707
a(I1387
I58
tp2708
a(I2210
I35
tp2709
a(I1834
I58
tp2710
a(I1745
I58
tp2711
a(I163
I58
tp2712
a(I949
I35
tp2713
a(I2218
I35
tp2714
a(I866
I58
tp2715
a(I521
I58
tp2716
a(I1716
I58
tp2717
a(I1627
I58
tp2718
a(I1849
I35
tp2719
a(I1684
I35
tp2720
a(I1692
I35
tp2721
a(I1894
I35
tp2722
a(I663
I35
tp2723
a(I78
I58
tp2724
a(I1075
I35
tp2725
a(I1277
I35
tp2726
a(I671
I35
tp2727
a(I968
I58
tp2728
a(I1029
I35
tp2729
a(I54
I35
tp2730
a(I647
I58
tp2731
a(I1261
I58
tp2732
a(I1208
I58
tp2733
a(I1582
I58
tp2734
a(I1143
I58
tp2735
a(I1184
I35
tp2736
a(I780
I35
tp2737
a(I2147
I35
tp2738
a(I1558
I35
tp2739
a(I1192
I35
tp2740
a(I163
I35
tp2741
a(I521
I35
tp2742
a(I171
I35
tp2743
a(I1810
I58
tp2744
a(I484
I58
tp2745
a(I139
I58
tp2746
a(I753
I58
tp2747
a(I1692
I58
tp2748
a(I1603
I58
tp2749
a(I1605
I35
tp2750
a(I659
I58
tp2751
a(I240
I58
tp2752
a(I724
I58
tp2753
a(I635
I58
tp2754
a(I2247
I58
tp2755
a(I1082
I58
tp2756
a(I54
I58
tp2757
a(I1675
I35
tp2758
a(I700
I35
tp2759
a(I1112
I35
tp2760
a(I1058
I35
tp2761
a(I83
I35
tp2762
a(I708
I35
tp2763
a(I210
I35
tp2764
a(I1318
I58
tp2765
a(I1066
I35
tp2766
a(I91
I35
tp2767
a(I2205
I35
tp2768
a(I1473
I35
tp2769
a(I1184
I58
tp2770
a(I2103
I58
tp2771
a(I1558
I58
tp2772
a(I13
I58
tp2773
a(I1119
I58
tp2774
a(I919
I58
tp2775
a(I2186
I58
tp2776
a(I1533
I58
tp2777
a(I1595
I35
tp2778
a(I1331
I35
tp2779
a(I489
I58
tp2780
a(I1191
I35
tp2781
a(I200
I35
tp2782
a(I1603
I35
tp2783
a(I628
I35
tp2784
a(I884
I58
tp2785
a(I574
I35
tp2786
a(I460
I58
tp2787
a(I208
I35
tp2788
a(I1533
I35
tp2789
a(I2010
I35
tp2790
a(I818
I58
tp2791
a(I582
I35
tp2792
a(I1668
I58
tp2793
a(I1579
I58
tp2794
a(I989
I35
tp2795
a(I700
I58
tp2796
a(I2173
I58
tp2797
a(I1058
I58
tp2798
a(I1993
I58
tp2799
a(I2201
I58
tp2800
a(I1689
I35
tp2801
a(I1712
I35
tp2802
a(I920
I58
tp2803
a(I1111
I35
tp2804
a(I120
I35
tp2805
a(I1294
I58
tp2806
a(I2255
I35
tp2807
a(I1518
I35
tp2808
a(I1119
I35
tp2809
a(I896
I35
tp2810
a(I1285
I35
tp2811
a(I74
I35
tp2812
a(I1160
I58
tp2813
a(I1526
I35
tp2814
a(I481
I35
tp2815
a(I82
I35
tp2816
a(I2245
I58
tp2817
a(I2174
I35
tp2818
a(I893
I35
tp2819
a(I489
I35
tp2820
a(I1656
I58
tp2821
a(I127
I58
tp2822
a(I2073
I58
tp2823
a(I1509
I58
tp2824
a(I465
I58
tp2825
a(I1632
I35
tp2826
a(I2083
I58
tp2827
a(I1228
I35
tp2828
a(I436
I58
tp2829
a(I347
I58
tp2830
a(I1586
I35
tp2831
a(I404
I35
tp2832
a(I705
I58
tp2833
a(I1807
I35
tp2834
a(I1993
I35
tp2835
a(I1018
I35
tp2836
a(I619
I35
tp2837
a(I412
I35
tp2838
a(I676
I58
tp2839
a(I587
I58
tp2840
a(I2001
I35
tp2841
a(I770
I35
tp2842
a(I1034
I58
tp2843
a(I1969
I58
tp2844
a(I153
I35
tp2845
a(I80
I58
tp2846
a(I1851
I58
tp2847
a(I896
I58
tp2848
a(I1526
I58
tp2849
a(I1148
I35
tp2850
a(I302
I58
tp2851
a(I127
I35
tp2852
a(I1766
I58
tp2853
a(I221
I58
tp2854
a(I1307
I35
tp2855
a(I1509
I35
tp2856
a(I278
I35
tp2857
a(I903
I35
tp2858
a(I1478
I58
tp2859
a(I1632
I58
tp2860
a(I103
I58
tp2861
a(I1517
I35
tp2862
a(I286
I35
tp2863
a(I1485
I58
tp2864
a(I18
I35
tp2865
a(I412
I58
tp2866
a(I323
I58
tp2867
a(I1725
I58
tp2868
a(I770
I58
tp2869
a(I681
I58
tp2870
a(I1639
I35
tp2871
a(I1844
I35
tp2872
a(I652
I58
tp2873
a(I563
I58
tp2874
a(I395
I35
tp2875
a(I823
I35
tp2876
a(I1009
I35
tp2877
a(I1181
I35
tp2878
a(I206
I35
tp2879
a(I1148
I58
tp2880
a(I1827
I58
tp2881
a(I104
I58
tp2882
a(I1502
I58
tp2883
a(I278
I58
tp2884
a(I197
I58
tp2885
a(I175
I58
tp2886
a(I932
I35
tp2887
a(I1710
I35
tp2888
a(I1290
I35
tp2889
a(I315
I35
tp2890
a(I79
I58
tp2891
a(I1718
I35
tp2892
a(I673
I35
tp2893
a(I1461
I58
tp2894
a(I323
I35
tp2895
a(I269
I35
tp2896
a(I1747
I35
tp2897
a(I2252
I58
tp2898
a(I2163
I58
tp2899
a(I681
I35
tp2900
a(I388
I58
tp2901
a(I299
I58
tp2902
a(I1701
I58
tp2903
a(I1002
I58
tp2904
a(I657
I58
tp2905
a(I533
I58
tp2906
a(I114
I58
tp2907
a(I1583
I58
tp2908
a(I793
I58
tp2909
a(I539
I58
tp2910
a(I134
I58
tp2911
a(I1827
I35
tp2912
a(I852
I35
tp2913
a(I1242
I58
tp2914
a(I432
I35
tp2915
a(I1210
I35
tp2916
a(I860
I35
tp2917
a(I806
I35
tp2918
a(I1124
I58
tp2919
a(I1803
I58
tp2920
a(I1218
I35
tp2921
a(I243
I35
tp2922
a(I189
I35
tp2923
a(I2089
I58
tp2924
a(I601
I35
tp2925
a(I197
I35
tp2926
a(I1718
I58
tp2927
a(I173
I58
tp2928
a(I376
I58
tp2929
a(I750
I58
tp2930
a(I1584
I58
tp2931
a(I2257
I58
tp2932
a(I1717
I58
tp2933
a(I352
I35
tp2934
a(I1205
I35
tp2935
a(I1755
I35
tp2936
a(I1701
I35
tp2937
a(I726
I35
tp2938
a(I360
I35
tp2939
a(I306
I35
tp2940
a(I1319
I58
tp2941
a(I1709
I35
tp2942
a(I734
I35
tp2943
a(I1677
I58
tp2944
a(I2204
I35
tp2945
a(I117
I35
tp2946
a(I1559
I58
tp2947
a(I860
I58
tp2948
a(I515
I58
tp2949
a(I1218
I58
tp2950
a(I1129
I58
tp2951
a(I1864
I35
tp2952
a(I250
I58
tp2953
a(I929
I58
tp2954
a(I1263
I35
tp2955
a(I1872
I35
tp2956
a(I2139
I58
tp2957
a(I1621
I35
tp2958
a(I24
I35
tp2959
a(I1201
I35
tp2960
a(I226
I35
tp2961
a(I1629
I35
tp2962
a(I469
I58
tp2963
a(I486
I58
tp2964
a(I234
I35
tp2965
a(I2070
I35
tp2966
a(I385
I35
tp2967
a(I352
I58
tp2968
a(I2078
I35
tp2969
a(I1482
I35
tp2970
a(I2222
I58
tp2971
a(I726
I58
tp2972
a(I1560
I58
tp2973
a(I1544
I58
tp2974
a(I1784
I35
tp2975
a(I1413
I58
tp2976
a(I15
I58
tp2977
a(I1380
I35
tp2978
a(I2179
I35
tp2979
a(I2204
I58
tp2980
a(I1536
I35
tp2981
a(I445
I58
tp2982
a(I1295
I58
tp2983
a(I359
I35
tp2984
a(I1746
I35
tp2985
a(I515
I35
tp2986
a(I1129
I35
tp2987
a(I922
I35
tp2988
a(I2187
I35
tp2989
a(I1791
I58
tp2990
a(I747
I58
tp2991
a(I1194
I58
tp2992
a(I1105
I58
tp2993
a(I978
I58
tp2994
a(I226
I58
tp2995
a(I905
I58
tp2996
a(I1076
I58
tp2997
a(I2011
I58
tp2998
a(I1044
I35
tp2999
a(I1642
I35
tp3000
a(I787
I58
tp3001
a(I2070
I58
tp3002
a(I1658
I35
tp3003
a(I2249
I35
tp3004
a(I1052
I35
tp3005
a(I23
I35
tp3006
a(I462
I58
tp3007
a(I1296
I58
tp3008
a(I637
I35
tp3009
a(I430
I35
tp3010
a(I1670
I58
tp3011
a(I328
I58
tp3012
a(I1413
I35
tp3013
a(I438
I35
tp3014
a(I702
I58
tp3015
a(I1536
I58
tp3016
a(I7
I58
tp3017
a(I1140
I58
tp3018
a(I1789
I35
tp3019
a(I621
I58
tp3020
a(I2180
I58
tp3021
a(I2091
I58
tp3022
a(I421
I58
tp3023
a(I1527
I58
tp3024
a(I1791
I35
tp3025
a(I544
I35
tp3026
a(I1885
I58
tp3027
a(I140
I35
tp3028
a(I2083
I35
tp3029
a(I1543
I35
tp3030
a(I552
I35
tp3031
a(I661
I58
tp3032
a(I812
I58
tp3033
a(I2224
I35
tp3034
a(I905
I35
tp3035
a(I913
I35
tp3036
a(I1598
I58
tp3037
a(I202
I58
tp3038
a(I113
I58
tp3039
a(I1052
I58
tp3040
a(I1987
I58
tp3041
a(I1541
I35
tp3042
a(I176
I58
tp3043
a(I84
I58
tp3044
a(I1019
I58
tp3045
a(I1466
I58
tp3046
a(I1377
I58
tp3047
a(I438
I58
tp3048
a(I1035
I35
tp3049
a(I60
I35
tp3050
a(I1496
I35
tp3051
a(I1649
I35
tp3052
a(I1442
I35
tp3053
a(I304
I58
tp3054
a(I68
I35
tp3055
a(I1870
I35
tp3056
a(I309
I58
tp3057
a(I2144
I35
tp3058
a(I678
I58
tp3059
a(I475
I35
tp3060
a(I421
I35
tp3061
a(I1209
I58
tp3062
a(I2152
I35
tp3063
a(I2261
I58
tp3064
a(I544
I58
tp3065
a(I397
I58
tp3066
a(I1503
I58
tp3067
a(I1640
I58
tp3068
a(I1861
I58
tp3069
a(I1775
I58
tp3070
a(I279
I58
tp3071
a(I893
I58
tp3072
a(I1979
I35
tp3073
a(I1580
I35
tp3074
a(I1523
I35
tp3075
a(I551
I35
tp3076
a(I1987
I35
tp3077
a(I1012
I35
tp3078
a(I1933
I35
tp3079
a(I958
I35
tp3080
a(I341
I35
tp3081
a(I966
I35
tp3082
a(I1028
I58
tp3083
a(I349
I35
tp3084
a(I60
I58
tp3085
a(I995
I58
tp3086
a(I1442
I58
tp3087
a(I2245
I35
tp3088
a(I414
I58
tp3089
a(I2144
I58
tp3090
a(I1072
I35
tp3091
a(I280
I58
tp3092
a(I2171
I35
tp3093
a(I1593
I58
tp3094
a(I1495
I35
tp3095
a(I504
I35
tp3096
a(I654
I58
tp3097
a(I1744
I58
tp3098
a(I1853
I35
tp3099
a(I878
I35
tp3100
a(I1503
I35
tp3101
a(I458
I35
tp3102
a(I520
I58
tp3103
a(I1861
I35
tp3104
a(I886
I35
tp3105
a(I2151
I35
tp3106
a(I1150
I58
tp3107
a(I466
I35
tp3108
a(I1479
I58
tp3109
a(I511
I58
tp3110
a(I869
I58
tp3111
a(I1719
I58
tp3112
a(I2016
I35
tp3113
a(I588
I35
tp3114
a(I998
I35
tp3115
a(I2024
I35
tp3116
a(I1109
I58
tp3117
a(I995
I35
tp3118
a(I154
I58
tp3119
a(I65
I58
tp3120
a(I1167
I35
tp3121
a(I976
I58
tp3122
a(I378
I35
tp3123
a(I1003
I35
tp3124
a(I1618
I58
tp3125
a(I971
I58
tp3126
a(I2254
I58
tp3127
a(I130
I35
tp3128
a(I1455
I58
tp3129
a(I943
I35
tp3130
a(I1329
I58
tp3131
a(I390
I58
tp3132
a(I2120
I58
tp3133
a(I179
I35
tp3134
a(I2230
I35
tp3135
a(I1211
I58
tp3136
a(I1914
I58
tp3137
a(I1569
I58
tp3138
a(I886
I58
tp3139
a(I1704
I35
tp3140
a(I1532
I35
tp3141
a(I1688
I35
tp3142
a(I1694
I58
tp3143
a(I1890
I35
tp3144
a(I659
I35
tp3145
a(I1284
I35
tp3146
a(I511
I35
tp3147
a(I1273
I35
tp3148
a(I1898
I35
tp3149
a(I667
I35
tp3150
a(I2095
I58
tp3151
a(I869
I35
tp3152
a(I263
I35
tp3153
a(I1025
I35
tp3154
a(I2016
I58
tp3155
a(I487
I58
tp3156
a(I877
I35
tp3157
a(I1695
I58
tp3158
a(I1851
I35
tp3159
a(I727
I58
tp3160
a(I1085
I58
tp3161
a(I2081
I35
tp3162
a(I130
I58
tp3163
a(I2023
I35
tp3164
a(I776
I35
tp3165
a(I1204
I35
tp3166
a(I175
I35
tp3167
a(I784
I35
tp3168
a(I2230
I58
tp3169
a(I1562
I35
tp3170
a(I2235
I58
tp3171
a(I533
I35
tp3172
a(I1158
I35
tp3173
a(I183
I35
tp3174
a(I369
I35
tp3175
a(I2259
I35
tp3176
a(I541
I35
tp3177
a(I1532
I58
tp3178
a(I1187
I58
tp3179
a(I488
I58
tp3180
a(I1890
I58
tp3181
a(I1545
I58
tp3182
a(I1651
I35
tp3183
a(I862
I58
tp3184
a(I2221
I35
tp3185
a(I2189
I58
tp3186
a(I728
I58
tp3187
a(I1687
I35
tp3188
a(I1102
I58
tp3189
a(I367
I58
tp3190
a(I292
I35
tp3191
a(I1070
I35
tp3192
a(I1695
I35
tp3193
a(I704
I35
tp3194
a(I650
I35
tp3195
a(I1992
I58
tp3196
a(I300
I35
tp3197
a(I1078
I35
tp3198
a(I2217
I35
tp3199
a(I658
I35
tp3200
a(I1671
I58
tp3201
a(I703
I58
tp3202
a(I2133
I35
tp3203
a(I2158
I35
tp3204
a(I2089
I35
tp3205
a(I1061
I58
tp3206
a(I362
I58
tp3207
a(I17
I58
tp3208
a(I562
I35
tp3209
a(I50
I58
tp3210
a(I2000
I35
tp3211
a(I1804
I35
tp3212
a(I244
I58
tp3213
a(I923
I58
tp3214
a(I326
I58
tp3215
a(I1187
I35
tp3216
a(I212
I35
tp3217
a(I602
I58
tp3218
a(I1281
I58
tp3219
a(I1615
I35
tp3220
a(I1545
I35
tp3221
a(I1195
I35
tp3222
a(I220
I35
tp3223
a(I166
I35
tp3224
a(I1508
I58
tp3225
a(I1163
I58
tp3226
a(I1553
I35
tp3227
a(I578
I35
tp3228
a(I464
I58
tp3229
a(I876
I58
tp3230
a(I1777
I58
tp3231
a(I985
I35
tp3232
a(I2250
I35
tp3233
a(I1776
I58
tp3234
a(I1748
I58
tp3235
a(I1659
I58
tp3236
a(I2258
I35
tp3237
a(I704
I58
tp3238
a(I1078
I58
tp3239
a(I1724
I35
tp3240
a(I2113
I35
tp3241
a(I110
I58
tp3242
a(I1107
I35
tp3243
a(I439
I58
tp3244
a(I703
I35
tp3245
a(I1785
I35
tp3246
a(I2057
I35
tp3247
a(I1115
I35
tp3248
a(I1061
I35
tp3249
a(I86
I35
tp3250
a(I144
I35
tp3251
a(I2150
I58
tp3252
a(I679
I58
tp3253
a(I1069
I35
tp3254
a(I94
I35
tp3255
a(I1037
I58
tp3256
a(I501
I35
tp3257
a(I220
I58
tp3258
a(I899
I58
tp3259
a(I2182
I58
tp3260
a(I578
I58
tp3261
a(I1513
I58
tp3262
a(I1224
I35
tp3263
a(I1652
I35
tp3264
a(I289
I58
tp3265
a(I623
I35
tp3266
a(I1232
I35
tp3267
a(I203
I35
tp3268
a(I1842
I58
tp3269
a(I1606
I35
tp3270
a(I631
I35
tp3271
a(I408
I35
tp3272
a(I561
I35
tp3273
a(I889
I35
tp3274
a(I2013
I35
tp3275
a(I782
I35
tp3276
a(I405
I58
tp3277
a(I1635
I58
tp3278
a(I680
I58
tp3279
a(I2249
I58
tp3280
a(I953
I35
tp3281
a(I2055
I35
tp3282
a(I86
I58
tp3283
a(I415
I58
tp3284
a(I1144
I35
tp3285
a(I773
I58
tp3286
a(I740
I35
tp3287
a(I1098
I35
tp3288
a(I123
I35
tp3289
a(I748
I35
tp3290
a(I1456
I58
tp3291
a(I1505
I35
tp3292
a(I1106
I35
tp3293
a(I899
I35
tp3294
a(I77
I35
tp3295
a(I1513
I35
tp3296
a(I282
I35
tp3297
a(I1151
I58
tp3298
a(I196
I58
tp3299
a(I107
I58
tp3300
a(I2161
I35
tp3301
a(I554
I58
tp3302
a(I1489
I58
tp3303
a(I914
I58
tp3304
a(I265
I58
tp3305
a(I1460
I58
tp3306
a(I1371
I58
tp3307
a(I1635
I35
tp3308
a(I1818
I58
tp3309
a(I1729
I58
tp3310
a(I1578
I35
tp3311
a(I240
I35
tp3312
a(I1643
I35
tp3313
a(I1436
I35
tp3314
a(I614
I35
tp3315
a(I407
I35
tp3316
a(I1611
I58
tp3317
a(I1794
I35
tp3318
a(I656
I58
tp3319
a(I2084
I35
tp3320
a(I1021
I35
tp3321
a(I415
I35
tp3322
a(I1030
I58
tp3323
a(I2092
I35
tp3324
a(I773
I35
tp3325
a(I62
I58
tp3326
a(I391
I58
tp3327
a(I1779
I58
tp3328
a(I1005
I58
tp3329
a(I952
I58
tp3330
a(I1843
I58
tp3331
a(I1326
I58
tp3332
a(I887
I58
tp3333
a(I2154
I58
tp3334
a(I2233
I35
tp3335
a(I1151
I35
tp3336
a(I928
I35
tp3337
a(I1245
I58
tp3338
a(I936
I35
tp3339
a(I21
I58
tp3340
a(I1310
I35
tp3341
a(I172
I58
tp3342
a(I265
I35
tp3343
a(I693
I35
tp3344
a(I2105
I58
tp3345
a(I2181
I35
tp3346
a(I273
I35
tp3347
a(I2256
I58
tp3348
a(I497
I58
tp3349
a(I1436
I58
tp3350
a(I1154
I58
tp3351
a(I880
I35
tp3352
a(I368
I58
tp3353
a(I1705
I58
tp3354
a(I468
I58
tp3355
a(I379
I58
tp3356
a(I826
I58
tp3357
a(I737
I58
tp3358
a(I1676
I58
tp3359
a(I1587
I58
tp3360
a(I444
I35
tp3361
a(I1847
I35
tp3362
a(I856
I35
tp3363
a(I2068
I35
tp3364
a(I452
I35
tp3365
a(I1230
I35
tp3366
a(I338
I35
tp3367
a(I185
I35
tp3368
a(I810
I35
tp3369
a(I1128
I58
tp3370
a(I193
I35
tp3371
a(I928
I58
tp3372
a(I863
I58
tp3373
a(I1576
I58
tp3374
a(I1246
I58
tp3375
a(I1221
I58
tp3376
a(I1711
I58
tp3377
a(I1199
I35
tp3378
a(I1103
I58
tp3379
a(I1459
I35
tp3380
a(I935
I35
tp3381
a(I1017
I58
tp3382
a(I372
I35
tp3383
a(I1293
I35
tp3384
a(I318
I35
tp3385
a(I1705
I35
tp3386
a(I730
I35
tp3387
a(I473
I58
tp3388
a(I2200
I35
tp3389
a(I2071
I35
tp3390
a(I2026
I58
tp3391
a(I1598
I35
tp3392
a(I444
I58
tp3393
a(I355
I58
tp3394
a(I1650
I58
tp3395
a(I1908
I58
tp3396
a(I1563
I58
tp3397
a(I1817
I35
tp3398
a(I1876
I35
tp3399
a(I595
I58
tp3400
a(I1884
I35
tp3401
a(I2107
I35
tp3402
a(I1830
I35
tp3403
a(I855
I35
tp3404
a(I14
I58
tp3405
a(I1104
I58
tp3406
a(I1213
I35
tp3407
a(I238
I35
tp3408
a(I863
I35
tp3409
a(I1625
I35
tp3410
a(I904
I58
tp3411
a(I1221
I35
tp3412
a(I246
I35
tp3413
a(I1534
I58
tp3414
a(I2189
I35
tp3415
a(I1197
I58
tp3416
a(I2211
I35
tp3417
a(I1774
I58
tp3418
a(I229
I58
tp3419
a(I1079
I58
tp3420
a(I1376
I35
tp3421
a(I2211
I58
tp3422
a(I111
I58
tp3423
a(I1750
I35
tp3424
a(I934
I35
tp3425
a(I1384
I35
tp3426
a(I1493
I58
tp3427
a(I355
I35
tp3428
a(I620
I58
tp3429
a(I2061
I35
tp3430
a(I363
I35
tp3431
a(I2002
I58
tp3432
a(I420
I58
tp3433
a(I331
I58
tp3434
a(I721
I35
tp3435
a(I1484
I35
tp3436
a(I778
I58
tp3437
a(I689
I58
tp3438
a(I1884
I58
tp3439
a(I1539
I58
tp3440
a(I883
I58
tp3441
a(I208
I58
tp3442
a(I660
I58
tp3443
a(I571
I58
tp3444
a(I1636
I35
tp3445
a(I2183
I58
tp3446
a(I1274
I58
tp3447
a(I246
I58
tp3448
a(I1867
I35
tp3449
a(I892
I35
tp3450
a(I2103
I35
tp3451
a(I1886
I58
tp3452
a(I1250
I35
tp3453
a(I19
I35
tp3454
a(I644
I35
tp3455
a(I2005
I58
tp3456
a(I633
I35
tp3457
a(I1258
I35
tp3458
a(I229
I35
tp3459
a(I582
I58
tp3460
a(I1376
I58
tp3461
a(I237
I35
tp3462
a(I1146
I58
tp3463
a(I1750
I58
tp3464
a(I205
I58
tp3465
a(I1055
I58
tp3466
a(I1775
I35
tp3467
a(I2065
I35
tp3468
a(I1644
I35
tp3469
a(I87
I58
tp3470
a(I1132
I58
tp3471
a(I1875
I58
tp3472
a(I1469
I58
tp3473
a(I1787
I35
tp3474
a(I425
I58
tp3475
a(I1383
I35
tp3476
a(I136
I35
tp3477
a(I1539
I35
tp3478
a(I564
I35
tp3479
a(I766
I35
tp3480
a(I396
I58
tp3481
a(I307
I58
tp3482
a(I917
I35
tp3483
a(I518
I35
tp3484
a(I1860
I58
tp3485
a(I1771
I58
tp3486
a(I2244
I35
tp3487
a(I925
I35
tp3488
a(I892
I58
tp3489
a(I547
I58
tp3490
a(I1250
I58
tp3491
a(I1929
I58
tp3492
a(I222
I58
tp3493
a(I1811
I58
tp3494
a(I88
I58
tp3495
a(I1486
I58
tp3496
a(I303
I58
tp3497
a(I1661
I35
tp3498
a(I1055
I35
tp3499
a(I64
I35
tp3500
a(I1462
I35
tp3501
a(I417
I35
tp3502
a(I181
I58
tp3503
a(I1031
I58
tp3504
a(I425
I35
tp3505
a(I1645
I58
tp3506
a(I1592
I58
tp3507
a(I2094
I35
tp3508
a(I1445
I58
tp3509
a(I401
I58
tp3510
a(I2147
I58
tp3511
a(I242
I58
tp3512
a(I1164
I35
tp3513
a(I2081
I58
tp3514
a(I921
I58
tp3515
a(I283
I58
tp3516
a(I262
I58
tp3517
a(I1685
I58
tp3518
a(I547
I35
tp3519
a(I986
I58
tp3520
a(I641
I58
tp3521
a(I1929
I35
tp3522
a(I954
I35
tp3523
a(I555
I35
tp3524
a(I868
I58
tp3525
a(I523
I58
tp3526
a(I962
I35
tp3527
a(I975
I35
tp3528
a(I1137
I58
tp3529
a(I345
I35
tp3530
a(I1875
I35
tp3531
a(I1108
I58
tp3532
a(I64
I58
tp3533
a(I1462
I58
tp3534
a(I494
I58
tp3535
a(I1328
I58
tp3536
a(I1845
I58
tp3537
a(I1702
I58
tp3538
a(I157
I58
tp3539
a(I1499
I35
tp3540
a(I1445
I35
tp3541
a(I470
I35
tp3542
a(I71
I35
tp3543
a(I1857
I35
tp3544
a(I1715
I35
tp3545
a(I478
I35
tp3546
a(I2155
I35
tp3547
a(I1753
I35
tp3548
a(I962
I58
tp3549
a(I873
I58
tp3550
a(I1575
I35
tp3551
a(I584
I35
tp3552
a(I1479
I35
tp3553
a(I1982
I35
tp3554
a(I1007
I35
tp3555
a(I1202
I58
tp3556
a(I1113
I58
tp3557
a(I1015
I35
tp3558
a(I945
I35
tp3559
a(I1373
I35
tp3560
a(I142
I35
tp3561
a(I2019
I58
tp3562
a(I1438
I58
tp3563
a(I470
I58
tp3564
a(I1528
I35
tp3565
a(I1678
I58
tp3566
a(I133
I58
tp3567
a(I236
I35
tp3568
a(I100
I35
tp3569
a(I1902
I35
tp3570
a(I2085
I58
tp3571
a(I1280
I35
tp3572
a(I1327
I58
tp3573
a(I507
I35
tp3574
a(I108
I35
tp3575
a(I531
I35
tp3576
a(I1910
I35
tp3577
a(I865
I35
tp3578
a(I629
I58
tp3579
a(I461
I35
tp3580
a(I2188
I58
tp3581
a(I2099
I58
tp3582
a(I873
I35
tp3583
a(I1535
I58
tp3584
a(I491
I58
tp3585
a(I1893
I58
tp3586
a(I938
I58
tp3587
a(I849
I58
tp3588
a(I594
I35
tp3589
a(I245
I35
tp3590
a(I1612
I35
tp3591
a(I1610
I58
tp3592
a(I820
I58
tp3593
a(I731
I58
tp3594
a(I2022
I58
tp3595
a(I2019
I35
tp3596
a(I788
I35
tp3597
a(I1178
I58
tp3598
a(I1089
I58
tp3599
a(I1770
I35
tp3600
a(I2027
I35
tp3601
a(I796
I35
tp3602
a(I121
I58
tp3603
a(I1060
I58
tp3604
a(I1995
I58
tp3605
a(I1154
I35
tp3606
a(I16
I58
tp3607
a(I381
I35
tp3608
a(I537
I35
tp3609
a(I2227
I58
tp3610
a(I133
I35
tp3611
a(I446
I58
tp3612
a(I1280
I58
tp3613
a(I135
I35
tp3614
a(I1910
I58
tp3615
a(I365
I58
tp3616
a(I312
I58
tp3617
a(I2168
I58
tp3618
a(I1683
I35
tp3619
a(I247
I58
tp3620
a(I2193
I58
tp3621
a(I1535
I35
tp3622
a(I288
I35
tp3623
a(I605
I58
tp3624
a(I1691
I35
tp3625
a(I1893
I35
tp3626
a(I662
I35
tp3627
a(I1287
I35
tp3628
a(I296
I35
tp3629
a(I498
I35
tp3630
a(I1511
I58
tp3631
a(I1901
I35
tp3632
a(I670
I35
tp3633
a(I1869
I58
tp3634
a(I53
I35
tp3635
a(I2201
I35
tp3636
a(I1751
I58
tp3637
a(I796
I58
tp3638
a(I707
I58
tp3639
a(I2137
I35
tp3640
a(I979
I58
tp3641
a(I467
I35
tp3642
a(I1065
I58
tp3643
a(I1800
I35
tp3644
a(I186
I58
tp3645
a(I97
I58
tp3646
a(I1036
I58
tp3647
a(I1808
I35
tp3648
a(I779
I35
tp3649
a(I1557
I35
tp3650
a(I1207
I35
tp3651
a(I216
I35
tp3652
a(I162
I35
tp3653
a(I1565
I35
tp3654
a(I590
I35
tp3655
a(I437
I58
tp3656
a(I422
I58
tp3657
a(I170
I35
tp3658
a(I1512
I58
tp3659
a(I825
I35
tp3660
a(I288
I58
tp3661
a(I2244
I58
tp3662
a(I662
I58
tp3663
a(I1752
I58
tp3664
a(I223
I58
tp3665
a(I1720
I35
tp3666
a(I581
I58
tp3667
a(I1316
I35
tp3668
a(I1728
I35
tp3669
a(I1674
I35
tp3670
a(I699
I35
tp3671
a(I1487
I58
tp3672
a(I1488
I58
tp3673
a(I295
I35
tp3674
a(I1057
I35
tp3675
a(I1682
I35
tp3676
a(I707
I35
tp3677
a(I653
I35
tp3678
a(I1065
I35
tp3679
a(I1727
I58
tp3680
a(I772
I58
tp3681
a(I683
I58
tp3682
a(I1004
I58
tp3683
a(I1386
I58
tp3684
a(I1041
I58
tp3685
a(I1749
I35
tp3686
a(I162
I58
tp3687
a(I73
I58
tp3688
a(I2009
I35
tp3689
a(I1626
I58
tp3690
a(I816
I35
tp3691
a(I1594
I35
tp3692
a(I1244
I35
tp3693
a(I1190
I35
tp3694
a(I215
I35
tp3695
a(I398
I58
tp3696
a(I1602
I35
tp3697
a(I627
I35
tp3698
a(I1458
I58
tp3699
a(I573
I35
tp3700
a(I223
I35
tp3701
a(I1862
I58
tp3702
a(I264
I58
tp3703
a(I581
I35
tp3704
asS'runtime'
p3705
F0.2961418628692627
sS'name'
p3706
S'["fd_checker", [["region", "account_manager"]]]'
p3707
s.