(dp0
S'output'
p1
(lp2
(I1628
I9
tp3
a(I727
I9
tp4
a(I726
I9
tp5
a(I726
I7
tp6
a(I1628
I7
tp7
a(I727
I7
tp8
asS'runtime'
p9
F0.3046860694885254
sS'name'
p10
S'["fd_checker", [["name", "product_nm"]]]'
p11
s.