(dp0
S'output'
p1
(lp2
(I1480
I25
tp3
a(I400
I7
tp4
a(I1471
I7
tp5
a(I399
I25
tp6
a(I1472
I25
tp7
a(I1503
I25
tp8
a(I1622
I25
tp9
a(I1472
I7
tp10
a(I730
I7
tp11
a(I1622
I7
tp12
a(I399
I7
tp13
a(I1480
I7
tp14
a(I1471
I25
tp15
a(I400
I25
tp16
a(I730
I25
tp17
a(I1503
I7
tp18
asS'runtime'
p19
F0.30152082443237305
sS'name'
p20
S'["fd_checker", [["name", "urgency"]]]'
p21
s.