(dp0
S'output'
p1
(lp2
(I1024
I1
tp3
a(I1029
I31
tp4
a(I1026
I31
tp5
a(I1035
I31
tp6
a(I1030
I1
tp7
a(I1027
I1
tp8
a(I1030
I31
tp9
a(I2063
I31
tp10
a(I1026
I1
tp11
a(I1023
I31
tp12
a(I1027
I31
tp13
a(I1035
I1
tp14
a(I1024
I31
tp15
a(I2063
I1
tp16
a(I1029
I1
tp17
a(I1028
I31
tp18
a(I1023
I1
tp19
a(I1028
I1
tp20
a(I1025
I1
tp21
a(I1025
I31
tp22
asS'runtime'
p23
F0.3092060089111328
sS'name'
p24
S'["fd_checker", [["tracking", "end_users"]]]'
p25
s.