(dp0
S'output'
p1
(lp2
(I32
I54
tp3
a(I1987
I54
tp4
a(I2170
I54
tp5
a(I1161
I54
tp6
a(I1079
I54
tp7
a(I730
I54
tp8
a(I1027
I52
tp9
a(I34
I52
tp10
a(I1992
I52
tp11
a(I1680
I54
tp12
a(I2000
I52
tp13
a(I1029
I54
tp14
a(I120
I54
tp15
a(I2049
I54
tp16
a(I97
I52
tp17
a(I896
I54
tp18
a(I2002
I54
tp19
a(I2209
I54
tp20
a(I122
I52
tp21
a(I1526
I54
tp22
a(I2196
I52
tp23
a(I898
I52
tp24
a(I94
I54
tp25
a(I855
I52
tp26
a(I422
I52
tp27
a(I1456
I52
tp28
a(I447
I52
tp29
a(I2193
I54
tp30
a(I1919
I52
tp31
a(I1619
I52
tp32
a(I2003
I52
tp33
a(I1615
I54
tp34
a(I140
I52
tp35
a(I2011
I52
tp36
a(I1526
I52
tp37
a(I2005
I54
tp38
a(I26
I54
tp39
a(I1634
I52
tp40
a(I907
I54
tp41
a(I1288
I52
tp42
a(I1037
I52
tp43
a(I1918
I54
tp44
a(I932
I54
tp45
a(I793
I52
tp46
a(I1974
I54
tp47
a(I228
I52
tp48
a(I89
I54
tp49
a(I940
I54
tp50
a(I417
I52
tp51
a(I814
I54
tp52
a(I1467
I52
tp53
a(I1536
I52
tp54
a(I633
I54
tp55
a(I35
I52
tp56
a(I1003
I54
tp57
a(I151
I52
tp58
a(I2022
I52
tp59
a(I1538
I54
tp60
a(I2047
I52
tp61
a(I280
I54
tp62
a(I214
I52
tp63
a(I1530
I54
tp64
a(I1601
I54
tp65
a(I1268
I54
tp66
a(I2016
I54
tp67
a(I892
I54
tp68
a(I459
I54
tp69
a(I2163
I52
tp70
a(I956
I52
tp71
a(I817
I54
tp72
a(I1899
I54
tp73
a(I1182
I54
tp74
a(I1080
I52
tp75
a(I850
I54
tp76
a(I1057
I54
tp77
a(I724
I54
tp78
a(I1466
I54
tp79
a(I1088
I52
tp80
a(I447
I54
tp81
a(I2014
I54
tp82
a(I1021
I54
tp83
a(I1090
I54
tp84
a(I614
I54
tp85
a(I910
I52
tp86
a(I301
I52
tp87
a(I682
I54
tp88
a(I851
I52
tp89
a(I1053
I52
tp90
a(I539
I54
tp91
a(I1504
I54
tp92
a(I859
I52
tp93
a(I1882
I52
tp94
a(I1878
I54
tp95
a(I72
I54
tp96
a(I884
I52
tp97
a(I2238
I52
tp98
a(I2236
I54
tp99
a(I49
I52
tp100
a(I861
I54
tp101
a(I546
I54
tp102
a(I1585
I52
tp103
a(I144
I52
tp104
a(I743
I54
tp105
a(I138
I54
tp106
a(I691
I52
tp107
a(I1836
I54
tp108
a(I2170
I52
tp109
a(I1654
I52
tp110
a(I335
I54
tp111
a(I146
I54
tp112
a(I609
I54
tp113
a(I1891
I54
tp114
a(I1718
I54
tp115
a(I693
I54
tp116
a(I253
I52
tp117
a(I340
I52
tp118
a(I28
I54
tp119
a(I913
I52
tp120
a(I232
I52
tp121
a(I870
I52
tp122
a(I2082
I54
tp123
a(I209
I54
tp124
a(I2049
I52
tp125
a(I934
I54
tp126
a(I895
I52
tp127
a(I583
I54
tp128
a(I234
I54
tp129
a(I147
I52
tp130
a(I91
I54
tp131
a(I647
I52
tp132
a(I800
I54
tp133
a(I116
I54
tp134
a(I1001
I52
tp135
a(I1135
I52
tp136
a(I1498
I54
tp137
a(I1649
I52
tp138
a(I1884
I54
tp139
a(I98
I54
tp140
a(I947
I54
tp141
a(I774
I54
tp142
a(I735
I52
tp143
a(I888
I54
tp144
a(I865
I52
tp145
a(I359
I52
tp146
a(I1974
I52
tp147
a(I949
I52
tp148
a(I457
I52
tp149
a(I1925
I52
tp150
a(I542
I52
tp151
a(I2016
I52
tp152
a(I2148
I54
tp153
a(I1195
I54
tp154
a(I862
I54
tp155
a(I403
I54
tp156
a(I908
I52
tp157
a(I769
I54
tp158
a(I730
I52
tp159
a(I1027
I54
tp160
a(I1455
I52
tp161
a(I1992
I54
tp162
a(I1641
I54
tp163
a(I1463
I52
tp164
a(I741
I54
tp165
a(I1029
I52
tp166
a(I326
I54
tp167
a(I996
I52
tp168
a(I2002
I52
tp169
a(I2209
I52
tp170
a(I1053
I54
tp171
a(I94
I52
tp172
a(I855
I54
tp173
a(I803
I52
tp174
a(I919
I52
tp175
a(I1456
I54
tp176
a(I741
I52
tp177
a(I2045
I54
tp178
a(I811
I52
tp179
a(I1985
I52
tp180
a(I2003
I54
tp181
a(I1830
I54
tp182
a(I1585
I54
tp183
a(I140
I54
tp184
a(I2011
I54
tp185
a(I813
I54
tp186
a(I2005
I52
tp187
a(I460
I52
tp188
a(I26
I52
tp189
a(I22
I54
tp190
a(I1288
I54
tp191
a(I2013
I52
tp192
a(I1825
I54
tp193
a(I584
I52
tp194
a(I1015
I52
tp195
a(I1988
I52
tp196
a(I1177
I52
tp197
a(I1458
I54
tp198
a(I228
I54
tp199
a(I89
I52
tp200
a(I592
I52
tp201
a(I814
I52
tp202
a(I292
I52
tp203
a(I1219
I52
tp204
a(I1467
I54
tp205
a(I2010
I52
tp206
a(I1536
I54
tp207
a(I1316
I52
tp208
a(I1181
I52
tp209
a(I35
I54
tp210
a(I118
I54
tp211
a(I847
I52
tp212
a(I1177
I54
tp213
a(I151
I54
tp214
a(I1538
I52
tp215
a(I471
I52
tp216
a(I2047
I54
tp217
a(I1858
I54
tp218
a(I1584
I52
tp219
a(I1087
I52
tp220
a(I132
I52
tp221
a(I1601
I52
tp222
a(I2098
I54
tp223
a(I603
I52
tp224
a(I1619
I54
tp225
a(I1312
I52
tp226
a(I597
I54
tp227
a(I628
I52
tp228
a(I956
I54
tp229
a(I817
I52
tp230
a(I526
I54
tp231
a(I113
I54
tp232
a(I912
I52
tp233
a(I1951
I52
tp234
a(I1080
I54
tp235
a(I1459
I52
tp236
a(I850
I52
tp237
a(I1057
I52
tp238
a(I1088
I54
tp239
a(I914
I54
tp240
a(I1377
I54
tp241
a(I1152
I52
tp242
a(I143
I52
tp243
a(I2014
I52
tp244
a(I1021
I52
tp245
a(I1090
I52
tp246
a(I1000
I52
tp247
a(I61
I54
tp248
a(I614
I52
tp249
a(I682
I52
tp250
a(I851
I54
tp251
a(I1648
I52
tp252
a(I2185
I52
tp253
a(I915
I52
tp254
a(I1469
I52
tp255
a(I859
I54
tp256
a(I1709
I54
tp257
a(I1878
I52
tp258
a(I923
I52
tp259
a(I884
I54
tp260
a(I864
I52
tp261
a(I917
I54
tp262
a(I861
I52
tp263
a(I1242
I54
tp264
a(I809
I54
tp265
a(I546
I52
tp266
a(I456
I52
tp267
a(I2113
I52
tp268
a(I144
I54
tp269
a(I866
I54
tp270
a(I138
I52
tp271
a(I691
I54
tp272
a(I1985
I54
tp273
a(I458
I54
tp274
a(I146
I52
tp275
a(I609
I52
tp276
a(I103
I52
tp277
a(I1718
I52
tp278
a(I693
I52
tp279
a(I340
I54
tp280
a(I232
I54
tp281
a(I209
I52
tp282
a(I606
I54
tp283
a(I1661
I54
tp284
a(I934
I52
tp285
a(I895
I54
tp286
a(I234
I52
tp287
a(I147
I54
tp288
a(I1214
I52
tp289
a(I1829
I52
tp290
a(I647
I54
tp291
a(I1028
I52
tp292
a(I536
I52
tp293
a(I1135
I54
tp294
a(I2010
I54
tp295
a(I1498
I52
tp296
a(I2208
I52
tp297
a(I469
I54
tp298
a(I361
I54
tp299
a(I98
I52
tp300
a(I1800
I52
tp301
a(I477
I54
tp302
a(I774
I52
tp303
a(I735
I54
tp304
a(I1623
I52
tp305
a(I359
I54
tp306
a(I740
I52
tp307
a(I1466
I52
tp308
a(I1999
I54
tp309
a(I1039
I52
tp310
a(I862
I52
tp311
a(I2004
I52
tp312
a(I663
I52
tp313
a(I2012
I52
tp314
a(I511
I52
tp315
a(I2105
I54
tp316
a(I908
I54
tp317
a(I769
I52
tp318
a(I2136
I52
tp319
a(I1455
I54
tp320
a(I1819
I52
tp321
a(I1459
I54
tp322
a(I1641
I52
tp323
a(I751
I52
tp324
a(I1983
I52
tp325
a(I1463
I54
tp326
a(I2167
I52
tp327
a(I759
I52
tp328
a(I326
I52
tp329
a(I1468
I52
tp330
a(I996
I54
tp331
a(I1841
I52
tp332
a(I921
I54
tp333
a(I878
I54
tp334
a(I13
I54
tp335
a(I1469
I54
tp336
a(I803
I54
tp337
a(I886
I54
tp338
a(I919
I54
tp339
a(I1300
I52
tp340
a(I99
I52
tp341
a(I811
I54
tp342
a(I1192
I52
tp343
a(I2159
I54
tp344
a(I1830
I52
tp345
a(I816
I52
tp346
a(I101
I54
tp347
a(I813
I52
tp348
a(I1622
I52
tp349
a(I460
I54
tp350
a(I718
I54
tp351
a(I22
I52
tp352
a(I1371
I52
tp353
a(I584
I54
tp354
a(I1015
I54
tp355
a(I1461
I52
tp356
a(I1982
I54
tp357
a(I1373
I54
tp358
a(I592
I54
tp359
a(I881
I54
tp360
a(I292
I54
tp361
a(I1984
I54
tp362
a(I904
I52
tp363
a(I473
I54
tp364
a(I1825
I52
tp365
a(I1613
I54
tp366
a(I118
I52
tp367
a(I847
I54
tp368
a(I827
I52
tp369
a(I1920
I52
tp370
a(I471
I54
tp371
a(I852
I52
tp372
a(I1858
I52
tp373
a(I1822
I54
tp374
a(I1087
I54
tp375
a(I860
I52
tp376
a(I132
I54
tp377
a(I1977
I54
tp378
a(I2098
I52
tp379
a(I603
I54
tp380
a(I2008
I52
tp381
a(I1312
I54
tp382
a(I597
I52
tp383
a(I1100
I52
tp384
a(I667
I52
tp385
a(I628
I54
tp386
a(I2196
I54
tp387
a(I904
I54
tp388
a(I692
I52
tp389
a(I113
I52
tp390
a(I912
I54
tp391
a(I1951
I54
tp392
a(I610
I54
tp393
a(I2225
I54
tp394
a(I1214
I54
tp395
a(I208
I52
tp396
a(I914
I52
tp397
a(I1377
I52
tp398
a(I1774
I54
tp399
a(I871
I52
tp400
a(I1152
I54
tp401
a(I143
I54
tp402
a(I2258
I54
tp403
a(I1782
I54
tp404
a(I1000
I54
tp405
a(I61
I52
tp406
a(I148
I52
tp407
a(I2019
I52
tp408
a(I1374
I54
tp409
a(I1648
I54
tp410
a(I17
I54
tp411
a(I915
I54
tp412
a(I998
I54
tp413
a(I1709
I52
tp414
a(I42
I54
tp415
a(I923
I54
tp416
a(I1999
I52
tp417
a(I711
I52
tp418
a(I864
I54
tp419
a(I917
I52
tp420
a(I1209
I52
tp421
a(I809
I52
tp422
a(I1238
I54
tp423
a(I456
I54
tp424
a(I2022
I54
tp425
a(I105
I54
tp426
a(I866
I52
tp427
a(I2163
I54
tp428
a(I930
I54
tp429
a(I458
I52
tp430
a(I103
I54
tp431
a(I1508
I52
tp432
a(I2009
I54
tp433
a(I606
I52
tp434
a(I1661
I52
tp435
a(I2195
I54
tp436
a(I1315
I52
tp437
a(I670
I54
tp438
a(I1461
I54
tp439
a(I1028
I54
tp440
a(I536
I54
tp441
a(I1934
I54
tp442
a(I2208
I54
tp443
a(I469
I52
tp444
a(I361
I52
tp445
a(I1800
I54
tp446
a(I477
I52
tp447
a(I425
I54
tp448
a(I1925
I54
tp449
a(I740
I54
tp450
a(I2182
I54
tp451
a(I95
I52
tp452
a(I804
I52
tp453
a(I1242
I52
tp454
a(I1039
I54
tp455
a(I2004
I54
tp456
a(I663
I54
tp457
a(I314
I54
tp458
a(I867
I52
tp459
a(I2012
I54
tp460
a(I511
I54
tp461
a(I875
I52
tp462
a(I2105
I52
tp463
a(I869
I54
tp464
a(I2136
I54
tp465
a(I1819
I54
tp466
a(I152
I52
tp467
a(I877
I54
tp468
a(I751
I54
tp469
a(I1824
I52
tp470
a(I815
I52
tp471
a(I759
I54
tp472
a(I2082
I52
tp473
a(I1468
I54
tp474
a(I1890
I52
tp475
a(I331
I52
tp476
a(I2187
I54
tp477
a(I921
I52
tp478
a(I1734
I54
tp479
a(I878
I52
tp480
a(I13
I52
tp481
a(I1971
I52
tp482
a(I942
I54
tp483
a(I333
I54
tp484
a(I886
I52
tp485
a(I1426
I54
tp486
a(I571
I52
tp487
a(I1300
I54
tp488
a(I99
I54
tp489
a(I1542
I52
tp490
a(I655
I52
tp491
a(I1192
I54
tp492
a(I1914
I54
tp493
a(I2211
I52
tp494
a(I1566
I54
tp495
a(I573
I54
tp496
a(I816
I54
tp497
a(I101
I52
tp498
a(I1883
I54
tp499
a(I112
I52
tp500
a(I718
I52
tp501
a(I2244
I52
tp502
a(I1371
I54
tp503
a(I114
I54
tp504
a(I1982
I52
tp505
a(I1373
I52
tp506
a(I1460
I52
tp507
a(I881
I52
tp508
a(I2148
I52
tp509
a(I473
I52
tp510
a(I1030
I54
tp511
a(I2015
I52
tp512
a(I1613
I52
tp513
a(I827
I54
tp514
a(I1920
I54
tp515
a(I123
I52
tp516
a(I852
I54
tp517
a(I207
I52
tp518
a(I1822
I52
tp519
a(I916
I52
tp520
a(I777
I54
tp521
a(I860
I54
tp522
a(I808
I52
tp523
a(I1879
I52
tp524
a(I924
I52
tp525
a(I1977
I52
tp526
a(I742
I54
tp527
a(I2008
I54
tp528
a(I810
I54
tp529
a(I1100
I54
tp530
a(I667
I54
tp531
a(I334
I54
tp532
a(I1091
I52
tp533
a(I1025
I54
tp534
a(I692
I54
tp535
a(I2006
I54
tp536
a(I873
I54
tp537
a(I610
I52
tp538
a(I2225
I52
tp539
a(I208
I54
tp540
a(I674
I54
tp541
a(I1880
I54
tp542
a(I1774
I52
tp543
a(I871
I54
tp544
a(I819
I52
tp545
a(I2258
I52
tp546
a(I935
I52
tp547
a(I1782
I52
tp548
a(I148
I54
tp549
a(I2019
I54
tp550
a(I1374
I52
tp551
a(I762
I54
tp552
a(I17
I52
tp553
a(I998
I52
tp554
a(I514
I54
tp555
a(I337
I54
tp556
a(I42
I52
tp557
a(I1023
I52
tp558
a(I2187
I52
tp559
a(I711
I54
tp560
a(I1092
I52
tp561
a(I1162
I52
tp562
a(I1238
I52
tp563
a(I716
I52
tp564
a(I577
I54
tp565
a(I2009
I52
tp566
a(I105
I52
tp567
a(I1542
I54
tp568
a(I930
I52
tp569
a(I126
I54
tp570
a(I1271
I52
tp571
a(I1530
I52
tp572
a(I523
I52
tp573
a(I1508
I54
tp574
a(I902
I54
tp575
a(I863
I52
tp576
a(I1883
I52
tp577
a(I371
I52
tp578
a(I33
I54
tp579
a(I1315
I54
tp580
a(I670
I52
tp581
a(I58
I54
tp582
a(I1983
I54
tp583
a(I1900
I52
tp584
a(I1465
I52
tp585
a(I1934
I52
tp586
a(I121
I54
tp587
a(I920
I52
tp588
a(I897
I54
tp589
a(I425
I52
tp590
a(I1568
I52
tp591
a(I1877
I54
tp592
a(I922
I54
tp593
a(I2200
I52
tp594
a(I1885
I54
tp595
a(I2182
I52
tp596
a(I95
I54
tp597
a(I804
I54
tp598
a(I454
I54
tp599
a(I100
I52
tp600
a(I985
I54
tp601
a(I2185
I54
tp602
a(I314
I52
tp603
a(I867
I54
tp604
a(I931
I52
tp605
a(I2143
I54
tp606
a(I875
I54
tp607
a(I23
I52
tp608
a(I869
I52
tp609
a(I1372
I52
tp610
a(I2238
I54
tp611
a(I880
I52
tp612
a(I933
I54
tp613
a(I152
I54
tp614
a(I877
I52
tp615
a(I1880
I52
tp616
a(I1341
I52
tp617
a(I472
I52
tp618
a(I941
I54
tp619
a(I1824
I54
tp620
a(I815
I54
tp621
a(I882
I54
tp622
a(I1179
I52
tp623
a(I111
I52
tp624
a(I474
I54
tp625
a(I331
I54
tp626
a(I119
I52
tp627
a(I1734
I52
tp628
a(I689
I54
tp629
a(I1971
I54
tp630
a(I1759
I52
tp631
a(I942
I52
tp632
a(I333
I52
tp633
a(I1426
I52
tp634
a(I571
I54
tp635
a(I1976
I52
tp636
a(I655
I54
tp637
a(I1162
I54
tp638
a(I891
I52
tp639
a(I1091
I54
tp640
a(I2211
I54
tp641
a(I1984
I52
tp642
a(I1566
I52
tp643
a(I573
I52
tp644
a(I1978
I54
tp645
a(I483
I52
tp646
a(I1919
I54
tp647
a(I893
I54
tp648
a(I112
I54
tp649
a(I1310
I52
tp650
a(I2244
I54
tp651
a(I1215
I52
tp652
a(I554
I54
tp653
a(I114
I52
tp654
a(I78
I54
tp655
a(I2000
I54
tp656
a(I1793
I54
tp657
a(I1460
I54
tp658
a(I1113
I52
tp659
a(I725
I54
tp660
a(I8
I52
tp661
a(I439
I52
tp662
a(I1030
I52
tp663
a(I2015
I54
tp664
a(I241
I54
tp665
a(I526
I52
tp666
a(I1881
I54
tp667
a(I123
I54
tp668
a(I1528
I52
tp669
a(I207
I54
tp670
a(I18
I54
tp671
a(I916
I54
tp672
a(I777
I52
tp673
a(I808
I54
tp674
a(I1879
I54
tp675
a(I212
I52
tp676
a(I924
I54
tp677
a(I104
I52
tp678
a(I1943
I52
tp679
a(I742
I52
tp680
a(I1282
I54
tp681
a(I810
I52
tp682
a(I1829
I54
tp683
a(I334
I52
tp684
a(I106
I54
tp685
a(I2007
I54
tp686
a(I1025
I52
tp687
a(I2006
I52
tp688
a(I1841
I54
tp689
a(I27
I52
tp690
a(I873
I52
tp691
a(I2031
I52
tp692
a(I1225
I54
tp693
a(I674
I52
tp694
a(I894
I54
tp695
a(I2039
I52
tp696
a(I2143
I52
tp697
a(I1291
I52
tp698
a(I1884
I52
tp699
a(I819
I54
tp700
a(I1669
I54
tp701
a(I935
I54
tp702
a(I1310
I54
tp703
a(I115
I52
tp704
a(I1209
I54
tp705
a(I824
I52
tp706
a(I1341
I54
tp707
a(I1787
I52
tp708
a(I762
I52
tp709
a(I1622
I54
tp710
a(I832
I52
tp711
a(I117
I54
tp712
a(I1918
I52
tp713
a(I514
I52
tp714
a(I337
I52
tp715
a(I734
I54
tp716
a(I1023
I54
tp717
a(I1092
I54
tp718
a(I358
I54
tp719
a(I426
I54
tp720
a(I889
I54
tp721
a(I716
I54
tp722
a(I577
I52
tp723
a(I1998
I54
tp724
a(I126
I52
tp725
a(I1271
I54
tp726
a(I489
I54
tp727
a(I1988
I54
tp728
a(I523
I54
tp729
a(I1928
I52
tp730
a(I1629
I54
tp731
a(I902
I52
tp732
a(I863
I54
tp733
a(I371
I54
tp734
a(I2200
I54
tp735
a(I1221
I54
tp736
a(I868
I52
tp737
a(I1607
I54
tp738
a(I33
I52
tp739
a(I876
I52
tp740
a(I1083
I52
tp741
a(I58
I52
tp742
a(I1462
I54
tp743
a(I1465
I54
tp744
a(I2045
I52
tp745
a(I1654
I54
tp746
a(I1993
I54
tp747
a(I30
I54
tp748
a(I1085
I54
tp749
a(I2178
I54
tp750
a(I2001
I54
tp751
a(I121
I52
tp752
a(I920
I54
tp753
a(I708
I52
tp754
a(I2233
I54
tp755
a(I897
I52
tp756
a(I1568
I54
tp757
a(I1877
I52
tp758
a(I332
I52
tp759
a(I1890
I54
tp760
a(I922
I52
tp761
a(I918
I54
tp762
a(I879
I52
tp763
a(I1885
I52
tp764
a(I1972
I52
tp765
a(I515
I52
tp766
a(I1109
I52
tp767
a(I2050
I52
tp768
a(I887
I52
tp769
a(I454
I52
tp770
a(I572
I52
tp771
a(I139
I52
tp772
a(I100
I54
tp773
a(I985
I52
tp774
a(I1488
I52
tp775
a(I479
I52
tp776
a(I25
I54
tp777
a(I2007
I52
tp778
a(I635
I52
tp779
a(I931
I54
tp780
a(I719
I52
tp781
a(I23
I54
tp782
a(I227
I52
tp783
a(I1372
I54
tp784
a(I1630
I54
tp785
a(I880
I54
tp786
a(I933
I52
tp787
a(I1297
I54
tp788
a(I1900
I54
tp789
a(I229
I54
tp790
a(I472
I54
tp791
a(I941
I52
tp792
a(I1322
I54
tp793
a(I882
I52
tp794
a(I1179
I54
tp795
a(I1991
I52
tp796
a(I111
I54
tp797
a(I946
I54
tp798
a(I474
I52
tp799
a(I470
I54
tp800
a(I119
I54
tp801
a(I1562
I54
tp802
a(I689
I52
tp803
a(I1086
I54
tp804
a(I1759
I54
tp805
a(I1739
I52
tp806
a(I2195
I52
tp807
a(I1112
I54
tp808
a(I1823
I52
tp809
a(I1976
I54
tp810
a(I891
I54
tp811
a(I1181
I54
tp812
a(I955
I52
tp813
a(I1978
I52
tp814
a(I483
I54
tp815
a(I1024
I52
tp816
a(I2063
I52
tp817
a(I893
I52
tp818
a(I1274
I54
tp819
a(I872
I52
tp820
a(I1687
I52
tp821
a(I1215
I54
tp822
a(I1026
I54
tp823
a(I849
I54
tp824
a(I554
I52
tp825
a(I496
I52
tp826
a(I78
I52
tp827
a(I874
I54
tp828
a(I787
I52
tp829
a(I1623
I54
tp830
a(I1793
I52
tp831
a(I142
I54
tp832
a(I1607
I52
tp833
a(I725
I52
tp834
a(I1089
I54
tp835
a(I8
I54
tp836
a(I439
I54
tp837
a(I820
I52
tp838
a(I241
I52
tp839
a(I797
I54
tp840
a(I444
I52
tp841
a(I1035
I52
tp842
a(I1914
I52
tp843
a(I1881
I52
tp844
a(I336
I52
tp845
a(I1375
I52
tp846
a(I1528
I54
tp847
a(I330
I54
tp848
a(I883
I52
tp849
a(I18
I52
tp850
a(I2159
I52
tp851
a(I820
I54
tp852
a(I999
I52
tp853
a(I338
I54
tp854
a(I545
I54
tp855
a(I212
I54
tp856
a(I576
I52
tp857
a(I885
I54
tp858
a(I104
I54
tp859
a(I1943
I54
tp860
a(I1225
I52
tp861
a(I137
I54
tp862
a(I1282
I52
tp863
a(I1502
I54
tp864
a(I1109
I54
tp865
a(I1219
I54
tp866
a(I2050
I54
tp867
a(I145
I54
tp868
a(I106
I52
tp869
a(I1579
I52
tp870
a(I339
I52
tp871
a(I1821
I52
tp872
a(I27
I54
tp873
a(I2031
I54
tp874
a(I32
I52
tp875
a(I894
I52
tp876
a(I2039
I54
tp877
a(I1584
I54
tp878
a(I1987
I52
tp879
a(I1973
I52
tp880
a(I1291
I54
tp881
a(I1079
I52
tp882
a(I1669
I52
tp883
a(I34
I54
tp884
a(I1316
I54
tp885
a(I115
I54
tp886
a(I1680
I52
tp887
a(I824
I54
tp888
a(I1113
I54
tp889
a(I1787
I54
tp890
a(I120
I52
tp891
a(I832
I54
tp892
a(I117
I52
tp893
a(I97
I54
tp894
a(I1899
I52
tp895
a(I896
I52
tp896
a(I734
I52
tp897
a(I122
I54
tp898
a(I358
I52
tp899
a(I898
I54
tp900
a(I426
I52
tp901
a(I889
I52
tp902
a(I422
I54
tp903
a(I1998
I52
tp904
a(I1112
I52
tp905
a(I489
I52
tp906
a(I1928
I54
tp907
a(I1629
I52
tp908
a(I1126
I54
tp909
a(I1221
I52
tp910
a(I1634
I54
tp911
a(I907
I52
tp912
a(I868
I54
tp913
a(I2113
I54
tp914
a(I932
I52
tp915
a(I793
I54
tp916
a(I876
I54
tp917
a(I1083
I54
tp918
a(I1462
I52
tp919
a(I940
I52
tp920
a(I417
I54
tp921
a(I1993
I52
tp922
a(I2013
I54
tp923
a(I30
I52
tp924
a(I1085
I52
tp925
a(I2178
I52
tp926
a(I2001
I52
tp927
a(I1003
I52
tp928
a(I708
I54
tp929
a(I2233
I52
tp930
a(I1458
I52
tp931
a(I332
I54
tp932
a(I280
I52
tp933
a(I918
I52
tp934
a(I879
I54
tp935
a(I1972
I54
tp936
a(I515
I54
tp937
a(I214
I54
tp938
a(I887
I54
tp939
a(I1268
I52
tp940
a(I572
I54
tp941
a(I139
I54
tp942
a(I1488
I54
tp943
a(I479
I54
tp944
a(I892
I52
tp945
a(I459
I52
tp946
a(I1995
I54
tp947
a(I25
I52
tp948
a(I635
I54
tp949
a(I1821
I54
tp950
a(I719
I54
tp951
a(I1161
I52
tp952
a(I227
I54
tp953
a(I1630
I52
tp954
a(I724
I52
tp955
a(I1297
I52
tp956
a(I1973
I54
tp957
a(I229
I52
tp958
a(I1322
I52
tp959
a(I1991
I54
tp960
a(I946
I52
tp961
a(I910
I54
tp962
a(I301
I54
tp963
a(I470
I52
tp964
a(I539
I52
tp965
a(I1562
I52
tp966
a(I1504
I52
tp967
a(I1086
I52
tp968
a(I1882
I54
tp969
a(I1739
I54
tp970
a(I72
I52
tp971
a(I1823
I54
tp972
a(I2236
I52
tp973
a(I49
I54
tp974
a(I2193
I52
tp975
a(I955
I54
tp976
a(I743
I52
tp977
a(I1024
I54
tp978
a(I2063
I54
tp979
a(I1836
I52
tp980
a(I2167
I54
tp981
a(I1274
I52
tp982
a(I1126
I52
tp983
a(I335
I52
tp984
a(I872
I54
tp985
a(I1687
I54
tp986
a(I1891
I52
tp987
a(I1026
I52
tp988
a(I849
I52
tp989
a(I253
I54
tp990
a(I496
I54
tp991
a(I28
I52
tp992
a(I913
I54
tp993
a(I874
I52
tp994
a(I787
I54
tp995
a(I870
I54
tp996
a(I142
I52
tp997
a(I1089
I52
tp998
a(I583
I52
tp999
a(I1037
I54
tp1000
a(I91
I52
tp1001
a(I339
I54
tp1002
a(I800
I52
tp1003
a(I797
I52
tp1004
a(I116
I52
tp1005
a(I1001
I54
tp1006
a(I444
I54
tp1007
a(I1035
I54
tp1008
a(I336
I54
tp1009
a(I1375
I54
tp1010
a(I1649
I54
tp1011
a(I330
I52
tp1012
a(I883
I54
tp1013
a(I999
I54
tp1014
a(I947
I52
tp1015
a(I338
I52
tp1016
a(I545
I52
tp1017
a(I888
I52
tp1018
a(I576
I54
tp1019
a(I885
I52
tp1020
a(I865
I54
tp1021
a(I137
I52
tp1022
a(I1579
I54
tp1023
a(I949
I54
tp1024
a(I1502
I52
tp1025
a(I457
I54
tp1026
a(I145
I52
tp1027
a(I542
I54
tp1028
a(I1615
I52
tp1029
a(I1195
I52
tp1030
a(I633
I52
tp1031
a(I1182
I52
tp1032
a(I1995
I52
tp1033
a(I403
I52
tp1034
asS'runtime'
p1035
F0.3068699836730957
sS'name'
p1036
S'["fd_checker", [["description", "rob_comments"]]]'
p1037
s.