(dp0
S'output'
p1
(lp2
(I1283
I24
tp3
a(I1285
I10
tp4
a(I1283
I10
tp5
a(I1285
I24
tp6
a(I1282
I10
tp7
a(I1282
I24
tp8
asS'runtime'
p9
F0.3047029972076416
sS'name'
p10
S'["fd_checker", [["app_nm", "impact"]]]'
p11
s.