(dp0
S'output'
p1
(lp2
(I1795
I15
tp3
a(I1598
I15
tp4
a(I1963
I43
tp5
a(I988
I43
tp6
a(I934
I43
tp7
a(I2024
I43
tp8
a(I1346
I43
tp9
a(I995
I43
tp10
a(I317
I43
tp11
a(I438
I43
tp12
a(I1353
I43
tp13
a(I378
I43
tp14
a(I1703
I43
tp15
a(I290
I15
tp16
a(I93
I15
tp17
a(I367
I15
tp18
a(I922
I15
tp19
a(I725
I15
tp20
a(I2107
I43
tp21
a(I1280
I15
tp22
a(I1083
I15
tp23
a(I1910
I15
tp24
a(I1428
I15
tp25
a(I1144
I15
tp26
a(I1455
I15
tp27
a(I1715
I15
tp28
a(I480
I43
tp29
a(I1764
I43
tp30
a(I1802
I15
tp31
a(I854
I43
tp32
a(I1479
I43
tp33
a(I1688
I43
tp34
a(I434
I43
tp35
a(I659
I43
tp36
a(I1284
I43
tp37
a(I1837
I43
tp38
a(I511
I43
tp39
a(I1273
I43
tp40
a(I1898
I43
tp41
a(I423
I15
tp42
a(I2195
I15
tp43
a(I869
I43
tp44
a(I210
I15
tp45
a(I484
I15
tp46
a(I409
I15
tp47
a(I31
I15
tp48
a(I842
I15
tp49
a(I1413
I15
tp50
a(I1200
I15
tp51
a(I2027
I15
tp52
a(I1660
I15
tp53
a(I1574
I15
tp54
a(I2097
I15
tp55
a(I1832
I15
tp56
a(I1635
I15
tp57
a(I2000
I43
tp58
a(I2069
I15
tp59
a(I971
I43
tp60
a(I1167
I43
tp61
a(I1399
I43
tp62
a(I776
I43
tp63
a(I1329
I43
tp64
a(I354
I43
tp65
a(I1204
I43
tp66
a(I1757
I43
tp67
a(I1406
I43
tp68
a(I175
I43
tp69
a(I1562
I43
tp70
a(I343
I15
tp71
a(I533
I43
tp72
a(I898
I15
tp73
a(I148
I15
tp74
a(I701
I15
tp75
a(I975
I15
tp76
a(I762
I15
tp77
a(I398
I43
tp78
a(I1333
I15
tp79
a(I1120
I15
tp80
a(I1919
I43
tp81
a(I1691
I15
tp82
a(I1781
I43
tp83
a(I1752
I15
tp84
a(I2111
I15
tp85
a(I2186
I15
tp86
a(I1664
I43
tp87
a(I1687
I15
tp88
a(I891
I43
tp89
a(I1516
I43
tp90
a(I615
I43
tp91
a(I487
I43
tp92
a(I696
I43
tp93
a(I1249
I43
tp94
a(I1874
I43
tp95
a(I292
I43
tp96
a(I845
I43
tp97
a(I1070
I43
tp98
a(I1695
I43
tp99
a(I460
I15
tp100
a(I650
I43
tp101
a(I7
I15
tp102
a(I265
I15
tp103
a(I818
I15
tp104
a(I68
I15
tp105
a(I621
I15
tp106
a(I895
I15
tp107
a(I1450
I15
tp108
a(I41
I43
tp109
a(I1444
I43
tp110
a(I1808
I15
tp111
a(I2133
I43
tp112
a(I1611
I15
tp113
a(I1997
I43
tp114
a(I1892
I15
tp115
a(I2106
I15
tp116
a(I2222
I43
tp117
a(I1008
I43
tp118
a(I2189
I15
tp119
a(I1180
I43
tp120
a(I1382
I43
tp121
a(I151
I43
tp122
a(I1538
I43
tp123
a(I588
I15
tp124
a(I212
I43
tp125
a(I765
I43
tp126
a(I1615
I43
tp127
a(I380
I15
tp128
a(I1545
I43
tp129
a(I398
I15
tp130
a(I951
I15
tp131
a(I185
I15
tp132
a(I738
I15
tp133
a(I1802
I43
tp134
a(I1012
I15
tp135
a(I1309
I15
tp136
a(I559
I15
tp137
a(I2189
I43
tp138
a(I1370
I15
tp139
a(I985
I43
tp140
a(I2250
I43
tp141
a(I1728
I15
tp142
a(I1812
I43
tp143
a(I2239
I15
tp144
a(I1202
I15
tp145
a(I1970
I15
tp146
a(I672
I43
tp147
a(I1108
I43
tp148
a(I268
I43
tp149
a(I1046
I43
tp150
a(I1522
I15
tp151
a(I882
I43
tp152
a(I1107
I43
tp153
a(I1732
I43
tp154
a(I497
I15
tp155
a(I703
I43
tp156
a(I44
I15
tp157
a(I1773
I15
tp158
a(I318
I15
tp159
a(I871
I15
tp160
a(I105
I15
tp161
a(I1426
I15
tp162
a(I676
I15
tp163
a(I17
I43
tp164
a(I1503
I15
tp165
a(I2047
I15
tp166
a(I94
I43
tp167
a(I1861
I15
tp168
a(I2170
I43
tp169
a(I1648
I15
tp170
a(I501
I43
tp171
a(I2082
I15
tp172
a(I2159
I15
tp173
a(I2096
I43
tp174
a(I1163
I43
tp175
a(I188
I43
tp176
a(I1591
I43
tp177
a(I1224
I43
tp178
a(I1777
I43
tp179
a(I546
I43
tp180
a(I1652
I43
tp181
a(I161
I15
tp182
a(I1598
I43
tp183
a(I435
I15
tp184
a(I988
I15
tp185
a(I238
I15
tp186
a(I535
I15
tp187
a(I793
I15
tp188
a(I1346
I15
tp189
a(I408
I43
tp190
a(I961
I43
tp191
a(I2226
I43
tp192
a(I1167
I15
tp193
a(I1883
I43
tp194
a(I782
I43
tp195
a(I1101
I15
tp196
a(I2215
I15
tp197
a(I2073
I15
tp198
a(I1083
I43
tp199
a(I1708
I43
tp200
a(I679
I43
tp201
a(I1144
I43
tp202
a(I294
I15
tp203
a(I740
I43
tp204
a(I81
I15
tp205
a(I355
I15
tp206
a(I652
I15
tp207
a(I926
I15
tp208
a(I1404
I43
tp209
a(I713
I15
tp210
a(I70
I43
tp211
a(I1284
I15
tp212
a(I1837
I15
tp213
a(I2146
I43
tp214
a(I899
I43
tp215
a(I477
I43
tp216
a(I1898
I15
tp217
a(I1513
I43
tp218
a(I282
I43
tp219
a(I2135
I15
tp220
a(I2004
I43
tp221
a(I1870
I15
tp222
a(I2144
I43
tp223
a(I2184
I43
tp224
a(I1365
I43
tp225
a(I1200
I43
tp226
a(I1628
I43
tp227
a(I1574
I43
tp228
a(I599
I43
tp229
a(I214
I15
tp230
a(I1635
I43
tp231
a(I472
I15
tp232
a(I769
I15
tp233
a(I19
I15
tp234
a(I572
I15
tp235
a(I846
I15
tp236
a(I1399
I15
tp237
a(I633
I15
tp238
a(I1014
I43
tp239
a(I1148
I43
tp240
a(I1204
I15
tp241
a(I1757
I15
tp242
a(I819
I43
tp243
a(I2084
I43
tp244
a(I1562
I15
tp245
a(I415
I43
tp246
a(I2252
I15
tp247
a(I1177
I43
tp248
a(I1250
I15
tp249
a(I773
I43
tp250
a(I2059
I43
tp251
a(I1586
I43
tp252
a(I1532
I43
tp253
a(I1120
I43
tp254
a(I1061
I15
tp255
a(I716
I43
tp256
a(I1303
I43
tp257
a(I331
I15
tp258
a(I902
I15
tp259
a(I136
I15
tp260
a(I689
I15
tp261
a(I963
I15
tp262
a(I1516
I15
tp263
a(I781
I15
tp264
a(I766
I15
tp265
a(I107
I43
tp266
a(I1321
I15
tp267
a(I1874
I15
tp268
a(I936
I43
tp269
a(I1489
I43
tp270
a(I258
I43
tp271
a(I1695
I15
tp272
a(I1310
I43
tp273
a(I335
I43
tp274
a(I2172
I15
tp275
a(I265
I43
tp276
a(I2190
I15
tp277
a(I1364
I43
tp278
a(I693
I43
tp279
a(I1917
I43
tp280
a(I1556
I15
tp281
a(I1611
I43
tp282
a(I448
I15
tp283
a(I251
I15
tp284
a(I822
I15
tp285
a(I1532
I15
tp286
a(I56
I15
tp287
a(I609
I15
tp288
a(I883
I15
tp289
a(I1180
I15
tp290
a(I1454
I15
tp291
a(I795
I43
tp292
a(I2060
I43
tp293
a(I1241
I15
tp294
a(I1538
I15
tp295
a(I391
I43
tp296
a(I856
I43
tp297
a(I1153
I43
tp298
a(I1615
I15
tp299
a(I452
I43
tp300
a(I1005
I43
tp301
a(I1230
I43
tp302
a(I2170
I15
tp303
a(I185
I43
tp304
a(I810
I43
tp305
a(I1442
I43
tp306
a(I1890
I15
tp307
a(I368
I15
tp308
a(I939
I15
tp309
a(I742
I15
tp310
a(I1000
I15
tp311
a(I1297
I15
tp312
a(I547
I15
tp313
a(I912
I43
tp314
a(I1374
I15
tp315
a(I1671
I15
tp316
a(I1519
I43
tp317
a(I1286
I43
tp318
a(I311
I43
tp319
a(I1732
I15
tp320
a(I497
I43
tp321
a(I1347
I43
tp322
a(I372
I43
tp323
a(I669
I43
tp324
a(I318
I43
tp325
a(I2227
I15
tp326
a(I1705
I43
tp327
a(I730
I43
tp328
a(I2251
I43
tp329
a(I2200
I43
tp330
a(I1431
I15
tp331
a(I1648
I43
tp332
a(I501
I15
tp333
a(I1740
I43
tp334
a(I32
I15
tp335
a(I859
I15
tp336
a(I1782
I43
tp337
a(I1877
I43
tp338
a(I1430
I15
tp339
a(I664
I15
tp340
a(I1217
I15
tp341
a(I1491
I15
tp342
a(I832
I43
tp343
a(I1038
I15
tp344
a(I1591
I15
tp345
a(I428
I43
tp346
a(I1849
I15
tp347
a(I1206
I43
tp348
a(I1652
I15
tp349
a(I161
I43
tp350
a(I786
I43
tp351
a(I1267
I43
tp352
a(I1685
I15
tp353
a(I1943
I15
tp354
a(I238
I43
tp355
a(I863
I43
tp356
a(I1625
I43
tp357
a(I1221
I43
tp358
a(I1925
I15
tp359
a(I165
I15
tp360
a(I2074
I43
tp361
a(I2107
I15
tp362
a(I976
I15
tp363
a(I523
I15
tp364
a(I1350
I15
tp365
a(I584
I15
tp366
a(I1137
I15
tp367
a(I1155
I15
tp368
a(I1708
I15
tp369
a(I1982
I15
tp370
a(I1323
I43
tp371
a(I348
I43
tp372
a(I1769
I15
tp373
a(I294
I43
tp374
a(I2203
I15
tp375
a(I1384
I43
tp376
a(I1681
I43
tp377
a(I706
I43
tp378
a(I355
I43
tp379
a(I2179
I43
tp380
a(I1758
I43
tp381
a(I527
I43
tp382
a(I2176
I43
tp383
a(I713
I43
tp384
a(I1141
I43
tp385
a(I477
I15
tp386
a(I2104
I43
tp387
a(I2087
I15
tp388
a(I282
I15
tp389
a(I2207
I43
tp390
a(I85
I15
tp391
a(I2208
I15
tp392
a(I640
I15
tp393
a(I1467
I15
tp394
a(I1270
I15
tp395
a(I1528
I15
tp396
a(I435
I43
tp397
a(I1075
I15
tp398
a(I1628
I15
tp399
a(I1902
I15
tp400
a(I1243
I43
tp401
a(I214
I43
tp402
a(I839
I43
tp403
a(I1048
I43
tp404
a(I1601
I43
tp405
a(I19
I43
tp406
a(I644
I43
tp407
a(I1197
I43
tp408
a(I633
I43
tp409
a(I1258
I43
tp410
a(I1420
I43
tp411
a(I229
I43
tp412
a(I141
I15
tp413
a(I2050
I43
tp414
a(I415
I15
tp415
a(I202
I15
tp416
a(I2127
I43
tp417
a(I773
I15
tp418
a(I560
I15
tp419
a(I1387
I15
tp420
a(I1958
I15
tp421
a(I1192
I15
tp422
a(I1745
I15
tp423
a(I2019
I15
tp424
a(I1360
I43
tp425
a(I1566
I15
tp426
a(I331
I43
tp427
a(I2240
I15
tp428
a(I1734
I43
tp429
a(I759
I43
tp430
a(I136
I43
tp431
a(I689
I43
tp432
a(I1082
I15
tp433
a(I1539
I43
tp434
a(I564
I43
tp435
a(I1117
I43
tp436
a(I766
I43
tp437
a(I1946
I43
tp438
a(I917
I43
tp439
a(I258
I15
tp440
a(I2183
I43
tp441
a(I61
I15
tp442
a(I335
I15
tp443
a(I2244
I43
tp444
a(I122
I15
tp445
a(I693
I15
tp446
a(I1504
I15
tp447
a(I1855
I43
tp448
a(I1051
I15
tp449
a(I1717
I43
tp450
a(I1878
I15
tp451
a(I1112
I15
tp452
a(I1683
I15
tp453
a(I1024
I43
tp454
a(I251
I43
tp455
a(I876
I43
tp456
a(I2184
I15
tp457
a(I1654
I43
tp458
a(I56
I43
tp459
a(I609
I43
tp460
a(I1234
I43
tp461
a(I205
I43
tp462
a(I1454
I43
tp463
a(I1055
I43
tp464
a(I10
I43
tp465
a(I391
I15
tp466
a(I178
I15
tp467
a(I2103
I43
tp468
a(I452
I15
tp469
a(I1005
I15
tp470
a(I255
I15
tp471
a(I2164
I43
tp472
a(I810
I15
tp473
a(I425
I43
tp474
a(I424
I15
tp475
a(I1168
I15
tp476
a(I1995
I15
tp477
a(I1933
I43
tp478
a(I1542
I15
tp479
a(I1828
I15
tp480
a(I1800
I15
tp481
a(I1603
I15
tp482
a(I368
I43
tp483
a(I1771
I43
tp484
a(I540
I43
tp485
a(I742
I43
tp486
a(I1576
I43
tp487
a(I1922
I43
tp488
a(I547
I43
tp489
a(I125
I43
tp490
a(I1597
I43
tp491
a(I1999
I43
tp492
a(I1929
I43
tp493
a(I954
I43
tp494
a(I311
I15
tp495
a(I2220
I43
tp496
a(I98
I15
tp497
a(I1994
I43
tp498
a(I372
I15
tp499
a(I669
I15
tp500
a(I943
I15
tp501
a(I2123
I15
tp502
a(I730
I15
tp503
a(I345
I43
tp504
a(I1660
I43
tp505
a(I1088
I15
tp506
a(I1915
I15
tp507
a(I1720
I15
tp508
a(I1138
I15
tp509
a(I32
I43
tp510
a(I1430
I43
tp511
a(I1031
I43
tp512
a(I242
I43
tp513
a(I1491
I43
tp514
a(I1092
I43
tp515
a(I1645
I43
tp516
a(I63
I43
tp517
a(I428
I15
tp518
a(I1849
I43
tp519
a(I231
I15
tp520
a(I2140
I43
tp521
a(I489
I15
tp522
a(I786
I15
tp523
a(I36
I15
tp524
a(I401
I43
tp525
a(I863
I15
tp526
a(I1983
I15
tp527
a(I478
I43
tp528
a(I1221
I15
tp529
a(I2032
I15
tp530
a(I1579
I15
tp531
a(I1186
I15
tp532
a(I1640
I15
tp533
a(I2074
I15
tp534
a(I1658
I43
tp535
a(I1552
I43
tp536
a(I523
I43
tp537
a(I1907
I15
tp538
a(I1975
I43
tp539
a(I584
I43
tp540
a(I1125
I43
tp541
a(I930
I43
tp542
a(I2036
I43
tp543
a(I2259
I43
tp544
a(I1982
I43
tp545
a(I1007
I43
tp546
a(I348
I15
tp547
a(I919
I15
tp548
a(I1812
I15
tp549
a(I153
I15
tp550
a(I706
I15
tp551
a(I980
I15
tp552
a(I321
I43
tp553
a(I1941
I15
tp554
a(I527
I15
tp555
a(I142
I43
tp556
a(I1037
I15
tp557
a(I1696
I15
tp558
a(I2207
I15
tp559
a(I1467
I43
tp560
a(I1068
I43
tp561
a(I39
I43
tp562
a(I1528
I43
tp563
a(I1825
I43
tp564
a(I100
I43
tp565
a(I465
I15
tp566
a(I1902
I43
tp567
a(I1098
I15
tp568
a(I12
I15
tp569
a(I286
I15
tp570
a(I839
I15
tp571
a(I73
I15
tp572
a(I626
I15
tp573
a(I644
I15
tp574
a(I1197
I15
tp575
a(I259
I43
tp576
a(I1258
I15
tp577
a(I873
I43
tp578
a(I2023
I15
tp579
a(I1616
I15
tp580
a(I2050
I15
tp581
a(I2127
I15
tp582
a(I560
I43
tp583
a(I2012
I43
tp584
a(I1958
I43
tp585
a(I983
I43
tp586
a(I2019
I43
tp587
a(I788
I43
tp588
a(I129
I15
tp589
a(I403
I15
tp590
a(I956
I15
tp591
a(I206
I15
tp592
a(I759
I15
tp593
a(I1017
I15
tp594
a(I374
I43
tp595
a(I564
I15
tp596
a(I1117
I15
tp597
a(I179
I43
tp598
a(I1946
I15
tp599
a(I537
I43
tp600
a(I2183
I15
tp601
a(I133
I43
tp602
a(I2244
I15
tp603
a(I1504
I43
tp604
a(I1253
I15
tp605
a(I76
I43
tp606
a(I1495
I43
tp607
a(I1878
I43
tp608
a(I262
I15
tp609
a(I1683
I43
tp610
a(I49
I15
tp611
a(I323
I15
tp612
a(I876
I15
tp613
a(I126
I15
tp614
a(I491
I43
tp615
a(I681
I15
tp616
a(I1234
I15
tp617
a(I296
I43
tp618
a(I849
I43
tp619
a(I1055
I15
tp620
a(I670
I43
tp621
a(I1300
I43
tp622
a(I53
I43
tp623
a(I2154
I43
tp624
a(I2164
I15
tp625
a(I1853
I43
tp626
a(I1748
I15
tp627
a(I1890
I43
tp628
a(I2137
I43
tp629
a(I1995
I43
tp630
a(I1020
I43
tp631
a(I2187
I43
tp632
a(I2182
I15
tp633
a(I1800
I43
tp634
a(I182
I15
tp635
a(I1468
I15
tp636
a(I440
I15
tp637
a(I993
I15
tp638
a(I243
I15
tp639
a(I540
I15
tp640
a(I814
I15
tp641
a(I155
I43
tp642
a(I601
I15
tp643
a(I1922
I15
tp644
a(I1914
I43
tp645
a(I216
I43
tp646
a(I513
I43
tp647
a(I1999
I15
tp648
a(I365
I43
tp649
a(I590
I43
tp650
a(I2220
I15
tp651
a(I170
I43
tp652
a(I610
I43
tp653
a(I2193
I43
tp654
a(I1826
I15
tp655
a(I1915
I43
tp656
a(I299
I15
tp657
a(I1720
I43
tp658
a(I102
I15
tp659
a(I360
I15
tp660
a(I657
I15
tp661
a(I931
I15
tp662
a(I272
I43
tp663
a(I734
I15
tp664
a(I1031
I15
tp665
a(I1289
I15
tp666
a(I646
I43
tp667
a(I1092
I15
tp668
a(I1645
I15
tp669
a(I707
I43
tp670
a(I29
I43
tp671
a(I2140
I15
tp672
a(I1065
I43
tp673
a(I90
I43
tp674
a(I1575
I15
tp675
a(I2113
I43
tp676
a(I599
I15
tp677
a(I2032
I43
tp678
a(I1895
I15
tp679
a(I1676
I43
tp680
a(I416
I15
tp681
a(I219
I15
tp682
a(I1813
I43
tp683
a(I790
I15
tp684
a(I1936
I43
tp685
a(I24
I15
tp686
a(I577
I15
tp687
a(I851
I15
tp688
a(I192
I43
tp689
a(I1422
I15
tp690
a(I1975
I15
tp691
a(I1209
I15
tp692
a(I566
I43
tp693
a(I2036
I15
tp694
a(I146
I43
tp695
a(I627
I43
tp696
a(I2257
I15
tp697
a(I223
I43
tp698
a(I1981
I15
tp699
a(I2078
I15
tp700
a(I581
I43
tp701
a(I2246
I43
tp702
a(I2051
I43
tp703
a(I1696
I43
tp704
a(I336
I15
tp705
a(I570
I43
tp706
a(I710
I15
tp707
a(I968
I15
tp708
a(I1521
I15
tp709
a(I515
I15
tp710
a(I1068
I15
tp711
a(I1521
I43
tp712
a(I1342
I15
tp713
a(I683
I43
tp714
a(I1129
I15
tp715
a(I744
I43
tp716
a(I1041
I43
tp717
a(I66
I43
tp718
a(I1118
I43
tp719
a(I911
I43
tp720
a(I73
I43
tp721
a(I1525
I43
tp722
a(I2166
I43
tp723
a(I1726
I15
tp724
a(I469
I15
tp725
a(I0
I15
tp726
a(I827
I15
tp727
a(I630
I15
tp728
a(I2016
I43
tp729
a(I888
I15
tp730
a(I1185
I15
tp731
a(I1459
I15
tp732
a(I2012
I15
tp733
a(I1262
I15
tp734
a(I603
I43
tp735
a(I1817
I15
tp736
a(I199
I43
tp737
a(I1432
I43
tp738
a(I1985
I43
tp739
a(I2054
I15
tp740
a(I403
I43
tp741
a(I4
I43
tp742
a(I557
I43
tp743
a(I1806
I43
tp744
a(I2115
I15
tp745
a(I1017
I43
tp746
a(I618
I43
tp747
a(I400
I15
tp748
a(I2145
I15
tp749
a(I2088
I43
tp750
a(I1804
I15
tp751
a(I2209
I15
tp752
a(I133
I15
tp753
a(I944
I15
tp754
a(I747
I15
tp755
a(I1711
I15
tp756
a(I1318
I15
tp757
a(I552
I15
tp758
a(I1105
I15
tp759
a(I1379
I15
tp760
a(I720
I43
tp761
a(I1950
I15
tp762
a(I1737
I15
tp763
a(I1094
I43
tp764
a(I119
I43
tp765
a(I49
I43
tp766
a(I1923
I43
tp767
a(I948
I43
tp768
a(I1501
I43
tp769
a(I126
I43
tp770
a(I1306
I43
tp771
a(I277
I43
tp772
a(I445
I15
tp773
a(I2157
I43
tp774
a(I506
I15
tp775
a(I53
I15
tp776
a(I864
I15
tp777
a(I2047
I43
tp778
a(I1435
I15
tp779
a(I1238
I15
tp780
a(I2034
I43
tp781
a(I1496
I15
tp782
a(I1793
I15
tp783
a(I1043
I15
tp784
a(I1408
I43
tp785
a(I1525
I15
tp786
a(I1639
I43
tp787
a(I236
I43
tp788
a(I1657
I15
tp789
a(I2038
I43
tp790
a(I2091
I15
tp791
a(I440
I43
tp792
a(I993
I43
tp793
a(I594
I43
tp794
a(I1843
I43
tp795
a(I2152
I15
tp796
a(I1959
I15
tp797
a(I814
I43
tp798
a(I1439
I43
tp799
a(I2064
I43
tp800
a(I394
I43
tp801
a(I1797
I43
tp802
a(I1596
I15
tp803
a(I365
I15
tp804
a(I170
I15
tp805
a(I997
I15
tp806
a(I528
I15
tp807
a(I1355
I15
tp808
a(I1101
I43
tp809
a(I1926
I15
tp810
a(I2020
I15
tp811
a(I1160
I15
tp812
a(I1713
I15
tp813
a(I1987
I15
tp814
a(I1361
I43
tp815
a(I1790
I15
tp816
a(I1131
I43
tp817
a(I924
I43
tp818
a(I102
I43
tp819
a(I1960
I43
tp820
a(I1282
I43
tp821
a(I931
I43
tp822
a(I509
I43
tp823
a(I1359
I43
tp824
a(I1289
I43
tp825
a(I314
I43
tp826
a(I1671
I43
tp827
a(I482
I15
tp828
a(I1930
I43
tp829
a(I29
I15
tp830
a(I303
I15
tp831
a(I90
I15
tp832
a(I661
I15
tp833
a(I1596
I43
tp834
a(I1472
I15
tp835
a(I1275
I15
tp836
a(I2238
I15
tp837
a(I1846
I15
tp838
a(I1080
I15
tp839
a(I1633
I15
tp840
a(I1074
I15
tp841
a(I416
I43
tp842
a(I1819
I43
tp843
a(I2128
I15
tp844
a(I790
I43
tp845
a(I1415
I43
tp846
a(I1880
I43
tp847
a(I851
I43
tp848
a(I1476
I43
tp849
a(I2029
I43
tp850
a(I447
I43
tp851
a(I1209
I43
tp852
a(I1834
I43
tp853
a(I805
I43
tp854
a(I146
I15
tp855
a(I420
I15
tp856
a(I973
I15
tp857
a(I223
I15
tp858
a(I1151
I15
tp859
a(I778
I15
tp860
a(I581
I15
tp861
a(I1392
I15
tp862
a(I1963
I15
tp863
a(I1766
I15
tp864
a(I2024
I15
tp865
a(I1571
I15
tp866
a(I1886
I43
tp867
a(I2261
I15
tp868
a(I907
I43
tp869
a(I2067
I15
tp870
a(I1335
I43
tp871
a(I968
I43
tp872
a(I1061
I43
tp873
a(I290
I43
tp874
a(I1396
I43
tp875
a(I1693
I43
tp876
a(I1342
I43
tp877
a(I367
I43
tp878
a(I1754
I43
tp879
a(I279
I15
tp880
a(I725
I43
tp881
a(I66
I15
tp882
a(I340
I15
tp883
a(I893
I15
tp884
a(I911
I15
tp885
a(I698
I15
tp886
a(I1229
I15
tp887
a(I1056
I15
tp888
a(I1887
I43
tp889
a(I1883
I15
tp890
a(I1688
I15
tp891
a(I1856
I43
tp892
a(I827
I43
tp893
a(I1452
I43
tp894
a(I423
I43
tp895
a(I888
I43
tp896
a(I1185
I43
tp897
a(I1810
I43
tp898
a(I484
I43
tp899
a(I781
I43
tp900
a(I1262
I43
tp901
a(I1034
I15
tp902
a(I396
I15
tp903
a(I1508
I15
tp904
a(I842
I43
tp905
a(I199
I15
tp906
a(I457
I15
tp907
a(I1010
I15
tp908
a(I4
I15
tp909
a(I557
I15
tp910
a(I831
I15
tp911
a(I2001
I43
tp912
a(I618
I15
tp913
a(I1697
I43
tp914
a(I233
I43
tp915
a(I2081
I15
tp916
a(I2000
I15
tp917
a(I2069
I43
tp918
a(I1547
I15
tp919
a(I2237
I15
tp920
a(I1608
I15
tp921
a(I944
I43
tp922
a(I1372
I43
tp923
a(I1267
I15
tp924
a(I1318
I43
tp925
a(I343
I43
tp926
a(I1730
I43
tp927
a(I1379
I43
tp928
a(I148
I43
tp929
a(I701
I43
tp930
a(I1551
I43
tp931
a(I316
I15
tp932
a(I1737
I43
tp933
a(I762
I43
tp934
a(I119
I15
tp935
a(I377
I15
tp936
a(I674
I15
tp937
a(I948
I15
tp938
a(I1501
I15
tp939
a(I1972
I43
tp940
a(I751
I15
tp941
a(I1306
I15
tp942
a(I921
I43
tp943
a(I2186
I43
tp944
a(I1664
I15
tp945
a(I1711
I43
tp946
a(I2157
I15
tp947
a(I864
I43
tp948
a(I1189
I15
tp949
a(I460
I43
tp950
a(I1431
I43
tp951
a(I1238
I43
tp952
a(I1863
I43
tp953
a(I818
I43
tp954
a(I1043
I43
tp955
a(I1668
I43
tp956
a(I433
I15
tp957
a(I1775
I15
tp958
a(I895
I43
tp959
a(I236
I15
tp960
a(I1657
I43
tp961
a(I510
I15
tp962
a(I807
I15
tp963
a(I41
I15
tp964
a(I594
I15
tp965
a(I868
I15
tp966
a(I209
I43
tp967
a(I1439
I15
tp968
a(I30
I43
tp969
a(I2223
I43
tp970
a(I1797
I15
tp971
a(I2106
I43
tp972
a(I1492
I43
tp973
a(I1584
I15
tp974
a(I437
I43
tp975
a(I2045
I43
tp976
a(I1684
I15
tp977
a(I1355
I43
tp978
a(I380
I43
tp979
a(I1783
I43
tp980
a(I1160
I43
tp981
a(I1713
I43
tp982
a(I738
I43
tp983
a(I448
I43
tp984
a(I1588
I43
tp985
a(I353
I15
tp986
a(I1790
I43
tp987
a(I559
I43
tp988
a(I924
I15
tp989
a(I174
I15
tp990
a(I727
I15
tp991
a(I985
I15
tp992
a(I1282
I15
tp993
a(I1850
I43
tp994
a(I532
I15
tp995
a(I897
I43
tp996
a(I1359
I15
tp997
a(I974
I43
tp998
a(I2239
I43
tp999
a(I1717
I15
tp1000
a(I2179
I15
tp1001
a(I2212
I15
tp1002
a(I2018
I15
tp1003
a(I1275
I43
tp1004
a(I1900
I43
tp1005
a(I2087
I43
tp1006
a(I871
I43
tp1007
a(I1080
I43
tp1008
a(I1327
I43
tp1009
a(I486
I15
tp1010
a(I676
I43
tp1011
a(I17
I15
tp1012
a(I291
I15
tp1013
a(I844
I15
tp1014
a(I94
I15
tp1015
a(I1415
I15
tp1016
a(I649
I15
tp1017
a(I6
I43
tp1018
a(I1476
I15
tp1019
a(I2029
I15
tp1020
a(I2082
I43
tp1021
a(I67
I43
tp1022
a(I413
I43
tp1023
a(I1834
I15
tp1024
a(I2159
I43
tp1025
a(I1449
I43
tp1026
a(I474
I43
tp1027
a(I2071
I15
tp1028
a(I2132
I15
tp1029
a(I1392
I43
tp1030
a(I1868
I43
tp1031
a(I1564
I43
tp1032
a(I1766
I43
tp1033
a(I535
I43
tp1034
a(I2005
I43
tp1035
a(I150
I15
tp1036
a(I1571
I43
tp1037
a(I596
I43
tp1038
a(I961
I15
tp1039
a(I211
I15
tp1040
a(I764
I15
tp1041
a(I782
I15
tp1042
a(I1335
I15
tp1043
a(I569
I15
tp1044
a(I950
I43
tp1045
a(I2215
I43
tp1046
a(I1396
I15
tp1047
a(I1693
I15
tp1048
a(I596
I15
tp1049
a(I1754
I15
tp1050
a(I2188
I15
tp1051
a(I1149
I15
tp1052
a(I1559
I15
tp1053
a(I965
I43
tp1054
a(I1212
I43
tp1055
a(I2121
I15
tp1056
a(I1879
I15
tp1057
a(I1056
I43
tp1058
a(I2042
I15
tp1059
a(I652
I43
tp1060
a(I267
I15
tp1061
a(I70
I15
tp1062
a(I328
I15
tp1063
a(I881
I15
tp1064
a(I899
I15
tp1065
a(I1452
I15
tp1066
a(I1239
I15
tp1067
a(I702
I15
tp1068
a(I43
I43
tp1069
a(I1513
I15
tp1070
a(I1810
I15
tp1071
a(I2135
I43
tp1072
a(I104
I43
tp1073
a(I1425
I43
tp1074
a(I450
I43
tp1075
a(I1887
I15
tp1076
a(I1502
I43
tp1077
a(I271
I43
tp1078
a(I2108
I15
tp1079
a(I457
I43
tp1080
a(I1677
I15
tp1081
a(I885
I43
tp1082
a(I1583
I43
tp1083
a(I2232
I43
tp1084
a(I1259
I43
tp1085
a(I1997
I15
tp1086
a(I1547
I43
tp1087
a(I572
I43
tp1088
a(I187
I15
tp1089
a(I1608
I43
tp1090
a(I1014
I15
tp1091
a(I248
I15
tp1092
a(I545
I15
tp1093
a(I1879
I43
tp1094
a(I819
I15
tp1095
a(I1372
I15
tp1096
a(I622
I15
tp1097
a(I987
I43
tp1098
a(I2252
I43
tp1099
a(I1177
I15
tp1100
a(I1730
I15
tp1101
a(I792
I43
tp1102
a(I1345
I43
tp1103
a(I1551
I15
tp1104
a(I388
I43
tp1105
a(I941
I43
tp1106
a(I1166
I43
tp1107
a(I377
I43
tp1108
a(I1002
I43
tp1109
a(I1701
I43
tp1110
a(I623
I43
tp1111
a(I1109
I15
tp1112
a(I304
I15
tp1113
a(I2229
I43
tp1114
a(I107
I15
tp1115
a(I678
I15
tp1116
a(I936
I15
tp1117
a(I1489
I15
tp1118
a(I739
I15
tp1119
a(I80
I43
tp1120
a(I1310
I15
tp1121
a(I1863
I15
tp1122
a(I2172
I43
tp1123
a(I1097
I15
tp1124
a(I1478
I43
tp1125
a(I503
I43
tp1126
a(I1668
I15
tp1127
a(I433
I43
tp1128
a(I1283
I43
tp1129
a(I308
I43
tp1130
a(I861
I43
tp1131
a(I510
I43
tp1132
a(I1897
I43
tp1133
a(I666
I43
tp1134
a(I2193
I15
tp1135
a(I1584
I43
tp1136
a(I437
I15
tp1137
a(I2161
I15
tp1138
a(I224
I15
tp1139
a(I1983
I43
tp1140
a(I795
I15
tp1141
a(I598
I15
tp1142
a(I856
I15
tp1143
a(I1153
I15
tp1144
a(I1427
I15
tp1145
a(I768
I43
tp1146
a(I1230
I15
tp1147
a(I1783
I15
tp1148
a(I2041
I15
tp1149
a(I1398
I43
tp1150
a(I1588
I15
tp1151
a(I353
I43
tp1152
a(I978
I43
tp1153
a(I1203
I43
tp1154
a(I1127
I15
tp1155
a(I174
I43
tp1156
a(I799
I43
tp1157
a(I1561
I43
tp1158
a(I1316
I15
tp1159
a(I1157
I43
tp1160
a(I2217
I43
tp1161
a(I2205
I43
tp1162
a(I357
I15
tp1163
a(I912
I15
tp1164
a(I715
I15
tp1165
a(I1037
I43
tp1166
a(I1286
I15
tp1167
a(I1956
I15
tp1168
a(I520
I15
tp1169
a(I1073
I15
tp1170
a(I1623
I43
tp1171
a(I1347
I15
tp1172
a(I1900
I15
tp1173
a(I1150
I15
tp1174
a(I1515
I43
tp1175
a(I284
I43
tp1176
a(I1705
I15
tp1177
a(I486
I43
tp1178
a(I1320
I43
tp1179
a(I1873
I43
tp1180
a(I642
I43
tp1181
a(I291
I43
tp1182
a(I2200
I15
tp1183
a(I1694
I43
tp1184
a(I719
I43
tp1185
a(I649
I43
tp1186
a(I1394
I15
tp1187
a(I1077
I43
tp1188
a(I1098
I43
tp1189
a(I413
I15
tp1190
a(I1479
I15
tp1191
a(I474
I15
tp1192
a(I1850
I15
tp1193
a(I21
I15
tp1194
a(I1213
I15
tp1195
a(I1788
I43
tp1196
a(I832
I15
tp1197
a(I635
I15
tp1198
a(I1206
I15
tp1199
a(I1464
I15
tp1200
a(I2017
I15
tp1201
a(I1266
I15
tp1202
a(I1564
I15
tp1203
a(I1838
I15
tp1204
a(I1179
I43
tp1205
a(I1625
I15
tp1206
a(I150
I43
tp1207
a(I775
I43
tp1208
a(I1240
I43
tp1209
a(I1537
I43
tp1210
a(I211
I43
tp1211
a(I836
I43
tp1212
a(I1389
I43
tp1213
a(I1614
I43
tp1214
a(I569
I43
tp1215
a(I1194
I43
tp1216
a(I165
I43
tp1217
a(I333
I15
tp1218
a(I2242
I43
tp1219
a(I1087
I15
tp1220
a(I138
I15
tp1221
a(I2063
I43
tp1222
a(I965
I15
tp1223
a(I2222
I15
tp1224
a(I752
I15
tp1225
a(I1323
I15
tp1226
a(I1126
I15
tp1227
a(I1384
I15
tp1228
a(I1681
I15
tp1229
a(I1955
I15
tp1230
a(I1296
I43
tp1231
a(I1758
I15
tp1232
a(I267
I43
tp1233
a(I2176
I15
tp1234
a(I1670
I43
tp1235
a(I695
I43
tp1236
a(I328
I43
tp1237
a(I881
I43
tp1238
a(I1676
I15
tp1239
a(I756
I43
tp1240
a(I1053
I43
tp1241
a(I702
I43
tp1242
a(I1114
I43
tp1243
a(I85
I43
tp1244
a(I450
I15
tp1245
a(I253
I15
tp1246
a(I271
I15
tp1247
a(I2180
I43
tp1248
a(I58
I15
tp1249
a(I885
I15
tp1250
a(I1440
I15
tp1251
a(I1243
I15
tp1252
a(I1814
I15
tp1253
a(I1048
I15
tp1254
a(I1601
I15
tp1255
a(I1875
I15
tp1256
a(I1216
I43
tp1257
a(I187
I43
tp1258
a(I812
I43
tp1259
a(I1590
I43
tp1260
a(I248
I43
tp1261
a(I545
I43
tp1262
a(I1170
I43
tp1263
a(I1651
I43
tp1264
a(I141
I43
tp1265
a(I622
I43
tp1266
a(I1226
I15
tp1267
a(I1700
I43
tp1268
a(I202
I43
tp1269
a(I1468
I43
tp1270
a(I1605
I43
tp1271
a(I370
I15
tp1272
a(I388
I15
tp1273
a(I941
I15
tp1274
a(I2020
I43
tp1275
a(I191
I15
tp1276
a(I2100
I43
tp1277
a(I1002
I15
tp1278
a(I2031
I15
tp1279
a(I549
I15
tp1280
a(I1060
I43
tp1281
a(I1931
I15
tp1282
a(I1734
I15
tp1283
a(I1992
I15
tp1284
a(I1539
I15
tp1285
a(I304
I43
tp1286
a(I2229
I15
tp1287
a(I1707
I43
tp1288
a(I732
I43
tp1289
a(I678
I43
tp1290
a(I1826
I43
tp1291
a(I1768
I43
tp1292
a(I1090
I43
tp1293
a(I739
I43
tp1294
a(I61
I43
tp1295
a(I1935
I43
tp1296
a(I1097
I43
tp1297
a(I122
I43
tp1298
a(I503
I15
tp1299
a(I34
I15
tp1300
a(I308
I15
tp1301
a(I861
I15
tp1302
a(I111
I15
tp1303
a(I666
I15
tp1304
a(I281
I43
tp1305
a(I1024
I15
tp1306
a(I1903
I43
tp1307
a(I1851
I15
tp1308
a(I1654
I15
tp1309
a(I1912
I15
tp1310
a(I2095
I15
tp1311
a(I224
I43
tp1312
a(I1381
I15
tp1313
a(I1627
I43
tp1314
a(I411
I15
tp1315
a(I598
I43
tp1316
a(I1223
I43
tp1317
a(I178
I43
tp1318
a(I1427
I43
tp1319
a(I1028
I43
tp1320
a(I1581
I43
tp1321
a(I255
I43
tp1322
a(I2041
I43
tp1323
a(I1642
I43
tp1324
a(I167
I15
tp1325
a(I2076
I43
tp1326
a(I425
I15
tp1327
a(I978
I15
tp1328
a(I228
I15
tp1329
a(I525
I15
tp1330
a(I799
I15
tp1331
a(I414
I43
tp1332
a(I1157
I15
tp1333
a(I1762
I43
tp1334
a(I1428
I43
tp1335
a(I1968
I15
tp1336
a(I1771
I15
tp1337
a(I1981
I43
tp1338
a(I1876
I15
tp1339
a(I1576
I15
tp1340
a(I1744
I43
tp1341
a(I715
I43
tp1342
a(I1143
I43
tp1343
a(I520
I43
tp1344
a(I1073
I43
tp1345
a(I98
I43
tp1346
a(I384
I43
tp1347
a(I1786
I43
tp1348
a(I1150
I43
tp1349
a(I943
I43
tp1350
a(I284
I15
tp1351
a(I87
I15
tp1352
a(I345
I15
tp1353
a(I642
I15
tp1354
a(I2042
I43
tp1355
a(I916
I15
tp1356
a(I257
I43
tp1357
a(I719
I15
tp1358
a(I334
I43
tp1359
a(I1077
I15
tp1360
a(I1888
I15
tp1361
a(I2125
I15
tp1362
a(I1954
I15
tp1363
a(I1557
I15
tp1364
a(I635
I43
tp1365
a(I1260
I43
tp1366
a(I231
I43
tp1367
a(I1464
I43
tp1368
a(I2017
I43
tp1369
a(I1618
I43
tp1370
a(I1877
I15
tp1371
a(I36
I43
tp1372
a(I401
I15
tp1373
a(I1838
I43
tp1374
a(I204
I15
tp1375
a(I478
I15
tp1376
a(I775
I15
tp1377
a(I9
I15
tp1378
a(I390
I43
tp1379
a(I836
I15
tp1380
a(I1389
I15
tp1381
a(I451
I43
tp1382
a(I1484
I43
tp1383
a(I1194
I15
tp1384
a(I809
I43
tp1385
a(I1552
I15
tp1386
a(I2242
I15
tp1387
a(I2063
I15
tp1388
a(I752
I43
tp1389
a(I1804
I43
tp1390
a(I1948
I43
tp1391
a(I1126
I43
tp1392
a(I919
I43
tp1393
a(I1941
I43
tp1394
a(I1955
I43
tp1395
a(I980
I43
tp1396
a(I321
I15
tp1397
a(I124
I15
tp1398
a(I142
I15
tp1399
a(I695
I15
tp1400
a(I953
I15
tp1401
a(I310
I43
tp1402
a(I756
I15
tp1403
a(I1053
I15
tp1404
a(I371
I43
tp1405
a(I1114
I15
tp1406
a(I729
I43
tp1407
a(I325
I43
tp1408
a(I2162
I15
tp1409
a(I2180
I15
tp1410
a(I2057
I15
tp1411
a(I1440
I43
tp1412
a(I1673
I43
tp1413
a(I12
I43
tp1414
a(I1814
I43
tp1415
a(I2033
I15
tp1416
a(I454
I15
tp1417
a(I1875
I43
tp1418
a(I241
I15
tp1419
a(I259
I15
tp1420
a(I812
I15
tp1421
a(I62
I15
tp1422
a(I427
I43
tp1423
a(I873
I15
tp1424
a(I1170
I15
tp1425
a(I488
I43
tp1426
a(I785
I43
tp1427
a(I1247
I15
tp1428
a(I862
I43
tp1429
a(I1605
I15
tp1430
a(I245
I43
tp1431
a(I2100
I15
tp1432
a(I2073
I43
tp1433
a(I1931
I43
tp1434
a(I956
I43
tp1435
a(I1866
I15
tp1436
a(I1992
I43
tp1437
a(I1641
I15
tp1438
a(I374
I15
tp1439
a(I1815
I15
tp1440
a(I929
I15
tp1441
a(I179
I15
tp1442
a(I732
I15
tp1443
a(I1006
I15
tp1444
a(I347
I43
tp1445
a(I537
I15
tp1446
a(I1090
I15
tp1447
a(I152
I43
tp1448
a(I705
I43
tp1449
a(I1935
I15
tp1450
a(I301
I43
tp1451
a(I526
I43
tp1452
a(I362
I43
tp1453
a(I2217
I15
tp1454
a(I1932
I15
tp1455
a(I2206
I43
tp1456
a(I1045
I15
tp1457
a(I1277
I15
tp1458
a(I491
I15
tp1459
a(I1912
I43
tp1460
a(I38
I15
tp1461
a(I296
I15
tp1462
a(I849
I15
tp1463
a(I99
I15
tp1464
a(I464
I43
tp1465
a(I670
I15
tp1466
a(I1223
I15
tp1467
a(I1481
I15
tp1468
a(I838
I43
tp1469
a(I1074
I43
tp1470
a(I1028
I15
tp1471
a(I1581
I15
tp1472
a(I643
I43
tp1473
a(I221
I43
tp1474
a(I1642
I15
tp1475
a(I2076
I15
tp1476
a(I1257
I43
tp1477
a(I26
I43
tp1478
a(I2059
I15
tp1479
a(I2049
I43
tp1480
a(I2126
I43
tp1481
a(I1968
I43
tp1482
a(I1151
I43
tp1483
a(I155
I15
tp1484
a(I982
I15
tp1485
a(I216
I15
tp1486
a(I513
I15
tp1487
a(I787
I15
tp1488
a(I128
I43
tp1489
a(I590
I15
tp1490
a(I1143
I15
tp1491
a(I1401
I15
tp1492
a(I758
I43
tp1493
a(I1972
I15
tp1494
a(I338
I43
tp1495
a(I563
I43
tp1496
a(I1063
I15
tp1497
a(I159
I43
tp1498
a(I1633
I43
tp1499
a(I517
I43
tp1500
a(I2177
I15
tp1501
a(I1647
I43
tp1502
a(I2243
I43
tp1503
a(I1888
I43
tp1504
a(I272
I15
tp1505
a(I75
I15
tp1506
a(I2168
I43
tp1507
a(I1229
I43
tp1508
a(I646
I15
tp1509
a(I1124
I15
tp1510
a(I904
I15
tp1511
a(I1457
I15
tp1512
a(I707
I15
tp1513
a(I1260
I15
tp1514
a(I1534
I15
tp1515
a(I875
I43
tp1516
a(I1065
I15
tp1517
a(I1618
I15
tp1518
a(I680
I43
tp1519
a(I1233
I43
tp1520
a(I2
I43
tp1521
a(I2113
I15
tp1522
a(I1054
I43
tp1523
a(I79
I43
tp1524
a(I9
I43
tp1525
a(I1461
I43
tp1526
a(I2102
I43
tp1527
a(I1034
I43
tp1528
a(I2163
I43
tp1529
a(I405
I15
tp1530
a(I1994
I15
tp1531
a(I1724
I43
tp1532
a(I192
I15
tp1533
a(I2117
I43
tp1534
a(I1019
I15
tp1535
a(I566
I15
tp1536
a(I824
I15
tp1537
a(I1377
I15
tp1538
a(I627
I15
tp1539
a(I1948
I15
tp1540
a(I2053
I15
tp1541
a(I1198
I15
tp1542
a(I539
I43
tp1543
a(I2009
I15
tp1544
a(I1354
I15
tp1545
a(I135
I43
tp1546
a(I600
I43
tp1547
a(I1921
I43
tp1548
a(I2246
I15
tp1549
a(I196
I43
tp1550
a(I749
I43
tp1551
a(I1998
I43
tp1552
a(I2051
I15
tp1553
a(I953
I43
tp1554
a(I554
I43
tp1555
a(I2219
I43
tp1556
a(I2182
I43
tp1557
a(I1279
I15
tp1558
a(I1187
I43
tp1559
a(I325
I15
tp1560
a(I112
I15
tp1561
a(I683
I15
tp1562
a(I1510
I15
tp1563
a(I2053
I43
tp1564
a(I744
I15
tp1565
a(I1041
I15
tp1566
a(I1315
I15
tp1567
a(I656
I43
tp1568
a(I1118
I15
tp1569
a(I1673
I15
tp1570
a(I1030
I43
tp1571
a(I55
I43
tp1572
a(I241
I43
tp1573
a(I2166
I15
tp1574
a(I1091
I43
tp1575
a(I116
I43
tp1576
a(I1437
I43
tp1577
a(I62
I43
tp1578
a(I1637
I15
tp1579
a(I1498
I43
tp1580
a(I2139
I43
tp1581
a(I469
I43
tp1582
a(I2093
I43
tp1583
a(I442
I15
tp1584
a(I245
I15
tp1585
a(I1469
I43
tp1586
a(I800
I15
tp1587
a(I603
I15
tp1588
a(I1174
I15
tp1589
a(I1432
I15
tp1590
a(I1985
I15
tp1591
a(I2232
I15
tp1592
a(I1235
I15
tp1593
a(I576
I43
tp1594
a(I1806
I15
tp1595
a(I1684
I43
tp1596
a(I172
I43
tp1597
a(I1593
I15
tp1598
a(I1916
I15
tp1599
a(I929
I43
tp1600
a(I530
I43
tp1601
a(I2035
I43
tp1602
a(I2088
I15
tp1603
a(I1006
I43
tp1604
a(I607
I43
tp1605
a(I2256
I43
tp1606
a(I636
I43
tp1607
a(I1989
I43
tp1608
a(I301
I15
tp1609
a(I1852
I15
tp1610
a(I362
I15
tp1611
a(I933
I15
tp1612
a(I720
I15
tp1613
a(I1291
I15
tp1614
a(I1094
I15
tp1615
a(I1352
I15
tp1616
a(I1905
I15
tp1617
a(I1923
I15
tp1618
a(I2086
I15
tp1619
a(I1620
I43
tp1620
a(I1067
I43
tp1621
a(I92
I43
tp1622
a(I38
I43
tp1623
a(I2018
I43
tp1624
a(I1128
I43
tp1625
a(I1474
I43
tp1626
a(I99
I43
tp1627
a(I445
I43
tp1628
a(I1295
I43
tp1629
a(I1481
I43
tp1630
a(I506
I43
tp1631
a(I1909
I43
tp1632
a(I418
I15
tp1633
a(I221
I15
tp1634
a(I2130
I43
tp1635
a(I495
I15
tp1636
a(I26
I15
tp1637
a(I853
I15
tp1638
a(I1408
I15
tp1639
a(I1458
I15
tp1640
a(I2147
I43
tp1641
a(I1211
I15
tp1642
a(I2038
I15
tp1643
a(I1272
I15
tp1644
a(I1569
I15
tp1645
a(I1843
I15
tp1646
a(I1317
I15
tp1647
a(I1646
I15
tp1648
a(I2011
I43
tp1649
a(I2064
I15
tp1650
a(I982
I43
tp1651
a(I583
I43
tp1652
a(I1816
I43
tp1653
a(I787
I43
tp1654
a(I1412
I43
tp1655
a(I1965
I43
tp1656
a(I1236
I43
tp1657
a(I1401
I43
tp1658
a(I2026
I43
tp1659
a(I997
I43
tp1660
a(I338
I15
tp1661
a(I909
I15
tp1662
a(I159
I15
tp1663
a(I970
I15
tp1664
a(I517
I15
tp1665
a(I408
I15
tp1666
a(I1328
I15
tp1667
a(I1131
I15
tp1668
a(I1149
I43
tp1669
a(I1702
I15
tp1670
a(I1482
I43
tp1671
a(I1960
I15
tp1672
a(I1763
I15
tp1673
a(I1104
I43
tp1674
a(I2197
I15
tp1675
a(I75
I43
tp1676
a(I1527
I43
tp1677
a(I904
I43
tp1678
a(I1457
I43
tp1679
a(I482
I43
tp1680
a(I1332
I43
tp1681
a(I1885
I43
tp1682
a(I1534
I43
tp1683
a(I303
I43
tp1684
a(I1690
I43
tp1685
a(I471
I15
tp1686
a(I661
I43
tp1687
a(I2
I15
tp1688
a(I1978
I43
tp1689
a(I276
I15
tp1690
a(I829
I15
tp1691
a(I79
I15
tp1692
a(I890
I15
tp1693
a(I1461
I15
tp1694
a(I1248
I15
tp1695
a(I1819
I15
tp1696
a(I1622
I15
tp1697
a(I1880
I15
tp1698
a(I1122
I15
tp1699
a(I1792
I43
tp1700
a(I2117
I15
tp1701
a(I1019
I43
tp1702
a(I620
I43
tp1703
a(I2110
I15
tp1704
a(I824
I43
tp1705
a(I1377
I43
tp1706
a(I2002
I43
tp1707
a(I420
I43
tp1708
a(I973
I43
tp1709
a(I1198
I43
tp1710
a(I1823
I43
tp1711
a(I778
I43
tp1712
a(I135
I15
tp1713
a(I393
I15
tp1714
a(I946
I15
tp1715
a(I196
I15
tp1716
a(I749
I15
tp1717
a(I1023
I15
tp1718
a(I1011
I43
tp1719
a(I554
I15
tp1720
a(I169
I43
tp1721
a(I1936
I15
tp1722
a(I2261
I43
tp1723
a(I1739
I15
tp1724
a(I2044
I43
tp1725
a(I1544
I15
tp1726
a(I2234
I15
tp1727
a(I112
I43
tp1728
a(I1996
I43
tp1729
a(I1308
I43
tp1730
a(I1891
I15
tp1731
a(I1510
I43
tp1732
a(I279
I43
tp1733
a(I1109
I43
tp1734
a(I1666
I43
tp1735
a(I1315
I43
tp1736
a(I340
I43
tp1737
a(I893
I43
tp1738
a(I1743
I43
tp1739
a(I508
I15
tp1740
a(I1369
I43
tp1741
a(I698
I43
tp1742
a(I55
I15
tp1743
a(I313
I15
tp1744
a(I866
I15
tp1745
a(I1778
I43
tp1746
a(I116
I15
tp1747
a(I1437
I15
tp1748
a(I687
I15
tp1749
a(I1498
I15
tp1750
a(I89
I43
tp1751
a(I2187
I15
tp1752
a(I1856
I15
tp1753
a(I1659
I15
tp1754
a(I2093
I15
tp1755
a(I1138
I43
tp1756
a(I2154
I15
tp1757
a(I800
I43
tp1758
a(I1865
I43
tp1759
a(I1895
I43
tp1760
a(I396
I43
tp1761
a(I1174
I43
tp1762
a(I1799
I43
tp1763
a(I1969
I15
tp1764
a(I1010
I43
tp1765
a(I1235
I43
tp1766
a(I1860
I43
tp1767
a(I831
I43
tp1768
a(I172
I15
tp1769
a(I1593
I43
tp1770
a(I446
I15
tp1771
a(I999
I15
tp1772
a(I233
I15
tp1773
a(I530
I15
tp1774
a(I804
I15
tp1775
a(I145
I43
tp1776
a(I607
I15
tp1777
a(I2237
I43
tp1778
a(I222
I43
tp1779
a(I1989
I15
tp1780
a(I1776
I15
tp1781
a(I1127
I43
tp1782
a(I2210
I15
tp1783
a(I1291
I43
tp1784
a(I316
I43
tp1785
a(I431
I43
tp1786
a(I1719
I43
tp1787
a(I1352
I43
tp1788
a(I1905
I43
tp1789
a(I674
I43
tp1790
a(I1162
I15
tp1791
a(I289
I15
tp1792
a(I1726
I43
tp1793
a(I751
I43
tp1794
a(I92
I15
tp1795
a(I366
I15
tp1796
a(I663
I15
tp1797
a(I921
I15
tp1798
a(I1474
I15
tp1799
a(I724
I15
tp1800
a(I65
I43
tp1801
a(I1295
I15
tp1802
a(I910
I43
tp1803
a(I1909
I15
tp1804
a(I2130
I15
tp1805
a(I1100
I15
tp1806
a(I1237
I15
tp1807
a(I1211
I43
tp1808
a(I1836
I43
tp1809
a(I807
I43
tp1810
a(I1272
I43
tp1811
a(I1569
I43
tp1812
a(I422
I15
tp1813
a(I868
I43
tp1814
a(I209
I15
tp1815
a(I1646
I43
tp1816
a(I483
I15
tp1817
a(I780
I15
tp1818
a(I30
I15
tp1819
a(I583
I15
tp1820
a(I841
I15
tp1821
a(I198
I43
tp1822
a(I1266
I43
tp1823
a(I1412
I15
tp1824
a(I1929
I15
tp1825
a(I3
I43
tp1826
a(I2026
I15
tp1827
a(I2095
I43
tp1828
a(I617
I43
tp1829
a(I410
I43
tp1830
a(I1965
I15
tp1831
a(I2068
I15
tp1832
a(I1328
I43
tp1833
a(I1756
I43
tp1834
a(I1087
I43
tp1835
a(I1702
I43
tp1836
a(I727
I43
tp1837
a(I342
I15
tp1838
a(I1763
I43
tp1839
a(I532
I43
tp1840
a(I897
I15
tp1841
a(I147
I15
tp1842
a(I700
I15
tp1843
a(I974
I15
tp1844
a(I1527
I15
tp1845
a(I761
I15
tp1846
a(I118
I43
tp1847
a(I1332
I15
tp1848
a(I1885
I15
tp1849
a(I947
I43
tp1850
a(I2212
I43
tp1851
a(I1255
I15
tp1852
a(I1690
I15
tp1853
a(I1305
I43
tp1854
a(I901
I43
tp1855
a(I1248
I43
tp1856
a(I844
I43
tp1857
a(I1622
I43
tp1858
a(I459
I15
tp1859
a(I1165
I43
tp1860
a(I6
I15
tp1861
a(I1060
I15
tp1862
a(I264
I15
tp1863
a(I817
I15
tp1864
a(I67
I15
tp1865
a(I620
I15
tp1866
a(I1613
I15
tp1867
a(I894
I15
tp1868
a(I235
I43
tp1869
a(I1449
I15
tp1870
a(I2002
I15
tp1871
a(I2071
I43
tp1872
a(I40
I43
tp1873
a(I593
I43
tp1874
a(I386
I43
tp1875
a(I1823
I15
tp1876
a(I2132
I43
tp1877
a(I1438
I43
tp1878
a(I463
I43
tp1879
a(I393
I43
tp1880
a(I821
I43
tp1881
a(I1226
I43
tp1882
a(I1748
I43
tp1883
a(I1739
I43
tp1884
a(I764
I43
tp1885
a(I379
I15
tp1886
a(I1544
I43
tp1887
a(I950
I15
tp1888
a(I184
I15
tp1889
a(I737
I15
tp1890
a(I1011
I15
tp1891
a(I1308
I15
tp1892
a(I558
I15
tp1893
a(I923
I43
tp1894
a(I2188
I43
tp1895
a(I1369
I15
tp1896
a(I1666
I15
tp1897
a(I984
I43
tp1898
a(I1281
I43
tp1899
a(I1743
I15
tp1900
a(I109
I43
tp1901
a(I1358
I43
tp1902
a(I313
I43
tp1903
a(I938
I43
tp1904
a(I1914
I15
tp1905
a(I2169
I15
tp1906
a(I1215
I15
tp1907
a(I1978
I15
tp1908
a(I1785
I43
tp1909
a(I1659
I43
tp1910
a(I496
I15
tp1911
a(I43
I15
tp1912
a(I1274
I15
tp1913
a(I870
I15
tp1914
a(I104
I15
tp1915
a(I1425
I15
tp1916
a(I675
I15
tp1917
a(I16
I43
tp1918
a(I1502
I15
tp1919
a(I1799
I15
tp1920
a(I2108
I43
tp1921
a(I1033
I15
tp1922
a(I1414
I43
tp1923
a(I439
I43
tp1924
a(I1860
I15
tp1925
a(I1381
I43
tp1926
a(I1475
I43
tp1927
a(I500
I43
tp1928
a(I797
I43
tp1929
a(I446
I43
tp1930
a(I1573
I15
tp1931
a(I858
I43
tp1932
a(I1815
I43
tp1933
a(I2067
I43
tp1934
a(I1776
I43
tp1935
a(I1293
I15
tp1936
a(I160
I15
tp1937
a(I987
I15
tp1938
a(I534
I15
tp1939
a(I792
I15
tp1940
a(I1345
I15
tp1941
a(I595
I15
tp1942
a(I960
I43
tp1943
a(I1166
I15
tp1944
a(I1719
I15
tp1945
a(I1977
I15
tp1946
a(I1334
I43
tp1947
a(I1780
I15
tp1948
a(I289
I43
tp1949
a(I914
I43
tp1950
a(I1395
I43
tp1951
a(I366
I43
tp1952
a(I991
I43
tp1953
a(I1753
I43
tp1954
a(I384
I15
tp1955
a(I1349
I43
tp1956
a(I2044
I15
tp1957
a(I293
I15
tp1958
a(I2202
I43
tp1959
a(I80
I15
tp1960
a(I651
I15
tp1961
a(I1478
I15
tp1962
a(I712
I15
tp1963
a(I1265
I15
tp1964
a(I1283
I15
tp1965
a(I1836
I15
tp1966
a(I877
I15
tp1967
a(I1086
I15
tp1968
a(I1451
I43
tp1969
a(I476
I43
tp1970
a(I1897
I15
tp1971
a(I422
I43
tp1972
a(I1954
I43
tp1973
a(I1512
I43
tp1974
a(I1809
I43
tp1975
a(I834
I43
tp1976
a(I483
I43
tp1977
a(I1575
I43
tp1978
a(I655
I43
tp1979
a(I841
I43
tp1980
a(I1269
I43
tp1981
a(I1364
I15
tp1982
a(I410
I15
tp1983
a(I213
I15
tp1984
a(I768
I15
tp1985
a(I2031
I43
tp1986
a(I571
I15
tp1987
a(I1398
I15
tp1988
a(I632
I15
tp1989
a(I1953
I15
tp1990
a(I1203
I15
tp1991
a(I1756
I15
tp1992
a(I1509
I15
tp1993
a(I2030
I15
tp1994
a(I1371
I43
tp1995
a(I1561
I15
tp1996
a(I342
I43
tp1997
a(I967
I43
tp1998
a(I1176
I43
tp1999
a(I1729
I43
tp2000
a(I147
I43
tp2001
a(I772
I43
tp2002
a(I1325
I43
tp2003
a(I1550
I43
tp2004
a(I761
I43
tp2005
a(I1386
I43
tp2006
a(I357
I43
tp2007
a(I1378
I15
tp2008
a(I269
I15
tp2009
a(I2178
I43
tp2010
a(I2158
I15
tp2011
a(I1851
I43
tp2012
a(I330
I15
tp2013
a(I2255
I43
tp2014
a(I901
I15
tp2015
a(I688
I15
tp2016
a(I1515
I15
tp2017
a(I1085
I43
tp2018
a(I1062
I15
tp2019
a(I2004
I15
tp2020
a(I1320
I15
tp2021
a(I1873
I15
tp2022
a(I1722
I43
tp2023
a(I1123
I15
tp2024
a(I1488
I43
tp2025
a(I1694
I15
tp2026
a(I459
I43
tp2027
a(I1862
I43
tp2028
a(I887
I43
tp2029
a(I264
I43
tp2030
a(I817
I43
tp2031
a(I1667
I43
tp2032
a(I692
I43
tp2033
a(I1245
I43
tp2034
a(I894
I43
tp2035
a(I2121
I43
tp2036
a(I1050
I43
tp2037
a(I21
I43
tp2038
a(I386
I15
tp2039
a(I1146
I43
tp2040
a(I189
I15
tp2041
a(I463
I15
tp2042
a(I250
I15
tp2043
a(I821
I15
tp2044
a(I2249
I43
tp2045
a(I608
I15
tp2046
a(I1466
I43
tp2047
a(I1179
I15
tp2048
a(I2006
I15
tp2049
a(I1240
I15
tp2050
a(I1537
I15
tp2051
a(I1058
I15
tp2052
a(I1152
I43
tp2053
a(I1614
I15
tp2054
a(I379
I43
tp2055
a(I1004
I43
tp2056
a(I1599
I15
tp2057
a(I184
I43
tp2058
a(I737
I43
tp2059
a(I1362
I43
tp2060
a(I1587
I43
tp2061
a(I333
I43
tp2062
a(I558
I43
tp2063
a(I1183
I43
tp2064
a(I138
I43
tp2065
a(I1541
I43
tp2066
a(I306
I15
tp2067
a(I2231
I43
tp2068
a(I109
I15
tp2069
a(I383
I15
tp2070
a(I1135
I15
tp2071
a(I938
I15
tp2072
a(I741
I15
tp2073
a(I1296
I15
tp2074
a(I1099
I15
tp2075
a(I1553
I15
tp2076
a(I1670
I15
tp2077
a(I1928
I15
tp2078
a(I1731
I15
tp2079
a(I496
I43
tp2080
a(I1735
I15
tp2081
a(I1899
I43
tp2082
a(I668
I43
tp2083
a(I870
I43
tp2084
a(I1704
I43
tp2085
a(I1045
I43
tp2086
a(I1026
I43
tp2087
a(I675
I43
tp2088
a(I253
I43
tp2089
a(I1103
I43
tp2090
a(I1033
I43
tp2091
a(I58
I43
tp2092
a(I439
I15
tp2093
a(I226
I15
tp2094
a(I500
I15
tp2095
a(I797
I15
tp2096
a(I47
I15
tp2097
a(I858
I15
tp2098
a(I473
I43
tp2099
a(I1216
I15
tp2100
a(I2043
I15
tp2101
a(I1781
I15
tp2102
a(I2185
I15
tp2103
a(I1590
I15
tp2104
a(I1848
I15
tp2105
a(I1651
I15
tp2106
a(I160
I43
tp2107
a(I2085
I15
tp2108
a(I1563
I43
tp2109
a(I534
I43
tp2110
a(I1159
I43
tp2111
a(I1624
I43
tp2112
a(I370
I43
tp2113
a(I595
I43
tp2114
a(I1141
I15
tp2115
a(I1773
I43
tp2116
a(I191
I43
tp2117
a(I2235
I43
tp2118
a(I1977
I43
tp2119
a(I1578
I43
tp2120
a(I359
I15
tp2121
a(I549
I43
tp2122
a(I914
I15
tp2123
a(I164
I15
tp2124
a(I717
I15
tp2125
a(I991
I15
tp2126
a(I522
I15
tp2127
a(I2109
I43
tp2128
a(I1349
I15
tp2129
a(I1136
I15
tp2130
a(I1063
I43
tp2131
a(I1707
I15
tp2132
a(I1949
I43
tp2133
a(I1768
I15
tp2134
a(I2202
I15
tp2135
a(I1680
I43
tp2136
a(I651
I43
tp2137
a(I1079
I43
tp2138
a(I712
I43
tp2139
a(I1265
I43
tp2140
a(I34
I43
tp2141
a(I1140
I43
tp2142
a(I1086
I43
tp2143
a(I111
I43
tp2144
a(I476
I15
tp2145
a(I23
I15
tp2146
a(I281
I15
tp2147
a(I834
I15
tp2148
a(I84
I15
tp2149
a(I637
I15
tp2150
a(I655
I15
tp2151
a(I270
I43
tp2152
a(I1269
I15
tp2153
a(I1824
I15
tp2154
a(I2149
I43
tp2155
a(I1627
I15
tp2156
a(I2061
I15
tp2157
a(I1036
I15
tp2158
a(I2122
I15
tp2159
a(I1600
I43
tp2160
a(I1173
I15
tp2161
a(I571
I43
tp2162
a(I1003
I15
tp2163
a(I1687
I43
tp2164
a(I167
I43
tp2165
a(I632
I43
tp2166
a(I1953
I43
tp2167
a(I1554
I43
tp2168
a(I228
I43
tp2169
a(I525
I43
tp2170
a(I2030
I43
tp2171
a(I1631
I43
tp2172
a(I140
I15
tp2173
a(I586
I43
tp2174
a(I967
I15
tp2175
a(I201
I15
tp2176
a(I754
I15
tp2177
a(I1202
I43
tp2178
a(I772
I15
tp2179
a(I1325
I15
tp2180
a(I575
I15
tp2181
a(I1386
I15
tp2182
a(I1650
I15
tp2183
a(I1831
I15
tp2184
a(I1001
I43
tp2185
a(I1744
I15
tp2186
a(I2178
I15
tp2187
a(I2255
I15
tp2188
a(I688
I43
tp2189
a(I2224
I43
tp2190
a(I1116
I43
tp2191
a(I1279
I43
tp2192
a(I1062
I43
tp2193
a(I87
I43
tp2194
a(I1123
I43
tp2195
a(I916
I43
tp2196
a(I257
I15
tp2197
a(I60
I15
tp2198
a(I334
I15
tp2199
a(I887
I15
tp2200
a(I121
I15
tp2201
a(I502
I43
tp2202
a(I692
I15
tp2203
a(I1245
I15
tp2204
a(I307
I43
tp2205
a(I1191
I15
tp2206
a(I1050
I15
tp2207
a(I665
I43
tp2208
a(I261
I43
tp2209
a(I2098
I15
tp2210
a(I1637
I43
tp2211
a(I2175
I15
tp2212
a(I608
I43
tp2213
a(I204
I43
tp2214
a(I2006
I43
tp2215
a(I1607
I43
tp2216
a(I1357
I43
tp2217
a(I562
I43
tp2218
a(I1252
I15
tp2219
a(I177
I15
tp2220
a(I639
I43
tp2221
a(I1004
I15
tp2222
a(I1549
I15
tp2223
a(I254
I15
tp2224
a(I551
I15
tp2225
a(I809
I15
tp2226
a(I1362
I15
tp2227
a(I612
I15
tp2228
a(I977
I43
tp2229
a(I1183
I15
tp2230
a(I1839
I15
tp2231
a(I575
I43
tp2232
a(I1541
I15
tp2233
a(I2231
I15
tp2234
a(I181
I43
tp2235
a(I1162
I43
tp2236
a(I1610
I15
tp2237
a(I1099
I43
tp2238
a(I124
I43
tp2239
a(I1928
I43
tp2240
a(I310
I15
tp2241
a(I97
I15
tp2242
a(I371
I15
tp2243
a(I668
I15
tp2244
a(I2181
I15
tp2245
a(I942
I15
tp2246
a(I283
I43
tp2247
a(I729
I15
tp2248
a(I1026
I15
tp2249
a(I344
I43
tp2250
a(I641
I43
tp2251
a(I2162
I43
tp2252
a(I1103
I15
tp2253
a(I493
I43
tp2254
a(I718
I43
tp2255
a(I298
I43
tp2256
a(I2151
I15
tp2257
a(I2105
I15
tp2258
a(I1407
I15
tp2259
a(I2043
I43
tp2260
a(I1644
I43
tp2261
a(I427
I15
tp2262
a(I1848
I43
tp2263
a(I1825
I15
tp2264
a(I230
I15
tp2265
a(I488
I15
tp2266
a(I785
I15
tp2267
a(I35
I15
tp2268
a(I400
I43
tp2269
a(I862
I15
tp2270
a(I1159
I15
tp2271
a(I1417
I15
tp2272
a(I774
I43
tp2273
a(I1220
I15
tp2274
a(I1317
I43
tp2275
a(I835
I43
tp2276
a(I157
I43
tp2277
a(I1578
I15
tp2278
a(I1193
I43
tp2279
a(I218
I43
tp2280
a(I2007
I43
tp2281
a(I2241
I43
tp2282
a(I2062
I43
tp2283
a(I1136
I43
tp2284
a(I1485
I15
tp2285
a(I347
I15
tp2286
a(I918
I15
tp2287
a(I152
I15
tp2288
a(I705
I15
tp2289
a(I979
I15
tp2290
a(I320
I43
tp2291
a(I526
I15
tp2292
a(I1079
I15
tp2293
a(I1959
I43
tp2294
a(I1337
I15
tp2295
a(I694
I43
tp2296
a(I1140
I15
tp2297
a(I274
I43
tp2298
a(I755
I43
tp2299
a(I351
I43
tp2300
a(I1113
I43
tp2301
a(I2206
I15
tp2302
a(I709
I43
tp2303
a(I1980
I15
tp2304
a(I1824
I43
tp2305
a(I464
I15
tp2306
a(I11
I15
tp2307
a(I838
I15
tp2308
a(I72
I15
tp2309
a(I625
I15
tp2310
a(I643
I15
tp2311
a(I1196
I15
tp2312
a(I2097
I43
tp2313
a(I1470
I15
tp2314
a(I811
I43
tp2315
a(I1257
I15
tp2316
a(I1554
I15
tp2317
a(I1122
I43
tp2318
a(I872
I43
tp2319
a(I1169
I43
tp2320
a(I194
I43
tp2321
a(I1631
I15
tp2322
a(I2049
I15
tp2323
a(I1246
I43
tp2324
a(I15
I43
tp2325
a(I201
I43
tp2326
a(I2126
I15
tp2327
a(I629
I43
tp2328
a(I2099
I43
tp2329
a(I2174
I43
tp2330
a(I128
I15
tp2331
a(I1967
I43
tp2332
a(I955
I15
tp2333
a(I758
I15
tp2334
a(I1016
I15
tp2335
a(I1313
I15
tp2336
a(I563
I15
tp2337
a(I1116
I15
tp2338
a(I1445
I15
tp2339
a(I1390
I15
tp2340
a(I731
I43
tp2341
a(I1945
I15
tp2342
a(I327
I43
tp2343
a(I536
I43
tp2344
a(I1089
I43
tp2345
a(I1868
I15
tp2346
a(I1842
I43
tp2347
a(I132
I43
tp2348
a(I685
I43
tp2349
a(I1934
I43
tp2350
a(I2243
I15
tp2351
a(I121
I43
tp2352
a(I746
I43
tp2353
a(I2083
I15
tp2354
a(I2216
I43
tp2355
a(I261
I15
tp2356
a(I48
I15
tp2357
a(I1803
I15
tp2358
a(I875
I15
tp2359
a(I1277
I43
tp2360
a(I1446
I15
tp2361
a(I1940
I15
tp2362
a(I680
I15
tp2363
a(I1233
I15
tp2364
a(I1507
I15
tp2365
a(I848
I43
tp2366
a(I1054
I15
tp2367
a(I1607
I15
tp2368
a(I1865
I15
tp2369
a(I1222
I43
tp2370
a(I247
I43
tp2371
a(I177
I43
tp2372
a(I2102
I15
tp2373
a(I1027
I43
tp2374
a(I52
I43
tp2375
a(I605
I43
tp2376
a(I254
I43
tp2377
a(I2163
I15
tp2378
a(I1641
I43
tp2379
a(I1434
I43
tp2380
a(I2075
I43
tp2381
a(I405
I43
tp2382
a(I1082
I43
tp2383
a(I2136
I43
tp2384
a(I1570
I43
tp2385
a(I181
I15
tp2386
a(I2090
I43
tp2387
a(I992
I15
tp2388
a(I539
I15
tp2389
a(I2225
I15
tp2390
a(I1366
I15
tp2391
a(I600
I15
tp2392
a(I1921
I15
tp2393
a(I1171
I15
tp2394
a(I512
I43
tp2395
a(I1998
I15
tp2396
a(I364
I43
tp2397
a(I1785
I15
tp2398
a(I1142
I43
tp2399
a(I2219
I15
tp2400
a(I97
I43
tp2401
a(I722
I43
tp2402
a(I1971
I43
tp2403
a(I942
I43
tp2404
a(I543
I43
tp2405
a(I2192
I43
tp2406
a(I2169
I43
tp2407
a(I1925
I43
tp2408
a(I493
I15
tp2409
a(I1071
I15
tp2410
a(I298
I15
tp2411
a(I2150
I15
tp2412
a(I101
I15
tp2413
a(I656
I15
tp2414
a(I1483
I15
tp2415
a(I1030
I15
tp2416
a(I1288
I15
tp2417
a(I1841
I15
tp2418
a(I1091
I15
tp2419
a(I1644
I15
tp2420
a(I1918
I15
tp2421
a(I1100
I43
tp2422
a(I28
I43
tp2423
a(I230
I43
tp2424
a(I2139
I15
tp2425
a(I1064
I43
tp2426
a(I1237
I43
tp2427
a(I1410
I43
tp2428
a(I35
I43
tp2429
a(I1487
I43
tp2430
a(I2112
I43
tp2431
a(I1417
I43
tp2432
a(I442
I43
tp2433
a(I1845
I43
tp2434
a(I157
I15
tp2435
a(I2066
I43
tp2436
a(I431
I15
tp2437
a(I218
I15
tp2438
a(I2143
I43
tp2439
a(I789
I15
tp2440
a(I1647
I15
tp2441
a(I576
I15
tp2442
a(I1807
I43
tp2443
a(I1403
I15
tp2444
a(I1974
I15
tp2445
a(I1208
I15
tp2446
a(I1761
I15
tp2447
a(I2035
I15
tp2448
a(I1582
I15
tp2449
a(I1947
I43
tp2450
a(I2256
I15
tp2451
a(I918
I43
tp2452
a(I519
I43
tp2453
a(I2008
I43
tp2454
a(I979
I43
tp2455
a(I580
I43
tp2456
a(I1133
I43
tp2457
a(I1210
I15
tp2458
a(I1337
I43
tp2459
a(I1962
I43
tp2460
a(I933
I43
tp2461
a(I274
I15
tp2462
a(I77
I15
tp2463
a(I351
I15
tp2464
a(I906
I15
tp2465
a(I709
I15
tp2466
a(I1765
I15
tp2467
a(I1520
I15
tp2468
a(I1255
I43
tp2469
a(I1067
I15
tp2470
a(I1894
I15
tp2471
a(I1128
I15
tp2472
a(I1829
I15
tp2473
a(I1699
I15
tp2474
a(I1040
I43
tp2475
a(I11
I43
tp2476
a(I1463
I43
tp2477
a(I72
I43
tp2478
a(I625
I43
tp2479
a(I418
I43
tp2480
a(I1524
I43
tp2481
a(I1821
I43
tp2482
a(I1470
I43
tp2483
a(I495
I43
tp2484
a(I1882
I43
tp2485
a(I407
I15
tp2486
a(I853
I43
tp2487
a(I194
I15
tp2488
a(I2119
I43
tp2489
a(I468
I15
tp2490
a(I1021
I15
tp2491
a(I15
I15
tp2492
a(I826
I15
tp2493
a(I629
I15
tp2494
a(I1184
I15
tp2495
a(I2011
I15
tp2496
a(I1558
I15
tp2497
a(I1228
I15
tp2498
a(I1816
I15
tp2499
a(I1619
I15
tp2500
a(I1984
I43
tp2501
a(I1365
I15
tp2502
a(I955
I43
tp2503
a(I556
I43
tp2504
a(I1016
I43
tp2505
a(I1313
I43
tp2506
a(I1938
I43
tp2507
a(I909
I43
tp2508
a(I1390
I43
tp2509
a(I2015
I43
tp2510
a(I970
I43
tp2511
a(I327
I15
tp2512
a(I114
I15
tp2513
a(I1394
I43
tp2514
a(I132
I15
tp2515
a(I685
I15
tp2516
a(I959
I15
tp2517
a(I746
I15
tp2518
a(I1586
I15
tp2519
a(I361
I43
tp2520
a(I1104
I15
tp2521
a(I2197
I43
tp2522
a(I1675
I15
tp2523
a(I1736
I15
tp2524
a(I1356
I43
tp2525
a(I48
I43
tp2526
a(I1500
I43
tp2527
a(I1215
I43
tp2528
a(I1446
I43
tp2529
a(I471
I43
tp2530
a(I1858
I43
tp2531
a(I1507
I43
tp2532
a(I276
I43
tp2533
a(I829
I43
tp2534
a(I1679
I43
tp2535
a(I444
I15
tp2536
a(I1751
I15
tp2537
a(I890
I43
tp2538
a(I247
I15
tp2539
a(I2156
I43
tp2540
a(I505
I15
tp2541
a(I802
I15
tp2542
a(I52
I15
tp2543
a(I605
I15
tp2544
a(I879
I15
tp2545
a(I1383
I15
tp2546
a(I1434
I15
tp2547
a(I25
I43
tp2548
a(I1792
I15
tp2549
a(I1111
I15
tp2550
a(I1595
I15
tp2551
a(I1573
I43
tp2552
a(I1656
I15
tp2553
a(I2090
I15
tp2554
a(I992
I43
tp2555
a(I1833
I43
tp2556
a(I1366
I43
tp2557
a(I1991
I43
tp2558
a(I1293
I43
tp2559
a(I946
I43
tp2560
a(I1171
I43
tp2561
a(I1796
I43
tp2562
a(I1023
I43
tp2563
a(I364
I15
tp2564
a(I1741
I15
tp2565
a(I1869
I15
tp2566
a(I935
I15
tp2567
a(I2023
I43
tp2568
a(I169
I15
tp2569
a(I722
I15
tp2570
a(I1775
I43
tp2571
a(I996
I15
tp2572
a(I337
I43
tp2573
a(I543
I15
tp2574
a(I158
I43
tp2575
a(I1839
I43
tp2576
a(I2234
I43
tp2577
a(I1712
I15
tp2578
a(I1354
I43
tp2579
a(I2223
I15
tp2580
a(I1546
I15
tp2581
a(I1483
I43
tp2582
a(I508
I43
tp2583
a(I2022
I43
tp2584
a(I1911
I43
tp2585
a(I1288
I43
tp2586
a(I1841
I43
tp2587
a(I866
I43
tp2588
a(I1716
I43
tp2589
a(I481
I15
tp2590
a(I1918
I43
tp2591
a(I687
I43
tp2592
a(I28
I15
tp2593
a(I302
I15
tp2594
a(I855
I15
tp2595
a(I89
I15
tp2596
a(I1410
I15
tp2597
a(I660
I15
tp2598
a(I1
I43
tp2599
a(I1487
I15
tp2600
a(I78
I43
tp2601
a(I1845
I15
tp2602
a(I1957
I43
tp2603
a(I2160
I15
tp2604
a(I1632
I15
tp2605
a(I1661
I43
tp2606
a(I2066
I15
tp2607
a(I2143
I15
tp2608
a(I1253
I43
tp2609
a(I1343
I15
tp2610
a(I1403
I43
tp2611
a(I2028
I43
tp2612
a(I999
I43
tp2613
a(I1208
I43
tp2614
a(I1761
I43
tp2615
a(I804
I43
tp2616
a(I145
I15
tp2617
a(I1582
I43
tp2618
a(I419
I15
tp2619
a(I972
I15
tp2620
a(I222
I15
tp2621
a(I519
I15
tp2622
a(I777
I15
tp2623
a(I134
I43
tp2624
a(I580
I15
tp2625
a(I1133
I15
tp2626
a(I2210
I43
tp2627
a(I195
I43
tp2628
a(I1962
I15
tp2629
a(I2150
I43
tp2630
a(I553
I43
tp2631
a(I2199
I15
tp2632
a(I1943
I43
tp2633
a(I2260
I15
tp2634
a(I1617
I43
tp2635
a(I1970
I43
tp2636
a(I1520
I43
tp2637
a(I1421
I15
tp2638
a(I1692
I43
tp2639
a(I1894
I43
tp2640
a(I663
I43
tp2641
a(I1188
I15
tp2642
a(I278
I15
tp2643
a(I1699
I43
tp2644
a(I724
I43
tp2645
a(I65
I15
tp2646
a(I339
I15
tp2647
a(I892
I15
tp2648
a(I910
I15
tp2649
a(I1463
I15
tp2650
a(I697
I15
tp2651
a(I54
I43
tp2652
a(I1524
I15
tp2653
a(I1821
I15
tp2654
a(I115
I43
tp2655
a(I1882
I15
tp2656
a(I1482
I15
tp2657
a(I1497
I43
tp2658
a(I2119
I15
tp2659
a(I69
I43
tp2660
a(I1148
I15
tp2661
a(I1559
I43
tp2662
a(I1184
I43
tp2663
a(I2153
I43
tp2664
a(I2120
I15
tp2665
a(I780
I43
tp2666
a(I1558
I43
tp2667
a(I395
I15
tp2668
a(I198
I15
tp2669
a(I1619
I43
tp2670
a(I456
I15
tp2671
a(I1009
I15
tp2672
a(I1357
I15
tp2673
a(I3
I15
tp2674
a(I556
I15
tp2675
a(I830
I15
tp2676
a(I171
I43
tp2677
a(I617
I15
tp2678
a(I1938
I15
tp2679
a(I1058
I43
tp2680
a(I232
I43
tp2681
a(I529
I43
tp2682
a(I2015
I15
tp2683
a(I2068
I43
tp2684
a(I606
I43
tp2685
a(I399
I43
tp2686
a(I2236
I15
tp2687
a(I1613
I43
tp2688
a(I1013
I43
tp2689
a(I2110
I43
tp2690
a(I1675
I43
tp2691
a(I700
I43
tp2692
a(I1135
I43
tp2693
a(I315
I15
tp2694
a(I1736
I43
tp2695
a(I118
I15
tp2696
a(I376
I15
tp2697
a(I673
I15
tp2698
a(I947
I15
tp2699
a(I1500
I15
tp2700
a(I613
I15
tp2701
a(I750
I15
tp2702
a(I91
I43
tp2703
a(I1305
I15
tp2704
a(I1858
I15
tp2705
a(I2094
I15
tp2706
a(I920
I43
tp2707
a(I1473
I43
tp2708
a(I1679
I15
tp2709
a(I45
I43
tp2710
a(I1294
I43
tp2711
a(I2156
I15
tp2712
a(I505
I43
tp2713
a(I106
I43
tp2714
a(I2129
I43
tp2715
a(I1548
I15
tp2716
a(I1621
I15
tp2717
a(I1595
I43
tp2718
a(I432
I15
tp2719
a(I235
I15
tp2720
a(I1656
I43
tp2721
a(I1213
I43
tp2722
a(I806
I15
tp2723
a(I1108
I15
tp2724
a(I40
I15
tp2725
a(I593
I15
tp2726
a(I867
I15
tp2727
a(I208
I43
tp2728
a(I1661
I15
tp2729
a(I1438
I15
tp2730
a(I1991
I15
tp2731
a(I1225
I15
tp2732
a(I582
I43
tp2733
a(I1796
I15
tp2734
a(I1411
I43
tp2735
a(I436
I43
tp2736
a(I989
I43
tp2737
a(I2025
I43
tp2738
a(I794
I43
tp2739
a(I2039
I43
tp2740
a(I1274
I43
tp2741
a(I1712
I43
tp2742
a(I1969
I43
tp2743
a(I352
I15
tp2744
a(I923
I15
tp2745
a(I726
I15
tp2746
a(I984
I15
tp2747
a(I1281
I15
tp2748
a(I1892
I43
tp2749
a(I531
I15
tp2750
a(I896
I43
tp2751
a(I1358
I15
tp2752
a(I1911
I15
tp2753
a(I1145
I15
tp2754
a(I1526
I43
tp2755
a(I1716
I15
tp2756
a(I481
I43
tp2757
a(I82
I43
tp2758
a(I1331
I43
tp2759
a(I302
I43
tp2760
a(I927
I43
tp2761
a(I1689
I43
tp2762
a(I2198
I43
tp2763
a(I1285
I43
tp2764
a(I1263
I15
tp2765
a(I1632
I43
tp2766
a(I485
I15
tp2767
a(I16
I15
tp2768
a(I843
I15
tp2769
a(I1414
I15
tp2770
a(I1857
I43
tp2771
a(I648
I15
tp2772
a(I1201
I15
tp2773
a(I1475
I15
tp2774
a(I2028
I15
tp2775
a(I1278
I15
tp2776
a(I619
I43
tp2777
a(I412
I43
tp2778
a(I1833
I15
tp2779
a(I1448
I43
tp2780
a(I1173
I43
tp2781
a(I770
I43
tp2782
a(I419
I43
tp2783
a(I1822
I43
tp2784
a(I847
I43
tp2785
a(I777
I43
tp2786
a(I1205
I43
tp2787
a(I2134
I15
tp2788
a(I2055
I15
tp2789
a(I149
I15
tp2790
a(I960
I15
tp2791
a(I2198
I15
tp2792
a(I763
I15
tp2793
a(I1334
I15
tp2794
a(I568
I15
tp2795
a(I1121
I15
tp2796
a(I1395
I15
tp2797
a(I1692
I15
tp2798
a(I1966
I15
tp2799
a(I1307
I43
tp2800
a(I1753
I15
tp2801
a(I278
I43
tp2802
a(I903
I43
tp2803
a(I1368
I43
tp2804
a(I1665
I43
tp2805
a(I339
I43
tp2806
a(I964
I43
tp2807
a(I1517
I43
tp2808
a(I1742
I43
tp2809
a(I1402
I15
tp2810
a(I697
I43
tp2811
a(I1322
I43
tp2812
a(I293
I43
tp2813
a(I461
I15
tp2814
a(I2251
I15
tp2815
a(I1731
I43
tp2816
a(I266
I15
tp2817
a(I2191
I43
tp2818
a(I69
I15
tp2819
a(I880
I15
tp2820
a(I1191
I43
tp2821
a(I1451
I15
tp2822
a(I1254
I15
tp2823
a(I1512
I15
tp2824
a(I1639
I15
tp2825
a(I1059
I15
tp2826
a(I1424
I43
tp2827
a(I1886
I15
tp2828
a(I395
I43
tp2829
a(I1798
I43
tp2830
a(I823
I43
tp2831
a(I456
I43
tp2832
a(I1009
I43
tp2833
a(I1859
I43
tp2834
a(I884
I43
tp2835
a(I1181
I43
tp2836
a(I830
I43
tp2837
a(I1242
I43
tp2838
a(I1252
I43
tp2839
a(I213
I43
tp2840
a(I381
I15
tp2841
a(I399
I15
tp2842
a(I186
I15
tp2843
a(I1013
I15
tp2844
a(I544
I15
tp2845
a(I1036
I43
tp2846
a(I1813
I15
tp2847
a(I1942
I15
tp2848
a(I1164
I15
tp2849
a(I1176
I15
tp2850
a(I1729
I15
tp2851
a(I2003
I15
tp2852
a(I1344
I43
tp2853
a(I1301
I15
tp2854
a(I1550
I15
tp2855
a(I315
I43
tp2856
a(I940
I43
tp2857
a(I1718
I43
tp2858
a(I1610
I43
tp2859
a(I376
I43
tp2860
a(I673
I43
tp2861
a(I1298
I43
tp2862
a(I1779
I43
tp2863
a(I269
I43
tp2864
a(I750
I43
tp2865
a(I1375
I43
tp2866
a(I330
I43
tp2867
a(I1733
I43
tp2868
a(I498
I15
tp2869
a(I1330
I43
tp2870
a(I45
I15
tp2871
a(I319
I15
tp2872
a(I2228
I43
tp2873
a(I106
I15
tp2874
a(I1778
I15
tp2875
a(I677
I15
tp2876
a(I1488
I15
tp2877
a(I2147
I15
tp2878
a(I1035
I15
tp2879
a(I1862
I15
tp2880
a(I1096
I15
tp2881
a(I1649
I15
tp2882
a(I1667
I15
tp2883
a(I432
I43
tp2884
a(I1835
I43
tp2885
a(I860
I43
tp2886
a(I1407
I43
tp2887
a(I806
I43
tp2888
a(I1896
I43
tp2889
a(I1218
I43
tp2890
a(I867
I43
tp2891
a(I189
I43
tp2892
a(I1039
I43
tp2893
a(I1225
I43
tp2894
a(I250
I43
tp2895
a(I1653
I43
tp2896
a(I162
I15
tp2897
a(I436
I15
tp2898
a(I989
I15
tp2899
a(I239
I15
tp2900
a(I1319
I15
tp2901
a(I794
I15
tp2902
a(I409
I43
tp2903
a(I1152
I15
tp2904
a(I1979
I15
tp2905
a(I1765
I43
tp2906
a(I1025
I15
tp2907
a(I2040
I15
tp2908
a(I1587
I15
tp2909
a(I352
I43
tp2910
a(I1755
I43
tp2911
a(I726
I43
tp2912
a(I1351
I43
tp2913
a(I1560
I43
tp2914
a(I1485
I43
tp2915
a(I306
I43
tp2916
a(I531
I43
tp2917
a(I1156
I43
tp2918
a(I1709
I43
tp2919
a(I383
I43
tp2920
a(I1145
I43
tp2921
a(I1770
I43
tp2922
a(I295
I15
tp2923
a(I2204
I43
tp2924
a(I741
I43
tp2925
a(I82
I15
tp2926
a(I1429
I43
tp2927
a(I356
I15
tp2928
a(I653
I15
tp2929
a(I927
I15
tp2930
a(I1951
I15
tp2931
a(I714
I15
tp2932
a(I1285
I15
tp2933
a(I1072
I15
tp2934
a(I1290
I43
tp2935
a(I2214
I15
tp2936
a(I1704
I15
tp2937
a(I1738
I15
tp2938
a(I1872
I43
tp2939
a(I843
I43
tp2940
a(I1271
I43
tp2941
a(I648
I43
tp2942
a(I1201
I43
tp2943
a(I226
I43
tp2944
a(I1076
I43
tp2945
a(I1629
I43
tp2946
a(I1278
I43
tp2947
a(I47
I43
tp2948
a(I412
I15
tp2949
a(I215
I15
tp2950
a(I473
I15
tp2951
a(I770
I15
tp2952
a(I20
I15
tp2953
a(I385
I43
tp2954
a(I847
I15
tp2955
a(I634
I15
tp2956
a(I1205
I15
tp2957
a(I2096
I15
tp2958
a(I2016
I15
tp2959
a(I2085
I43
tp2960
a(I1563
I15
tp2961
a(I2233
I15
tp2962
a(I1624
I15
tp2963
a(I1535
I15
tp2964
a(I2058
I15
tp2965
a(I1536
I43
tp2966
a(I763
I43
tp2967
a(I1388
I43
tp2968
a(I359
I43
tp2969
a(I568
I43
tp2970
a(I1121
I43
tp2971
a(I1746
I43
tp2972
a(I164
I43
tp2973
a(I717
I43
tp2974
a(I1966
I43
tp2975
a(I1567
I43
tp2976
a(I332
I15
tp2977
a(I522
I43
tp2978
a(I903
I15
tp2979
a(I137
I15
tp2980
a(I690
I15
tp2981
a(I964
I15
tp2982
a(I1445
I43
tp2983
a(I767
I15
tp2984
a(I1322
I15
tp2985
a(I2086
I43
tp2986
a(I937
I43
tp2987
a(I1680
I15
tp2988
a(I1111
I43
tp2989
a(I2173
I15
tp2990
a(I2191
I15
tp2991
a(I880
I43
tp2992
a(I589
I15
tp2993
a(I1052
I43
tp2994
a(I1247
I43
tp2995
a(I1254
I43
tp2996
a(I23
I43
tp2997
a(I1059
I43
tp2998
a(I84
I43
tp2999
a(I637
I43
tp3000
a(I252
I15
tp3001
a(I270
I15
tp3002
a(I823
I15
tp3003
a(I1594
I43
tp3004
a(I57
I15
tp3005
a(I610
I15
tp3006
a(I884
I15
tp3007
a(I1181
I15
tp3008
a(I1852
I43
tp3009
a(I499
I43
tp3010
a(I2061
I43
tp3011
a(I1242
I15
tp3012
a(I1418
I15
tp3013
a(I857
I43
tp3014
a(I2122
I43
tp3015
a(I1600
I15
tp3016
a(I453
I43
tp3017
a(I2249
I15
tp3018
a(I1084
I15
tp3019
a(I544
I43
tp3020
a(I2056
I15
tp3021
a(I140
I43
tp3022
a(I1942
I43
tp3023
a(I1543
I43
tp3024
a(I754
I43
tp3025
a(I2003
I43
tp3026
a(I1604
I43
tp3027
a(I369
I15
tp3028
a(I387
I15
tp3029
a(I940
I15
tp3030
a(I2225
I43
tp3031
a(I190
I15
tp3032
a(I743
I15
tp3033
a(I1001
I15
tp3034
a(I1298
I15
tp3035
a(I1250
I43
tp3036
a(I548
I15
tp3037
a(I913
I43
tp3038
a(I1375
I15
tp3039
a(I1549
I43
tp3040
a(I990
I43
tp3041
a(I1930
I15
tp3042
a(I1733
I15
tp3043
a(I373
I43
tp3044
a(I2228
I15
tp3045
a(I2201
I43
tp3046
a(I1035
I43
tp3047
a(I60
I43
tp3048
a(I1071
I43
tp3049
a(I1096
I43
tp3050
a(I1649
I43
tp3051
a(I502
I15
tp3052
a(I33
I15
tp3053
a(I307
I15
tp3054
a(I860
I15
tp3055
a(I110
I15
tp3056
a(I475
I43
tp3057
a(I665
I15
tp3058
a(I1218
I15
tp3059
a(I280
I43
tp3060
a(I833
I43
tp3061
a(I2098
I43
tp3062
a(I1039
I15
tp3063
a(I429
I43
tp3064
a(I654
I43
tp3065
a(I2175
I43
tp3066
a(I1653
I15
tp3067
a(I490
I43
tp3068
a(I1360
I15
tp3069
a(I2211
I15
tp3070
a(I2148
I15
tp3071
a(I1827
I43
tp3072
a(I1979
I43
tp3073
a(I1580
I43
tp3074
a(I551
I43
tp3075
a(I2040
I43
tp3076
a(I1405
I43
tp3077
a(I166
I15
tp3078
a(I1044
I15
tp3079
a(I612
I43
tp3080
a(I977
I15
tp3081
a(I227
I15
tp3082
a(I524
I15
tp3083
a(I1597
I15
tp3084
a(I798
I15
tp3085
a(I1351
I15
tp3086
a(I585
I15
tp3087
a(I966
I43
tp3088
a(I1156
I15
tp3089
a(I1709
I15
tp3090
a(I771
I43
tp3091
a(I349
I43
tp3092
a(I1770
I15
tp3093
a(I2204
I15
tp3094
a(I1385
I43
tp3095
a(I154
I43
tp3096
a(I1210
I43
tp3097
a(I2177
I43
tp3098
a(I1788
I15
tp3099
a(I2254
I43
tp3100
a(I1658
I15
tp3101
a(I1072
I43
tp3102
a(I1137
I43
tp3103
a(I283
I15
tp3104
a(I86
I15
tp3105
a(I344
I15
tp3106
a(I641
I15
tp3107
a(I915
I15
tp3108
a(I256
I43
tp3109
a(I718
I15
tp3110
a(I1271
I15
tp3111
a(I1529
I15
tp3112
a(I886
I43
tp3113
a(I2151
I43
tp3114
a(I1076
I15
tp3115
a(I1629
I15
tp3116
a(I466
I43
tp3117
a(I691
I43
tp3118
a(I287
I43
tp3119
a(I2124
I15
tp3120
a(I1049
I43
tp3121
a(I645
I43
tp3122
a(I2153
I15
tp3123
a(I1199
I15
tp3124
a(I1556
I43
tp3125
a(I588
I43
tp3126
a(I203
I15
tp3127
a(I774
I15
tp3128
a(I8
I15
tp3129
a(I561
I15
tp3130
a(I835
I15
tp3131
a(I1388
I15
tp3132
a(I638
I15
tp3133
a(I1003
I43
tp3134
a(I1940
I43
tp3135
a(I1193
I15
tp3136
a(I1746
I15
tp3137
a(I808
I43
tp3138
a(I1330
I15
tp3139
a(I130
I43
tp3140
a(I1567
I15
tp3141
a(I2241
I15
tp3142
a(I1182
I43
tp3143
a(I207
I43
tp3144
a(I137
I43
tp3145
a(I2062
I15
tp3146
a(I2083
I43
tp3147
a(I565
I43
tp3148
a(I2230
I43
tp3149
a(I1509
I43
tp3150
a(I1533
I15
tp3151
a(I320
I15
tp3152
a(I2245
I43
tp3153
a(I123
I15
tp3154
a(I694
I15
tp3155
a(I952
I15
tp3156
a(I1505
I15
tp3157
a(I755
I15
tp3158
a(I1052
I15
tp3159
a(I1326
I15
tp3160
a(I667
I43
tp3161
a(I1113
I15
tp3162
a(I263
I43
tp3163
a(I728
I43
tp3164
a(I1025
I43
tp3165
a(I324
I43
tp3166
a(I877
I43
tp3167
a(I1102
I43
tp3168
a(I1338
I15
tp3169
a(I57
I43
tp3170
a(I682
I43
tp3171
a(I1663
I43
tp3172
a(I1418
I43
tp3173
a(I453
I15
tp3174
a(I240
I15
tp3175
a(I1383
I43
tp3176
a(I811
I15
tp3177
a(I614
I15
tp3178
a(I872
I15
tp3179
a(I1169
I15
tp3180
a(I1767
I15
tp3181
a(I1443
I15
tp3182
a(I784
I43
tp3183
a(I2145
I43
tp3184
a(I1246
I15
tp3185
a(I1543
I15
tp3186
a(I1801
I15
tp3187
a(I1158
I43
tp3188
a(I183
I43
tp3189
a(I1604
I15
tp3190
a(I369
I43
tp3191
a(I1219
I43
tp3192
a(I244
I43
tp3193
a(I541
I43
tp3194
a(I190
I43
tp3195
a(I2099
I15
tp3196
a(I1577
I43
tp3197
a(I602
I43
tp3198
a(I1188
I43
tp3199
a(I2072
I43
tp3200
a(I1741
I43
tp3201
a(I1636
I15
tp3202
a(I2221
I43
tp3203
a(I373
I15
tp3204
a(I928
I15
tp3205
a(I731
I15
tp3206
a(I1302
I15
tp3207
a(I1356
I15
tp3208
a(I536
I15
tp3209
a(I1089
I15
tp3210
a(I1363
I15
tp3211
a(I704
I43
tp3212
a(I1493
I15
tp3213
a(I1934
I15
tp3214
a(I300
I43
tp3215
a(I1721
I15
tp3216
a(I1078
I43
tp3217
a(I1546
I43
tp3218
a(I33
I43
tp3219
a(I658
I43
tp3220
a(I1139
I43
tp3221
a(I2216
I15
tp3222
a(I110
I43
tp3223
a(I735
I43
tp3224
a(I1093
I43
tp3225
a(I1522
I43
tp3226
a(I429
I15
tp3227
a(I2141
I43
tp3228
a(I490
I15
tp3229
a(I1714
I15
tp3230
a(I37
I15
tp3231
a(I848
I15
tp3232
a(I1419
I15
tp3233
a(I2123
I43
tp3234
a(I1222
I15
tp3235
a(I1650
I43
tp3236
a(I1480
I15
tp3237
a(I1340
I43
tp3238
a(I1027
I15
tp3239
a(I1580
I15
tp3240
a(I1854
I15
tp3241
a(I1195
I43
tp3242
a(I220
I43
tp3243
a(I1343
I43
tp3244
a(I166
I43
tp3245
a(I2075
I15
tp3246
a(I1256
I43
tp3247
a(I1553
I43
tp3248
a(I578
I43
tp3249
a(I227
I43
tp3250
a(I2136
I15
tp3251
a(I1791
I15
tp3252
a(I1630
I43
tp3253
a(I1423
I43
tp3254
a(I2048
I43
tp3255
a(I585
I43
tp3256
a(I1789
I43
tp3257
a(I2037
I43
tp3258
a(I349
I15
tp3259
a(I2258
I43
tp3260
a(I1511
I15
tp3261
a(I154
I15
tp3262
a(I2079
I43
tp3263
a(I2131
I15
tp3264
a(I981
I15
tp3265
a(I512
I15
tp3266
a(I1339
I15
tp3267
a(I745
I15
tp3268
a(I1142
I15
tp3269
a(I1400
I15
tp3270
a(I1697
I15
tp3271
a(I1971
I15
tp3272
a(I2149
I15
tp3273
a(I1774
I15
tp3274
a(I1115
I43
tp3275
a(I2192
I15
tp3276
a(I86
I43
tp3277
a(I711
I43
tp3278
a(I1944
I43
tp3279
a(I1421
I43
tp3280
a(I915
I43
tp3281
a(I516
I43
tp3282
a(I1069
I43
tp3283
a(I1529
I43
tp3284
a(I1130
I43
tp3285
a(I101
I43
tp3286
a(I466
I15
tp3287
a(I13
I15
tp3288
a(I287
I15
tp3289
a(I74
I15
tp3290
a(I645
I15
tp3291
a(I1456
I15
tp3292
a(I1259
I15
tp3293
a(I1830
I15
tp3294
a(I1064
I15
tp3295
a(I1617
I15
tp3296
a(I1674
I15
tp3297
a(I1232
I43
tp3298
a(I203
I43
tp3299
a(I2112
I15
tp3300
a(I1811
I15
tp3301
a(I1606
I43
tp3302
a(I631
I43
tp3303
a(I8
I43
tp3304
a(I561
I43
tp3305
a(I1460
I43
tp3306
a(I2013
I43
tp3307
a(I638
I43
tp3308
a(I454
I43
tp3309
a(I1818
I43
tp3310
a(I789
I43
tp3311
a(I130
I15
tp3312
a(I2055
I43
tp3313
a(I404
I15
tp3314
a(I957
I15
tp3315
a(I207
I15
tp3316
a(I2116
I43
tp3317
a(I1018
I15
tp3318
a(I565
I15
tp3319
a(I1376
I15
tp3320
a(I1947
I15
tp3321
a(I1750
I15
tp3322
a(I2008
I15
tp3323
a(I1471
I15
tp3324
a(I1196
I43
tp3325
a(I1555
I15
tp3326
a(I1920
I43
tp3327
a(I2245
I15
tp3328
a(I123
I43
tp3329
a(I748
I43
tp3330
a(I952
I43
tp3331
a(I1505
I43
tp3332
a(I1106
I43
tp3333
a(I77
I43
tp3334
a(I1326
I43
tp3335
a(I1951
I43
tp3336
a(I906
I43
tp3337
a(I263
I15
tp3338
a(I50
I15
tp3339
a(I324
I15
tp3340
a(I613
I43
tp3341
a(I127
I15
tp3342
a(I682
I15
tp3343
a(I297
I43
tp3344
a(I1040
I15
tp3345
a(I1047
I43
tp3346
a(I1867
I15
tp3347
a(I1672
I15
tp3348
a(I240
I43
tp3349
a(I2165
I15
tp3350
a(I1643
I43
tp3351
a(I1436
I43
tp3352
a(I2171
I15
tp3353
a(I614
I43
tp3354
a(I407
I43
tp3355
a(I1794
I43
tp3356
a(I1443
I43
tp3357
a(I468
I43
tp3358
a(I1021
I43
tp3359
a(I1871
I43
tp3360
a(I1801
I43
tp3361
a(I826
I43
tp3362
a(I183
I15
tp3363
a(I2092
I43
tp3364
a(I441
I15
tp3365
a(I994
I15
tp3366
a(I244
I15
tp3367
a(I541
I15
tp3368
a(I815
I15
tp3369
a(I1876
I43
tp3370
a(I602
I15
tp3371
a(I586
I15
tp3372
a(I217
I43
tp3373
a(I1984
I15
tp3374
a(I1787
I15
tp3375
a(I2221
I15
tp3376
a(I1276
I15
tp3377
a(I1592
I15
tp3378
a(I928
I43
tp3379
a(I2248
I15
tp3380
a(I1302
I43
tp3381
a(I1927
I43
tp3382
a(I114
I43
tp3383
a(I1363
I43
tp3384
a(I1988
I43
tp3385
a(I959
I43
tp3386
a(I300
I15
tp3387
a(I1721
I43
tp3388
a(I103
I15
tp3389
a(I361
I15
tp3390
a(I658
I15
tp3391
a(I1186
I43
tp3392
a(I932
I15
tp3393
a(I273
I43
tp3394
a(I735
I15
tp3395
a(I350
I43
tp3396
a(I1634
I15
tp3397
a(I1093
I15
tp3398
a(I1904
I15
tp3399
a(I2141
I15
tp3400
a(I2238
I43
tp3401
a(I2205
I15
tp3402
a(I1419
I43
tp3403
a(I444
I43
tp3404
a(I1263
I43
tp3405
a(I1847
I43
tp3406
a(I1480
I43
tp3407
a(I2033
I43
tp3408
a(I802
I43
tp3409
a(I1908
I43
tp3410
a(I417
I15
tp3411
a(I1854
I43
tp3412
a(I879
I43
tp3413
a(I220
I15
tp3414
a(I494
I15
tp3415
a(I791
I15
tp3416
a(I462
I15
tp3417
a(I25
I15
tp3418
a(I578
I15
tp3419
a(I852
I15
tp3420
a(I193
I43
tp3421
a(I1423
I15
tp3422
a(I1146
I15
tp3423
a(I1175
I15
tp3424
a(I14
I43
tp3425
a(I1957
I15
tp3426
a(I2037
I15
tp3427
a(I1568
I15
tp3428
a(I2258
I15
tp3429
a(I1932
I43
tp3430
a(I1621
I43
tp3431
a(I2079
I15
tp3432
a(I1339
I43
tp3433
a(I1964
I43
tp3434
a(I935
I43
tp3435
a(I1400
I43
tp3436
a(I1341
I43
tp3437
a(I1236
I15
tp3438
a(I996
I43
tp3439
a(I337
I15
tp3440
a(I1774
I43
tp3441
a(I908
I15
tp3442
a(I1789
I15
tp3443
a(I158
I15
tp3444
a(I711
I15
tp3445
a(I969
I15
tp3446
a(I326
I43
tp3447
a(I516
I15
tp3448
a(I1069
I15
tp3449
a(I2165
I43
tp3450
a(I131
I43
tp3451
a(I1807
I15
tp3452
a(I1130
I15
tp3453
a(I2118
I43
tp3454
a(I745
I43
tp3455
a(I1402
I43
tp3456
a(I2196
I15
tp3457
a(I1594
I15
tp3458
a(I1456
I43
tp3459
a(I1663
I15
tp3460
a(I1884
I43
tp3461
a(I1830
I43
tp3462
a(I855
I43
tp3463
a(I1974
I43
tp3464
a(I470
I15
tp3465
a(I1891
I43
tp3466
a(I660
I43
tp3467
a(I1
I15
tp3468
a(I275
I15
tp3469
a(I828
I15
tp3470
a(I78
I15
tp3471
a(I631
I15
tp3472
a(I889
I15
tp3473
a(I246
I43
tp3474
a(I1460
I15
tp3475
a(I2013
I15
tp3476
a(I51
I43
tp3477
a(I1818
I15
tp3478
a(I1433
I43
tp3479
a(I1634
I43
tp3480
a(I5
I43
tp3481
a(I2116
I15
tp3482
a(I1391
I15
tp3483
a(I1376
I43
tp3484
a(I2089
I43
tp3485
a(I972
I43
tp3486
a(I1750
I43
tp3487
a(I1809
I15
tp3488
a(I134
I15
tp3489
a(I1555
I43
tp3490
a(I392
I15
tp3491
a(I945
I15
tp3492
a(I195
I15
tp3493
a(I748
I15
tp3494
a(I2257
I43
tp3495
a(I1022
I15
tp3496
a(I363
I43
tp3497
a(I553
I15
tp3498
a(I1106
I15
tp3499
a(I2199
I43
tp3500
a(I168
I43
tp3501
a(I721
I43
tp3502
a(I1612
I15
tp3503
a(I2260
I43
tp3504
a(I1780
I43
tp3505
a(I542
I43
tp3506
a(I1749
I15
tp3507
a(I949
I43
tp3508
a(I1469
I15
tp3509
a(I1867
I43
tp3510
a(I892
I43
tp3511
a(I507
I15
tp3512
a(I1672
I43
tp3513
a(I54
I15
tp3514
a(I312
I15
tp3515
a(I865
I15
tp3516
a(I115
I15
tp3517
a(I1436
I15
tp3518
a(I686
I15
tp3519
a(I27
I43
tp3520
a(I1314
I15
tp3521
a(I1497
I15
tp3522
a(I1794
I15
tp3523
a(I88
I43
tp3524
a(I1409
I43
tp3525
a(I1871
I15
tp3526
a(I237
I43
tp3527
a(I1486
I43
tp3528
a(I1530
I15
tp3529
a(I2092
I15
tp3530
a(I441
I43
tp3531
a(I42
I43
tp3532
a(I1599
I43
tp3533
a(I2065
I43
tp3534
a(I2142
I43
tp3535
a(I1341
I15
tp3536
a(I1787
I43
tp3537
a(I1319
I43
tp3538
a(I171
I15
tp3539
a(I1592
I43
tp3540
a(I998
I15
tp3541
a(I232
I15
tp3542
a(I529
I15
tp3543
a(I803
I15
tp3544
a(I144
I43
tp3545
a(I2081
I43
tp3546
a(I606
I15
tp3547
a(I1927
I15
tp3548
a(I2236
I43
tp3549
a(I1161
I15
tp3550
a(I518
I43
tp3551
a(I1988
I15
tp3552
a(I2025
I15
tp3553
a(I579
I43
tp3554
a(I925
I43
tp3555
a(I2185
I43
tp3556
a(I1961
I43
tp3557
a(I986
I43
tp3558
a(I1380
I43
tp3559
a(I1677
I43
tp3560
a(I1572
I15
tp3561
a(I2158
I43
tp3562
a(I1904
I43
tp3563
a(I288
I15
tp3564
a(I995
I15
tp3565
a(I91
I15
tp3566
a(I662
I15
tp3567
a(I1292
I15
tp3568
a(I920
I15
tp3569
a(I1473
I15
tp3570
a(I723
I15
tp3571
a(I64
I43
tp3572
a(I1429
I15
tp3573
a(I1294
I15
tp3574
a(I1847
I15
tp3575
a(I1081
I15
tp3576
a(I1462
I43
tp3577
a(I1738
I43
tp3578
a(I1908
I15
tp3579
a(I417
I43
tp3580
a(I18
I43
tp3581
a(I1523
I43
tp3582
a(I2129
I15
tp3583
a(I494
I43
tp3584
a(I95
I43
tp3585
a(I1881
I43
tp3586
a(I2233
I43
tp3587
a(I1477
I43
tp3588
a(I1967
I15
tp3589
a(I1458
I43
tp3590
a(I1906
I15
tp3591
a(I1568
I43
tp3592
a(I421
I15
tp3593
a(I208
I15
tp3594
a(I779
I15
tp3595
a(I582
I15
tp3596
a(I840
I15
tp3597
a(I1393
I15
tp3598
a(I1411
I15
tp3599
a(I1964
I15
tp3600
a(I1214
I15
tp3601
a(I555
I43
tp3602
a(I1535
I43
tp3603
a(I2080
I43
tp3604
a(I616
I43
tp3605
a(I1937
I43
tp3606
a(I962
I43
tp3607
a(I2160
I43
tp3608
a(I1727
I15
tp3609
a(I2014
I43
tp3610
a(I783
I43
tp3611
a(I969
I43
tp3612
a(I1397
I43
tp3613
a(I1447
I15
tp3614
a(I1893
I15
tp3615
a(I341
I15
tp3616
a(I1301
I43
tp3617
a(I896
I15
tp3618
a(I1164
I43
tp3619
a(I699
I15
tp3620
a(I1893
I43
tp3621
a(I1526
I15
tp3622
a(I760
I15
tp3623
a(I1057
I15
tp3624
a(I1331
I15
tp3625
a(I1884
I15
tp3626
a(I1698
I43
tp3627
a(I1134
I15
tp3628
a(I1499
I43
tp3629
a(I1371
I15
tp3630
a(I470
I43
tp3631
a(I71
I43
tp3632
a(I1304
I43
tp3633
a(I589
I43
tp3634
a(I275
I43
tp3635
a(I900
I43
tp3636
a(I1453
I43
tp3637
a(I1678
I43
tp3638
a(I889
I43
tp3639
a(I1514
I43
tp3640
a(I2155
I43
tp3641
a(I485
I43
tp3642
a(I397
I15
tp3643
a(I2161
I43
tp3644
a(I458
I15
tp3645
a(I5
I15
tp3646
a(I816
I15
tp3647
a(I619
I15
tp3648
a(I1190
I15
tp3649
a(I1448
I15
tp3650
a(I2001
I15
tp3651
a(I1251
I15
tp3652
a(I592
I43
tp3653
a(I1822
I15
tp3654
a(I1084
I43
tp3655
a(I1609
I15
tp3656
a(I1990
I43
tp3657
a(I1015
I43
tp3658
a(I392
I43
tp3659
a(I945
I43
tp3660
a(I1795
I43
tp3661
a(I820
I43
tp3662
a(I1373
I43
tp3663
a(I1022
I43
tp3664
a(I562
I15
tp3665
a(I1178
I43
tp3666
a(I1220
I43
tp3667
a(I149
I43
tp3668
a(I317
I15
tp3669
a(I2120
I43
tp3670
a(I2103
I15
tp3671
a(I378
I15
tp3672
a(I949
I15
tp3673
a(I2224
I15
tp3674
a(I736
I15
tp3675
a(I1307
I15
tp3676
a(I1110
I15
tp3677
a(I1368
I15
tp3678
a(I639
I15
tp3679
a(I2174
I15
tp3680
a(I1939
I15
tp3681
a(I1280
I43
tp3682
a(I1742
I15
tp3683
a(I507
I43
tp3684
a(I108
I43
tp3685
a(I1910
I43
tp3686
a(I312
I43
tp3687
a(I865
I43
tp3688
a(I1490
I43
tp3689
a(I1715
I43
tp3690
a(I461
I43
tp3691
a(I686
I43
tp3692
a(I1311
I43
tp3693
a(I266
I43
tp3694
a(I2235
I15
tp3695
a(I1669
I43
tp3696
a(I434
I15
tp3697
a(I237
I15
tp3698
a(I511
I15
tp3699
a(I42
I15
tp3700
a(I2214
I43
tp3701
a(I869
I15
tp3702
a(I1424
I15
tp3703
a(I1239
I43
tp3704
a(I1227
I15
tp3705
a(I1798
I15
tp3706
a(I1032
I15
tp3707
a(I1585
I15
tp3708
a(I1859
I15
tp3709
a(I1662
I15
tp3710
a(I2027
I43
tp3711
a(I796
I43
tp3712
a(I998
I43
tp3713
a(I1832
I43
tp3714
a(I1689
I15
tp3715
a(I1154
I43
tp3716
a(I803
I43
tp3717
a(I381
I43
tp3718
a(I1231
I43
tp3719
a(I1161
I43
tp3720
a(I186
I43
tp3721
a(I1044
I43
tp3722
a(I1996
I15
tp3723
a(I1589
I43
tp3724
a(I354
I15
tp3725
a(I925
I15
tp3726
a(I175
I15
tp3727
a(I986
I15
tp3728
a(I533
I15
tp3729
a(I1344
I15
tp3730
a(I1147
I15
tp3731
a(I1718
I15
tp3732
a(I1212
I15
tp3733
a(I1976
I15
tp3734
a(I1779
I15
tp3735
a(I288
I43
tp3736
a(I2213
I15
tp3737
a(I1471
I43
tp3738
a(I1691
I43
tp3739
a(I662
I43
tp3740
a(I1287
I43
tp3741
a(I1752
I43
tp3742
a(I498
I43
tp3743
a(I723
I43
tp3744
a(I1348
I43
tp3745
a(I1901
I43
tp3746
a(I319
I43
tp3747
a(I1081
I43
tp3748
a(I1706
I43
tp3749
a(I487
I15
tp3750
a(I677
I43
tp3751
a(I18
I15
tp3752
a(I1378
I43
tp3753
a(I292
I15
tp3754
a(I845
I15
tp3755
a(I95
I15
tp3756
a(I650
I15
tp3757
a(I1570
I15
tp3758
a(I1477
I15
tp3759
a(I1264
I15
tp3760
a(I1835
I15
tp3761
a(I1638
I15
tp3762
a(I1896
I15
tp3763
a(I1808
I43
tp3764
a(I2133
I15
tp3765
a(I779
I43
tp3766
a(I1199
I43
tp3767
a(I1207
I43
tp3768
a(I840
I43
tp3769
a(I1393
I43
tp3770
a(I162
I43
tp3771
a(I1268
I43
tp3772
a(I1565
I43
tp3773
a(I1214
I43
tp3774
a(I239
I43
tp3775
a(I1626
I43
tp3776
a(I151
I15
tp3777
a(I597
I43
tp3778
a(I962
I15
tp3779
a(I212
I15
tp3780
a(I765
I15
tp3781
a(I783
I15
tp3782
a(I1367
I15
tp3783
a(I570
I15
tp3784
a(I1397
I15
tp3785
a(I1952
I15
tp3786
a(I1755
I15
tp3787
a(I1557
I43
tp3788
a(I1560
I15
tp3789
a(I2250
I15
tp3790
a(I1728
I43
tp3791
a(I1817
I43
tp3792
a(I699
I43
tp3793
a(I1324
I43
tp3794
a(I295
I43
tp3795
a(I760
I43
tp3796
a(I1057
I43
tp3797
a(I1682
I43
tp3798
a(I1172
I15
tp3799
a(I356
I43
tp3800
a(I653
I43
tp3801
a(I1134
I43
tp3802
a(I1759
I43
tp3803
a(I268
I15
tp3804
a(I1725
I15
tp3805
a(I714
I43
tp3806
a(I71
I15
tp3807
a(I329
I15
tp3808
a(I882
I15
tp3809
a(I900
I15
tp3810
a(I1453
I15
tp3811
a(I703
I15
tp3812
a(I1703
I15
tp3813
a(I1514
I15
tp3814
a(I105
I43
tp3815
a(I1872
I15
tp3816
a(I1338
I43
tp3817
a(I1831
I43
tp3818
a(I2109
I15
tp3819
a(I2111
I43
tp3820
a(I1786
I15
tp3821
a(I816
I43
tp3822
a(I1244
I43
tp3823
a(I1190
I43
tp3824
a(I215
I43
tp3825
a(I2168
I15
tp3826
a(I1602
I43
tp3827
a(I1251
I43
tp3828
a(I20
I43
tp3829
a(I573
I43
tp3830
a(I1506
I15
tp3831
a(I188
I15
tp3832
a(I1609
I43
tp3833
a(I634
I43
tp3834
a(I1015
I15
tp3835
a(I249
I15
tp3836
a(I546
I15
tp3837
a(I820
I15
tp3838
a(I1373
I15
tp3839
a(I623
I15
tp3840
a(I2253
I43
tp3841
a(I1178
I15
tp3842
a(I793
I43
tp3843
a(I2058
I43
tp3844
a(I2144
I15
tp3845
a(I1536
I15
tp3846
a(I389
I43
tp3847
a(I2226
I15
tp3848
a(I1327
I15
tp3849
a(I736
I43
tp3850
a(I1636
I43
tp3851
a(I332
I43
tp3852
a(I1110
I43
tp3853
a(I1735
I43
tp3854
a(I690
I43
tp3855
a(I1939
I43
tp3856
a(I1540
I43
tp3857
a(I305
I15
tp3858
a(I767
I43
tp3859
a(I108
I15
tp3860
a(I382
I15
tp3861
a(I679
I15
tp3862
a(I937
I15
tp3863
a(I1490
I15
tp3864
a(I740
I15
tp3865
a(I81
I43
tp3866
a(I1311
I15
tp3867
a(I2173
I43
tp3868
a(I926
I43
tp3869
a(I2134
I43
tp3870
a(I1669
I15
tp3871
a(I309
I43
tp3872
a(I2146
I15
tp3873
a(I449
I43
tp3874
a(I1227
I43
tp3875
a(I252
I43
tp3876
a(I1655
I43
tp3877
a(I1032
I43
tp3878
a(I1585
I43
tp3879
a(I438
I15
tp3880
a(I225
I15
tp3881
a(I1662
I43
tp3882
a(I499
I15
tp3883
a(I796
I15
tp3884
a(I46
I15
tp3885
a(I411
I43
tp3886
a(I857
I15
tp3887
a(I1154
I15
tp3888
a(I472
I43
tp3889
a(I769
I43
tp3890
a(I2104
I15
tp3891
a(I1231
I15
tp3892
a(I846
I43
tp3893
a(I1466
I15
tp3894
a(I1589
I15
tp3895
a(I426
I43
tp3896
a(I1791
I43
tp3897
a(I2084
I15
tp3898
a(I1714
I43
tp3899
a(I1147
I43
tp3900
a(I1772
I43
tp3901
a(I1511
I43
tp3902
a(I743
I43
tp3903
a(I1976
I43
tp3904
a(I358
I15
tp3905
a(I548
I43
tp3906
a(I913
I15
tp3907
a(I163
I15
tp3908
a(I716
I15
tp3909
a(I990
I15
tp3910
a(I1287
I15
tp3911
a(I521
I15
tp3912
a(I902
I43
tp3913
a(I1348
I15
tp3914
a(I1901
I15
tp3915
a(I963
I43
tp3916
a(I285
I43
tp3917
a(I1706
I15
tp3918
a(I1321
I43
tp3919
a(I346
I43
tp3920
a(I1316
I43
tp3921
a(I2201
I15
tp3922
a(I1869
I43
tp3923
a(I1764
I15
tp3924
a(I2190
I43
tp3925
a(I2094
I43
tp3926
a(I1264
I43
tp3927
a(I1638
I43
tp3928
a(I475
I15
tp3929
a(I22
I15
tp3930
a(I1484
I15
tp3931
a(I280
I15
tp3932
a(I833
I15
tp3933
a(I83
I15
tp3934
a(I636
I15
tp3935
a(I597
I15
tp3936
a(I654
I15
tp3937
a(I1207
I15
tp3938
a(I1465
I15
tp3939
a(I822
I43
tp3940
a(I1674
I43
tp3941
a(I1268
I15
tp3942
a(I1565
I15
tp3943
a(I402
I43
tp3944
a(I883
I43
tp3945
a(I2148
I43
tp3946
a(I1626
I15
tp3947
a(I479
I43
tp3948
a(I2060
I15
tp3949
a(I1241
I43
tp3950
a(I837
I43
tp3951
a(I626
I43
tp3952
a(I1842
I15
tp3953
a(I1952
I43
tp3954
a(I524
I43
tp3955
a(I139
I15
tp3956
a(I966
I15
tp3957
a(I200
I15
tp3958
a(I753
I15
tp3959
a(I771
I15
tp3960
a(I1324
I15
tp3961
a(I574
I15
tp3962
a(I939
I43
tp3963
a(I1385
I15
tp3964
a(I1682
I15
tp3965
a(I1782
I15
tp3966
a(I1000
I43
tp3967
a(I1297
I43
tp3968
a(I322
I43
tp3969
a(I1759
I15
tp3970
a(I1919
I15
tp3971
a(I1374
I43
tp3972
a(I143
I43
tp3973
a(I329
I43
tp3974
a(I2254
I15
tp3975
a(I757
I43
tp3976
a(I1903
I15
tp3977
a(I2227
I43
tp3978
a(I615
I15
tp3979
a(I256
I15
tp3980
a(I2181
I43
tp3981
a(I59
I15
tp3982
a(I1829
I43
tp3983
a(I886
I15
tp3984
a(I120
I15
tp3985
a(I1441
I15
tp3986
a(I691
I15
tp3987
a(I1244
I15
tp3988
a(I1518
I15
tp3989
a(I859
I43
tp3990
a(I2124
I43
tp3991
a(I1049
I15
tp3992
a(I1602
I15
tp3993
a(I455
I43
tp3994
a(I664
I43
tp3995
a(I1217
I43
tp3996
a(I1444
I15
tp3997
a(I260
I43
tp3998
a(I813
I43
tp3999
a(I1038
I43
tp4000
a(I249
I43
tp4001
a(I874
I43
tp4002
a(I1701
I15
tp4003
a(I1724
I15
tp4004
a(I2021
I15
tp4005
a(I389
I15
tp4006
a(I176
I15
tp4007
a(I2101
I43
tp4008
a(I414
I15
tp4009
a(I1665
I15
tp4010
a(I550
I15
tp4011
a(I808
I15
tp4012
a(I1361
I15
tp4013
a(I611
I15
tp4014
a(I976
I43
tp4015
a(I1182
I15
tp4016
a(I1276
I43
tp4017
a(I1993
I15
tp4018
a(I1350
I43
tp4019
a(I375
I43
tp4020
a(I1540
I15
tp4021
a(I305
I43
tp4022
a(I2230
I15
tp4023
a(I1155
I43
tp4024
a(I180
I43
tp4025
a(I733
I43
tp4026
a(I382
I43
tp4027
a(I1769
I43
tp4028
a(I538
I43
tp4029
a(I2203
I43
tp4030
a(I2056
I43
tp4031
a(I309
I15
tp4032
a(I2218
I43
tp4033
a(I96
I15
tp4034
a(I667
I15
tp4035
a(I1494
I15
tp4036
a(I728
I15
tp4037
a(I387
I43
tp4038
a(I1299
I15
tp4039
a(I640
I43
tp4040
a(I1102
I15
tp4041
a(I1655
I15
tp4042
a(I492
I43
tp4043
a(I1913
I15
tp4044
a(I1270
I43
tp4045
a(I225
I43
tp4046
a(I850
I43
tp4047
a(I1075
I43
tp4048
a(I46
I43
tp4049
a(I671
I43
tp4050
a(I1956
I43
tp4051
a(I1029
I43
tp4052
a(I2077
I43
tp4053
a(I426
I15
tp4054
a(I229
I15
tp4055
a(I2138
I43
tp4056
a(I784
I15
tp4057
a(I1175
I43
tp4058
a(I587
I15
tp4059
a(I1158
I15
tp4060
a(I1416
I15
tp4061
a(I1623
I15
tp4062
a(I1219
I15
tp4063
a(I1772
I15
tp4064
a(I2046
I15
tp4065
a(I1387
I43
tp4066
a(I156
I43
tp4067
a(I1577
I15
tp4068
a(I358
I43
tp4069
a(I1192
I43
tp4070
a(I1745
I43
tp4071
a(I514
I43
tp4072
a(I163
I43
tp4073
a(I2072
I15
tp4074
a(I2211
I43
tp4075
a(I1566
I43
tp4076
a(I591
I43
tp4077
a(I2240
I43
tp4078
a(I521
I43
tp4079
a(I1047
I15
tp4080
a(I1973
I43
tp4081
a(I285
I15
tp4082
a(I2194
I43
tp4083
a(I346
I15
tp4084
a(I917
I15
tp4085
a(I704
I15
tp4086
a(I1531
I15
tp4087
a(I1078
I15
tp4088
a(I1404
I15
tp4089
a(I1336
I15
tp4090
a(I1889
I15
tp4091
a(I1139
I15
tp4092
a(I1805
I15
tp4093
a(I1710
I15
tp4094
a(I1051
I43
tp4095
a(I22
I43
tp4096
a(I647
I43
tp4097
a(I1112
I43
tp4098
a(I83
I43
tp4099
a(I708
I43
tp4100
a(I1261
I43
tp4101
a(I1465
I43
tp4102
a(I1066
I43
tp4103
a(I1916
I43
tp4104
a(I1165
I15
tp4105
a(I37
I43
tp4106
a(I402
I15
tp4107
a(I1314
I43
tp4108
a(I205
I15
tp4109
a(I2114
I43
tp4110
a(I479
I15
tp4111
a(I10
I15
tp4112
a(I1762
I15
tp4113
a(I837
I15
tp4114
a(I624
I15
tp4115
a(I1899
I15
tp4116
a(I1195
I15
tp4117
a(I2022
I15
tp4118
a(I1256
I15
tp4119
a(I1455
I43
tp4120
a(I1827
I15
tp4121
a(I1168
I43
tp4122
a(I1630
I15
tp4123
a(I139
I43
tp4124
a(I2048
I15
tp4125
a(I1391
I43
tp4126
a(I1542
I43
tp4127
a(I567
I43
tp4128
a(I200
I43
tp4129
a(I753
I43
tp4130
a(I1603
I43
tp4131
a(I628
I43
tp4132
a(I1583
I15
tp4133
a(I574
I43
tp4134
a(I2010
I43
tp4135
a(I981
I43
tp4136
a(I322
I15
tp4137
a(I2247
I43
tp4138
a(I125
I15
tp4139
a(I1189
I43
tp4140
a(I143
I15
tp4141
a(I2052
I43
tp4142
a(I1303
I15
tp4143
a(I954
I15
tp4144
a(I757
I15
tp4145
a(I1612
I43
tp4146
a(I1312
I15
tp4147
a(I1115
I15
tp4148
a(I1749
I43
tp4149
a(I1686
I15
tp4150
a(I1944
I15
tp4151
a(I1747
I15
tp4152
a(I1088
I43
tp4153
a(I2009
I43
tp4154
a(I59
I43
tp4155
a(I684
I43
tp4156
a(I120
I43
tp4157
a(I1441
I43
tp4158
a(I1042
I43
tp4159
a(I1290
I15
tp4160
a(I13
I43
tp4161
a(I1518
I43
tp4162
a(I1119
I43
tp4163
a(I1917
I15
tp4164
a(I74
I43
tp4165
a(I455
I15
tp4166
a(I242
I15
tp4167
a(I2167
I43
tp4168
a(I260
I15
tp4169
a(I813
I15
tp4170
a(I63
I15
tp4171
a(I874
I15
tp4172
a(I489
I43
tp4173
a(I1232
I15
tp4174
a(I1380
I15
tp4175
a(I1530
I43
tp4176
a(I1606
I15
tp4177
a(I1864
I15
tp4178
a(I2171
I43
tp4179
a(I1722
I15
tp4180
a(I176
I43
tp4181
a(I2101
I15
tp4182
a(I1579
I43
tp4183
a(I604
I43
tp4184
a(I550
I43
tp4185
a(I1640
I43
tp4186
a(I1986
I43
tp4187
a(I611
I43
tp4188
a(I404
I43
tp4189
a(I957
I43
tp4190
a(I1442
I15
tp4191
a(I1993
I43
tp4192
a(I1018
I43
tp4193
a(I375
I15
tp4194
a(I1767
I43
tp4195
a(I930
I15
tp4196
a(I2208
I43
tp4197
a(I180
I15
tp4198
a(I733
I15
tp4199
a(I1751
I43
tp4200
a(I1007
I15
tp4201
a(I538
I15
tp4202
a(I153
I43
tp4203
a(I2080
I15
tp4204
a(I1920
I15
tp4205
a(I1723
I15
tp4206
a(I1784
I15
tp4207
a(I1519
I15
tp4208
a(I2218
I15
tp4209
a(I96
I43
tp4210
a(I1572
I43
tp4211
a(I1494
I43
tp4212
a(I1095
I43
tp4213
a(I2125
I43
tp4214
a(I50
I43
tp4215
a(I1299
I43
tp4216
a(I1924
I43
tp4217
a(I127
I43
tp4218
a(I492
I15
tp4219
a(I1913
I43
tp4220
a(I39
I15
tp4221
a(I297
I15
tp4222
a(I850
I15
tp4223
a(I100
I15
tp4224
a(I465
I43
tp4225
a(I671
I15
tp4226
a(I286
I43
tp4227
a(I2070
I43
tp4228
a(I1029
I15
tp4229
a(I1840
I15
tp4230
a(I907
I15
tp4231
a(I1643
I15
tp4232
a(I2077
I15
tp4233
a(I2213
I43
tp4234
a(I2138
I15
tp4235
a(I1616
I43
tp4236
a(I573
I15
tp4237
a(I587
I43
tp4238
a(I1906
I43
tp4239
a(I1416
I43
tp4240
a(I1545
I15
tp4241
a(I994
I43
tp4242
a(I1844
I43
tp4243
a(I2131
I43
tp4244
a(I2046
I43
tp4245
a(I815
I43
tp4246
a(I156
I15
tp4247
a(I430
I15
tp4248
a(I983
I15
tp4249
a(I217
I15
tp4250
a(I514
I15
tp4251
a(I788
I15
tp4252
a(I129
I43
tp4253
a(I591
I15
tp4254
a(I1740
I15
tp4255
a(I206
I43
tp4256
a(I462
I43
tp4257
a(I1973
I15
tp4258
a(I1760
I15
tp4259
a(I1727
I43
tp4260
a(I2194
I15
tp4261
a(I1980
I43
tp4262
a(I1531
I43
tp4263
a(I1132
I43
tp4264
a(I1447
I43
tp4265
a(I103
I43
tp4266
a(I1336
I43
tp4267
a(I1889
I43
tp4268
a(I932
I43
tp4269
a(I273
I15
tp4270
a(I1710
I43
tp4271
a(I76
I15
tp4272
a(I2209
I43
tp4273
a(I350
I15
tp4274
a(I647
I15
tp4275
a(I905
I15
tp4276
a(I262
I43
tp4277
a(I708
I15
tp4278
a(I1261
I15
tp4279
a(I323
I43
tp4280
a(I1066
I15
tp4281
a(I681
I43
tp4282
a(I1508
I43
tp4283
a(I2114
I15
tp4284
a(I1805
I43
tp4285
a(I1700
I15
tp4286
a(I1828
I43
tp4287
a(I624
I43
tp4288
a(I2253
I15
tp4289
a(I2007
I15
tp4290
a(I1820
I43
tp4291
a(I1124
I43
tp4292
a(I791
I43
tp4293
a(I406
I15
tp4294
a(I1420
I15
tp4295
a(I852
I43
tp4296
a(I193
I15
tp4297
a(I467
I15
tp4298
a(I1020
I15
tp4299
a(I14
I15
tp4300
a(I567
I15
tp4301
a(I825
I15
tp4302
a(I182
I43
tp4303
a(I1866
I43
tp4304
a(I628
I15
tp4305
a(I1949
I15
tp4306
a(I243
I43
tp4307
a(I2010
I15
tp4308
a(I601
I43
tp4309
a(I2247
I15
tp4310
a(I197
I43
tp4311
a(I390
I15
tp4312
a(I2052
I15
tp4313
a(I2195
I43
tp4314
a(I1811
I43
tp4315
a(I2034
I15
tp4316
a(I1312
I43
tp4317
a(I908
I43
tp4318
a(I1686
I43
tp4319
a(I326
I15
tp4320
a(I1747
I43
tp4321
a(I2259
I15
tp4322
a(I113
I15
tp4323
a(I131
I15
tp4324
a(I684
I15
tp4325
a(I958
I15
tp4326
a(I299
I43
tp4327
a(I451
I15
tp4328
a(I1042
I15
tp4329
a(I360
I43
tp4330
a(I657
I43
tp4331
a(I2070
I15
tp4332
a(I1119
I15
tp4333
a(I2196
I43
tp4334
a(I1855
I15
tp4335
a(I734
I43
tp4336
a(I2167
I15
tp4337
a(I117
I43
tp4338
a(I1803
I43
tp4339
a(I828
I43
tp4340
a(I443
I15
tp4341
a(I1864
I43
tp4342
a(I2021
I43
tp4343
a(I246
I15
tp4344
a(I504
I15
tp4345
a(I801
I15
tp4346
a(I51
I15
tp4347
a(I604
I15
tp4348
a(I878
I15
tp4349
a(I219
I43
tp4350
a(I1433
I15
tp4351
a(I1986
I15
tp4352
a(I24
I43
tp4353
a(I577
I43
tp4354
a(I424
I43
tp4355
a(I173
I43
tp4356
a(I1422
I43
tp4357
a(I1933
I15
tp4358
a(I234
I43
tp4359
a(I2089
I15
tp4360
a(I1492
I15
tp4361
a(I2137
I15
tp4362
a(I2057
I43
tp4363
a(I2078
I43
tp4364
a(I1723
I43
tp4365
a(I363
I15
tp4366
a(I1784
I43
tp4367
a(I934
I15
tp4368
a(I168
I15
tp4369
a(I721
I15
tp4370
a(I798
I43
tp4371
a(I336
I43
tp4372
a(I542
I15
tp4373
a(I1095
I15
tp4374
a(I1353
I15
tp4375
a(I710
I43
tp4376
a(I1924
I15
tp4377
a(I515
I43
tp4378
a(I93
I43
tp4379
a(I1129
I43
tp4380
a(I922
I43
tp4381
a(I1228
I43
tp4382
a(I2005
I15
tp4383
a(I2248
I43
tp4384
a(I1292
I43
tp4385
a(I1840
I43
tp4386
a(I1517
I15
tp4387
a(I480
I15
tp4388
a(I27
I15
tp4389
a(I854
I15
tp4390
a(I88
I15
tp4391
a(I1409
I15
tp4392
a(I659
I15
tp4393
a(I0
I43
tp4394
a(I1486
I15
tp4395
a(I2039
I15
tp4396
a(I1273
I15
tp4397
a(I630
I43
tp4398
a(I1844
I15
tp4399
a(I210
I43
tp4400
a(I1459
I43
tp4401
a(I2065
I15
tp4402
a(I430
I43
tp4403
a(I31
I43
tp4404
a(I801
I43
tp4405
a(I2142
I15
tp4406
a(I1413
I43
tp4407
a(I2054
I43
tp4408
a(I2115
I43
tp4409
a(I1907
I43
tp4410
a(I1760
I43
tp4411
a(I1125
I15
tp4412
a(I144
I15
tp4413
a(I1367
I43
tp4414
a(I971
I15
tp4415
a(I518
I15
tp4416
a(I776
I15
tp4417
a(I1329
I15
tp4418
a(I579
I15
tp4419
a(I1132
I15
tp4420
a(I2105
I43
tp4421
a(I1406
I15
tp4422
a(I747
I43
tp4423
a(I1961
I15
tp4424
a(I552
I43
tp4425
a(I1105
I43
tp4426
a(I898
I43
tp4427
a(I1950
I43
tp4428
a(I975
I43
tp4429
a(I905
I43
tp4430
a(I1172
I43
tp4431
a(I1333
I43
tp4432
a(I1725
I43
tp4433
a(I1620
I15
tp4434
a(I277
I15
tp4435
a(I64
I15
tp4436
a(I891
I15
tp4437
a(I1462
I15
tp4438
a(I1340
I15
tp4439
a(I696
I15
tp4440
a(I1249
I15
tp4441
a(I1523
I15
tp4442
a(I1820
I15
tp4443
a(I1070
I15
tp4444
a(I1435
I43
tp4445
a(I1881
I15
tp4446
a(I406
I43
tp4447
a(I7
I43
tp4448
a(I1496
I43
tp4449
a(I1793
I43
tp4450
a(I2118
I15
tp4451
a(I467
I43
tp4452
a(I68
I43
tp4453
a(I621
I43
tp4454
a(I1870
I43
tp4455
a(I825
I43
tp4456
a(I1450
I43
tp4457
a(I2091
I43
tp4458
a(I421
I43
tp4459
a(I1506
I43
tp4460
a(I2152
I43
tp4461
a(I394
I15
tp4462
a(I1698
I15
tp4463
a(I197
I15
tp4464
a(I1008
I15
tp4465
a(I555
I15
tp4466
a(I1382
I15
tp4467
a(I2045
I15
tp4468
a(I616
I15
tp4469
a(I1937
I15
tp4470
a(I385
I15
tp4471
a(I1187
I15
tp4472
a(I528
I43
tp4473
a(I2014
I15
tp4474
a(I1085
I15
tp4475
a(I1926
I43
tp4476
a(I951
I43
tp4477
a(I113
I43
tp4478
a(I1987
I43
tp4479
a(I1012
I43
tp4480
a(I1309
I43
tp4481
a(I958
I43
tp4482
a(I1405
I15
tp4483
a(I1370
I43
tp4484
a(I341
I43
tp4485
a(I509
I15
tp4486
a(I1495
I15
tp4487
a(I314
I15
tp4488
a(I1533
I43
tp4489
a(I117
I15
tp4490
a(I1548
I43
tp4491
a(I672
I15
tp4492
a(I1499
I15
tp4493
a(I1685
I43
tp4494
a(I1046
I15
tp4495
a(I1304
I15
tp4496
a(I1857
I15
tp4497
a(I1107
I15
tp4498
a(I1472
I43
tp4499
a(I1945
I43
tp4500
a(I1678
I15
tp4501
a(I443
I43
tp4502
a(I44
I43
tp4503
a(I1846
I43
tp4504
a(I2155
I15
tp4505
a(I504
I43
tp4506
a(I449
I15
tp4507
a(I1426
I43
tp4508
a(I1300
I15
tp4509
a(I397
I43
tp4510
a(I878
I43
tp4511
a(I1503
I43
tp4512
a(I2128
I43
tp4513
a(I1853
I15
tp4514
a(I458
I43
tp4515
a(I1861
I43
tp4516
a(I173
I15
tp4517
a(I447
I15
tp4518
a(I234
I15
tp4519
a(I1493
I43
tp4520
a(I805
I15
tp4521
a(I592
I15
tp4522
a(I1163
I15
tp4523
a(I1990
I15
tp4524
a(I1224
I15
tp4525
a(I1777
I15
tp4526
asS'runtime'
p4527
F0.29813218116760254
sS'name'
p4528
S'["fd_checker", [["decomm_start", "health_info"]]]'
p4529
s.