(dp0
S'output'
p1
(lp2
(I1024
I1
tp3
a(I1025
I53
tp4
a(I1030
I1
tp5
a(I1024
I53
tp6
a(I1026
I53
tp7
a(I1027
I1
tp8
a(I2063
I1
tp9
a(I1026
I1
tp10
a(I1027
I53
tp11
a(I1035
I1
tp12
a(I1029
I53
tp13
a(I1030
I53
tp14
a(I1035
I53
tp15
a(I1028
I53
tp16
a(I1029
I1
tp17
a(I1023
I53
tp18
a(I1028
I1
tp19
a(I1025
I1
tp20
a(I2063
I53
tp21
a(I1023
I1
tp22
asS'runtime'
p23
F0.29317402839660645
sS'name'
p24
S'["fd_checker", [["tracking", "prmry_bus_function"]]]'
p25
s.