(dp0
S'output'
p1
(lp2
(I26
I47
tp3
a(I326
I4
tp4
a(I526
I4
tp5
a(I1035
I47
tp6
a(I1192
I4
tp7
a(I1648
I4
tp8
a(I338
I47
tp9
a(I280
I47
tp10
a(I1162
I47
tp11
a(I1787
I4
tp12
a(I1024
I4
tp13
a(I2063
I4
tp14
a(I1268
I47
tp15
a(I597
I47
tp16
a(I78
I4
tp17
a(I1919
I47
tp18
a(I1793
I4
tp19
a(I229
I47
tp20
a(I1616
I47
tp21
a(I2050
I47
tp22
a(I1759
I47
tp23
a(I33
I4
tp24
a(I759
I47
tp25
a(I1615
I4
tp26
a(I1800
I4
tp27
a(I2244
I47
tp28
a(I740
I4
tp29
a(I554
I47
tp30
a(I691
I47
tp31
a(I573
I47
tp32
a(I572
I4
tp33
a(I1177
I4
tp34
a(I635
I4
tp35
a(I1649
I47
tp36
a(I332
I47
tp37
a(I1884
I4
tp38
a(I606
I4
tp39
a(I1629
I4
tp40
a(I1999
I47
tp41
a(I1830
I4
tp42
a(I667
I47
tp43
a(I728
I47
tp44
a(I1025
I47
tp45
a(I2105
I47
tp46
a(I610
I47
tp47
a(I1918
I4
tp48
a(I1687
I4
tp49
a(I1152
I47
tp50
a(I1092
I47
tp51
a(I787
I4
tp52
a(I280
I4
tp53
a(I426
I47
tp54
a(I1268
I4
tp55
a(I444
I4
tp56
a(I2238
I47
tp57
a(I25
I4
tp58
a(I1238
I47
tp59
a(I50
I4
tp60
a(I577
I47
tp61
a(I1530
I4
tp62
a(I1214
I4
tp63
a(I30
I47
tp64
a(I583
I47
tp65
a(I339
I4
tp66
a(I33
I47
tp67
a(I539
I4
tp68
a(I336
I47
tp69
a(I32
I4
tp70
a(I2244
I4
tp71
a(I1420
I4
tp72
a(I1977
I47
tp73
a(I335
I4
tp74
a(I1195
I47
tp75
a(I1026
I4
tp76
a(I227
I47
tp77
a(I28
I4
tp78
a(I1508
I4
tp79
a(I1322
I47
tp80
a(I1680
I47
tp81
a(I1822
I4
tp82
a(I1086
I47
tp83
a(I1823
I47
tp84
a(I1242
I47
tp85
a(I571
I47
tp86
a(I728
I4
tp87
a(I340
I47
tp88
a(I1092
I4
tp89
a(I1793
I47
tp90
a(I330
I47
tp91
a(I331
I4
tp92
a(I1920
I47
tp93
a(I1161
I4
tp94
a(I670
I4
tp95
a(I2211
I4
tp96
a(I1617
I4
tp97
a(I1029
I47
tp98
a(I1536
I4
tp99
a(I58
I47
tp100
a(I1613
I4
tp101
a(I741
I47
tp102
a(I514
I47
tp103
a(I1836
I47
tp104
a(I1973
I47
tp105
a(I283
I47
tp106
a(I718
I47
tp107
a(I1271
I47
tp108
a(I1629
I47
tp109
a(I2225
I4
tp110
a(I730
I4
tp111
a(I647
I47
tp112
a(I633
I4
tp113
a(I1759
I4
tp114
a(I708
I47
tp115
a(I1880
I47
tp116
a(I1566
I4
tp117
a(I34
I4
tp118
a(I998
I4
tp119
a(I1023
I4
tp120
a(I691
I4
tp121
a(I1654
I4
tp122
a(I716
I4
tp123
a(I628
I47
tp124
a(I58
I4
tp125
a(I1030
I4
tp126
a(I523
I4
tp127
a(I1774
I47
tp128
a(I23
I47
tp129
a(I1113
I47
tp130
a(I326
I47
tp131
a(I1824
I47
tp132
a(I1974
I4
tp133
a(I2167
I47
tp134
a(I1999
I4
tp135
a(I1830
I47
tp136
a(I1616
I4
tp137
a(I214
I4
tp138
a(I1623
I47
tp139
a(I337
I4
tp140
a(I1919
I4
tp141
a(I1613
I47
tp142
a(I536
I47
tp143
a(I1925
I4
tp144
a(I542
I47
tp145
a(I50
I47
tp146
a(I333
I4
tp147
a(I26
I4
tp148
a(I2225
I47
tp149
a(I1015
I4
tp150
a(I1027
I47
tp151
a(I89
I4
tp152
a(I27
I47
tp153
a(I708
I4
tp154
a(I2039
I47
tp155
a(I340
I4
tp156
a(I1538
I4
tp157
a(I1787
I47
tp158
a(I2073
I47
tp159
a(I1971
I47
tp160
a(I603
I4
tp161
a(I1419
I4
tp162
a(I628
I4
tp163
a(I655
I47
tp164
a(I1152
I4
tp165
a(I1617
I47
tp166
a(I1192
I47
tp167
a(I1291
I4
tp168
a(I1823
I4
tp169
a(I722
I4
tp170
a(I1579
I4
tp171
a(I1918
I47
tp172
a(I1568
I47
tp173
a(I334
I47
tp174
a(I126
I4
tp175
a(I1841
I4
tp176
a(I1943
I47
tp177
a(I336
I4
tp178
a(I635
I47
tp179
a(I536
I4
tp180
a(I1177
I47
tp181
a(I2196
I47
tp182
a(I72
I47
tp183
a(I333
I47
tp184
a(I332
I4
tp185
a(I1310
I47
tp186
a(I1162
I4
tp187
a(I1680
I4
tp188
a(I769
I4
tp189
a(I234
I47
tp190
a(I1687
I47
tp191
a(I1026
I47
tp192
a(I227
I4
tp193
a(I759
I4
tp194
a(I426
I4
tp195
a(I2159
I47
tp196
a(I489
I4
tp197
a(I2159
I4
tp198
a(I25
I47
tp199
a(I30
I4
tp200
a(I546
I4
tp201
a(I1900
I47
tp202
a(I609
I4
tp203
a(I526
I47
tp204
a(I1648
I47
tp205
a(I1920
I4
tp206
a(I34
I47
tp207
a(I998
I47
tp208
a(I1858
I4
tp209
a(I241
I4
tp210
a(I337
I47
tp211
a(I1035
I4
tp212
a(I832
I47
tp213
a(I1161
I47
tp214
a(I667
I4
tp215
a(I1297
I4
tp216
a(I1841
I47
tp217
a(I299
I4
tp218
a(I1322
I4
tp219
a(I78
I47
tp220
a(I1585
I4
tp221
a(I1087
I47
tp222
a(I1880
I4
tp223
a(I1836
I4
tp224
a(I1242
I4
tp225
a(I2182
I47
tp226
a(I1530
I47
tp227
a(I1899
I4
tp228
a(I214
I47
tp229
a(I1951
I47
tp230
a(I583
I4
tp231
a(I572
I47
tp232
a(I633
I47
tp233
a(I2238
I4
tp234
a(I1943
I4
tp235
a(I338
I4
tp236
a(I22
I4
tp237
a(I331
I47
tp238
a(I2193
I4
tp239
a(I1195
I4
tp240
a(I539
I47
tp241
a(I1027
I4
tp242
a(I2050
I4
tp243
a(I232
I47
tp244
a(I606
I47
tp245
a(I1024
I47
tp246
a(I2182
I4
tp247
a(I1654
I47
tp248
a(I609
I47
tp249
a(I1622
I4
tp250
a(I597
I4
tp251
a(I2187
I47
tp252
a(I1821
I4
tp253
a(I1030
I47
tp254
a(I241
I47
tp255
a(I2187
I4
tp256
a(I229
I4
tp257
a(I1971
I4
tp258
a(I444
I47
tp259
a(I655
I4
tp260
a(I1086
I4
tp261
a(I61
I4
tp262
a(I2196
I4
tp263
a(I1899
I47
tp264
a(I72
I4
tp265
a(I718
I4
tp266
a(I1974
I47
tp267
a(I299
I47
tp268
a(I719
I47
tp269
a(I1585
I47
tp270
a(I32
I47
tp271
a(I996
I47
tp272
a(I769
I47
tp273
a(I1420
I47
tp274
a(I330
I4
tp275
a(I1976
I47
tp276
a(I1884
I47
tp277
a(I523
I47
tp278
a(I2063
I47
tp279
a(I584
I47
tp280
a(I292
I47
tp281
a(I787
I47
tp282
a(I1822
I47
tp283
a(I2105
I4
tp284
a(I1528
I47
tp285
a(I283
I4
tp286
a(I1824
I4
tp287
a(I1538
I47
tp288
a(I1615
I47
tp289
a(I232
I4
tp290
a(I1271
I4
tp291
a(I647
I4
tp292
a(I339
I47
tp293
a(I571
I4
tp294
a(I1297
I47
tp295
a(I730
I47
tp296
a(I542
I4
tp297
a(I61
I47
tp298
a(I722
I47
tp299
a(I1925
I47
tp300
a(I546
I47
tp301
a(I1029
I4
tp302
a(I670
I47
tp303
a(I1977
I4
tp304
a(I1028
I47
tp305
a(I28
I47
tp306
a(I89
I47
tp307
a(I1214
I47
tp308
a(I610
I4
tp309
a(I1800
I47
tp310
a(I2167
I4
tp311
a(I2073
I4
tp312
a(I1774
I4
tp313
a(I740
I47
tp314
a(I1973
I4
tp315
a(I1972
I47
tp316
a(I49
I4
tp317
a(I2193
I47
tp318
a(I1238
I4
tp319
a(I1291
I47
tp320
a(I1821
I47
tp321
a(I1649
I4
tp322
a(I1882
I47
tp323
a(I2211
I47
tp324
a(I716
I47
tp325
a(I1566
I47
tp326
a(I1951
I4
tp327
a(I334
I4
tp328
a(I1025
I4
tp329
a(I1900
I4
tp330
a(I27
I4
tp331
a(I1568
I4
tp332
a(I335
I47
tp333
a(I554
I4
tp334
a(I2039
I4
tp335
a(I1113
I4
tp336
a(I22
I47
tp337
a(I1015
I47
tp338
a(I832
I4
tp339
a(I514
I4
tp340
a(I1882
I4
tp341
a(I23
I4
tp342
a(I1536
I47
tp343
a(I996
I4
tp344
a(I577
I4
tp345
a(I1419
I47
tp346
a(I1858
I47
tp347
a(I1310
I4
tp348
a(I741
I4
tp349
a(I234
I4
tp350
a(I603
I47
tp351
a(I1028
I4
tp352
a(I1622
I47
tp353
a(I1976
I4
tp354
a(I573
I4
tp355
a(I584
I4
tp356
a(I1623
I4
tp357
a(I292
I4
tp358
a(I1023
I47
tp359
a(I1972
I4
tp360
a(I49
I47
tp361
a(I126
I47
tp362
a(I489
I47
tp363
a(I1087
I4
tp364
a(I1508
I47
tp365
a(I1528
I4
tp366
a(I719
I4
tp367
a(I1579
I47
tp368
asS'runtime'
p369
F0.3044760227203369
sS'name'
p370
S'["fd_checker", [["ci_id", "wo"]]]'
p371
s.