(dp0
S'output'
p1
(lp2
(I1024
I1
tp3
a(I1024
I54
tp4
a(I2063
I54
tp5
a(I1025
I54
tp6
a(I1027
I54
tp7
a(I1035
I54
tp8
a(I1030
I1
tp9
a(I1027
I1
tp10
a(I1035
I1
tp11
a(I1026
I1
tp12
a(I2063
I1
tp13
a(I1023
I54
tp14
a(I1026
I54
tp15
a(I1028
I54
tp16
a(I1030
I54
tp17
a(I1029
I54
tp18
a(I1029
I1
tp19
a(I1028
I1
tp20
a(I1025
I1
tp21
a(I1023
I1
tp22
asS'runtime'
p23
F0.29161906242370605
sS'name'
p24
S'["fd_checker", [["tracking", "rob_comments"]]]'
p25
s.