(dp0
S'output'
p1
(lp2
(I1774
I10
tp3
a(I523
I10
tp4
a(I1709
I55
tp5
a(I1584
I10
tp6
a(I1716
I10
tp7
a(I1648
I55
tp8
a(I1716
I55
tp9
a(I1774
I55
tp10
a(I542
I55
tp11
a(I1680
I10
tp12
a(I1584
I55
tp13
a(I2
I10
tp14
a(I2
I55
tp15
a(I523
I55
tp16
a(I542
I10
tp17
a(I1680
I55
tp18
a(I1615
I10
tp19
a(I1648
I10
tp20
a(I1709
I10
tp21
a(I1615
I55
tp22
asS'runtime'
p23
F0.32080602645874023
sS'name'
p24
S'["fd_checker", [["app_nm", "app_comments"]]]'
p25
s.