(dp0
S'output'
p1
(lp2
(I55
I36
tp3
a(I695
I36
tp4
a(I1930
I57
tp5
a(I1915
I57
tp6
a(I1305
I36
tp7
a(I688
I36
tp8
a(I2208
I57
tp9
a(I697
I57
tp10
a(I545
I36
tp11
a(I261
I57
tp12
a(I1414
I57
tp13
a(I1420
I36
tp14
a(I1311
I57
tp15
a(I1915
I36
tp16
a(I1406
I36
tp17
a(I2031
I57
tp18
a(I1419
I57
tp19
a(I1402
I57
tp20
a(I1751
I57
tp21
a(I696
I57
tp22
a(I261
I36
tp23
a(I1300
I36
tp24
a(I1300
I57
tp25
a(I1401
I36
tp26
a(I1311
I36
tp27
a(I1421
I36
tp28
a(I1403
I57
tp29
a(I1299
I36
tp30
a(I1305
I57
tp31
a(I56
I57
tp32
a(I1894
I57
tp33
a(I39
I36
tp34
a(I608
I36
tp35
a(I1520
I57
tp36
a(I1520
I36
tp37
a(I529
I36
tp38
a(I695
I57
tp39
a(I1894
I36
tp40
a(I1524
I57
tp41
a(I1414
I36
tp42
a(I608
I57
tp43
a(I1421
I57
tp44
a(I1901
I36
tp45
a(I1401
I57
tp46
a(I39
I57
tp47
a(I696
I36
tp48
a(I1415
I36
tp49
a(I1456
I57
tp50
a(I1299
I57
tp51
a(I1403
I36
tp52
a(I1402
I36
tp53
a(I223
I57
tp54
a(I1999
I36
tp55
a(I2196
I57
tp56
a(I1406
I57
tp57
a(I56
I36
tp58
a(I1757
I36
tp59
a(I1418
I36
tp60
a(I1751
I36
tp61
a(I1456
I36
tp62
a(I1930
I36
tp63
a(I1524
I36
tp64
a(I1419
I36
tp65
a(I545
I57
tp66
a(I697
I36
tp67
a(I1999
I57
tp68
a(I223
I36
tp69
a(I1901
I57
tp70
a(I1420
I57
tp71
a(I1415
I57
tp72
a(I1418
I57
tp73
a(I2031
I36
tp74
a(I529
I57
tp75
a(I2208
I36
tp76
a(I688
I57
tp77
a(I1757
I57
tp78
a(I2196
I36
tp79
a(I55
I57
tp80
asS'runtime'
p81
F0.29076290130615234
sS'name'
p82
S'["fd_checker", [["region_1", "ams_division_supported"]]]'
p83
s.