(dp0
S'output'
p1
(lp2
(I1462
I25
tp3
a(I487
I53
tp4
a(I1070
I25
tp5
a(I460
I25
tp6
a(I727
I53
tp7
a(I895
I25
tp8
a(I825
I53
tp9
a(I1958
I25
tp10
a(I833
I53
tp11
a(I1332
I25
tp12
a(I162
I53
tp13
a(I330
I25
tp14
a(I901
I25
tp15
a(I962
I25
tp16
a(I159
I53
tp17
a(I1397
I25
tp18
a(I1987
I25
tp19
a(I1960
I53
tp20
a(I931
I53
tp21
a(I806
I25
tp22
a(I593
I25
tp23
a(I939
I53
tp24
a(I1919
I53
tp25
a(I390
I53
tp26
a(I871
I25
tp27
a(I1354
I53
tp28
a(I878
I53
tp29
a(I1503
I25
tp30
a(I2128
I25
tp31
a(I1362
I53
tp32
a(I333
I53
tp33
a(I886
I53
tp34
a(I1940
I25
tp35
a(I109
I25
tp36
a(I938
I25
tp37
a(I741
I25
tp38
a(I196
I53
tp39
a(I1373
I25
tp40
a(I1963
I25
tp41
a(I1460
I53
tp42
a(I968
I53
tp43
a(I439
I53
tp44
a(I976
I53
tp45
a(I2152
I25
tp46
a(I187
I53
tp47
a(I1479
I25
tp48
a(I1943
I53
tp49
a(I1284
I25
tp50
a(I1958
I53
tp51
a(I1087
I25
tp52
a(I370
I53
tp53
a(I914
I25
tp54
a(I717
I25
tp55
a(I1349
I25
tp56
a(I339
I25
tp57
a(I1981
I25
tp58
a(I115
I53
tp59
a(I2252
I25
tp60
a(I1379
I53
tp61
a(I476
I53
tp62
a(I1387
I53
tp63
a(I716
I53
tp64
a(I1073
I53
tp65
a(I2061
I25
tp66
a(I838
I53
tp67
a(I1063
I25
tp68
a(I1070
I53
tp69
a(I1554
I53
tp70
a(I1078
I53
tp71
a(I754
I25
tp72
a(I315
I25
tp73
a(I1386
I25
tp74
a(I376
I25
tp75
a(I1957
I25
tp76
a(I947
I25
tp77
a(I920
I53
tp78
a(I391
I53
tp79
a(I398
I25
tp80
a(I879
I53
tp81
a(I185
I25
tp82
a(I887
I53
tp83
a(I1477
I53
tp84
a(I139
I53
tp85
a(I985
I53
tp86
a(I2125
I53
tp87
a(I314
I53
tp88
a(I463
I25
tp89
a(I322
I53
tp90
a(I1362
I25
tp91
a(I352
I25
tp92
a(I1933
I25
tp93
a(I923
I25
tp94
a(I1994
I25
tp95
a(I984
I25
tp96
a(I1541
I25
tp97
a(I1331
I53
tp98
a(I161
I25
tp99
a(I176
I53
tp100
a(I485
I53
tp101
a(I493
I53
tp102
a(I439
I25
tp103
a(I1932
I53
tp104
a(I500
I25
tp105
a(I725
I53
tp106
a(I733
I53
tp107
a(I180
I53
tp108
a(I2131
I25
tp109
a(I328
I25
tp110
a(I899
I25
tp111
a(I1970
I25
tp112
a(I960
I25
tp113
a(I104
I53
tp114
a(I1395
I25
tp115
a(I1368
I53
tp116
a(I137
I25
tp117
a(I339
I53
tp118
a(I839
I53
tp119
a(I347
I53
tp120
a(I937
I53
tp121
a(I846
I25
tp122
a(I1071
I53
tp123
a(I2077
I53
tp124
a(I266
I53
tp125
a(I415
I25
tp126
a(I476
I25
tp127
a(I762
I53
tp128
a(I107
I25
tp129
a(I346
I25
tp130
a(I936
I25
tp131
a(I917
I25
tp132
a(I739
I25
tp133
a(I1554
I25
tp134
a(I1371
I25
tp135
a(I1283
I53
tp136
a(I369
I25
tp137
a(I868
I53
tp138
a(I190
I25
tp139
a(I376
I53
tp140
a(I1001
I25
tp141
a(I876
I53
tp142
a(I822
I25
tp143
a(I128
I53
tp144
a(I437
I53
tp145
a(I2255
I25
tp146
a(I1454
I25
tp147
a(I391
I25
tp148
a(I185
I53
tp149
a(I887
I25
tp150
a(I193
I53
tp151
a(I1941
I53
tp152
a(I1949
I53
tp153
a(I1457
I53
tp154
a(I322
I25
tp155
a(I912
I25
tp156
a(I125
I25
tp157
a(I715
I25
tp158
a(I954
I25
tp159
a(I757
I25
tp160
a(I1347
I25
tp161
a(I783
I53
tp162
a(I166
I25
tp163
a(I977
I25
tp164
a(I798
I25
tp165
a(I474
I53
tp166
a(I1385
I53
tp167
a(I124
I53
tp168
a(I714
I53
tp169
a(I863
I25
tp170
a(I722
I53
tp171
a(I2120
I25
tp172
a(I1978
I53
tp173
a(I493
I25
tp174
a(I1986
I53
tp175
a(I957
I53
tp176
a(I101
I25
tp177
a(I930
I25
tp178
a(I752
I25
tp179
a(I733
I25
tp180
a(I2131
I53
tp181
a(I1384
I25
tp182
a(I1365
I25
tp183
a(I1955
I25
tp184
a(I2139
I53
tp185
a(I820
I53
tp186
a(I328
I53
tp187
a(I336
I53
tp188
a(I389
I53
tp189
a(I1060
I53
tp190
a(I1068
I53
tp191
a(I885
I53
tp192
a(I137
I53
tp193
a(I159
I25
tp194
a(I839
I25
tp195
a(I145
I53
tp196
a(I1471
I25
tp197
a(I2077
I25
tp198
a(I2138
I25
tp199
a(I994
I53
tp200
a(I906
I25
tp201
a(I709
I25
tp202
a(I1360
I25
tp203
a(I1341
I25
tp204
a(I1931
I25
tp205
a(I499
I53
tp206
a(I1992
I25
tp207
a(I1973
I25
tp208
a(I739
I53
tp209
a(I1392
I25
tp210
a(I747
I53
tp211
a(I190
I53
tp212
a(I876
I25
tp213
a(I198
I53
tp214
a(I1447
I25
tp215
a(I1340
I53
tp216
a(I1930
I53
tp217
a(I1454
I53
tp218
a(I1938
I53
tp219
a(I909
I53
tp220
a(I1462
I53
tp221
a(I114
I25
tp222
a(I746
I25
tp223
a(I1378
I25
tp224
a(I1968
I25
tp225
a(I1376
I53
tp226
a(I1062
I25
tp227
a(I837
I53
tp228
a(I345
I53
tp229
a(I1077
I53
tp230
a(I1484
I25
tp231
a(I593
I53
tp232
a(I1092
I25
tp233
a(I1919
I25
tp234
a(I946
I53
tp235
a(I470
I53
tp236
a(I722
I25
tp237
a(I2120
I53
tp238
a(I1354
I25
tp239
a(I344
I25
tp240
a(I1925
I25
tp241
a(I915
I25
tp242
a(I2128
I53
tp243
a(I1986
I25
tp244
a(I1552
I25
tp245
a(I153
I25
tp246
a(I1955
I53
tp247
a(I874
I53
tp248
a(I142
I53
tp249
a(I1963
I53
tp250
a(I800
I53
tp251
a(I1068
I25
tp252
a(I93
I53
tp253
a(I1357
I53
tp254
a(I865
I53
tp255
a(I1330
I25
tp256
a(I320
I25
tp257
a(I123
I25
tp258
a(I488
I53
tp259
a(I1962
I25
tp260
a(I952
I25
tp261
a(I755
I25
tp262
a(I191
I53
tp263
a(I728
I53
tp264
a(I199
I53
tp265
a(I129
I25
tp266
a(I206
I25
tp267
a(I1455
I53
tp268
a(I1992
I53
tp269
a(I1463
I53
tp270
a(I971
I53
tp271
a(I407
I25
tp272
a(I122
I53
tp273
a(I898
I53
tp274
a(I1394
I53
tp275
a(I491
I25
tp276
a(I99
I25
tp277
a(I1938
I25
tp278
a(I928
I25
tp279
a(I731
I25
tp280
a(I1363
I25
tp281
a(I2137
I53
tp282
a(I361
I25
tp283
a(I182
I25
tp284
a(I993
I25
tp285
a(I350
I53
tp286
a(I814
I25
tp287
a(I1066
I53
tp288
a(I471
I53
tp289
a(I444
I25
tp290
a(I1377
I25
tp291
a(I879
I25
tp292
a(I2075
I25
tp293
a(I2136
I25
tp294
a(I817
I53
tp295
a(I314
I25
tp296
a(I904
I25
tp297
a(I117
I25
tp298
a(I1339
I25
tp299
a(I1400
I25
tp300
a(I1971
I25
tp301
a(I337
I25
tp302
a(I158
I25
tp303
a(I1944
I53
tp304
a(I969
I25
tp305
a(I915
I53
tp306
a(I923
I53
tp307
a(I745
I53
tp308
a(I1392
I53
tp309
a(I855
I25
tp310
a(I1338
I53
tp311
a(I1487
I25
tp312
a(I1346
I53
tp313
a(I317
I53
tp314
a(I870
I53
tp315
a(I485
I25
tp316
a(I112
I25
tp317
a(I93
I25
tp318
a(I922
I25
tp319
a(I744
I25
tp320
a(I725
I25
tp321
a(I1376
I25
tp322
a(I1947
I25
tp323
a(I1091
I53
tp324
a(I134
I25
tp325
a(I1555
I25
tp326
a(I945
I25
tp327
a(I1444
I53
tp328
a(I952
I53
tp329
a(I2199
I25
tp330
a(I1452
I53
tp331
a(I960
I53
tp332
a(I2261
I25
tp333
a(I396
I25
tp334
a(I199
I25
tp335
a(I106
I25
tp336
a(I892
I25
tp337
a(I1463
I25
tp338
a(I1071
I25
tp339
a(I461
I25
tp340
a(I354
I53
tp341
a(I266
I25
tp342
a(I898
I25
tp343
a(I720
I25
tp344
a(I351
I53
tp345
a(I2153
I25
tp346
a(I762
I25
tp347
a(I1352
I25
tp348
a(I1333
I25
tp349
a(I1923
I25
tp350
a(I2142
I53
tp351
a(I1984
I25
tp352
a(I99
I53
tp353
a(I132
I53
tp354
a(I998
I25
tp355
a(I107
I53
tp356
a(I1363
I53
tp357
a(I460
I53
tp358
a(I1371
I53
tp359
a(I1961
I53
tp360
a(I807
I25
tp361
a(I868
I25
tp362
a(I814
I53
tp363
a(I822
I53
tp364
a(I498
I25
tp365
a(I1062
I53
tp366
a(I2129
I25
tp367
a(I738
I25
tp368
a(I1328
I25
tp369
a(I1370
I25
tp370
a(I1960
I25
tp371
a(I1941
I25
tp372
a(I904
I53
tp373
a(I912
I53
tp374
a(I197
I53
tp375
a(I1400
I53
tp376
a(I871
I53
tp377
a(I1461
I53
tp378
a(I379
I53
tp379
a(I969
I53
tp380
a(I844
I25
tp381
a(I977
I53
tp382
a(I1476
I25
tp383
a(I2082
I25
tp384
a(I714
I25
tp385
a(I1346
I25
tp386
a(I1936
I25
tp387
a(I1978
I25
tp388
a(I1393
I25
tp389
a(I404
I53
tp390
a(I1393
I53
tp391
a(I412
I53
tp392
a(I2119
I53
tp393
a(I1555
I53
tp394
a(I160
I53
tp395
a(I469
I53
tp396
a(I2253
I25
tp397
a(I1452
I25
tp398
a(I477
I53
tp399
a(I1060
I25
tp400
a(I717
I53
tp401
a(I1377
I53
tp402
a(I1981
I53
tp403
a(I312
I25
tp404
a(I115
I25
tp405
a(I2122
I25
tp406
a(I1954
I25
tp407
a(I2252
I53
tp408
a(I815
I53
tp409
a(I1352
I53
tp410
a(I377
I25
tp411
a(I823
I53
tp412
a(I1360
I53
tp413
a(I331
I53
tp414
a(I921
I53
tp415
a(I2061
I53
tp416
a(I1063
I53
tp417
a(I399
I25
tp418
a(I754
I53
tp419
a(I2140
I53
tp420
a(I483
I25
tp421
a(I91
I25
tp422
a(I1930
I25
tp423
a(I3
I53
tp424
a(I920
I25
tp425
a(I723
I25
tp426
a(I353
I25
tp427
a(I852
I53
tp428
a(I174
I25
tp429
a(I985
I25
tp430
a(I860
I53
tp431
a(I1450
I53
tp432
a(I368
I53
tp433
a(I974
I53
tp434
a(I436
I25
tp435
a(I2250
I53
tp436
a(I177
I53
tp437
a(I459
I25
tp438
a(I1933
I53
tp439
a(I264
I25
tp440
a(I501
I25
tp441
a(I896
I25
tp442
a(I760
I25
tp443
a(I1331
I25
tp444
a(I329
I25
tp445
a(I150
I25
tp446
a(I961
I25
tp447
a(I105
I53
tp448
a(I458
I53
tp449
a(I1552
I53
tp450
a(I1369
I53
tp451
a(I412
I25
tp452
a(I847
I25
tp453
a(I496
I25
tp454
a(I477
I25
tp455
a(I1970
I53
tp456
a(I104
I25
tp457
a(I736
I25
tp458
a(I1475
I53
tp459
a(I1368
I25
tp460
a(I1939
I25
tp461
a(I2123
I53
tp462
a(I804
I53
tp463
a(I382
I25
tp464
a(I312
I53
tp465
a(I937
I25
tp466
a(I812
I53
tp467
a(I1014
I25
tp468
a(I320
I53
tp469
a(I926
I53
tp470
a(I388
I25
tp471
a(I869
I53
tp472
a(I191
I25
tp473
a(I377
I53
tp474
a(I877
I53
tp475
a(I823
I25
tp476
a(I129
I53
tp477
a(I884
I25
tp478
a(I1455
I25
tp479
a(I2080
I25
tp480
a(I122
I25
tp481
a(I712
I25
tp482
a(I1283
I25
tp483
a(I1344
I25
tp484
a(I975
I53
tp485
a(I483
I53
tp486
a(I1976
I25
tp487
a(I358
I25
tp488
a(I913
I25
tp489
a(I491
I53
tp490
a(I723
I53
tp491
a(I410
I53
tp492
a(I731
I53
tp493
a(I167
I25
tp494
a(I174
I53
tp495
a(I799
I25
tp496
a(I2251
I25
tp497
a(I860
I25
tp498
a(I182
I53
tp499
a(I1922
I53
tp500
a(I125
I53
tp501
a(I490
I25
tp502
a(I98
I25
tp503
a(I2121
I25
tp504
a(I730
I25
tp505
a(I2075
I53
tp506
a(I1012
I53
tp507
a(I264
I53
tp508
a(I966
I25
tp509
a(I753
I25
tp510
a(I2258
I53
tp511
a(I760
I53
tp512
a(I1385
I25
tp513
a(I2156
I53
tp514
a(I821
I53
tp515
a(I1374
I53
tp516
a(I329
I53
tp517
a(I204
I25
tp518
a(I337
I53
tp519
a(I836
I25
tp520
a(I1468
I25
tp521
a(I1069
I53
tp522
a(I2074
I25
tp523
a(I1076
I25
tp524
a(I13
I25
tp525
a(I930
I53
tp526
a(I927
I53
tp527
a(I1338
I25
tp528
a(I435
I53
tp529
a(I1928
I25
tp530
a(I1915
I25
tp531
a(I1361
I25
tp532
a(I1993
I25
tp533
a(I1939
I53
tp534
a(I858
I53
tp535
a(I382
I53
tp536
a(I1947
I53
tp537
a(I812
I25
tp538
a(I134
I53
tp539
a(I1444
I25
tp540
a(I877
I25
tp541
a(I1341
I53
tp542
a(I499
I25
tp543
a(I964
I53
tp544
a(I472
I53
tp545
a(I1946
I25
tp546
a(I2202
I53
tp547
a(I175
I53
tp548
a(I712
I53
tp549
a(I183
I53
tp550
a(I720
I53
tp551
a(I1969
I25
tp552
a(I1976
I53
tp553
a(I1447
I53
tp554
a(I1984
I53
tp555
a(I955
I53
tp556
a(I154
I53
tp557
a(I114
I53
tp558
a(I1916
I25
tp559
a(I406
I53
tp560
a(I1485
I25
tp561
a(I1378
I53
tp562
a(I475
I25
tp563
a(I387
I53
tp564
a(I1355
I25
tp565
a(I1922
I25
tp566
a(I1375
I53
tp567
a(I883
I53
tp568
a(I212
I53
tp569
a(I2121
I53
tp570
a(I345
I25
tp571
a(I2129
I53
tp572
a(I810
I53
tp573
a(I1553
I25
tp574
a(I334
I53
tp575
a(I1484
I53
tp576
a(I2258
I25
tp577
a(I801
I53
tp578
a(I1069
I25
tp579
a(I120
I25
tp580
a(I383
I53
tp581
a(I2133
I53
tp582
a(I135
I53
tp583
a(I321
I25
tp584
a(I489
I53
tp585
a(I142
I25
tp586
a(I1928
I53
tp587
a(I953
I25
tp588
a(I1936
I53
tp589
a(I907
I53
tp590
a(I729
I53
tp591
a(I404
I25
tp592
a(I207
I25
tp593
a(I1993
I53
tp594
a(I2141
I53
tp595
a(I1330
I53
tp596
a(I854
I53
tp597
a(I488
I25
tp598
a(I469
I25
tp599
a(I96
I25
tp600
a(I835
I53
tp601
a(I728
I25
tp602
a(I164
I53
tp603
a(I1075
I53
tp604
a(I172
I53
tp605
a(I374
I25
tp606
a(I929
I25
tp607
a(I1006
I25
tp608
a(I407
I53
tp609
a(I944
I53
tp610
a(I2198
I53
tp611
a(I183
I25
tp612
a(I815
I25
tp613
a(I1009
I53
tp614
a(I464
I25
tp615
a(I704
I25
tp616
a(I335
I53
tp617
a(I872
I53
tp618
a(I2137
I25
tp619
a(I1336
I25
tp620
a(I2126
I53
tp621
a(I350
I25
tp622
a(I905
I25
tp623
a(I982
I25
tp624
a(I91
I53
tp625
a(I1915
I53
tp626
a(I444
I53
tp627
a(I1355
I53
tp628
a(I1945
I53
tp629
a(I852
I25
tp630
a(I1282
I53
tp631
a(I806
I53
tp632
a(I875
I25
tp633
a(I372
I53
tp634
a(I1382
I25
tp635
a(I1944
I25
tp636
a(I326
I25
tp637
a(I113
I25
tp638
a(I958
I25
tp639
a(I120
I53
tp640
a(I745
I25
tp641
a(I896
I53
tp642
a(I181
I53
tp643
a(I734
I53
tp644
a(I135
I25
tp645
a(I855
I53
tp646
a(I196
I25
tp647
a(I1445
I53
tp648
a(I953
I53
tp649
a(I828
I25
tp650
a(I1453
I53
tp651
a(I961
I53
tp652
a(I1460
I25
tp653
a(I397
I25
tp654
a(I458
I25
tp655
a(I154
I25
tp656
a(I893
I25
tp657
a(I1483
I25
tp658
a(I1091
I25
tp659
a(I2078
I53
tp660
a(I1920
I25
tp661
a(I1064
I53
tp662
a(I934
I25
tp663
a(I2199
I53
tp664
a(I721
I25
tp665
a(I1353
I25
tp666
a(I396
I53
tp667
a(I1985
I25
tp668
a(I172
I25
tp669
a(I999
I25
tp670
a(I892
I53
tp671
a(I1482
I53
tp672
a(I804
I25
tp673
a(I1006
I53
tp674
a(I2256
I25
tp675
a(I1490
I53
tp676
a(I461
I53
tp677
a(I1014
I53
tp678
a(I2127
I53
tp679
a(I869
I25
tp680
a(I2250
I25
tp681
a(I324
I53
tp682
a(I2142
I25
tp683
a(I1067
I25
tp684
a(I2260
I53
tp685
a(I1329
I25
tp686
a(I1336
I53
tp687
a(I1961
I25
tp688
a(I807
I53
tp689
a(I1344
I53
tp690
a(I1950
I53
tp691
a(I315
I53
tp692
a(I905
I53
tp693
a(I913
I53
tp694
a(I498
I53
tp695
a(I845
I25
tp696
a(I738
I53
tp697
a(I1477
I25
tp698
a(I2118
I25
tp699
a(I1282
I25
tp700
a(I735
I53
tp701
a(I170
I53
tp702
a(I1937
I25
tp703
a(I844
I53
tp704
a(I352
I53
tp705
a(I405
I53
tp706
a(I958
I53
tp707
a(I2082
I53
tp708
a(I413
I53
tp709
a(I966
I53
tp710
a(I2079
I53
tp711
a(I161
I53
tp712
a(I882
I25
tp713
a(I1453
I25
tp714
a(I443
I25
tp715
a(I504
I25
tp716
a(I1007
I53
tp717
a(I313
I25
tp718
a(I1990
I25
tp719
a(I1015
I53
tp720
a(I2253
I53
tp721
a(I442
I53
tp722
a(I1353
I53
tp723
a(I1361
I53
tp724
a(I1490
I25
tp725
a(I1954
I53
tp726
a(I195
I53
tp727
a(I1951
I53
tp728
a(I1459
I53
tp729
a(I366
I25
tp730
a(I921
I25
tp731
a(I170
I25
tp732
a(I910
I53
tp733
a(I853
I53
tp734
a(I175
I25
tp735
a(I861
I53
tp736
a(I369
I53
tp737
a(I2259
I25
tp738
a(I395
I25
tp739
a(I456
I25
tp740
a(I437
I25
tp741
a(I3
I25
tp742
a(I1074
I25
tp743
a(I891
I25
tp744
a(I1988
I53
tp745
a(I959
I53
tp746
a(I265
I25
tp747
a(I342
I25
tp748
a(I967
I53
tp749
a(I897
I25
tp750
a(I475
I53
tp751
a(I974
I25
tp752
a(I761
I25
tp753
a(I394
I53
tp754
a(I715
I53
tp755
a(I402
I53
tp756
a(I151
I25
tp757
a(I890
I53
tp758
a(I212
I25
tp759
a(I783
I25
tp760
a(I166
I53
tp761
a(I1553
I53
tp762
a(I413
I25
tp763
a(I2119
I25
tp764
a(I474
I25
tp765
a(I867
I25
tp766
a(I497
I25
tp767
a(I996
I53
tp768
a(I318
I25
tp769
a(I504
I53
tp770
a(I105
I25
tp771
a(I1004
I53
tp772
a(I950
I25
tp773
a(I737
I25
tp774
a(I94
I53
tp775
a(I1369
I25
tp776
a(I752
I53
tp777
a(I805
I53
tp778
a(I1358
I53
tp779
a(I383
I25
tp780
a(I313
I53
tp781
a(I188
I25
tp782
a(I813
I53
tp783
a(I1015
I25
tp784
a(I321
I53
tp785
a(I820
I25
tp786
a(I389
I25
tp787
a(I843
I25
tp788
a(I885
I25
tp789
a(I1475
I25
tp790
a(I2081
I25
tp791
a(I1280
I25
tp792
a(I911
I53
tp793
a(I1448
I53
tp794
a(I926
I25
tp795
a(I713
I25
tp796
a(I1345
I25
tp797
a(I2140
I25
tp798
a(I1977
I25
tp799
a(I359
I25
tp800
a(I842
I53
tp801
a(I164
I25
tp802
a(I366
I53
tp803
a(I1931
I53
tp804
a(I850
I53
tp805
a(I374
I53
tp806
a(I2248
I25
tp807
a(I1090
I53
tp808
a(I880
I25
tp809
a(I861
I25
tp810
a(I1451
I25
tp811
a(I2259
I53
tp812
a(I2134
I25
tp813
a(I1059
I25
tp814
a(I948
I53
tp815
a(I456
I53
tp816
a(I902
I25
tp817
a(I464
I53
tp818
a(I1398
I25
tp819
a(I167
I53
tp820
a(I704
I53
tp821
a(I1013
I53
tp822
a(I265
I53
tp823
a(I140
I25
tp824
a(I967
I25
tp825
a(I1968
I53
tp826
a(I761
I53
tp827
a(I2204
I53
tp828
a(I402
I25
tp829
a(I205
I25
tp830
a(I98
I53
tp831
a(I837
I25
tp832
a(I1488
I25
tp833
a(I1469
I25
tp834
a(I95
I53
tp835
a(I1096
I25
tp836
a(I1077
I25
tp837
a(I1359
I53
tp838
a(I867
I53
tp839
a(I742
I25
tp840
a(I875
I53
tp841
a(I1374
I25
tp842
a(I1929
I25
tp843
a(I204
I53
tp844
a(I318
I53
tp845
a(I1004
I25
tp846
a(I326
I53
tp847
a(I1468
I53
tp848
a(I13
I53
tp849
a(I813
I25
tp850
a(I874
I25
tp851
a(I1445
I25
tp852
a(I435
I25
tp853
a(I1072
I25
tp854
a(I408
I53
tp855
a(I2261
I53
tp856
a(I1396
I53
tp857
a(I367
I53
tp858
a(I2151
I25
tp859
a(I1350
I25
tp860
a(I375
I53
tp861
a(I965
I53
tp862
a(I473
I53
tp863
a(I1982
I25
tp864
a(I1920
I53
tp865
a(I123
I53
tp866
a(I713
I53
tp867
a(I721
I53
tp868
a(I1949
I25
tp869
a(I1977
I53
tp870
a(I1985
I53
tp871
a(I850
I25
tp872
a(I411
I25
tp873
a(I2248
I53
tp874
a(I1482
I25
tp875
a(I472
I25
tp876
a(I2256
I53
tp877
a(I1090
I25
tp878
a(I1917
I25
tp879
a(I819
I53
tp880
a(I148
I53
tp881
a(I1059
I53
tp882
a(I156
I53
tp883
a(I1002
I53
tp884
a(I1067
I53
tp885
a(I928
I53
tp886
a(I1916
I53
tp887
a(I1485
I53
tp888
a(I993
I53
tp889
a(I387
I25
tp890
a(I1458
I25
tp891
a(I2156
I25
tp892
a(I1066
I25
tp893
a(I883
I25
tp894
a(I1348
I53
tp895
a(I319
I53
tp896
a(I856
I53
tp897
a(I327
I53
tp898
a(I334
I25
tp899
a(I1096
I53
tp900
a(I121
I25
tp901
a(I2118
I53
tp902
a(I1542
I25
tp903
a(I133
I25
tp904
a(I143
I25
tp905
a(I1929
I53
tp906
a(I1937
I53
tp907
a(I2200
I53
tp908
a(I405
I25
tp909
a(I859
I25
tp910
a(I1491
I25
tp911
a(I356
I53
tp912
a(I489
I25
tp913
a(I364
I53
tp914
a(I97
I25
tp915
a(I942
I25
tp916
a(I729
I25
tp917
a(I112
I53
tp918
a(I165
I53
tp919
a(I718
I53
tp920
a(I173
I53
tp921
a(I375
I25
tp922
a(I180
I25
tp923
a(I1982
I53
tp924
a(I1007
I25
tp925
a(I2203
I25
tp926
a(I2122
I53
tp927
a(I1990
I53
tp928
a(I945
I53
tp929
a(I400
I25
tp930
a(I203
I25
tp931
a(I442
I25
tp932
a(I835
I25
tp933
a(I1467
I25
tp934
a(I808
I53
tp935
a(I1075
I25
tp936
a(I465
I25
tp937
a(I2062
I53
tp938
a(I1540
I53
tp939
a(I2130
I53
tp940
a(I918
I25
tp941
a(I705
I25
tp942
a(I873
I53
tp943
a(I1337
I25
tp944
a(I202
I53
tp945
a(I351
I25
tp946
a(I210
I53
tp947
a(I156
I25
tp948
a(I983
I25
tp949
a(I1466
I53
tp950
a(I1474
I53
tp951
a(I998
I53
tp952
a(I811
I25
tp953
a(I872
I25
tp954
a(I853
I25
tp955
a(I1443
I25
tp956
a(I1504
I25
tp957
a(I2126
I25
tp958
a(I2260
I25
tp959
a(I126
I25
tp960
a(I758
I25
tp961
a(I373
I53
tp962
a(I1812
I53
tp963
a(I1390
I25
tp964
a(I1945
I25
tp965
a(I327
I25
tp966
a(I132
I25
tp967
a(I1934
I53
tp968
a(I959
I25
tp969
a(I121
I53
tp970
a(I897
I53
tp971
a(I394
I25
tp972
a(I197
I25
tp973
a(I848
I25
tp974
a(I890
I25
tp975
a(I1480
I25
tp976
a(I1461
I25
tp977
a(I1088
I25
tp978
a(I719
I53
tp979
a(I102
I25
tp980
a(I2141
I25
tp981
a(I734
I25
tp982
a(I1983
I53
tp983
a(I1491
I53
tp984
a(I1366
I25
tp985
a(I1991
I53
tp986
a(I1921
I25
tp987
a(I1065
I53
tp988
a(I364
I25
tp989
a(I935
I25
tp990
a(I828
I53
tp991
a(I996
I25
tp992
a(I942
I53
tp993
a(I397
I53
tp994
a(I950
I53
tp995
a(I173
I25
tp996
a(I893
I53
tp997
a(I805
I25
tp998
a(I2257
I25
tp999
a(I866
I25
tp1000
a(I1456
I25
tp1001
a(I2078
I25
tp1002
a(I1064
I25
tp1003
a(I756
I53
tp1004
a(I710
I25
tp1005
a(I325
I53
tp1006
a(I1342
I25
tp1007
a(I1974
I25
tp1008
a(I999
I53
tp1009
a(I1280
I53
tp1010
a(I972
I25
tp1011
a(I2205
I53
tp1012
a(I1337
I53
tp1013
a(I1345
I53
tp1014
a(I210
I25
tp1015
a(I842
I25
tp1016
a(I403
I25
tp1017
a(I1474
I25
tp1018
a(I179
I53
tp1019
a(I1935
I53
tp1020
a(I1443
I53
tp1021
a(I362
I53
tp1022
a(I1451
I53
tp1023
a(I1950
I25
tp1024
a(I1995
I25
tp1025
a(I126
I53
tp1026
a(I902
I53
tp1027
a(I1383
I25
tp1028
a(I1390
I53
tp1029
a(I845
I53
tp1030
a(I1398
I53
tp1031
a(I353
I53
tp1032
a(I818
I25
tp1033
a(I1450
I25
tp1034
a(I440
I25
tp1035
a(I708
I53
tp1036
a(I1972
I53
tp1037
a(I943
I53
tp1038
a(I1480
I53
tp1039
a(I1926
I25
tp1040
a(I951
I53
tp1041
a(I1488
I53
tp1042
a(I459
I53
tp1043
a(I386
I53
tp1044
a(I1991
I25
tp1045
a(I882
I53
tp1046
a(I150
I53
tp1047
a(I490
I53
tp1048
a(I131
I53
tp1049
a(I851
I25
tp1050
a(I2117
I53
tp1051
a(I980
I53
tp1052
a(I496
I53
tp1053
a(I736
I53
tp1054
a(I1342
I53
tp1055
a(I367
I25
tp1056
a(I797
I53
tp1057
a(I1350
I53
tp1058
a(I392
I25
tp1059
a(I195
I25
tp1060
a(I827
I25
tp1061
a(I168
I53
tp1062
a(I888
I25
tp1063
a(I2154
I53
tp1064
a(I1459
I25
tp1065
a(I1924
I53
tp1066
a(I127
I53
tp1067
a(I457
I25
tp1068
a(I403
I53
tp1069
a(I903
I53
tp1070
a(I2080
I53
tp1071
a(I411
I53
tp1072
a(I910
I25
tp1073
a(I1391
I53
tp1074
a(I1399
I53
tp1075
a(I1989
I53
tp1076
a(I343
I25
tp1077
a(I826
I53
tp1078
a(I148
I25
tp1079
a(I975
I25
tp1080
a(I834
I53
tp1081
a(I358
I53
tp1082
a(I2232
I25
tp1083
a(I1074
I53
tp1084
a(I171
I25
tp1085
a(I410
I25
tp1086
a(I803
I25
tp1087
a(I864
I25
tp1088
a(I2251
I53
tp1089
a(I932
I53
tp1090
a(I440
I53
tp1091
a(I940
I53
tp1092
a(I118
I25
tp1093
a(I750
I25
tp1094
a(I151
I53
tp1095
a(I997
I53
tp1096
a(I319
I25
tp1097
a(I380
I25
tp1098
a(I1005
I53
tp1099
a(I951
I25
tp1100
a(I1012
I25
tp1101
a(I1542
I53
tp1102
a(I753
I53
tp1103
a(I386
I25
tp1104
a(I208
I25
tp1105
a(I189
I25
tp1106
a(I840
I25
tp1107
a(I821
I25
tp1108
a(I1472
I25
tp1109
a(I486
I25
tp1110
a(I94
I25
tp1111
a(I1343
I53
tp1112
a(I851
I53
tp1113
a(I726
I25
tp1114
a(I1351
I53
tp1115
a(I1281
I25
tp1116
a(I859
I53
tp1117
a(I1449
I53
tp1118
a(I1358
I25
tp1119
a(I188
I53
tp1120
a(I356
I25
tp1121
a(I927
I25
tp1122
a(I1995
I53
tp1123
a(I165
I25
tp1124
a(I816
I25
tp1125
a(I797
I25
tp1126
a(I2249
I25
tp1127
a(I858
I25
tp1128
a(I1448
I25
tp1129
a(I2203
I53
tp1130
a(I116
I53
tp1131
a(I392
I53
tp1132
a(I400
I53
tp1133
a(I881
I25
tp1134
a(I1380
I53
tp1135
a(I888
I53
tp1136
a(I2135
I25
tp1137
a(I1388
I53
tp1138
a(I1334
I25
tp1139
a(I359
I53
tp1140
a(I949
I53
tp1141
a(I457
I53
tp1142
a(I1966
I25
tp1143
a(I332
I25
tp1144
a(I903
I25
tp1145
a(I465
I53
tp1146
a(I964
I25
tp1147
a(I2202
I25
tp1148
a(I1399
I25
tp1149
a(I705
I53
tp1150
a(I141
I25
tp1151
a(I202
I25
tp1152
a(I1969
I53
tp1153
a(I834
I25
tp1154
a(I2232
I53
tp1155
a(I1466
I25
tp1156
a(I803
I53
tp1157
a(I1446
I53
tp1158
a(I811
I53
tp1159
a(I140
I53
tp1160
a(I1942
I25
tp1161
a(I2133
I25
tp1162
a(I940
I25
tp1163
a(I743
I25
tp1164
a(I750
I53
tp1165
a(I1375
I25
tp1166
a(I205
I53
tp1167
a(I758
I53
tp1168
a(I1812
I25
tp1169
a(I178
I25
tp1170
a(I1005
I25
tp1171
a(I1469
I53
tp1172
a(I810
I25
tp1173
a(I1442
I25
tp1174
a(I1332
I53
tp1175
a(I840
I53
tp1176
a(I311
I53
tp1177
a(I848
I53
tp1178
a(I901
I53
tp1179
a(I409
I53
tp1180
a(I1088
I53
tp1181
a(I1397
I53
tp1182
a(I1351
I25
tp1183
a(I1983
I25
tp1184
a(I1921
I53
tp1185
a(I408
I25
tp1186
a(I1952
I25
tp1187
a(I211
I25
tp1188
a(I1503
I53
tp1189
a(I1011
I53
tp1190
a(I2151
I53
tp1191
a(I340
I53
tp1192
a(I2249
I53
tp1193
a(I2124
I25
tp1194
a(I473
I25
tp1195
a(I348
I53
tp1196
a(I2257
I53
tp1197
a(I938
I53
tp1198
a(I462
I53
tp1199
a(I96
I53
tp1200
a(I149
I53
tp1201
a(I1388
I25
tp1202
a(I157
I53
tp1203
a(I710
I53
tp1204
a(I1959
I25
tp1205
a(I1966
I53
tp1206
a(I1974
I53
tp1207
a(I929
I53
tp1208
a(I384
I25
tp1209
a(I187
I25
tp1210
a(I1917
I53
tp1211
a(I819
I25
tp1212
a(I1284
I53
tp1213
a(I2204
I25
tp1214
a(I751
I53
tp1215
a(I759
I53
tp1216
a(I1349
I53
tp1217
a(I857
I53
tp1218
a(I186
I53
tp1219
a(I335
I25
tp1220
a(I194
I53
tp1221
a(I1996
I25
tp1222
a(I1458
I53
tp1223
a(I982
I53
tp1224
a(I163
I25
tp1225
a(I963
I53
tp1226
a(I856
I25
tp1227
a(I2201
I53
tp1228
a(I502
I25
tp1229
a(I414
I53
tp1230
a(I110
I25
tp1231
a(I1386
I53
tp1232
a(I357
I53
tp1233
a(I365
I53
tp1234
a(I311
I25
tp1235
a(I372
I25
tp1236
a(I943
I25
tp1237
a(I1926
I53
tp1238
a(I2200
I25
tp1239
a(I113
I53
tp1240
a(I139
I25
tp1241
a(I200
I25
tp1242
a(I181
I25
tp1243
a(I2132
I53
tp1244
a(I463
I53
tp1245
a(I1000
I53
tp1246
a(I1464
I25
tp1247
a(I401
I25
tp1248
a(I2254
I53
tp1249
a(I703
I53
tp1250
a(I211
I53
tp1251
a(I711
I53
tp1252
a(I809
I53
tp1253
a(I718
I25
tp1254
a(I1967
I53
tp1255
a(I138
I53
tp1256
a(I1975
I53
tp1257
a(I1541
I53
tp1258
a(I1483
I53
tp1259
a(I146
I53
tp1260
a(I348
I25
tp1261
a(I919
I25
tp1262
a(I980
I25
tp1263
a(I934
I53
tp1264
a(I176
I25
tp1265
a(I157
I25
tp1266
a(I1003
I25
tp1267
a(I808
I25
tp1268
a(I500
I53
tp1269
a(I2062
I25
tp1270
a(I740
I53
tp1271
a(I873
I25
tp1272
a(I748
I53
tp1273
a(I862
I53
tp1274
a(I2127
I25
tp1275
a(I983
I53
tp1276
a(I324
I25
tp1277
a(I127
I25
tp1278
a(I956
I25
tp1279
a(I759
I25
tp1280
a(I1813
I53
tp1281
a(I1391
I25
tp1282
a(I1329
I53
tp1283
a(I194
I25
tp1284
a(I784
I25
tp1285
a(I415
I53
tp1286
a(I826
I25
tp1287
a(I163
I53
tp1288
a(I849
I25
tp1289
a(I171
I53
tp1290
a(I1952
I53
tp1291
a(I1481
I25
tp1292
a(I346
I53
tp1293
a(I1927
I53
tp1294
a(I1089
I25
tp1295
a(I1934
I25
tp1296
a(I103
I25
tp1297
a(I932
I25
tp1298
a(I110
I53
tp1299
a(I735
I25
tp1300
a(I594
I53
tp1301
a(I118
I53
tp1302
a(I1367
I25
tp1303
a(I365
I25
tp1304
a(I2255
I53
tp1305
a(I1382
I53
tp1306
a(I997
I25
tp1307
a(I802
I25
tp1308
a(I200
I53
tp1309
a(I208
I53
tp1310
a(I1457
I25
tp1311
a(I2079
I25
tp1312
a(I1956
I53
tp1313
a(I1464
I53
tp1314
a(I1065
I25
tp1315
a(I1964
I53
tp1316
a(I935
I53
tp1317
a(I1472
I53
tp1318
a(I757
I53
tp1319
a(I443
I53
tp1320
a(I908
I25
tp1321
a(I711
I25
tp1322
a(I1343
I25
tp1323
a(I1975
I25
tp1324
a(I1281
I53
tp1325
a(I2130
I25
tp1326
a(I146
I25
tp1327
a(I973
I25
tp1328
a(I866
I53
tp1329
a(I863
I53
tp1330
a(I371
I53
tp1331
a(I972
I53
tp1332
a(I748
I25
tp1333
a(I1380
I25
tp1334
a(I1951
I25
tp1335
a(I1810
I53
tp1336
a(I1334
I53
tp1337
a(I1010
I25
tp1338
a(I179
I25
tp1339
a(I152
I53
tp1340
a(I2138
I53
tp1341
a(I1328
I53
tp1342
a(I111
I53
tp1343
a(I441
I25
tp1344
a(I1094
I25
tp1345
a(I119
I53
tp1346
a(I709
I53
tp1347
a(I395
I53
tp1348
a(I1383
I53
tp1349
a(I1973
I53
tp1350
a(I891
I53
tp1351
a(I1481
I53
tp1352
a(I1356
I25
tp1353
a(I1927
I25
tp1354
a(I1489
I53
tp1355
a(I1988
I25
tp1356
a(I818
I53
tp1357
a(I342
I53
tp1358
a(I1953
I25
tp1359
a(I594
I25
tp1360
a(I155
I25
tp1361
a(I323
I53
tp1362
a(I916
I53
tp1363
a(I494
I25
tp1364
a(I924
I53
tp1365
a(I746
I53
tp1366
a(I14
I53
tp1367
a(I981
I53
tp1368
a(I1964
I25
tp1369
a(I497
I53
tp1370
a(I737
I53
tp1371
a(I131
I25
tp1372
a(I192
I25
tp1373
a(I360
I53
tp1374
a(I824
I25
tp1375
a(I2205
I25
tp1376
a(I1092
I53
tp1377
a(I393
I25
tp1378
a(I470
I25
tp1379
a(I169
I53
tp1380
a(I1327
I53
tp1381
a(I889
I25
tp1382
a(I1335
I53
tp1383
a(I1925
I53
tp1384
a(I843
I53
tp1385
a(I2081
I53
tp1386
a(I340
I25
tp1387
a(I911
I25
tp1388
a(I363
I25
tp1389
a(I168
I25
tp1390
a(I149
I25
tp1391
a(I995
I25
tp1392
a(I1810
I25
tp1393
a(I800
I25
tp1394
a(I2233
I25
tp1395
a(I100
I53
tp1396
a(I108
I53
tp1397
a(I384
I53
tp1398
a(I865
I25
tp1399
a(I1364
I53
tp1400
a(I1372
I53
tp1401
a(I1962
I53
tp1402
a(I343
I53
tp1403
a(I880
I53
tp1404
a(I933
I53
tp1405
a(I1486
I53
tp1406
a(I441
I53
tp1407
a(I316
I25
tp1408
a(I941
I53
tp1409
a(I2134
I53
tp1410
a(I119
I25
tp1411
a(I948
I25
tp1412
a(I751
I25
tp1413
a(I144
I25
tp1414
a(I381
I25
tp1415
a(I971
I25
tp1416
a(I186
I25
tp1417
a(I1013
I25
tp1418
a(I209
I25
tp1419
a(I841
I25
tp1420
a(I1473
I25
tp1421
a(I487
I25
tp1422
a(I380
I53
tp1423
a(I970
I53
tp1424
a(I494
I53
tp1425
a(I95
I25
tp1426
a(I978
I53
tp1427
a(I924
I25
tp1428
a(I502
I53
tp1429
a(I727
I25
tp1430
a(I1359
I25
tp1431
a(I2152
I53
tp1432
a(I189
I53
tp1433
a(I742
I53
tp1434
a(I357
I25
tp1435
a(I162
I25
tp1436
a(I1987
I53
tp1437
a(I817
I25
tp1438
a(I894
I25
tp1439
a(I824
I53
tp1440
a(I1449
I25
tp1441
a(I2132
I25
tp1442
a(I117
I53
tp1443
a(I393
I53
tp1444
a(I401
I53
tp1445
a(I900
I25
tp1446
a(I1381
I53
tp1447
a(I703
I25
tp1448
a(I889
I53
tp1449
a(I2155
I25
tp1450
a(I1389
I53
tp1451
a(I1335
I25
tp1452
a(I1396
I25
tp1453
a(I1967
I25
tp1454
a(I333
I25
tp1455
a(I138
I25
tp1456
a(I965
I25
tp1457
a(I1953
I53
tp1458
a(I1487
I53
tp1459
a(I995
I53
tp1460
a(I870
I25
tp1461
a(I2135
I53
tp1462
a(I1003
I53
tp1463
a(I2233
I53
tp1464
a(I332
I53
tp1465
a(I922
I53
tp1466
a(I108
I25
tp1467
a(I740
I25
tp1468
a(I1372
I25
tp1469
a(I141
I53
tp1470
a(I1943
I25
tp1471
a(I370
I25
tp1472
a(I941
I25
tp1473
a(I1002
I25
tp1474
a(I1813
I25
tp1475
a(I495
I53
tp1476
a(I1478
I25
tp1477
a(I503
I53
tp1478
a(I784
I53
tp1479
a(I1086
I25
tp1480
a(I743
I53
tp1481
a(I1333
I53
tp1482
a(I841
I53
tp1483
a(I716
I25
tp1484
a(I849
I53
tp1485
a(I1348
I25
tp1486
a(I178
I53
tp1487
a(I1089
I53
tp1488
a(I133
I53
tp1489
a(I978
I25
tp1490
a(I1442
I53
tp1491
a(I147
I25
tp1492
a(I947
I53
tp1493
a(I409
I25
tp1494
a(I106
I53
tp1495
a(I398
I53
tp1496
a(I1370
I53
tp1497
a(I341
I53
tp1498
a(I894
I53
tp1499
a(I2125
I25
tp1500
a(I349
I53
tp1501
a(I1956
I25
tp1502
a(I1971
I53
tp1503
a(I97
I53
tp1504
a(I1389
I25
tp1505
a(I379
I25
tp1506
a(I184
I25
tp1507
a(I1011
I25
tp1508
a(I1476
I53
tp1509
a(I984
I53
tp1510
a(I2124
I53
tp1511
a(I455
I53
tp1512
a(I385
I25
tp1513
a(I1093
I25
tp1514
a(I462
I25
tp1515
a(I203
I53
tp1516
a(I378
I53
tp1517
a(I1959
I53
tp1518
a(I1467
I53
tp1519
a(I130
I53
tp1520
a(I1932
I25
tp1521
a(I1540
I25
tp1522
a(I918
I53
tp1523
a(I355
I25
tp1524
a(I160
I25
tp1525
a(I899
I53
tp1526
a(I484
I53
tp1527
a(I1395
I53
tp1528
a(I492
I53
tp1529
a(I438
I25
tp1530
a(I724
I53
tp1531
a(I857
I25
tp1532
a(I732
I53
tp1533
a(I900
I53
tp1534
a(I846
I53
tp1535
a(I503
I25
tp1536
a(I1996
I53
tp1537
a(I1504
I53
tp1538
a(I1086
I53
tp1539
a(I111
I25
tp1540
a(I1094
I53
tp1541
a(I331
I25
tp1542
a(I136
I25
tp1543
a(I373
I25
tp1544
a(I963
I25
tp1545
a(I399
I53
tp1546
a(I936
I53
tp1547
a(I2201
I25
tp1548
a(I414
I25
tp1549
a(I895
I53
tp1550
a(I201
I25
tp1551
a(I147
I53
tp1552
a(I833
I25
tp1553
a(I155
I53
tp1554
a(I1001
I53
tp1555
a(I1465
I25
tp1556
a(I330
I53
tp1557
a(I338
I53
tp1558
a(I916
I25
tp1559
a(I719
I25
tp1560
a(I102
I53
tp1561
a(I368
I25
tp1562
a(I349
I25
tp1563
a(I939
I25
tp1564
a(I1366
I53
tp1565
a(I1000
I25
tp1566
a(I981
I25
tp1567
a(I436
I53
tp1568
a(I2254
I25
tp1569
a(I1347
I53
tp1570
a(I390
I25
tp1571
a(I1811
I25
tp1572
a(I177
I25
tp1573
a(I184
I53
tp1574
a(I809
I25
tp1575
a(I886
I25
tp1576
a(I192
I53
tp1577
a(I501
I53
tp1578
a(I798
I53
tp1579
a(I1940
I53
tp1580
a(I455
I25
tp1581
a(I1948
I53
tp1582
a(I919
I53
tp1583
a(I1456
I53
tp1584
a(I741
I53
tp1585
a(I124
I25
tp1586
a(I749
I53
tp1587
a(I756
I25
tp1588
a(I1327
I25
tp1589
a(I325
I25
tp1590
a(I130
I25
tp1591
a(I976
I25
tp1592
a(I957
I25
tp1593
a(I1489
I25
tp1594
a(I847
I53
tp1595
a(I1384
I53
tp1596
a(I355
I53
tp1597
a(I363
I53
tp1598
a(I862
I25
tp1599
a(I1087
I53
tp1600
a(I1095
I53
tp1601
a(I492
I25
tp1602
a(I956
I53
tp1603
a(I100
I25
tp1604
a(I2123
I25
tp1605
a(I732
I25
tp1606
a(I1364
I25
tp1607
a(I1935
I25
tp1608
a(I362
I25
tp1609
a(I933
I25
tp1610
a(I994
I25
tp1611
a(I388
I53
tp1612
a(I1387
I25
tp1613
a(I884
I53
tp1614
a(I136
I53
tp1615
a(I838
I25
tp1616
a(I144
I53
tp1617
a(I1470
I25
tp1618
a(I1078
I25
tp1619
a(I103
I53
tp1620
a(I201
I53
tp1621
a(I209
I53
tp1622
a(I1367
I53
tp1623
a(I708
I25
tp1624
a(I1957
I53
tp1625
a(I1465
I53
tp1626
a(I1340
I25
tp1627
a(I1965
I53
tp1628
a(I1473
I53
tp1629
a(I1972
I25
tp1630
a(I338
I25
tp1631
a(I909
I25
tp1632
a(I802
I53
tp1633
a(I970
I25
tp1634
a(I799
I53
tp1635
a(I1446
I25
tp1636
a(I1339
I53
tp1637
a(I1811
I53
tp1638
a(I908
I53
tp1639
a(I730
I53
tp1640
a(I2117
I25
tp1641
a(I1994
I53
tp1642
a(I1072
I53
tp1643
a(I1948
I25
tp1644
a(I973
I53
tp1645
a(I946
I25
tp1646
a(I749
I25
tp1647
a(I1381
I25
tp1648
a(I371
I25
tp1649
a(I2155
I53
tp1650
a(I836
I53
tp1651
a(I344
I53
tp1652
a(I2074
I53
tp1653
a(I1076
I53
tp1654
a(I153
I53
tp1655
a(I1918
I25
tp1656
a(I827
I53
tp1657
a(I2154
I25
tp1658
a(I1095
I25
tp1659
a(I1924
I25
tp1660
a(I1010
I53
tp1661
a(I1357
I25
tp1662
a(I347
I25
tp1663
a(I152
I25
tp1664
a(I1989
I25
tp1665
a(I979
I25
tp1666
a(I755
I53
tp1667
a(I92
I53
tp1668
a(I206
I53
tp1669
a(I1356
I53
tp1670
a(I1946
I53
tp1671
a(I864
I53
tp1672
a(I917
I53
tp1673
a(I1470
I53
tp1674
a(I495
I25
tp1675
a(I925
I53
tp1676
a(I1478
I53
tp1677
a(I323
I25
tp1678
a(I1394
I25
tp1679
a(I128
I25
tp1680
a(I1965
I25
tp1681
a(I955
I25
tp1682
a(I1016
I25
tp1683
a(I406
I25
tp1684
a(I193
I25
tp1685
a(I361
I53
tp1686
a(I14
I25
tp1687
a(I825
I25
tp1688
a(I1093
I53
tp1689
a(I471
I25
tp1690
a(I954
I53
tp1691
a(I962
I53
tp1692
a(I486
I53
tp1693
a(I2136
I53
tp1694
a(I726
I53
tp1695
a(I360
I25
tp1696
a(I341
I25
tp1697
a(I931
I25
tp1698
a(I169
I25
tp1699
a(I1073
I25
tp1700
a(I801
I25
tp1701
a(I158
I53
tp1702
a(I878
I25
tp1703
a(I816
I53
tp1704
a(I101
I53
tp1705
a(I109
I53
tp1706
a(I385
I53
tp1707
a(I116
I25
tp1708
a(I1365
I53
tp1709
a(I1918
I53
tp1710
a(I2139
I25
tp1711
a(I1373
I53
tp1712
a(I881
I53
tp1713
a(I336
I25
tp1714
a(I317
I25
tp1715
a(I907
I25
tp1716
a(I378
I25
tp1717
a(I968
I25
tp1718
a(I949
I25
tp1719
a(I207
I53
tp1720
a(I744
I53
tp1721
a(I145
I25
tp1722
a(I1471
I53
tp1723
a(I979
I53
tp1724
a(I854
I25
tp1725
a(I1479
I53
tp1726
a(I1486
I25
tp1727
a(I316
I53
tp1728
a(I906
I53
tp1729
a(I484
I25
tp1730
a(I914
I53
tp1731
a(I92
I25
tp1732
a(I438
I53
tp1733
a(I143
I53
tp1734
a(I724
I25
tp1735
a(I381
I53
tp1736
a(I354
I25
tp1737
a(I944
I25
tp1738
a(I925
I25
tp1739
a(I747
I25
tp1740
a(I1942
I53
tp1741
a(I2198
I25
tp1742
a(I1379
I25
tp1743
a(I2153
I53
tp1744
a(I1923
I53
tp1745
a(I198
I25
tp1746
a(I1009
I25
tp1747
a(I1016
I53
tp1748
asS'runtime'
p1749
F0.30876803398132324
sS'name'
p1750
S'["fd_checker", [["prmry_bus_function", "urgency"]]]'
p1751
s.