(dp0
S'output'
p1
(lp2
(I1628
I11
tp3
a(I727
I11
tp4
a(I726
I7
tp5
a(I726
I11
tp6
a(I1628
I7
tp7
a(I727
I7
tp8
asS'runtime'
p9
F0.31055116653442383
sS'name'
p10
S'["fd_checker", [["name", "status"]]]'
p11
s.