(dp0
S'output'
p1
(lp2
(I1282
I6
tp3
a(I401
I6
tp4
a(I326
I6
tp5
a(I401
I10
tp6
a(I1283
I10
tp7
a(I326
I10
tp8
a(I1282
I10
tp9
a(I1285
I6
tp10
a(I1283
I6
tp11
a(I1285
I10
tp12
asS'runtime'
p13
F0.307171106338501
sS'name'
p14
S'["fd_checker", [["app_nm", "classid"]]]'
p15
s.