(dp0
S'output'
p1
(lp2
(I1130
I31
tp3
a(I1445
I31
tp4
a(I1751
I31
tp5
a(I816
I31
tp6
a(I1750
I31
tp7
a(I276
I31
tp8
a(I1743
I31
tp9
a(I1519
I31
tp10
a(I305
I31
tp11
a(I1749
I31
tp12
a(I542
I31
tp13
a(I2085
I31
tp14
a(I480
I31
tp15
a(I1801
I31
tp16
a(I1746
I31
tp17
a(I1572
I31
tp18
a(I1745
I31
tp19
a(I86
I31
tp20
a(I308
I31
tp21
a(I577
I31
tp22
asS'runtime'
p23
F0.0018911361694335938
sS'name'
p24
S'["regex", [["end_users", "[c]", "OM"]]]'
p25
s.