(dp0
S'output'
p1
(lp2
(I1337
I10
tp3
a(I1795
I10
tp4
a(I1829
I10
tp5
a(I42
I10
tp6
a(I1628
I10
tp7
a(I616
I10
tp8
a(I450
I10
tp9
a(I1132
I10
tp10
a(I376
I10
tp11
a(I210
I10
tp12
a(I651
I10
tp13
a(I1155
I10
tp14
a(I1450
I10
tp15
a(I2141
I10
tp16
a(I1135
I10
tp17
a(I2049
I10
tp18
a(I1676
I10
tp19
a(I1796
I10
tp20
a(I1451
I10
tp21
a(I1381
I10
tp22
a(I944
I10
tp23
a(I547
I10
tp24
a(I527
I10
tp25
a(I898
I10
tp26
a(I1161
I10
tp27
a(I187
I10
tp28
a(I2087
I10
tp29
a(I1567
I10
tp30
a(I1810
I10
tp31
a(I164
I10
tp32
a(I1611
I10
tp33
a(I1797
I10
tp34
a(I1640
I10
tp35
a(I1356
I10
tp36
a(I1624
I10
tp37
asS'runtime'
p38
F0.0019540786743164062
sS'name'
p39
S'["regex", [["app_nm", "[j]", "OM"]]]'
p40
s.