(dp0
S'output'
p1
(lp2
(I2228
I23
tp3
a(I794
I23
tp4
a(I2172
I23
tp5
a(I1790
I23
tp6
a(I1803
I23
tp7
a(I2207
I23
tp8
a(I1009
I23
tp9
a(I1324
I23
tp10
a(I793
I23
tp11
a(I310
I23
tp12
a(I2206
I23
tp13
a(I2160
I23
tp14
a(I1323
I23
tp15
a(I1215
I23
tp16
a(I1297
I23
tp17
a(I775
I23
tp18
a(I63
I23
tp19
a(I2098
I23
tp20
a(I1795
I23
tp21
a(I572
I23
tp22
a(I16
I23
tp23
a(I2212
I23
tp24
a(I2141
I23
tp25
a(I1296
I23
tp26
a(I2097
I23
tp27
a(I1805
I23
tp28
a(I1743
I23
tp29
a(I762
I23
tp30
a(I1161
I23
tp31
a(I1914
I23
tp32
a(I1322
I23
tp33
a(I787
I23
tp34
a(I1804
I23
tp35
a(I1742
I23
tp36
a(I1223
I23
tp37
a(I1568
I23
tp38
a(I2169
I23
tp39
asS'runtime'
p40
F0.0019290447235107422
sS'name'
p41
S'["regex", [["bus_hours", "[c]", "OM"]]]'
p42
s.