(dp0
S'output'
p1
(lp2
(I1453
I23
tp3
a(I662
I23
tp4
a(I710
I23
tp5
a(I2033
I23
tp6
a(I714
I23
tp7
a(I1938
I23
tp8
a(I1269
I23
tp9
a(I1054
I23
tp10
a(I2219
I23
tp11
a(I37
I23
tp12
a(I1301
I23
tp13
a(I656
I23
tp14
a(I2035
I23
tp15
a(I679
I23
tp16
a(I1490
I23
tp17
a(I1940
I23
tp18
a(I2038
I23
tp19
a(I1768
I23
tp20
a(I2042
I23
tp21
a(I1043
I23
tp22
a(I2228
I23
tp23
a(I2031
I23
tp24
a(I2172
I23
tp25
a(I1449
I23
tp26
a(I1094
I23
tp27
a(I799
I23
tp28
a(I1272
I23
tp29
a(I1452
I23
tp30
a(I1767
I23
tp31
a(I1177
I23
tp32
a(I1298
I23
tp33
a(I763
I23
tp34
a(I527
I23
tp35
a(I1141
I23
tp36
a(I2032
I23
tp37
a(I713
I23
tp38
a(I1304
I23
tp39
a(I1937
I23
tp40
a(I1166
I23
tp41
a(I775
I23
tp42
a(I1268
I23
tp43
a(I90
I23
tp44
a(I661
I23
tp45
a(I1271
I23
tp46
a(I528
I23
tp47
a(I2225
I23
tp48
a(I1454
I23
tp49
a(I1300
I23
tp50
a(I1303
I23
tp51
a(I1939
I23
tp52
a(I2041
I23
tp53
a(I2221
I23
tp54
a(I2044
I23
tp55
a(I592
I23
tp56
a(I2030
I23
tp57
a(I1561
I23
tp58
a(I658
I23
tp59
a(I635
I23
tp60
a(I1935
I23
tp61
a(I1448
I23
tp62
a(I2037
I23
tp63
a(I798
I23
tp64
a(I1451
I23
tp65
a(I1491
I23
tp66
a(I1159
I23
tp67
a(I2223
I23
tp68
a(I712
I23
tp69
a(I1045
I23
tp70
a(I1936
I23
tp71
a(I1267
I23
tp72
a(I1093
I23
tp73
a(I1152
I23
tp74
a(I660
I23
tp75
a(I1270
I23
tp76
a(I801
I23
tp77
a(I2224
I23
tp78
a(I1309
I23
tp79
a(I1299
I23
tp80
a(I711
I23
tp81
a(I2034
I23
tp82
a(I1302
I23
tp83
a(I797
I23
tp84
a(I2040
I23
tp85
a(I1042
I23
tp86
a(I2043
I23
tp87
a(I657
I23
tp88
a(I2036
I23
tp89
a(I2039
I23
tp90
a(I1570
I23
tp91
a(I1336
I23
tp92
a(I2222
I23
tp93
a(I1142
I23
tp94
a(I634
I23
tp95
a(I1092
I23
tp96
a(I1450
I23
tp97
a(I659
I23
tp98
a(I800
I23
tp99
asS'runtime'
p100
F0.001895904541015625
sS'name'
p101
S'["regex", [["bus_hours", "[:]", "OM"]]]'
p102
s.