(dp0
S'output'
p1
(lp2
(I1528
I40
tp3
a(I1535
I40
tp4
a(I1533
I40
tp5
a(I1538
I40
tp6
a(I1534
I40
tp7
a(I1532
I40
tp8
a(I1539
I40
tp9
a(I1530
I40
tp10
a(I1537
I40
tp11
a(I1531
I40
tp12
a(I1529
I40
tp13
a(I1536
I40
tp14
asS'runtime'
p15
F0.0018079280853271484
sS'name'
p16
S'["regex", [["emp_dta", "[/]", "OM"]]]'
p17
s.