(dp0
S'output'
p1
(lp2
(I1350
I7
tp3
a(I1555
I7
tp4
a(I684
I7
tp5
a(I1558
I7
tp6
a(I1448
I7
tp7
a(I1559
I7
tp8
a(I1609
I7
tp9
asS'runtime'
p10
F0.0019299983978271484
sS'name'
p11
S'["regex", [["name", "[4]", "OM"]]]'
p12
s.