(dp0
S'output'
p1
(lp2
(I2118
I51
tp3
a(I1513
I51
tp4
a(I1107
I51
tp5
a(I708
I51
tp6
a(I512
I51
tp7
a(I1369
I51
tp8
a(I1514
I51
tp9
a(I1867
I51
tp10
a(I1278
I51
tp11
a(I584
I51
tp12
a(I1347
I51
tp13
a(I1773
I51
tp14
a(I670
I51
tp15
a(I1342
I51
tp16
a(I1882
I51
tp17
a(I683
I51
tp18
a(I1013
I51
tp19
asS'runtime'
p20
F0.0033271312713623047
sS'name'
p21
S'["regex", [["total_cases", "[9]", "OM"]]]'
p22
s.