(dp0
S'output'
p1
(lp2
(I269
I33
tp3
a(I730
I33
tp4
a(I1104
I33
tp5
a(I270
I33
tp6
a(I271
I33
tp7
a(I275
I33
tp8
a(I268
I33
tp9
a(I1571
I33
tp10
a(I273
I33
tp11
a(I1518
I33
tp12
a(I2140
I33
tp13
a(I586
I33
tp14
a(I630
I33
tp15
a(I272
I33
tp16
a(I267
I33
tp17
a(I652
I33
tp18
a(I585
I33
tp19
a(I655
I33
tp20
a(I637
I33
tp21
a(I686
I33
tp22
a(I778
I33
tp23
a(I274
I33
tp24
asS'runtime'
p25
F0.001870870590209961
sS'name'
p26
S'["regex", [["division", "[C]", "OM"]]]'
p27
s.