(dp0
S'output'
p1
(lp2
(I2245
I31
tp3
a(I1445
I31
tp4
a(I206
I31
tp5
a(I1751
I31
tp6
a(I1058
I31
tp7
a(I299
I31
tp8
a(I596
I31
tp9
a(I102
I31
tp10
a(I1743
I31
tp11
a(I2184
I31
tp12
a(I1745
I31
tp13
a(I1749
I31
tp14
a(I542
I31
tp15
a(I1746
I31
tp16
a(I1750
I31
tp17
a(I2036
I31
tp18
asS'runtime'
p19
F0.001870870590209961
sS'name'
p20
S'["regex", [["end_users", "[x]", "OM"]]]'
p21
s.