(dp0
S'output'
p1
(lp2
(I657
I51
tp3
a(I679
I51
tp4
a(I586
I51
tp5
a(I268
I51
tp6
a(I54
I51
tp7
a(I423
I51
tp8
a(I50
I51
tp9
a(I2115
I51
tp10
a(I653
I51
tp11
a(I1342
I51
tp12
a(I658
I51
tp13
a(I592
I51
tp14
a(I1867
I51
tp15
a(I636
I51
tp16
asS'runtime'
p17
F0.0034210681915283203
sS'name'
p18
S'["regex", [["total_cases", "[6]", "OM"]]]'
p19
s.