(dp0
S'output'
p1
(lp2
(I1679
I55
tp3
a(I1746
I55
tp4
a(I1656
I55
tp5
a(I2216
I55
tp6
a(I1722
I55
tp7
a(I451
I55
tp8
a(I1916
I55
tp9
a(I1173
I55
tp10
a(I1022
I55
tp11
a(I1726
I55
tp12
a(I68
I55
tp13
a(I1624
I55
tp14
a(I1715
I55
tp15
a(I302
I55
tp16
a(I1735
I55
tp17
a(I1625
I55
tp18
asS'runtime'
p19
F0.0018448829650878906
sS'name'
p20
S'["regex", [["app_comments", "[.]", "OM"]]]'
p21
s.