(dp0
S'output'
p1
(lp2
(I1130
I31
tp3
a(I1445
I31
tp4
a(I816
I31
tp5
a(I308
I31
tp6
a(I1743
I31
tp7
a(I1519
I31
tp8
a(I305
I31
tp9
a(I1699
I31
tp10
a(I2085
I31
tp11
a(I480
I31
tp12
a(I1801
I31
tp13
a(I1572
I31
tp14
a(I577
I31
tp15
asS'runtime'
p16
F0.0018768310546875
sS'name'
p17
S'["regex", [["end_users", "[u]", "OM"]]]'
p18
s.