(dp0
S'output'
p1
(lp2
(I1420
I34
tp3
a(I1421
I34
tp4
a(I1419
I34
tp5
a(I1406
I34
tp6
a(I1402
I34
tp7
a(I1414
I34
tp8
a(I223
I34
tp9
a(I1401
I34
tp10
a(I1403
I34
tp11
a(I1415
I34
tp12
a(I1418
I34
tp13
asS'runtime'
p14
F0.0018820762634277344
sS'name'
p15
S'["regex", [["division_1", "[D]", "OM"]]]'
p16
s.