(dp0
S'output'
p1
(lp2
(I690
I45
tp3
a(I1539
I45
tp4
a(I1537
I45
tp5
a(I1536
I45
tp6
a(I805
I45
tp7
a(I2076
I45
tp8
a(I1531
I45
tp9
a(I1529
I45
tp10
a(I1538
I45
tp11
a(I1535
I45
tp12
a(I1528
I45
tp13
a(I1533
I45
tp14
a(I1532
I45
tp15
a(I1530
I45
tp16
a(I1534
I45
tp17
asS'runtime'
p18
F0.0017900466918945312
sS'name'
p19
S'["regex", [["ccard_data", "[A]", "OM"]]]'
p20
s.