(dp0
S'output'
p1
(lp2
(I521
I58
tp3
a(I1193
I58
tp4
a(I501
I58
tp5
a(I1239
I58
tp6
a(I487
I58
tp7
a(I602
I58
tp8
a(I513
I58
tp9
a(I499
I58
tp10
a(I601
I58
tp11
a(I757
I58
tp12
a(I1456
I58
tp13
a(I599
I58
tp14
a(I490
I58
tp15
a(I85
I58
tp16
a(I1894
I58
tp17
a(I1949
I58
tp18
asS'runtime'
p19
F0.0019230842590332031
sS'name'
p20
S'["regex", [["account_manager", "[c]", "OM"]]]'
p21
s.