(dp0
S'output'
p1
(lp2
(I1042
I55
tp3
a(I1723
I55
tp4
a(I1590
I55
tp5
a(I1161
I55
tp6
a(I1681
I55
tp7
a(I1637
I55
tp8
a(I1667
I55
tp9
a(I627
I55
tp10
a(I1646
I55
tp11
a(I1536
I55
tp12
a(I1106
I55
tp13
a(I763
I55
tp14
a(I630
I55
tp15
a(I1656
I55
tp16
a(I1633
I55
tp17
a(I68
I55
tp18
a(I829
I55
tp19
a(I1624
I55
tp20
a(I426
I55
tp21
a(I2139
I55
tp22
a(I308
I55
tp23
a(I1173
I55
tp24
a(I1726
I55
tp25
a(I1734
I55
tp26
a(I2107
I55
tp27
a(I1679
I55
tp28
a(I2216
I55
tp29
a(I1709
I55
tp30
a(I1666
I55
tp31
a(I1707
I55
tp32
a(I1702
I55
tp33
a(I2175
I55
tp34
a(I1041
I55
tp35
a(I1650
I55
tp36
a(I613
I55
tp37
a(I1672
I55
tp38
a(I769
I55
tp39
a(I656
I55
tp40
a(I1675
I55
tp41
a(I518
I55
tp42
a(I632
I55
tp43
a(I635
I55
tp44
a(I1722
I55
tp45
a(I2101
I55
tp46
a(I1612
I55
tp47
a(I1711
I55
tp48
a(I1736
I55
tp49
a(I1515
I55
tp50
a(I1710
I55
tp51
a(I62
I55
tp52
a(I425
I55
tp53
a(I1698
I55
tp54
a(I302
I55
tp55
a(I1177
I55
tp56
a(I1655
I55
tp57
a(I629
I55
tp58
a(I1712
I55
tp59
a(I665
I55
tp60
a(I1307
I55
tp61
a(I1665
I55
tp62
a(I1916
I55
tp63
a(I1735
I55
tp64
a(I1508
I55
tp65
a(I1528
I55
tp66
a(I492
I55
tp67
a(I2105
I55
tp68
a(I1019
I55
tp69
a(I1615
I55
tp70
a(I1594
I55
tp71
a(I1635
I55
tp72
a(I1651
I55
tp73
a(I1706
I55
tp74
a(I685
I55
tp75
a(I451
I55
tp76
a(I2103
I55
tp77
a(I1099
I55
tp78
a(I1661
I55
tp79
a(I1715
I55
tp80
a(I517
I55
tp81
a(I1198
I55
tp82
a(I1677
I55
tp83
a(I634
I55
tp84
a(I419
I55
tp85
a(I501
I55
tp86
a(I777
I55
tp87
a(I1149
I55
tp88
a(I422
I55
tp89
a(I1691
I55
tp90
a(I1652
I55
tp91
a(I1174
I55
tp92
a(I1647
I55
tp93
a(I1022
I55
tp94
a(I631
I55
tp95
a(I1634
I55
tp96
a(I1738
I55
tp97
a(I1625
I55
tp98
a(I1746
I55
tp99
a(I1108
I55
tp100
a(I1507
I55
tp101
a(I1648
I55
tp102
a(I491
I55
tp103
a(I1732
I55
tp104
a(I1517
I55
tp105
a(I1727
I55
tp106
a(I1223
I55
tp107
a(I1593
I55
tp108
a(I2226
I55
tp109
a(I1084
I55
tp110
a(I1700
I55
tp111
a(I1708
I55
tp112
a(I1689
I55
tp113
a(I2173
I55
tp114
asS'runtime'
p115
F0.001898050308227539
sS'name'
p116
S'["regex", [["app_comments", "[d]", "OM"]]]'
p117
s.