(dp0
S'output'
p1
(lp2
(I2107
I55
tp3
a(I2216
I55
tp4
a(I1707
I55
tp5
a(I1307
I55
tp6
a(I1517
I55
tp7
a(I1174
I55
tp8
a(I769
I55
tp9
a(I1916
I55
tp10
a(I1022
I55
tp11
a(I656
I55
tp12
a(I1634
I55
tp13
a(I1528
I55
tp14
a(I2147
I55
tp15
a(I1738
I55
tp16
a(I1651
I55
tp17
a(I1625
I55
tp18
a(I1746
I55
tp19
a(I1019
I55
tp20
a(I1656
I55
tp21
a(I2139
I55
tp22
a(I1722
I55
tp23
a(I1635
I55
tp24
a(I68
I55
tp25
a(I1617
I55
tp26
a(I1612
I55
tp27
a(I1735
I55
tp28
a(I2105
I55
tp29
a(I2226
I55
tp30
a(I1627
I55
tp31
a(I1709
I55
tp32
a(I302
I55
tp33
a(I1736
I55
tp34
a(I451
I55
tp35
a(I1173
I55
tp36
a(I1726
I55
tp37
a(I2103
I55
tp38
a(I1665
I55
tp39
a(I1708
I55
tp40
a(I1198
I55
tp41
asS'runtime'
p42
F0.0018601417541503906
sS'name'
p43
S'["regex", [["app_comments", "[b]", "OM"]]]'
p44
s.