(dp0
S'output'
p1
(lp2
(I60
I11
tp3
a(I325
I11
tp4
a(I328
I11
tp5
a(I1178
I11
tp6
a(I324
I11
tp7
a(I230
I11
tp8
a(I1861
I11
tp9
a(I1551
I11
tp10
a(I629
I11
tp11
a(I1569
I11
tp12
a(I1866
I11
tp13
a(I1288
I11
tp14
a(I323
I11
tp15
a(I1941
I11
tp16
a(I1942
I11
tp17
a(I327
I11
tp18
a(I644
I11
tp19
a(I685
I11
tp20
a(I329
I11
tp21
a(I634
I11
tp22
a(I2194
I11
tp23
a(I1869
I11
tp24
asS'runtime'
p25
F0.0019459724426269531
sS'name'
p26
S'["regex", [["status", "[A]", "OM"]]]'
p27
s.