(dp0
S'output'
p1
(lp2
(I1528
I41
tp3
a(I1538
I41
tp4
a(I1535
I41
tp5
a(I1533
I41
tp6
a(I1534
I41
tp7
a(I1532
I41
tp8
a(I1530
I41
tp9
a(I1539
I41
tp10
a(I1537
I41
tp11
a(I658
I41
tp12
a(I1536
I41
tp13
a(I1531
I41
tp14
a(I1529
I41
tp15
asS'runtime'
p16
F0.0018961429595947266
sS'name'
p17
S'["regex", [["cust_dta", "[/]", "OM"]]]'
p18
s.