(dp0
S'output'
p1
(lp2
(I409
I10
tp3
a(I1254
I10
tp4
a(I1553
I10
tp5
a(I2076
I10
tp6
a(I1542
I10
tp7
a(I322
I10
tp8
a(I1609
I10
tp9
a(I318
I10
tp10
a(I1557
I10
tp11
a(I391
I10
tp12
a(I2252
I10
tp13
a(I2156
I10
tp14
a(I2082
I10
tp15
a(I1581
I10
tp16
a(I2258
I10
tp17
asS'runtime'
p18
F0.0019009113311767578
sS'name'
p19
S'["regex", [["app_nm", "[9]", "OM"]]]'
p20
s.