(dp0
S'output'
p1
(lp2
(I398
I10
tp3
a(I389
I10
tp4
a(I375
I10
tp5
a(I1290
I10
tp6
a(I1553
I10
tp7
a(I2076
I10
tp8
a(I1254
I10
tp9
a(I2246
I10
tp10
a(I1800
I10
tp11
a(I322
I10
tp12
a(I2046
I10
tp13
a(I1557
I10
tp14
a(I551
I10
tp15
a(I2156
I10
tp16
a(I1825
I10
tp17
a(I812
I10
tp18
a(I1558
I10
tp19
a(I2082
I10
tp20
asS'runtime'
p21
F0.0019609928131103516
sS'name'
p22
S'["regex", [["app_nm", "[6]", "OM"]]]'
p23
s.