(dp0
S'output'
p1
(lp2
(I2251
I17
tp3
a(I2250
I17
tp4
a(I1099
I17
tp5
a(I2249
I17
tp6
a(I2183
I17
tp7
a(I2184
I17
tp8
asS'runtime'
p9
F0.0018880367279052734
sS'name'
p10
S'["regex", [["retirement", "[2]", "OM"]]]'
p11
s.