(dp0
S'output'
p1
(lp2
(I366
I10
tp3
a(I1558
I10
tp4
a(I596
I10
tp5
a(I1553
I10
tp6
a(I2076
I10
tp7
a(I1186
I10
tp8
a(I617
I10
tp9
a(I481
I10
tp10
a(I318
I10
tp11
a(I2260
I10
tp12
a(I1562
I10
tp13
a(I353
I10
tp14
a(I2252
I10
tp15
a(I2230
I10
tp16
a(I406
I10
tp17
a(I2258
I10
tp18
asS'runtime'
p19
F0.0019419193267822266
sS'name'
p20
S'["regex", [["app_nm", "[7]", "OM"]]]'
p21
s.