(dp0
S'output'
p1
(lp2
(I2137
I11
tp3
a(I159
I11
tp4
a(I985
I11
tp5
a(I587
I11
tp6
a(I1948
I11
tp7
a(I1794
I11
tp8
a(I477
I11
tp9
a(I158
I11
tp10
a(I160
I11
tp11
a(I585
I11
tp12
a(I56
I11
tp13
a(I97
I11
tp14
a(I868
I11
tp15
asS'runtime'
p16
F0.00185394287109375
sS'name'
p17
S'["regex", [["status", "[t]", "OM"]]]'
p18
s.