(dp0
S'output'
p1
(lp2
(I223
I60
tp3
a(I599
I60
tp4
a(I70
I60
tp5
a(I1583
I60
tp6
a(I2243
I60
tp7
a(I261
I60
tp8
asS'runtime'
p9
F0.001873016357421875
sS'name'
p10
S'["regex", [["application_business_owner", "[n]", "OM"]]]'
p11
s.