(dp0
S'output'
p1
(lp2
(I1539
I58
tp3
a(I830
I58
tp4
a(I608
I58
tp5
a(I2054
I58
tp6
a(I242
I58
tp7
asS'runtime'
p8
F0.0018508434295654297
sS'name'
p9
S'["regex", [["account_manager", "[v]", "OM"]]]'
p10
s.