(dp0
S'output'
p1
(lp2
(I1273
I58
tp3
a(I608
I58
tp4
a(I1239
I58
tp5
a(I427
I58
tp6
a(I216
I58
tp7
a(I217
I58
tp8
a(I1163
I58
tp9
a(I215
I58
tp10
a(I1308
I58
tp11
a(I1539
I58
tp12
asS'runtime'
p13
F0.001870870590209961
sS'name'
p14
S'["regex", [["account_manager", "[,]", "OM"]]]'
p15
s.