(dp0
S'output'
p1
(lp2
(I1420
I2
tp3
a(I1421
I2
tp4
a(I1419
I2
tp5
a(I1406
I2
tp6
a(I1402
I2
tp7
a(I1414
I2
tp8
a(I1401
I2
tp9
a(I1403
I2
tp10
a(I1418
I2
tp11
asS'runtime'
p12
F0.0022678375244140625
sS'name'
p13
S'["regex", [["tracking_id", "[D]", "OM"]]]'
p14
s.