(dp0
S'output'
p1
(lp2
(I1273
I58
tp3
a(I85
I58
tp4
a(I602
I58
tp5
a(I601
I58
tp6
a(I1163
I58
tp7
a(I1456
I58
tp8
a(I1539
I58
tp9
a(I70
I58
tp10
asS'runtime'
p11
F0.0018610954284667969
sS'name'
p12
S'["regex", [["account_manager", "[d]", "OM"]]]'
p13
s.