(dp0
S'output'
p1
(lp2
(I2111
I38
tp3
a(I2018
I38
tp4
a(I664
I38
tp5
a(I588
I38
tp6
a(I589
I38
tp7
a(I1792
I38
tp8
a(I1110
I38
tp9
a(I990
I38
tp10
asS'runtime'
p11
F0.0018639564514160156
sS'name'
p12
S'["regex", [["regulated_non_gxp_ind", "[ ]", "OM"]]]'
p13
s.