(dp0
S'output'
p1
(lp2
(I223
I60
tp3
a(I70
I60
tp4
a(I2243
I60
tp5
a(I242
I60
tp6
a(I599
I60
tp7
asS'runtime'
p8
F0.001828908920288086
sS'name'
p9
S'["regex", [["application_business_owner", "[a]", "OM"]]]'
p10
s.