(dp0
S'output'
p1
(lp2
(I1380
I11
tp3
a(I1628
I11
tp4
a(I380
I11
tp5
a(I901
I11
tp6
a(I2232
I11
tp7
a(I1160
I11
tp8
a(I1379
I11
tp9
a(I356
I11
tp10
a(I1464
I11
tp11
a(I1560
I11
tp12
a(I900
I11
tp13
asS'runtime'
p14
F0.0018589496612548828
sS'name'
p15
S'["regex", [["status", "[L]", "OM"]]]'
p16
s.