(dp0
S'output'
p1
(lp2
(I125
I6
tp3
a(I575
I6
tp4
a(I632
I6
tp5
a(I1750
I6
tp6
a(I1749
I6
tp7
a(I631
I6
tp8
asS'runtime'
p9
F0.0019009113311767578
sS'name'
p10
S'["regex", [["classid", "[M]", "OM"]]]'
p11
s.