(dp0
S'output'
p1
(lp2
(I1181
I7
tp3
a(I1350
I7
tp4
a(I344
I7
tp5
a(I1555
I7
tp6
a(I812
I7
tp7
a(I1479
I7
tp8
a(I288
I7
tp9
a(I409
I7
tp10
a(I2258
I7
tp11
a(I1012
I7
tp12
a(I1709
I7
tp13
a(I1558
I7
tp14
a(I975
I7
tp15
a(I1089
I7
tp16
a(I1559
I7
tp17
asS'runtime'
p18
F0.0018868446350097656
sS'name'
p19
S'["regex", [["name", "[0]", "OM"]]]'
p20
s.