(dp0
S'output'
p1
(lp2
(I1612
I27
tp3
a(I727
I27
tp4
a(I723
I27
tp5
a(I748
I27
tp6
a(I741
I27
tp7
asS'runtime'
p8
F0.001867055892944336
sS'name'
p9
S'["regex", [["alt_app_critical", "[0]", "OM"]]]'
p10
s.