(dp0
S'output'
p1
(lp2
(I223
I60
tp3
a(I599
I60
tp4
a(I70
I60
tp5
a(I602
I60
tp6
a(I2243
I60
tp7
a(I242
I60
tp8
a(I601
I60
tp9
asS'runtime'
p10
F0.0018649101257324219
sS'name'
p11
S'["regex", [["application_business_owner", "[r]", "OM"]]]'
p12
s.