(dp0
S'output'
p1
(lp2
(I1583
I13
tp3
a(I1414
I13
tp4
a(I2243
I13
tp5
a(I1401
I13
tp6
a(I1420
I13
tp7
a(I1901
I13
tp8
a(I1418
I13
tp9
a(I1415
I13
tp10
a(I2054
I13
tp11
a(I1403
I13
tp12
a(I601
I13
tp13
a(I223
I13
tp14
a(I1421
I13
tp15
a(I70
I13
tp16
a(I602
I13
tp17
a(I1402
I13
tp18
a(I1406
I13
tp19
a(I1419
I13
tp20
asS'runtime'
p21
F0.0018880367279052734
sS'name'
p22
S'["regex", [["curr_status", "[A]", "OM"]]]'
p23
s.