(dp0
S'output'
p1
(lp2
(I223
I60
tp3
a(I599
I60
tp4
a(I70
I60
tp5
a(I602
I60
tp6
a(I1583
I60
tp7
a(I2243
I60
tp8
a(I242
I60
tp9
a(I261
I60
tp10
a(I601
I60
tp11
asS'runtime'
p12
F0.0018711090087890625
sS'name'
p13
S'["regex", [["application_business_owner", "[ ]", "OM"]]]'
p14
s.