(dp0
S'output'
p1
(lp2
(I1534
I44
tp3
a(I1539
I44
tp4
a(I690
I44
tp5
a(I1537
I44
tp6
a(I1192
I44
tp7
a(I805
I44
tp8
a(I1531
I44
tp9
a(I1529
I44
tp10
a(I1536
I44
tp11
a(I1535
I44
tp12
a(I1533
I44
tp13
a(I1538
I44
tp14
a(I1528
I44
tp15
a(I1532
I44
tp16
a(I1530
I44
tp17
asS'runtime'
p18
F0.00179290771484375
sS'name'
p19
S'["regex", [["comp_info", "[A]", "OM"]]]'
p20
s.