(dp0
S'output'
p1
(lp2
(I830
I58
tp3
a(I608
I58
tp4
a(I242
I58
tp5
a(I1163
I58
tp6
a(I1239
I58
tp7
a(I599
I58
tp8
a(I1539
I58
tp9
a(I2054
I58
tp10
asS'runtime'
p11
F0.0019299983978271484
sS'name'
p12
S'["regex", [["account_manager", "[s]", "OM"]]]'
p13
s.