(dp0
S'output'
p1
(lp2
(I2206
I27
tp3
a(I1568
I27
tp4
a(I794
I27
tp5
a(I1324
I27
tp6
a(I2207
I27
tp7
a(I2212
I27
tp8
a(I1805
I27
tp9
a(I1742
I27
tp10
a(I63
I27
tp11
a(I1322
I27
tp12
a(I1323
I27
tp13
asS'runtime'
p14
F0.0019168853759765625
sS'name'
p15
S'["regex", [["alt_app_critical", "[*]", "OM"]]]'
p16
s.