(dp0
S'output'
p1
(lp2
(I269
I33
tp3
a(I268
I33
tp4
a(I730
I33
tp5
a(I1571
I33
tp6
a(I273
I33
tp7
a(I271
I33
tp8
a(I272
I33
tp9
a(I270
I33
tp10
a(I267
I33
tp11
a(I1518
I33
tp12
a(I686
I33
tp13
a(I778
I33
tp14
a(I2140
I33
tp15
a(I275
I33
tp16
a(I274
I33
tp17
asS'runtime'
p18
F0.0018548965454101562
sS'name'
p19
S'["regex", [["division", "[F]", "OM"]]]'
p20
s.