(dp0
S'output'
p1
(lp2
(I1130
I31
tp3
a(I243
I31
tp4
a(I621
I31
tp5
a(I590
I31
tp6
a(I240
I31
tp7
a(I107
I31
tp8
a(I84
I31
tp9
a(I233
I31
tp10
a(I230
I31
tp11
a(I1583
I31
tp12
a(I72
I31
tp13
a(I506
I31
tp14
a(I677
I31
tp15
a(I1413
I31
tp16
a(I73
I31
tp17
a(I609
I31
tp18
a(I65
I31
tp19
asS'runtime'
p20
F0.001886129379272461
sS'name'
p21
S'["regex", [["end_users", "[~]", "OM"]]]'
p22
s.