(dp0
S'output'
p1
(lp2
(I594
I7
tp3
a(I1604
I7
tp4
a(I829
I7
tp5
a(I1638
I7
tp6
a(I1913
I7
tp7
a(I728
I7
tp8
a(I298
I7
tp9
a(I1772
I7
tp10
a(I69
I7
tp11
a(I1650
I7
tp12
a(I1721
I7
tp13
a(I530
I7
tp14
a(I1684
I7
tp15
a(I1769
I7
tp16
a(I2024
I7
tp17
a(I1185
I7
tp18
a(I1594
I7
tp19
a(I1251
I7
tp20
a(I585
I7
tp21
a(I722
I7
tp22
asS'runtime'
p23
F0.001909017562866211
sS'name'
p24
S'["regex", [["name", "[(]", "OM"]]]'
p25
s.