(dp0
S'output'
p1
(lp2
(I533
I55
tp3
a(I1256
I55
tp4
a(I1217
I55
tp5
a(I1173
I55
tp6
a(I1150
I55
tp7
a(I521
I55
tp8
a(I1203
I55
tp9
a(I524
I55
tp10
a(I2021
I55
tp11
asS'runtime'
p12
F0.0019068717956542969
sS'name'
p13
S'["regex", [["app_comments", "[:]", "OM"]]]'
p14
s.