(dp0
S'output'
p1
(lp2
(I1650
I55
tp3
a(I2107
I55
tp4
a(I1704
I55
tp5
a(I1594
I55
tp6
a(I1173
I55
tp7
a(I1698
I55
tp8
a(I1593
I55
tp9
a(I1710
I55
tp10
a(I1689
I55
tp11
asS'runtime'
p12
F0.0019211769104003906
sS'name'
p13
S'["regex", [["app_comments", "[;]", "OM"]]]'
p14
s.