(dp0
S'output'
p1
(lp2
(I2254
I10
tp3
a(I1254
I10
tp4
a(I2255
I10
tp5
a(I322
I10
tp6
a(I2156
I10
tp7
a(I1186
I10
tp8
a(I223
I10
tp9
a(I1030
I10
tp10
a(I1558
I10
tp11
a(I408
I10
tp12
a(I407
I10
tp13
a(I1553
I10
tp14
a(I2076
I10
tp15
a(I399
I10
tp16
a(I1825
I10
tp17
a(I2246
I10
tp18
a(I546
I10
tp19
a(I1542
I10
tp20
a(I318
I10
tp21
a(I1557
I10
tp22
a(I342
I10
tp23
a(I2082
I10
tp24
asS'runtime'
p25
F0.0019388198852539062
sS'name'
p26
S'["regex", [["app_nm", "[5]", "OM"]]]'
p27
s.