(dp0
S'output'
p1
(lp2
(I1852
I37
tp3
a(I1924
I37
tp4
a(I1849
I37
tp5
a(I1119
I37
tp6
a(I1846
I37
tp7
a(I1921
I37
tp8
a(I1920
I37
tp9
a(I85
I37
tp10
a(I1918
I37
tp11
a(I1853
I37
tp12
a(I35
I37
tp13
asS'runtime'
p14
F0.0019350051879882812
sS'name'
p15
S'["regex", [["pri_staff_loc", "[Y]", "OM"]]]'
p16
s.