(dp0
S'output'
p1
(lp2
(I658
I23
tp3
a(I660
I23
tp4
a(I662
I23
tp5
a(I661
I23
tp6
a(I656
I23
tp7
a(I657
I23
tp8
a(I659
I23
tp9
asS'runtime'
p10
F0.001940011978149414
sS'name'
p11
S'["regex", [["bus_hours", "[_]", "OM"]]]'
p12
s.