(dp0
S'output'
p1
(lp2
(I2188
I53
tp3
a(I250
I53
tp4
a(I2146
I53
tp5
a(I1314
I53
tp6
a(I15
I53
tp7
a(I2211
I53
tp8
a(I1756
I53
tp9
a(I1137
I53
tp10
a(I1136
I53
tp11
a(I420
I53
tp12
a(I1744
I53
tp13
a(I1138
I53
tp14
a(I2243
I53
tp15
a(I1325
I53
tp16
a(I1139
I53
tp17
asS'runtime'
p18
F0.0019121170043945312
sS'name'
p19
S'["regex", [["prmry_bus_function", "[K]", "OM"]]]'
p20
s.