(dp0
S'output'
p1
(lp2
(I1426
I23
tp3
a(I827
I23
tp4
a(I1421
I23
tp5
a(I1403
I23
tp6
a(I1416
I23
tp7
a(I1409
I23
tp8
a(I1411
I23
tp9
a(I1406
I23
tp10
a(I1424
I23
tp11
a(I1417
I23
tp12
a(I1410
I23
tp13
a(I1419
I23
tp14
a(I1412
I23
tp15
a(I1407
I23
tp16
a(I1425
I23
tp17
a(I1420
I23
tp18
a(I1415
I23
tp19
a(I1408
I23
tp20
asS'runtime'
p21
F0.001940011978149414
sS'name'
p22
S'["regex", [["bus_hours", "[H]", "OM"]]]'
p23
s.