(dp0
S'output'
p1
(lp2
(I2183
I52
tp3
a(I2184
I52
tp4
a(I969
I52
tp5
a(I1854
I52
tp6
a(I733
I52
tp7
a(I1445
I52
tp8
a(I1605
I52
tp9
a(I424
I52
tp10
a(I549
I52
tp11
a(I270
I52
tp12
a(I653
I52
tp13
a(I1544
I52
tp14
asS'runtime'
p15
F0.002477884292602539
sS'name'
p16
S'["regex", [["description", "[\\u030d]", "OM"]]]'
p17
s.