(dp0
S'output'
p1
(lp2
(I83
I31
tp3
a(I1445
I31
tp4
a(I1806
I31
tp5
a(I299
I31
tp6
a(I308
I31
tp7
a(I1801
I31
tp8
a(I616
I31
tp9
a(I305
I31
tp10
a(I1699
I31
tp11
a(I1771
I31
tp12
a(I155
I31
tp13
a(I628
I31
tp14
asS'runtime'
p15
F0.0019040107727050781
sS'name'
p16
S'["regex", [["end_users", "[M]", "OM"]]]'
p17
s.