(dp0
S'output'
p1
(lp2
(I2031
I27
tp3
a(I809
I27
tp4
a(I748
I27
tp5
a(I792
I27
tp6
a(I741
I27
tp7
a(I1234
I27
tp8
a(I723
I27
tp9
a(I791
I27
tp10
a(I727
I27
tp11
asS'runtime'
p12
F0.0018610954284667969
sS'name'
p13
S'["regex", [["alt_app_critical", "[E]", "OM"]]]'
p14
s.