(dp0
S'output'
p1
(lp2
(I702
I27
tp3
a(I649
I27
tp4
a(I792
I27
tp5
a(I2084
I27
tp6
a(I809
I27
tp7
a(I1212
I27
tp8
a(I791
I27
tp9
a(I596
I27
tp10
a(I829
I27
tp11
asS'runtime'
p12
F0.0018451213836669922
sS'name'
p13
S'["regex", [["alt_app_critical", "[w]", "OM"]]]'
p14
s.