(dp0
S'output'
p1
(lp2
(I727
I27
tp3
a(I1212
I27
tp4
a(I723
I27
tp5
a(I748
I27
tp6
a(I741
I27
tp7
asS'runtime'
p8
F0.001856088638305664
sS'name'
p9
S'["regex", [["alt_app_critical", "[F]", "OM"]]]'
p10
s.