(dp0
S'output'
p1
(lp2
(I1583
I60
tp3
a(I261
I60
tp4
a(I242
I60
tp5
a(I601
I60
tp6
a(I602
I60
tp7
asS'runtime'
p8
F0.001828908920288086
sS'name'
p9
S'["regex", [["application_business_owner", "[i]", "OM"]]]'
p10
s.