(dp0
S'output'
p1
(lp2
(I1277
I49
tp3
a(I1107
I49
tp4
a(I545
I49
tp5
a(I1439
I49
tp6
a(I542
I49
tp7
a(I1882
I49
tp8
asS'runtime'
p9
F0.004631996154785156
sS'name'
p10
S'["regex", [["prb", "[3]", "OM"]]]'
p11
s.