(dp0
S'output'
p1
(lp2
(I1279
I43
tp3
a(I505
I43
tp4
a(I1285
I43
tp5
a(I1286
I43
tp6
a(I1282
I43
tp7
a(I1283
I43
tp8
a(I1277
I43
tp9
a(I1278
I43
tp10
a(I1280
I43
tp11
a(I1287
I43
tp12
a(I1281
I43
tp13
a(I1284
I43
tp14
asS'runtime'
p15
F0.00179290771484375
sS'name'
p16
S'["regex", [["health_info", "[y]", "OM"]]]'
p17
s.