(dp0
S'output'
p1
(lp2
(I1255
I52
tp3
a(I2102
I52
tp4
a(I2037
I52
tp5
a(I844
I52
tp6
a(I273
I52
tp7
a(I1751
I52
tp8
a(I1948
I52
tp9
a(I267
I52
tp10
a(I275
I52
tp11
asS'runtime'
p12
F0.002424955368041992
sS'name'
p13
S'["regex", [["description", "[*]", "OM"]]]'
p14
s.