(dp0
S'output'
p1
(lp2
(I245
I52
tp3
a(I2188
I52
tp4
a(I1115
I52
tp5
a(I1306
I52
tp6
a(I1801
I52
tp7
a(I1854
I52
tp8
a(I1163
I52
tp9
a(I1495
I52
tp10
a(I2157
I52
tp11
a(I1765
I52
tp12
a(I107
I52
tp13
a(I2017
I52
tp14
a(I2128
I52
tp15
a(I795
I52
tp16
a(I1325
I52
tp17
a(I1220
I52
tp18
a(I1522
I52
tp19
a(I1185
I52
tp20
a(I1944
I52
tp21
asS'runtime'
p22
F0.00244903564453125
sS'name'
p23
S'["regex", [["description", "[\\ufffd]", "OM"]]]'
p24
s.