(dp0
S'output'
p1
(lp2
(I1594
I55
tp3
a(I1650
I55
tp4
a(I1698
I55
tp5
a(I1672
I55
tp6
a(I1593
I55
tp7
asS'runtime'
p8
F0.00191497802734375
sS'name'
p9
S'["regex", [["app_comments", "[\']", "OM"]]]'
p10
s.