(dp0
S'output'
p1
(lp2
(I1350
I9
tp3
a(I1983
I9
tp4
a(I841
I9
tp5
a(I1609
I9
tp6
a(I684
I9
tp7
a(I2183
I9
tp8
asS'runtime'
p9
F0.0019459724426269531
sS'name'
p10
S'["regex", [["product_nm", "[4]", "OM"]]]'
p11
s.