(dp0
S'output'
p1
(lp2
(I1529
I42
tp3
a(I805
I42
tp4
a(I1532
I42
tp5
a(I1539
I42
tp6
a(I1533
I42
tp7
a(I1538
I42
tp8
a(I1531
I42
tp9
a(I702
I42
tp10
a(I1536
I42
tp11
a(I1530
I42
tp12
a(I1537
I42
tp13
a(I1534
I42
tp14
a(I1528
I42
tp15
a(I1535
I42
tp16
a(I690
I42
tp17
asS'runtime'
p18
F0.0017979145050048828
sS'name'
p19
S'["regex", [["client_dta", "[A]", "OM"]]]'
p20
s.