(dp0
S'output'
p1
(lp2
(I1583
I2
tp3
a(I242
I2
tp4
a(I427
I2
tp5
a(I757
I2
tp6
a(I1008
I2
tp7
a(I1414
I2
tp8
a(I1949
I2
tp9
a(I1418
I2
tp10
asS'runtime'
p11
F0.0022640228271484375
sS'name'
p12
S'["regex", [["tracking_id", "[7]", "OM"]]]'
p13
s.