(dp0
S'output'
p1
(lp2
(I1042
I55
tp3
a(I1307
I55
tp4
a(I1709
I55
tp5
a(I1590
I55
tp6
a(I1711
I55
tp7
a(I1704
I55
tp8
a(I1633
I55
tp9
a(I1722
I55
tp10
a(I1916
I55
tp11
a(I501
I55
tp12
a(I1735
I55
tp13
a(I1666
I55
tp14
a(I1736
I55
tp15
a(I1732
I55
tp16
a(I1661
I55
tp17
a(I1691
I55
tp18
a(I2226
I55
tp19
a(I1656
I55
tp20
a(I1651
I55
tp21
a(I769
I55
tp22
asS'runtime'
p23
F0.0019009113311767578
sS'name'
p24
S'["regex", [["app_comments", "[F]", "OM"]]]'
p25
s.