(dp0
S'output'
p1
(lp2
(I1163
I58
tp3
a(I601
I58
tp4
a(I830
I58
tp5
a(I85
I58
tp6
a(I599
I58
tp7
a(I71
I58
tp8
a(I602
I58
tp9
a(I216
I58
tp10
a(I2054
I58
tp11
a(I242
I58
tp12
a(I217
I58
tp13
a(I427
I58
tp14
a(I261
I58
tp15
a(I1456
I58
tp16
a(I215
I58
tp17
a(I1239
I58
tp18
a(I2243
I58
tp19
a(I1894
I58
tp20
a(I1583
I58
tp21
a(I608
I58
tp22
asS'runtime'
p23
F0.0018498897552490234
sS'name'
p24
S'["regex", [["account_manager", "[n]", "OM"]]]'
p25
s.