(dp0
S'output'
p1
(lp2
(I1287
I52
tp3
a(I2229
I52
tp4
a(I1004
I52
tp5
a(I1417
I52
tp6
a(I2259
I52
tp7
a(I1923
I52
tp8
a(I1652
I52
tp9
a(I355
I52
tp10
a(I386
I52
tp11
a(I1442
I52
tp12
a(I1367
I52
tp13
a(I1893
I52
tp14
a(I362
I52
tp15
a(I1424
I52
tp16
a(I1874
I52
tp17
a(I365
I52
tp18
a(I356
I52
tp19
a(I1677
I52
tp20
a(I1645
I52
tp21
asS'runtime'
p22
F0.0024819374084472656
sS'name'
p23
S'["regex", [["description", "[;]", "OM"]]]'
p24
s.