(dp0
S'output'
p1
(lp2
(I2236
I31
tp3
a(I2073
I31
tp4
a(I771
I31
tp5
a(I2133
I31
tp6
a(I2174
I31
tp7
a(I449
I31
tp8
asS'runtime'
p9
F0.001870870590209961
sS'name'
p10
S'["regex", [["end_users", "[>]", "OM"]]]'
p11
s.