(dp0
S'output'
p1
(lp2
(I1833
I27
tp3
a(I1269
I27
tp4
a(I2030
I27
tp5
a(I1814
I27
tp6
a(I615
I27
tp7
a(I1816
I27
tp8
a(I723
I27
tp9
a(I2084
I27
tp10
a(I2143
I27
tp11
a(I727
I27
tp12
a(I702
I27
tp13
a(I2043
I27
tp14
a(I225
I27
tp15
a(I1151
I27
tp16
a(I1212
I27
tp17
a(I741
I27
tp18
a(I2039
I27
tp19
a(I748
I27
tp20
a(I1
I27
tp21
a(I1234
I27
tp22
a(I2023
I27
tp23
a(I596
I27
tp24
asS'runtime'
p25
F0.0019211769104003906
sS'name'
p26
S'["regex", [["alt_app_critical", "[g]", "OM"]]]'
p27
s.