(dp0
S'output'
p1
(lp2
(I1180
I37
tp3
a(I1807
I37
tp4
a(I1808
I37
tp5
a(I1230
I37
tp6
a(I1099
I37
tp7
a(I767
I37
tp8
a(I1129
I37
tp9
a(I1167
I37
tp10
a(I1128
I37
tp11
asS'runtime'
p12
F0.001934051513671875
sS'name'
p13
S'["regex", [["pri_staff_loc", "[?]", "OM"]]]'
p14
s.