(dp0
S'output'
p1
(lp2
(I2226
I55
tp3
a(I1307
I55
tp4
a(I1590
I55
tp5
a(I1711
I55
tp6
a(I1736
I55
tp7
a(I1665
I55
tp8
a(I1916
I55
tp9
a(I1022
I55
tp10
a(I1666
I55
tp11
a(I1732
I55
tp12
a(I1661
I55
tp13
a(I1691
I55
tp14
a(I1651
I55
tp15
a(I1625
I55
tp16
asS'runtime'
p17
F0.0018279552459716797
sS'name'
p18
S'["regex", [["app_comments", "[k]", "OM"]]]'
p19
s.