(dp0
S'output'
p1
(lp2
(I1901
I2
tp3
a(I2088
I2
tp4
a(I1583
I2
tp5
a(I521
I2
tp6
a(I500
I2
tp7
a(I1040
I2
tp8
a(I695
I2
tp9
a(I602
I2
tp10
a(I529
I2
tp11
a(I1193
I2
tp12
a(I70
I2
tp13
a(I1757
I2
tp14
a(I216
I2
tp15
a(I601
I2
tp16
a(I1949
I2
tp17
a(I1894
I2
tp18
a(I2054
I2
tp19
a(I71
I2
tp20
asS'runtime'
p21
F0.002321958541870117
sS'name'
p22
S'["regex", [["tracking_id", "[1]", "OM"]]]'
p23
s.