(dp0
S'output'
p1
(lp2
(I732
I10
tp3
a(I227
I10
tp4
a(I1768
I10
tp5
a(I1090
I10
tp6
a(I2142
I10
tp7
a(I181
I10
tp8
a(I512
I10
tp9
a(I364
I10
tp10
a(I1907
I10
tp11
a(I1142
I10
tp12
a(I1503
I10
tp13
a(I217
I10
tp14
a(I2192
I10
tp15
a(I503
I10
tp16
a(I1265
I10
tp17
a(I111
I10
tp18
a(I1652
I10
tp19
a(I1406
I10
tp20
a(I2223
I10
tp21
a(I1927
I10
tp22
a(I986
I10
tp23
a(I915
I10
tp24
a(I408
I10
tp25
a(I2208
I10
tp26
a(I782
I10
tp27
a(I101
I10
tp28
a(I535
I10
tp29
a(I28
I10
tp30
a(I1064
I10
tp31
a(I414
I10
tp32
a(I64
I10
tp33
a(I167
I10
tp34
a(I292
I10
tp35
a(I1070
I10
tp36
a(I1847
I10
tp37
a(I1340
I10
tp38
a(I835
I10
tp39
a(I157
I10
tp40
a(I328
I10
tp41
a(I431
I10
tp42
a(I789
I10
tp43
a(I1376
I10
tp44
a(I193
I10
tp45
a(I2229
I10
tp46
a(I467
I10
tp47
a(I2008
I10
tp48
a(I1087
I10
tp49
a(I1330
I10
tp50
a(I825
I10
tp51
a(I334
I10
tp52
a(I1008
I10
tp53
a(I2135
I10
tp54
a(I1123
I10
tp55
a(I1469
I10
tp56
a(I2260
I10
tp57
a(I2171
I10
tp58
a(I2014
I10
tp59
a(I1077
I10
tp60
a(I384
I10
tp61
a(I570
I10
tp62
a(I1505
I10
tp63
a(I351
I10
tp64
a(I1113
I10
tp65
a(I1892
I10
tp66
a(I2166
I10
tp67
a(I113
I10
tp68
a(I2253
I10
tp69
a(I2179
I10
tp70
a(I390
I10
tp71
a(I1757
I10
tp72
a(I2031
I10
tp73
a(I1524
I10
tp74
a(I1179
I10
tp75
a(I341
I10
tp76
a(I377
I10
tp77
a(I811
I10
tp78
a(I2214
I10
tp79
a(I407
I10
tp80
a(I1021
I10
tp81
a(I936
I10
tp82
a(I15
I10
tp83
a(I2242
I10
tp84
a(I1063
I10
tp85
a(I2170
I10
tp86
a(I397
I10
tp87
a(I1695
I10
tp88
a(I433
I10
tp89
a(I188
I10
tp90
a(I820
I10
tp91
a(I731
I10
tp92
a(I1685
I10
tp93
a(I1178
I10
tp94
a(I1089
I10
tp95
a(I178
I10
tp96
a(I363
I10
tp97
a(I1317
I10
tp98
a(I2007
I10
tp99
a(I810
I10
tp100
a(I995
I10
tp101
a(I230
I10
tp102
a(I317
I10
tp103
a(I1615
I10
tp104
a(I862
I10
tp105
a(I353
I10
tp106
a(I108
I10
tp107
a(I1651
I10
tp108
a(I1910
I10
tp109
a(I1997
I10
tp110
a(I1419
I10
tp111
a(I1605
I10
tp112
a(I1286
I10
tp113
a(I372
I10
tp114
a(I27
I10
tp115
a(I730
I10
tp116
a(I362
I10
tp117
a(I1917
I10
tp118
a(I649
I10
tp119
a(I158
I10
tp120
a(I935
I10
tp121
a(I1697
I10
tp122
a(I428
I10
tp123
a(I1206
I10
tp124
a(I2249
I10
tp125
a(I1925
I10
tp126
a(I464
I10
tp127
a(I1418
I10
tp128
a(I925
I10
tp129
a(I175
I10
tp130
a(I418
I10
tp131
a(I1627
I10
tp132
a(I533
I10
tp133
a(I1120
I10
tp134
a(I2259
I10
tp135
a(I1752
I10
tp136
a(I1074
I10
tp137
a(I569
I10
tp138
a(I165
I10
tp139
a(I348
I10
tp140
a(I1891
I10
tp141
a(I1126
I10
tp142
a(I201
I10
tp143
a(I1758
I10
tp144
a(I1845
I10
tp145
a(I2176
I10
tp146
a(I2149
I10
tp147
a(I1523
I10
tp148
a(I338
I10
tp149
a(I1636
I10
tp150
a(I1808
I10
tp151
a(I636
I10
tp152
a(I134
I10
tp153
a(I392
I10
tp154
a(I2257
I10
tp155
a(I2209
I10
tp156
a(I1022
I10
tp157
a(I2133
I10
tp158
a(I1440
I10
tp159
a(I519
I10
tp160
a(I2076
I10
tp161
a(I1048
I10
tp162
a(I1407
I10
tp163
a(I626
I10
tp164
a(I121
I10
tp165
a(I398
I10
tp166
a(I1692
I10
tp167
a(I1446
I10
tp168
a(I276
I10
tp169
a(I187
I10
tp170
a(I545
I10
tp171
a(I819
I10
tp172
a(I312
I10
tp173
a(I2167
I10
tp174
a(I177
I10
tp175
a(I451
I10
tp176
a(I1821
I10
tp177
a(I1992
I10
tp178
a(I1071
I10
tp179
a(I1314
I10
tp180
a(I809
I10
tp181
a(I1499
I10
tp182
a(I318
I10
tp183
a(I405
I10
tp184
a(I2119
I10
tp185
a(I1107
I10
tp186
a(I441
I10
tp187
a(I196
I10
tp188
a(I107
I10
tp189
a(I1998
I10
tp190
a(I1061
I10
tp191
a(I1648
I10
tp192
a(I2216
I10
tp193
a(I335
I10
tp194
a(I1787
I10
tp195
a(I693
I10
tp196
a(I186
I10
tp197
a(I2227
I10
tp198
a(I2015
I10
tp199
a(I325
I10
tp200
a(I1015
I10
tp201
a(I623
I10
tp202
a(I361
I10
tp203
a(I116
I10
tp204
a(I391
I10
tp205
a(I1932
I10
tp206
a(I255
I10
tp207
a(I613
I10
tp208
a(I2154
I10
tp209
a(I785
I10
tp210
a(I35
I10
tp211
a(I1661
I10
tp212
a(I1922
I10
tp213
a(I1083
I10
tp214
a(I926
I10
tp215
a(I245
I10
tp216
a(I576
I10
tp217
a(I679
I10
tp218
a(I1786
I10
tp219
a(I172
I10
tp220
a(I1037
I10
tp221
a(I715
I10
tp222
a(I2256
I10
tp223
a(I311
I10
tp224
a(I1073
I10
tp225
a(I1852
I10
tp226
a(I669
I10
tp227
a(I840
I10
tp228
a(I162
I10
tp229
a(I347
I10
tp230
a(I794
I10
tp231
a(I705
I10
tp232
a(I301
I10
tp233
a(I933
I10
tp234
a(I337
I10
tp235
a(I1128
I10
tp236
a(I1474
I10
tp237
a(I478
I10
tp238
a(I1589
I10
tp239
a(I1082
I10
tp240
a(I1772
I10
tp241
a(I1526
I10
tp242
a(I2163
I10
tp243
a(I2130
I10
tp244
a(I356
I10
tp245
a(I1911
I10
tp246
a(I221
I10
tp247
a(I1762
I10
tp248
a(I1691
I10
tp249
a(I346
I10
tp250
a(I1901
I10
tp251
a(I2211
I10
tp252
a(I142
I10
tp253
a(I816
I10
tp254
a(I919
I10
tp255
a(I412
I10
tp256
a(I20
I10
tp257
a(I634
I10
tp258
a(I1068
I10
tp259
a(I822
I10
tp260
a(I159
I10
tp261
a(I402
I10
tp262
a(I1945
I10
tp263
a(I1454
I10
tp264
a(I195
I10
tp265
a(I454
I10
tp266
a(I553
I10
tp267
a(I2078
I10
tp268
a(I1690
I10
tp269
a(I332
I10
tp270
a(I1471
I10
tp271
a(I690
I10
tp272
a(I185
I10
tp273
a(I964
I10
tp274
a(I368
I10
tp275
a(I471
I10
tp276
a(I2012
I10
tp277
a(I2213
I10
tp278
a(I1000
I10
tp279
a(I322
I10
tp280
a(I507
I10
tp281
a(I1461
I10
tp282
a(I620
I10
tp283
a(I115
I10
tp284
a(I1759
I10
tp285
a(I2002
I10
tp286
a(I1610
I10
tp287
a(I610
I10
tp288
a(I2153
I10
tp289
a(I32
I10
tp290
a(I135
I10
tp291
a(I1921
I10
tp292
a(I1430
I10
tp293
a(I2080
I10
tp294
a(I171
I10
tp295
a(I1381
I10
tp296
a(I1712
I10
tp297
a(I529
I10
tp298
a(I803
I10
tp299
a(I381
I10
tp300
a(I399
I10
tp301
a(I1666
I10
tp302
a(I1161
I10
tp303
a(I1013
I10
tp304
a(I1447
I10
tp305
a(I506
I10
tp306
a(I161
I10
tp307
a(I435
I10
tp308
a(I1055
I10
tp309
a(I793
I10
tp310
a(I389
I10
tp311
a(I55
I10
tp312
a(I1930
I10
tp313
a(I1091
I10
tp314
a(I1437
I10
tp315
a(I425
I10
tp316
a(I180
I10
tp317
a(I1473
I10
tp318
a(I1228
I10
tp319
a(I982
I10
tp320
a(I216
I10
tp321
a(I319
I10
tp322
a(I1081
I10
tp323
a(I1771
I10
tp324
a(I677
I10
tp325
a(I170
I10
tp326
a(I355
I10
tp327
a(I2219
I10
tp328
a(I309
I10
tp329
a(I999
I10
tp330
a(I492
I10
tp331
a(I850
I10
tp332
a(I345
I10
tp333
a(I1780
I10
tp334
a(I411
I10
tp335
a(I597
I10
tp336
a(I1645
I10
tp337
a(I1560
I10
tp338
a(I1067
I10
tp339
a(I560
I10
tp340
a(I401
I10
tp341
a(I156
I10
tp342
a(I1699
I10
tp343
a(I1295
I10
tp344
a(I2057
I10
tp345
a(I699
I10
tp346
a(I1566
I10
tp347
a(I192
I10
tp348
a(I295
I10
tp349
a(I1057
I10
tp350
a(I1331
I10
tp351
a(I824
I10
tp352
a(I2194
I10
tp353
a(I2185
I10
tp354
a(I331
I10
tp355
a(I1872
I10
tp356
a(I689
I10
tp357
a(I198
I10
tp358
a(I285
I10
tp359
a(I1076
I10
tp360
a(I2011
I10
tp361
a(I830
I10
tp362
a(I583
I10
tp363
a(I410
I10
tp364
a(I321
I10
tp365
a(I2124
I10
tp366
a(I1112
I10
tp367
a(I1215
I10
tp368
a(I1458
I10
tp369
a(I619
I10
tp370
a(I112
I10
tp371
a(I215
I10
tp372
a(I1066
I10
tp373
a(I1510
I10
tp374
a(I2155
I10
tp375
a(I847
I10
tp376
a(I340
I10
tp377
a(I1388
I10
tp378
a(I118
I10
tp379
a(I205
I10
tp380
a(I376
I10
tp381
a(I479
I10
tp382
a(I2020
I10
tp383
a(I1168
I10
tp384
a(I330
I10
tp385
a(I241
I10
tp386
a(I1542
I10
tp387
a(I1885
I10
tp388
a(I1800
I10
tp389
a(I1378
I10
tp390
a(I382
I10
tp391
a(I2079
I10
tp392
a(I2010
I10
tp393
a(I396
I10
tp394
a(I1517
I10
tp395
a(I1432
I10
tp396
a(I1010
I10
tp397
a(I505
I10
tp398
a(I4
I10
tp399
a(I1806
I10
tp400
a(I1125
I10
tp401
a(I806
I10
tp402
a(I125
I10
tp403
a(I143
I10
tp404
a(I386
I10
tp405
a(I1595
I10
tp406
a(I1088
I10
tp407
a(I250
I10
tp408
a(I684
I10
tp409
a(I179
I10
tp410
a(I1316
I10
tp411
a(I2103
I10
tp412
a(I316
I10
tp413
a(I674
I10
tp414
a(I169
I10
tp415
a(I1726
I10
tp416
a(I352
I10
tp417
a(I726
I10
tp418
a(I813
I10
tp419
a(I306
I10
tp420
a(I849
I10
tp421
a(I358
I10
tp422
a(I1147
I10
tp423
a(I743
I10
tp424
a(I2137
I10
tp425
a(I1646
I10
tp426
a(I16
I10
tp427
a(I375
I10
tp428
a(I2228
I10
tp429
a(I1916
I10
tp430
a(I733
I10
tp431
a(I648
I10
tp432
a(I1007
I10
tp433
a(I155
I10
tp434
a(I513
I10
tp435
a(I787
I10
tp436
a(I365
I10
tp437
a(I1401
I10
tp438
a(I1924
I10
tp439
a(I490
I10
tp440
a(I2193
I10
tp441
a(I419
I10
tp442
a(I2045
I10
tp443
a(I286
I10
tp444
a(I2252
I10
tp445
a(I1825
I10
tp446
a(I1580
I10
tp447
a(I1075
I10
tp448
a(I568
I10
tp449
a(I409
I10
tp450
a(I164
I10
tp451
a(I2123
I10
tp452
a(I1966
I10
tp453
a(I200
I10
tp454
a(I1570
I10
tp455
a(I1065
I10
tp456
a(I1844
I10
tp457
a(I339
I10
tp458
a(I1387
I10
tp459
a(I206
I10
tp460
a(I983
I10
tp461
a(I2019
I10
tp462
a(I1341
I10
tp463
a(I591
I10
tp464
a(I329
I10
tp465
a(I2009
I10
tp466
a(I395
I10
tp467
a(I581
I10
tp468
a(I2164
I10
tp469
a(I2051
I10
tp470
a(I2218
I10
tp471
a(I1122
I10
tp472
a(I617
I10
tp473
a(I2174
I10
tp474
a(I213
I10
tp475
a(I1754
I10
tp476
a(I385
I10
tp477
a(I1942
I10
tp478
a(I249
I10
tp479
a(I683
I10
tp480
a(I1893
I10
tp481
a(I176
I10
tp482
a(I2212
I10
tp483
a(I1820
I10
tp484
a(I1315
I10
tp485
a(I808
I10
tp486
a(I2178
I10
tp487
a(I404
I10
tp488
a(I315
I10
tp489
a(I1182
I10
tp490
a(I1018
I10
tp491
a(I947
I10
tp492
a(I182
I10
tp493
a(I1305
I10
tp494
a(I1060
I10
tp495
a(I814
I10
tp496
a(I394
I10
tp497
a(I305
I10
tp498
a(I692
I10
tp499
a(I603
I10
tp500
a(I1557
I10
tp501
a(I199
I10
tp502
a(I728
I10
tp503
a(I324
I10
tp504
a(I102
I10
tp505
a(I189
I10
tp506
a(I463
I10
tp507
a(I1225
I10
tp508
a(I821
I10
tp509
a(I1511
I10
tp510
a(I314
I10
tp511
a(I366
I10
tp512
a(I119
I10
tp513
a(I1905
I10
tp514
a(I1660
I10
tp515
a(I1501
I10
tp516
a(I2157
I10
tp517
a(I2083
I10
tp518
a(I383
I10
tp519
a(I1650
I10
tp520
a(I1072
I10
tp521
a(I234
I10
tp522
a(I163
I10
tp523
a(I1300
I10
tp524
a(I30
I10
tp525
a(I373
I10
tp526
a(I807
I10
tp527
a(I1914
I10
tp528
a(I1078
I10
tp529
a(I658
I10
tp530
a(I843
I10
tp531
a(I1710
I10
tp532
a(I336
I10
tp533
a(I439
I10
tp534
a(I1980
I10
tp535
a(I710
I10
tp536
a(I47
I10
tp537
a(I1588
I10
tp538
a(I475
I10
tp539
a(I2016
I10
tp540
a(I83
I10
tp541
a(I342
I10
tp542
a(I1220
I10
tp543
a(I1131
I10
tp544
a(I624
I10
tp545
a(I465
I10
tp546
a(I1085
I10
tp547
a(I1256
I10
tp548
a(I578
I10
tp549
a(I2254
I10
tp550
a(I359
I10
tp551
a(I2220
I10
tp552
a(I1121
I10
tp553
a(I1900
I10
tp554
a(I630
I10
tp555
a(I2258
I10
tp556
a(I1753
I10
tp557
a(I1262
I10
tp558
a(I842
I10
tp559
a(I2061
I10
tp560
a(I349
I10
tp561
a(I894
I10
tp562
a(I1415
I10
tp563
a(I129
I10
tp564
a(I403
I10
tp565
a(I1686
I10
tp566
a(I1944
I10
tp567
a(I516
I10
tp568
a(I1451
I10
tp569
a(I2215
I10
tp570
a(I1637
I10
tp571
a(I23
I10
tp572
a(I1809
I10
tp573
a(I552
I10
tp574
a(I1950
I10
tp575
a(I1600
I10
tp576
a(I762
I10
tp577
a(I1441
I10
tp578
a(I13
I10
tp579
a(I184
I10
tp580
a(I1739
I10
tp581
a(I138
I10
tp582
a(I323
I10
tp583
a(I1606
I10
tp584
a(I681
I10
tp585
a(I1460
I10
tp586
a(I190
I10
tp587
a(I1729
I10
tp588
a(I2003
I10
tp589
a(I2162
I10
tp590
a(I575
I10
tp591
a(I818
I10
tp592
a(I313
I10
tp593
a(I496
I10
tp594
a(I1116
I10
tp595
a(I2255
I10
tp596
a(I450
I10
tp597
a(I1748
I10
tp598
a(I1659
I10
tp599
a(I1502
I10
tp600
a(I2156
I10
tp601
a(I748
I10
tp602
a(I2210
I10
tp603
a(I1380
I10
tp604
a(I110
I10
tp605
a(I197
I10
tp606
a(I380
I10
tp607
a(I1926
I10
tp608
a(I160
I10
tp609
a(I263
I10
tp610
a(I127
I10
tp611
a(I370
I10
tp612
a(I388
I10
tp613
a(I1840
I10
tp614
a(I657
I10
tp615
a(I166
I10
tp616
a(I1794
I10
tp617
a(I1289
I10
tp618
a(I1979
I10
tp619
a(I117
I10
tp620
a(I289
I10
tp621
a(I1933
I10
tp622
a(I921
I10
tp623
a(I1541
I10
tp624
a(I80
I10
tp625
a(I183
I10
tp626
a(I1969
I10
tp627
a(I815
I10
tp628
a(I219
I10
tp629
a(I1086
I10
tp630
a(I173
I10
tp631
a(I344
I10
tp632
a(I1899
I10
tp633
a(I805
I10
tp634
a(I2225
I10
tp635
a(I2177
I10
tp636
a(I209
I10
tp637
a(I1766
I10
tp638
a(I1103
I10
tp639
a(I841
I10
tp640
a(I596
I10
tp641
a(I350
I10
tp642
a(I1644
I10
tp643
a(I1485
I10
tp644
a(I228
I10
tp645
a(I907
I10
tp646
a(I400
I10
tp647
a(I515
I10
tp648
a(I2141
I10
tp649
a(I367
I10
tp650
a(I1634
I10
tp651
a(I1129
I10
tp652
a(I1908
I10
tp653
a(I1563
I10
tp654
a(I218
I10
tp655
a(I2261
I10
tp656
a(I2195
I10
tp657
a(I406
I10
tp658
a(I357
I10
tp659
a(I688
I10
tp660
a(I1898
I10
tp661
a(I1553
I10
tp662
a(I1062
I10
tp663
a(I1423
I10
tp664
a(I137
I10
tp665
a(I916
I10
tp666
a(I827
I10
tp667
a(I2222
I10
tp668
a(I320
I10
tp669
a(I423
I10
tp670
a(I1459
I10
tp671
a(I31
I10
tp672
a(I2000
I10
tp673
a(I906
I10
tp674
a(I817
I10
tp675
a(I572
I10
tp676
a(I326
I10
tp677
a(I413
I10
tp678
a(I449
I10
tp679
a(I204
I10
tp680
a(I1747
I10
tp681
a(I2006
I10
tp682
a(I1069
I10
tp683
a(I1701
I10
tp684
a(I240
I10
tp685
a(I343
I10
tp686
a(I1379
I10
tp687
a(I614
I10
tp688
a(I194
I10
tp689
a(I379
I10
tp690
a(I1664
I10
tp691
a(I826
I10
tp692
a(I333
I10
tp693
a(I1631
I10
tp694
a(I369
I10
tp695
a(I2013
I10
tp696
a(I1435
I10
tp697
a(I1114
I10
tp698
a(I1793
I10
tp699
a(I1548
I10
tp700
a(I536
I10
tp701
a(I114
I10
tp702
a(I1657
I10
tp703
a(I1934
I10
tp704
a(I1180
I10
tp705
a(I168
I10
tp706
a(I1033
I10
tp707
a(I885
I10
tp708
a(I378
I10
tp709
a(I812
I10
tp710
a(I1848
I10
tp711
a(I665
I10
tp712
a(I174
I10
tp713
a(I261
I10
tp714
a(I848
I10
tp715
a(I1222
I10
tp716
a(I802
I10
tp717
a(I297
I10
tp718
a(I1941
I10
tp719
a(I1607
I10
tp720
a(I595
I10
tp721
a(I854
I10
tp722
a(I191
I10
tp723
a(I434
I10
tp724
asS'runtime'
p725
F0.0021429061889648438
sS'name'
p726
S'["regex", [["app_nm", "[T]", "OM"]]]'
p727
s.