(dp0
S'output'
p1
(lp2
(I1560
I9
tp3
a(I805
I9
tp4
a(I2137
I9
tp5
a(I1829
I9
tp6
a(I1605
I9
tp7
a(I797
I9
tp8
a(I1598
I9
tp9
a(I636
I9
tp10
a(I698
I9
tp11
a(I1751
I9
tp12
a(I1962
I9
tp13
a(I1334
I9
tp14
a(I1716
I9
tp15
a(I801
I9
tp16
a(I2176
I9
tp17
a(I2158
I9
tp18
a(I1659
I9
tp19
a(I524
I9
tp20
a(I1662
I9
tp21
a(I1642
I9
tp22
asS'runtime'
p23
F0.0019440650939941406
sS'name'
p24
S'["regex", [["product_nm", "[.]", "OM"]]]'
p25
s.