(dp0
S'output'
p1
(lp2
(I1171
I8
tp3
a(I145
I8
tp4
a(I131
I8
tp5
a(I941
I8
tp6
a(I146
I8
tp7
a(I334
I8
tp8
asS'runtime'
p9
F0.0018768310546875
sS'name'
p10
S'["regex", [["app_abbr", "[Z]", "OM"]]]'
p11
s.