(dp0
S'output'
p1
(lp2
(I2063
I23
tp3
a(I1025
I23
tp4
a(I762
I23
tp5
a(I1027
I23
tp6
a(I2169
I23
tp7
a(I1215
I23
tp8
a(I16
I23
tp9
a(I1026
I23
tp10
a(I1035
I23
tp11
a(I1028
I23
tp12
a(I1030
I23
tp13
a(I1023
I23
tp14
a(I1029
I23
tp15
a(I1914
I23
tp16
a(I1024
I23
tp17
a(I793
I23
tp18
asS'runtime'
p19
F0.0019419193267822266
sS'name'
p20
S'["regex", [["bus_hours", "[=]", "OM"]]]'
p21
s.