(dp0
S'output'
p1
(lp2
(I538
I53
tp3
a(I1287
I53
tp4
a(I1562
I53
tp5
a(I1286
I53
tp6
a(I1188
I53
tp7
a(I2231
I53
tp8
a(I1573
I53
tp9
a(I2233
I53
tp10
a(I1028
I53
tp11
a(I1113
I53
tp12
a(I2232
I53
tp13
a(I2230
I53
tp14
asS'runtime'
p15
F0.0018949508666992188
sS'name'
p16
S'["regex", [["prmry_bus_function", "[U]", "OM"]]]'
p17
s.