(dp0
S'output'
p1
(lp2
(I1583
I59
tp3
a(I1193
I59
tp4
a(I602
I59
tp5
a(I71
I59
tp6
a(I513
I59
tp7
a(I242
I59
tp8
a(I1008
I59
tp9
a(I601
I59
tp10
a(I261
I59
tp11
a(I70
I59
tp12
a(I599
I59
tp13
a(I2243
I59
tp14
asS'runtime'
p15
F0.0019190311431884766
sS'name'
p16
S'["regex", [["application_it_owner", "[ ]", "OM"]]]'
p17
s.