(dp0
S'output'
p1
(lp2
(I2140
I31
tp3
a(I837
I31
tp4
a(I846
I31
tp5
a(I835
I31
tp6
a(I514
I31
tp7
a(I838
I31
tp8
a(I1551
I31
tp9
a(I834
I31
tp10
a(I844
I31
tp11
a(I1569
I31
tp12
a(I839
I31
tp13
a(I64
I31
tp14
a(I845
I31
tp15
a(I214
I31
tp16
a(I833
I31
tp17
asS'runtime'
p18
F0.0018689632415771484
sS'name'
p19
S'["regex", [["end_users", "[D]", "OM"]]]'
p20
s.