(dp0
S'output'
p1
(lp2
(I529
I51
tp3
a(I1922
I51
tp4
a(I1811
I51
tp5
a(I1757
I51
tp6
a(I1866
I51
tp7
a(I1979
I51
tp8
a(I214
I51
tp9
a(I417
I51
tp10
a(I1941
I51
tp11
a(I545
I51
tp12
a(I1980
I51
tp13
a(I1333
I51
tp14
asS'runtime'
p15
F0.003451108932495117
sS'name'
p16
S'["regex", [["total_cases", "[7]", "OM"]]]'
p17
s.