(dp0
S'output'
p1
(lp2
(I339
I8
tp3
a(I330
I8
tp4
a(I337
I8
tp5
a(I1350
I8
tp6
a(I331
I8
tp7
a(I1609
I8
tp8
a(I336
I8
tp9
a(I1448
I8
tp10
a(I335
I8
tp11
a(I333
I8
tp12
a(I340
I8
tp13
a(I338
I8
tp14
a(I847
I8
tp15
a(I684
I8
tp16
a(I334
I8
tp17
a(I332
I8
tp18
asS'runtime'
p19
F0.0018911361694335938
sS'name'
p20
S'["regex", [["app_abbr", "[4]", "OM"]]]'
p21
s.