(dp0
S'output'
p1
(lp2
(I1445
I31
tp3
a(I816
I31
tp4
a(I299
I31
tp5
a(I2036
I31
tp6
a(I1801
I31
tp7
a(I305
I31
tp8
a(I1699
I31
tp9
a(I524
I31
tp10
a(I809
I31
tp11
a(I1572
I31
tp12
asS'runtime'
p13
F0.0019381046295166016
sS'name'
p14
S'["regex", [["end_users", "[d]", "OM"]]]'
p15
s.