(dp0
S'output'
p1
(lp2
(I1438
I53
tp3
a(I2086
I53
tp4
a(I227
I53
tp5
a(I1436
I53
tp6
a(I1134
I53
tp7
a(I555
I53
tp8
a(I2194
I53
tp9
asS'runtime'
p10
F0.0019540786743164062
sS'name'
p11
S'["regex", [["prmry_bus_function", "[\']", "OM"]]]'
p12
s.