(dp0
S'output'
p1
(lp2
(I1980
I49
tp3
a(I1369
I49
tp4
a(I1335
I49
tp5
a(I740
I49
tp6
a(I673
I49
tp7
a(I50
I49
tp8
a(I653
I49
tp9
a(I1979
I49
tp10
a(I1356
I49
tp11
a(I1513
I49
tp12
a(I2018
I49
tp13
a(I1388
I49
tp14
a(I579
I49
tp15
a(I1012
I49
tp16
a(I1773
I49
tp17
asS'runtime'
p18
F0.004534006118774414
sS'name'
p19
S'["regex", [["prb", "[2]", "OM"]]]'
p20
s.