(dp0
S'output'
p1
(lp2
(I1193
I59
tp3
a(I71
I59
tp4
a(I513
I59
tp5
a(I1008
I59
tp6
a(I261
I59
tp7
a(I70
I59
tp8
a(I599
I59
tp9
a(I2243
I59
tp10
asS'runtime'
p11
F0.0019080638885498047
sS'name'
p12
S'["regex", [["application_it_owner", "[n]", "OM"]]]'
p13
s.