(dp0
S'output'
p1
(lp2
(I538
I53
tp3
a(I566
I53
tp4
a(I565
I53
tp5
a(I534
I53
tp6
a(I795
I53
tp7
asS'runtime'
p8
F0.002379179000854492
sS'name'
p9
S'["regex", [["prmry_bus_function", "[\\n]", "OM"]]]'
p10
s.