(dp0
S'output'
p1
(lp2
(I654
I17
tp3
a(I1052
I17
tp4
a(I1431
I17
tp5
a(I663
I17
tp6
a(I1432
I17
tp7
a(I1445
I17
tp8
a(I1430
I17
tp9
a(I1427
I17
tp10
a(I1435
I17
tp11
a(I1434
I17
tp12
a(I1429
I17
tp13
a(I565
I17
tp14
a(I707
I17
tp15
a(I1428
I17
tp16
a(I1433
I17
tp17
asS'runtime'
p18
F0.0018410682678222656
sS'name'
p19
S'["regex", [["retirement", "[n]", "OM"]]]'
p20
s.