(dp0
S'output'
p1
(lp2
(I129
I3
tp3
a(I99
I3
tp4
a(I555
I3
tp5
a(I699
I3
tp6
a(I807
I3
tp7
a(I2209
I3
tp8
a(I850
I3
tp9
a(I141
I3
tp10
a(I1001
I3
tp11
a(I2136
I3
tp12
a(I1000
I3
tp13
a(I1319
I3
tp14
a(I120
I3
tp15
a(I1085
I3
tp16
a(I812
I3
tp17
a(I57
I3
tp18
a(I687
I3
tp19
a(I848
I3
tp20
a(I11
I3
tp21
a(I1478
I3
tp22
a(I825
I3
tp23
a(I204
I3
tp24
asS'runtime'
p25
F0.002351045608520508
sS'name'
p26
S'["regex", [["ccr_number", "[6]", "OM"]]]'
p27
s.