(dp0
S'output'
p1
(lp2
(I278
I27
tp3
a(I1234
I27
tp4
a(I2084
I27
tp5
a(I484
I27
tp6
a(I829
I27
tp7
asS'runtime'
p8
F0.0018990039825439453
sS'name'
p9
S'["regex", [["alt_app_critical", "[4]", "OM"]]]'
p10
s.