(dp0
S'output'
p1
(lp2
(I1640
I9
tp3
a(I1011
I9
tp4
a(I450
I9
tp5
a(I1407
I9
tp6
a(I1406
I9
tp7
a(I2059
I9
tp8
a(I2057
I9
tp9
a(I2058
I9
tp10
a(I616
I9
tp11
a(I2176
I9
tp12
a(I2049
I9
tp13
a(I1797
I9
tp14
a(I42
I9
tp15
asS'runtime'
p16
F0.0019419193267822266
sS'name'
p17
S'["regex", [["product_nm", "[j]", "OM"]]]'
p18
s.