(dp0
S'output'
p1
(lp2
(I2243
I2
tp3
a(I1419
I2
tp4
a(I1273
I2
tp5
a(I1414
I2
tp6
a(I697
I2
tp7
a(I2208
I2
tp8
a(I1420
I2
tp9
a(I427
I2
tp10
a(I1163
I2
tp11
a(I39
I2
tp12
a(I545
I2
tp13
a(I1421
I2
tp14
a(I2031
I2
tp15
a(I1401
I2
tp16
a(I608
I2
tp17
a(I1300
I2
tp18
a(I501
I2
tp19
a(I1520
I2
tp20
a(I1239
I2
tp21
a(I696
I2
tp22
a(I1305
I2
tp23
a(I1418
I2
tp24
asS'runtime'
p25
F0.002332925796508789
sS'name'
p26
S'["regex", [["tracking_id", "[2]", "OM"]]]'
p27
s.