(dp0
S'output'
p1
(lp2
(I215
I36
tp3
a(I1239
I36
tp4
a(I217
I36
tp5
a(I1273
I36
tp6
a(I216
I36
tp7
a(I1539
I36
tp8
asS'runtime'
p9
F0.0018470287322998047
sS'name'
p10
S'["regex", [["region_1", "[L]", "OM"]]]'
p11
s.