(dp0
S'output'
p1
(lp2
(I2153
I10
tp3
a(I2254
I10
tp4
a(I369
I10
tp5
a(I412
I10
tp6
a(I1091
I10
tp7
a(I2255
I10
tp8
a(I2082
I10
tp9
a(I1553
I10
tp10
a(I596
I10
tp11
a(I410
I10
tp12
a(I1089
I10
tp13
a(I2156
I10
tp14
asS'runtime'
p15
F0.0019080638885498047
sS'name'
p16
S'["regex", [["app_nm", "[8]", "OM"]]]'
p17
s.