(dp0
S'output'
p1
(lp2
(I217
I58
tp3
a(I1163
I58
tp4
a(I427
I58
tp5
a(I216
I58
tp6
a(I215
I58
tp7
asS'runtime'
p8
F0.0018630027770996094
sS'name'
p9
S'["regex", [["account_manager", "[S]", "OM"]]]'
p10
s.