(dp0
S'output'
p1
(lp2
(I70
I59
tp3
a(I71
I59
tp4
a(I1583
I59
tp5
a(I2243
I59
tp6
a(I261
I59
tp7
asS'runtime'
p8
F0.0018770694732666016
sS'name'
p9
S'["regex", [["application_it_owner", "[o]", "OM"]]]'
p10
s.