(dp0
S'output'
p1
(lp2
(I748
I27
tp3
a(I723
I27
tp4
a(I2030
I27
tp5
a(I319
I27
tp6
a(I741
I27
tp7
a(I727
I27
tp8
a(I829
I27
tp9
asS'runtime'
p10
F0.0019059181213378906
sS'name'
p11
S'["regex", [["alt_app_critical", "[8]", "OM"]]]'
p12
s.