(dp0
S'output'
p1
(lp2
(I1747
I50
tp3
a(I1871
I50
tp4
a(I671
I50
tp5
a(I1762
I50
tp6
a(I1337
I50
tp7
a(I1115
I50
tp8
a(I2122
I50
tp9
a(I1345
I50
tp10
a(I1933
I50
tp11
a(I1800
I50
tp12
a(I783
I50
tp13
a(I1106
I50
tp14
a(I425
I50
tp15
a(I587
I50
tp16
a(I1141
I50
tp17
a(I1355
I50
tp18
a(I1329
I50
tp19
a(I417
I50
tp20
a(I1798
I50
tp21
a(I1016
I50
tp22
a(I793
I50
tp23
a(I1860
I50
tp24
a(I2018
I50
tp25
a(I2019
I50
tp26
a(I682
I50
tp27
a(I673
I50
tp28
a(I1868
I50
tp29
a(I1526
I50
tp30
a(I1773
I50
tp31
a(I299
I50
tp32
a(I1914
I50
tp33
a(I1365
I50
tp34
a(I1757
I50
tp35
a(I674
I50
tp36
a(I2126
I50
tp37
a(I1921
I50
tp38
a(I1103
I50
tp39
a(I1810
I50
tp40
a(I1360
I50
tp41
a(I762
I50
tp42
a(I56
I50
tp43
a(I1215
I50
tp44
a(I1216
I50
tp45
a(I1863
I50
tp46
a(I227
I50
tp47
a(I1335
I50
tp48
a(I1327
I50
tp49
a(I1353
I50
tp50
a(I1003
I50
tp51
a(I542
I50
tp52
a(I823
I50
tp53
asS'runtime'
p54
F0.002683877944946289
sS'name'
p55
S'["regex", [["chg", "[2]", "OM"]]]'
p56
s.