(dp0
S'output'
p1
(lp2
(I2226
I55
tp3
a(I1307
I55
tp4
a(I1517
I55
tp5
a(I1174
I55
tp6
a(I1615
I55
tp7
a(I1704
I55
tp8
a(I1635
I55
tp9
a(I1022
I55
tp10
a(I1655
I55
tp11
a(I1712
I55
tp12
a(I1700
I55
tp13
a(I1734
I55
tp14
a(I1727
I55
tp15
a(I1528
I55
tp16
a(I2105
I55
tp17
a(I1625
I55
tp18
asS'runtime'
p19
F0.001867055892944336
sS'name'
p20
S'["regex", [["app_comments", "[w]", "OM"]]]'
p21
s.