(dp0
S'output'
p1
(lp2
(I319
I27
tp3
a(I741
I27
tp4
a(I723
I27
tp5
a(I748
I27
tp6
a(I727
I27
tp7
asS'runtime'
p8
F0.0019049644470214844
sS'name'
p9
S'["regex", [["alt_app_critical", "[+]", "OM"]]]'
p10
s.