(dp0
S'output'
p1
(lp2
(I1106
I55
tp3
a(I635
I55
tp4
a(I308
I55
tp5
a(I685
I55
tp6
a(I630
I55
tp7
a(I1736
I55
tp8
a(I634
I55
tp9
a(I629
I55
tp10
a(I631
I55
tp11
a(I425
I55
tp12
a(I1108
I55
tp13
a(I422
I55
tp14
a(I632
I55
tp15
a(I1651
I55
tp16
a(I426
I55
tp17
a(I627
I55
tp18
a(I302
I55
tp19
a(I665
I55
tp20
asS'runtime'
p21
F0.001931905746459961
sS'name'
p22
S'["regex", [["app_comments", "[3]", "OM"]]]'
p23
s.