(dp0
S'output'
p1
(lp2
(I71
I59
tp3
a(I242
I59
tp4
a(I2243
I59
tp5
a(I599
I59
tp6
a(I261
I59
tp7
asS'runtime'
p8
F0.0018360614776611328
sS'name'
p9
S'["regex", [["application_it_owner", "[h]", "OM"]]]'
p10
s.