(dp0
S'output'
p1
(lp2
(I2154
I31
tp3
a(I2076
I31
tp4
a(I1559
I31
tp5
a(I2082
I31
tp6
a(I2036
I31
tp7
a(I1542
I31
tp8
a(I1553
I31
tp9
a(I2156
I31
tp10
a(I1557
I31
tp11
a(I2153
I31
tp12
a(I1558
I31
tp13
asS'runtime'
p14
F0.001917123794555664
sS'name'
p15
S'["regex", [["end_users", "[H]", "OM"]]]'
p16
s.