(dp0
S'output'
p1
(lp2
(I1445
I31
tp3
a(I816
I31
tp4
a(I1090
I31
tp5
a(I308
I31
tp6
a(I1743
I31
tp7
a(I809
I31
tp8
a(I1037
I31
tp9
a(I2036
I31
tp10
asS'runtime'
p11
F0.0018970966339111328
sS'name'
p12
S'["regex", [["end_users", "[f]", "OM"]]]'
p13
s.