(dp0
S'output'
p1
(lp2
(I1420
I2
tp3
a(I1539
I2
tp4
a(I1583
I2
tp5
a(I521
I2
tp6
a(I756
I2
tp7
a(I1419
I2
tp8
a(I1406
I2
tp9
a(I2243
I2
tp10
a(I695
I2
tp11
a(I55
I2
tp12
a(I1524
I2
tp13
asS'runtime'
p14
F0.0022890567779541016
sS'name'
p15
S'["regex", [["tracking_id", "[5]", "OM"]]]'
p16
s.