(dp0
S'output'
p1
(lp2
(I1420
I2
tp3
a(I1520
I2
tp4
a(I2088
I2
tp5
a(I242
I2
tp6
a(I1193
I2
tp7
a(I1524
I2
tp8
a(I1419
I2
tp9
a(I688
I2
tp10
a(I599
I2
tp11
a(I1008
I2
tp12
a(I529
I2
tp13
a(I1273
I2
tp14
a(I1894
I2
tp15
a(I1757
I2
tp16
a(I696
I2
tp17
a(I601
I2
tp18
a(I1403
I2
tp19
a(I2054
I2
tp20
asS'runtime'
p21
F0.002279043197631836
sS'name'
p22
S'["regex", [["tracking_id", "[6]", "OM"]]]'
p23
s.