(dp0
S'output'
p1
(lp2
(I1535
I43
tp3
a(I1529
I43
tp4
a(I1532
I43
tp5
a(I805
I43
tp6
a(I1192
I43
tp7
a(I1538
I43
tp8
a(I1539
I43
tp9
a(I1533
I43
tp10
a(I1534
I43
tp11
a(I1536
I43
tp12
a(I1530
I43
tp13
a(I1531
I43
tp14
a(I1528
I43
tp15
a(I1537
I43
tp16
a(I690
I43
tp17
asS'runtime'
p18
F0.0018270015716552734
sS'name'
p19
S'["regex", [["health_info", "[A]", "OM"]]]'
p20
s.