(dp0
S'output'
p1
(lp2
(I30
I27
tp3
a(I32
I27
tp4
a(I1563
I27
tp5
a(I1941
I27
tp6
a(I33
I27
tp7
a(I31
I27
tp8
a(I89
I27
tp9
a(I34
I27
tp10
a(I1821
I27
tp11
asS'runtime'
p12
F0.0018529891967773438
sS'name'
p13
S'["regex", [["alt_app_critical", "[U]", "OM"]]]'
p14
s.