(dp0
S'output'
p1
(lp2
(I1740
I53
tp3
a(I2049
I53
tp4
a(I1319
I53
tp5
a(I2048
I53
tp6
a(I2046
I53
tp7
a(I2050
I53
tp8
a(I2045
I53
tp9
a(I2051
I53
tp10
a(I2052
I53
tp11
a(I2053
I53
tp12
a(I228
I53
tp13
a(I2047
I53
tp14
a(I1741
I53
tp15
asS'runtime'
p16
F0.0019669532775878906
sS'name'
p17
S'["regex", [["prmry_bus_function", "[_]", "OM"]]]'
p18
s.