(dp0
S'output'
p1
(lp2
(I1251
I47
tp3
a(I1932
I47
tp4
a(I1941
I47
tp5
a(I775
I47
tp6
a(I2034
I47
tp7
a(I498
I47
tp8
a(I763
I47
tp9
a(I1906
I47
tp10
a(I1945
I47
tp11
a(I758
I47
tp12
a(I1767
I47
tp13
a(I435
I47
tp14
a(I1445
I47
tp15
a(I1623
I47
tp16
a(I537
I47
tp17
a(I1858
I47
tp18
a(I1419
I47
tp19
a(I1597
I47
tp20
a(I2181
I47
tp21
a(I527
I47
tp22
a(I241
I47
tp23
a(I451
I47
tp24
a(I2165
I47
tp25
a(I1262
I47
tp26
a(I615
I47
tp27
a(I1248
I47
tp28
a(I297
I47
tp29
a(I722
I47
tp30
a(I2187
I47
tp31
a(I531
I47
tp32
a(I2108
I47
tp33
a(I645
I47
tp34
a(I1265
I47
tp35
a(I2043
I47
tp36
a(I1401
I47
tp37
a(I1806
I47
tp38
a(I756
I47
tp39
a(I1201
I47
tp40
a(I998
I47
tp41
a(I1192
I47
tp42
a(I1114
I47
tp43
a(I291
I47
tp44
a(I1612
I47
tp45
a(I1950
I47
tp46
a(I1735
I47
tp47
a(I1545
I47
tp48
a(I2226
I47
tp49
a(I1270
I47
tp50
a(I516
I47
tp51
a(I1206
I47
tp52
a(I1196
I47
tp53
a(I2097
I47
tp54
a(I997
I47
tp55
a(I494
I47
tp56
a(I1175
I47
tp57
a(I720
I47
tp58
a(I770
I47
tp59
a(I2110
I47
tp60
a(I2088
I47
tp61
a(I1405
I47
tp62
a(I1606
I47
tp63
a(I487
I47
tp64
a(I44
I47
tp65
a(I1952
I47
tp66
a(I1824
I47
tp67
a(I1897
I47
tp68
a(I658
I47
tp69
a(I1171
I47
tp70
a(I1942
I47
tp71
a(I1247
I47
tp72
a(I1793
I47
tp73
a(I714
I47
tp74
a(I1170
I47
tp75
a(I2044
I47
tp76
a(I1320
I47
tp77
a(I2096
I47
tp78
a(I1122
I47
tp79
a(I683
I47
tp80
a(I1204
I47
tp81
a(I294
I47
tp82
a(I657
I47
tp83
asS'runtime'
p84
F0.0018138885498046875
sS'name'
p85
S'["regex", [["wo", "[2]", "OM"]]]'
p86
s.