(dp0
S'output'
p1
(lp2
(I1363
I8
tp3
a(I426
I8
tp4
a(I689
I8
tp5
a(I1734
I8
tp6
a(I681
I8
tp7
a(I1556
I8
tp8
a(I1655
I8
tp9
a(I1214
I8
tp10
a(I1749
I8
tp11
a(I1608
I8
tp12
a(I328
I8
tp13
a(I1327
I8
tp14
a(I1398
I8
tp15
a(I429
I8
tp16
a(I1076
I8
tp17
a(I2223
I8
tp18
a(I1401
I8
tp19
a(I1489
I8
tp20
a(I2037
I8
tp21
a(I837
I8
tp22
asS'runtime'
p23
F0.0018999576568603516
sS'name'
p24
S'["regex", [["app_abbr", "[z]", "OM"]]]'
p25
s.