(dp0
S'output'
p1
(lp2
(I1016
I9
tp3
a(I1158
I9
tp4
a(I2212
I9
tp5
a(I2146
I9
tp6
a(I287
I9
tp7
a(I1296
I9
tp8
a(I1676
I9
tp9
a(I1406
I9
tp10
a(I1611
I9
tp11
a(I2228
I9
tp12
a(I1729
I9
tp13
a(I1645
I9
tp14
a(I46
I9
tp15
a(I2183
I9
tp16
a(I44
I9
tp17
a(I2090
I9
tp18
a(I2023
I9
tp19
asS'runtime'
p20
F0.001959085464477539
sS'name'
p21
S'["regex", [["product_nm", "[/]", "OM"]]]'
p22
s.