(dp0
S'output'
p1
(lp2
(I1163
I58
tp3
a(I85
I58
tp4
a(I1456
I58
tp5
a(I599
I58
tp6
a(I242
I58
tp7
asS'runtime'
p8
F0.0018410682678222656
sS'name'
p9
S'["regex", [["account_manager", "[;]", "OM"]]]'
p10
s.