(dp0
S'output'
p1
(lp2
(I249
I10
tp3
a(I944
I10
tp4
a(I1553
I10
tp5
a(I2076
I10
tp6
a(I1542
I10
tp7
a(I2082
I10
tp8
a(I2153
I10
tp9
a(I1557
I10
tp10
a(I1152
I10
tp11
a(I2188
I10
tp12
a(I2156
I10
tp13
asS'runtime'
p14
F0.001964092254638672
sS'name'
p15
S'["regex", [["app_nm", "[:]", "OM"]]]'
p16
s.