(dp0
S'output'
p1
(lp2
(I2082
I7
tp3
a(I223
I7
tp4
a(I2254
I7
tp5
a(I1558
I7
tp6
a(I2255
I7
tp7
a(I314
I7
tp8
asS'runtime'
p9
F0.0018780231475830078
sS'name'
p10
S'["regex", [["name", "[5]", "OM"]]]'
p11
s.