(dp0
S'output'
p1
(lp2
(I1163
I58
tp3
a(I830
I58
tp4
a(I85
I58
tp5
a(I608
I58
tp6
a(I71
I58
tp7
a(I216
I58
tp8
a(I2054
I58
tp9
a(I242
I58
tp10
a(I217
I58
tp11
a(I427
I58
tp12
a(I1040
I58
tp13
a(I215
I58
tp14
a(I1308
I58
tp15
a(I1273
I58
tp16
asS'runtime'
p17
F0.001905202865600586
sS'name'
p18
S'["regex", [["account_manager", "[e]", "OM"]]]'
p19
s.