(dp0
S'output'
p1
(lp2
(I1798
I51
tp3
a(I55
I51
tp4
a(I568
I51
tp5
a(I529
I51
tp6
a(I994
I51
tp7
a(I1508
I51
tp8
a(I505
I51
tp9
a(I1868
I51
tp10
a(I1346
I51
tp11
a(I2019
I51
tp12
a(I276
I51
tp13
a(I542
I51
tp14
a(I783
I51
tp15
a(I651
I51
tp16
asS'runtime'
p17
F0.0036840438842773438
sS'name'
p18
S'["regex", [["total_cases", "[5]", "OM"]]]'
p19
s.