(dp0
S'output'
p1
(lp2
(I672
I21
tp3
a(I565
I21
tp4
a(I1637
I21
tp5
a(I1171
I21
tp6
a(I663
I21
tp7
a(I1445
I21
tp8
a(I654
I21
tp9
a(I1170
I21
tp10
a(I671
I21
tp11
a(I307
I21
tp12
asS'runtime'
p13
F0.0018701553344726562
sS'name'
p14
S'["regex", [["retire_plan", "[n]", "OM"]]]'
p15
s.