(dp0
S'output'
p1
(lp2
(I2046
I27
tp3
a(I809
I27
tp4
a(I2052
I27
tp5
a(I2023
I27
tp6
a(I1612
I27
tp7
a(I615
I27
tp8
a(I792
I27
tp9
a(I2084
I27
tp10
a(I1741
I27
tp11
a(I2050
I27
tp12
a(I2051
I27
tp13
a(I1621
I27
tp14
a(I1740
I27
tp15
a(I225
I27
tp16
a(I2047
I27
tp17
a(I2039
I27
tp18
a(I213
I27
tp19
a(I1622
I27
tp20
a(I2049
I27
tp21
a(I2041
I27
tp22
a(I2053
I27
tp23
a(I2045
I27
tp24
asS'runtime'
p25
F0.0018880367279052734
sS'name'
p26
S'["regex", [["alt_app_critical", "[b]", "OM"]]]'
p27
s.