(dp0
S'output'
p1
(lp2
(I223
I60
tp3
a(I70
I60
tp4
a(I602
I60
tp5
a(I2243
I60
tp6
a(I261
I60
tp7
a(I601
I60
tp8
asS'runtime'
p9
F0.0018398761749267578
sS'name'
p10
S'["regex", [["application_business_owner", "[o]", "OM"]]]'
p11
s.