(dp0
S'output'
p1
(lp2
(I2243
I2
tp3
a(I1901
I2
tp4
a(I1583
I2
tp5
a(I242
I2
tp6
a(I1163
I2
tp7
a(I830
I2
tp8
a(I85
I2
tp9
a(I599
I2
tp10
a(I602
I2
tp11
a(I70
I2
tp12
a(I2054
I2
tp13
a(I601
I2
tp14
a(I1894
I2
tp15
a(I261
I2
tp16
a(I608
I2
tp17
a(I71
I2
tp18
asS'runtime'
p19
F0.002279996871948242
sS'name'
p20
S'["regex", [["tracking_id", "[R]", "OM"]]]'
p21
s.