(dp0
S'output'
p1
(lp2
(I851
I8
tp3
a(I234
I8
tp4
a(I337
I8
tp5
a(I536
I8
tp6
a(I1565
I8
tp7
a(I100
I8
tp8
a(I331
I8
tp9
a(I2137
I8
tp10
a(I1316
I8
tp11
a(I606
I8
tp12
a(I1020
I8
tp13
a(I451
I8
tp14
a(I1928
I8
tp15
a(I1869
I8
tp16
a(I923
I8
tp17
a(I1522
I8
tp18
a(I25
I8
tp19
a(I327
I8
tp20
a(I633
I8
tp21
a(I325
I8
tp22
a(I2211
I8
tp23
asS'runtime'
p24
F0.0019030570983886719
sS'name'
p25
S'["regex", [["app_abbr", "[K]", "OM"]]]'
p26
s.