(dp0
S'output'
p1
(lp2
(I300
I53
tp3
a(I1319
I53
tp4
a(I1760
I53
tp5
a(I53
I53
tp6
a(I283
I53
tp7
a(I2185
I53
tp8
a(I1167
I53
tp9
a(I2054
I53
tp10
a(I1187
I53
tp11
a(I2193
I53
tp12
a(I55
I53
tp13
a(I2171
I53
tp14
a(I2086
I53
tp15
a(I1763
I53
tp16
a(I1547
I53
tp17
a(I543
I53
tp18
a(I1816
I53
tp19
a(I2217
I53
tp20
a(I1494
I53
tp21
a(I531
I53
tp22
asS'runtime'
p23
F0.0019268989562988281
sS'name'
p24
S'["regex", [["prmry_bus_function", "[q]", "OM"]]]'
p25
s.