(dp0
S'output'
p1
(lp2
(I334
I10
tp3
a(I837
I10
tp4
a(I176
I10
tp5
a(I1655
I10
tp6
a(I145
I10
tp7
a(I941
I10
tp8
a(I131
I10
tp9
a(I1446
I10
tp10
a(I1608
I10
tp11
a(I681
I10
tp12
a(I689
I10
tp13
a(I910
I10
tp14
a(I2037
I10
tp15
a(I1607
I10
tp16
a(I1180
I10
tp17
a(I1734
I10
tp18
a(I429
I10
tp19
a(I146
I10
tp20
asS'runtime'
p21
F0.001936197280883789
sS'name'
p22
S'["regex", [["app_nm", "[Z]", "OM"]]]'
p23
s.