(dp0
S'output'
p1
(lp2
(I810
I40
tp3
a(I1528
I40
tp4
a(I1535
I40
tp5
a(I1539
I40
tp6
a(I1533
I40
tp7
a(I1538
I40
tp8
a(I1534
I40
tp9
a(I821
I40
tp10
a(I1532
I40
tp11
a(I803
I40
tp12
a(I1530
I40
tp13
a(I1537
I40
tp14
a(I822
I40
tp15
a(I1531
I40
tp16
a(I690
I40
tp17
a(I1529
I40
tp18
a(I1536
I40
tp19
a(I814
I40
tp20
a(I805
I40
tp21
asS'runtime'
p22
F0.001873016357421875
sS'name'
p23
S'["regex", [["emp_dta", "[A]", "OM"]]]'
p24
s.