(dp0
S'output'
p1
(lp2
(I1441
I53
tp3
a(I2182
I53
tp4
a(I544
I53
tp5
a(I446
I53
tp6
a(I222
I53
tp7
a(I2177
I53
tp8
a(I1556
I53
tp9
a(I1800
I53
tp10
a(I221
I53
tp11
a(I1030
I53
tp12
a(I60
I53
tp13
a(I1041
I53
tp14
a(I1029
I53
tp15
a(I2187
I53
tp16
a(I537
I53
tp17
a(I530
I53
tp18
a(I1439
I53
tp19
a(I88
I53
tp20
a(I1325
I53
tp21
asS'runtime'
p22
F0.001920938491821289
sS'name'
p23
S'["regex", [["prmry_bus_function", "[z]", "OM"]]]'
p24
s.