(dp0
S'output'
p1
(lp2
(I30
I27
tp3
a(I719
I27
tp4
a(I32
I27
tp5
a(I986
I27
tp6
a(I748
I27
tp7
a(I1087
I27
tp8
a(I2134
I27
tp9
a(I33
I27
tp10
a(I723
I27
tp11
a(I2137
I27
tp12
a(I31
I27
tp13
a(I89
I27
tp14
a(I1086
I27
tp15
a(I715
I27
tp16
a(I741
I27
tp17
a(I727
I27
tp18
a(I1941
I27
tp19
a(I34
I27
tp20
a(I2143
I27
tp21
a(I1821
I27
tp22
asS'runtime'
p23
F0.0018620491027832031
sS'name'
p24
S'["regex", [["alt_app_critical", "[C]", "OM"]]]'
p25
s.