(dp0
S'output'
p1
(lp2
(I1583
I59
tp3
a(I1193
I59
tp4
a(I602
I59
tp5
a(I513
I59
tp6
a(I242
I59
tp7
a(I1008
I59
tp8
a(I601
I59
tp9
asS'runtime'
p10
F0.0018188953399658203
sS'name'
p11
S'["regex", [["application_it_owner", "[e]", "OM"]]]'
p12
s.