(dp0
S'output'
p1
(lp2
(I1107
I8
tp3
a(I291
I8
tp4
a(I1137
I8
tp5
a(I2136
I8
tp6
a(I1277
I8
tp7
a(I573
I8
tp8
a(I644
I8
tp9
a(I555
I8
tp10
a(I386
I8
tp11
a(I1450
I8
tp12
a(I2148
I8
tp13
a(I1431
I8
tp14
a(I1694
I8
tp15
a(I2165
I8
tp16
a(I99
I8
tp17
a(I826
I8
tp18
a(I2157
I8
tp19
a(I91
I8
tp20
a(I1802
I8
tp21
a(I288
I8
tp22
a(I1083
I8
tp23
asS'runtime'
p24
F0.0018801689147949219
sS'name'
p25
S'["regex", [["app_abbr", "[2]", "OM"]]]'
p26
s.