(dp0
S'output'
p1
(lp2
(I59
I33
tp3
a(I425
I33
tp4
a(I679
I33
tp5
a(I584
I33
tp6
a(I1862
I33
tp7
a(I1506
I33
tp8
a(I1851
I33
tp9
a(I715
I33
tp10
a(I2085
I33
tp11
a(I1509
I33
tp12
a(I1281
I33
tp13
a(I670
I33
tp14
a(I667
I33
tp15
a(I1850
I33
tp16
a(I675
I33
tp17
a(I299
I33
tp18
a(I1497
I33
tp19
a(I1495
I33
tp20
a(I1849
I33
tp21
a(I1508
I33
tp22
a(I1280
I33
tp23
a(I1132
I33
tp24
a(I1442
I33
tp25
a(I1455
I33
tp26
a(I1040
I33
tp27
a(I2126
I33
tp28
a(I60
I33
tp29
a(I1762
I33
tp30
a(I1847
I33
tp31
a(I1496
I33
tp32
a(I677
I33
tp33
a(I1443
I33
tp34
a(I50
I33
tp35
a(I2150
I33
tp36
a(I1507
I33
tp37
a(I1282
I33
tp38
a(I665
I33
tp39
a(I1848
I33
tp40
a(I1846
I33
tp41
a(I1439
I33
tp42
asS'runtime'
p43
F0.0018968582153320312
sS'name'
p44
S'["regex", [["division", "[R]", "OM"]]]'
p45
s.