(dp0
S'output'
p1
(lp2
(I791
I27
tp3
a(I792
I27
tp4
a(I649
I27
tp5
a(I2084
I27
tp6
a(I1212
I27
tp7
asS'runtime'
p8
F0.0019011497497558594
sS'name'
p9
S'["regex", [["alt_app_critical", "[k]", "OM"]]]'
p10
s.