(dp0
S'output'
p1
(lp2
(I1624
I55
tp3
a(I2216
I55
tp4
a(I1722
I55
tp5
a(I1022
I55
tp6
a(I1656
I55
tp7
a(I1715
I55
tp8
a(I1735
I55
tp9
a(I1679
I55
tp10
asS'runtime'
p11
F0.0019409656524658203
sS'name'
p12
S'["regex", [["app_comments", "[q]", "OM"]]]'
p13
s.