(dp0
S'output'
p1
(lp2
(I2154
I31
tp3
a(I1557
I31
tp4
a(I2076
I31
tp5
a(I1317
I31
tp6
a(I1559
I31
tp7
a(I2082
I31
tp8
a(I2085
I31
tp9
a(I2153
I31
tp10
a(I1542
I31
tp11
a(I2156
I31
tp12
a(I1553
I31
tp13
a(I524
I31
tp14
a(I1445
I31
tp15
a(I1088
I31
tp16
a(I809
I31
tp17
a(I1558
I31
tp18
a(I2143
I31
tp19
asS'runtime'
p20
F0.0018889904022216797
sS'name'
p21
S'["regex", [["end_users", "[g]", "OM"]]]'
p22
s.