(dp0
S'output'
p1
(lp2
(I1615
I55
tp3
a(I451
I55
tp4
a(I1916
I55
tp5
a(I1022
I55
tp6
a(I1655
I55
tp7
a(I1712
I55
tp8
a(I68
I55
tp9
a(I1734
I55
tp10
a(I1727
I55
tp11
asS'runtime'
p12
F0.0018630027770996094
sS'name'
p13
S'["regex", [["app_comments", "[)]", "OM"]]]'
p14
s.