(dp0
S'output'
p1
(lp2
(I1100
I52
tp3
a(I1691
I52
tp4
a(I2153
I52
tp5
a(I1760
I52
tp6
a(I387
I52
tp7
a(I631
I52
tp8
a(I1734
I52
tp9
a(I2108
I52
tp10
a(I2000
I52
tp11
a(I1580
I52
tp12
a(I1430
I52
tp13
a(I1437
I52
tp14
a(I55
I52
tp15
a(I1798
I52
tp16
a(I632
I52
tp17
a(I2215
I52
tp18
a(I2165
I52
tp19
a(I768
I52
tp20
a(I222
I52
tp21
a(I742
I52
tp22
a(I604
I52
tp23
a(I1663
I52
tp24
asS'runtime'
p25
F0.002465963363647461
sS'name'
p26
S'["regex", [["description", "[Y]", "OM"]]]'
p27
s.