(dp0
S'output'
p1
(lp2
(I1146
I53
tp3
a(I2223
I53
tp4
a(I2165
I53
tp5
a(I2164
I53
tp6
a(I1147
I53
tp7
a(I596
I53
tp8
a(I1417
I53
tp9
a(I1809
I53
tp10
a(I1807
I53
tp11
a(I1416
I53
tp12
a(I2182
I53
tp13
a(I2224
I53
tp14
a(I1169
I53
tp15
a(I2218
I53
tp16
a(I1808
I53
tp17
a(I1806
I53
tp18
a(I1145
I53
tp19
a(I2162
I53
tp20
a(I1215
I53
tp21
a(I1805
I53
tp22
a(I2163
I53
tp23
asS'runtime'
p24
F0.001936197280883789
sS'name'
p25
S'["regex", [["prmry_bus_function", "[Q]", "OM"]]]'
p26
s.