(dp0
S'output'
p1
(lp2
(I1901
I2
tp3
a(I500
I2
tp4
a(I85
I2
tp5
a(I55
I2
tp6
a(I501
I2
tp7
a(I499
I2
tp8
a(I599
I2
tp9
a(I2100
I2
tp10
a(I1401
I2
tp11
a(I1239
I2
tp12
a(I261
I2
tp13
a(I608
I2
tp14
a(I487
I2
tp15
a(I1418
I2
tp16
asS'runtime'
p17
F0.0022821426391601562
sS'name'
p18
S'["regex", [["tracking_id", "[9]", "OM"]]]'
p19
s.