(dp0
S'output'
p1
(lp2
(I421
I30
tp3
a(I586
I30
tp4
a(I1913
I30
tp5
a(I1184
I30
tp6
a(I1769
I30
tp7
a(I542
I30
tp8
a(I52
I30
tp9
a(I1507
I30
tp10
a(I1236
I30
tp11
a(I1514
I30
tp12
a(I1513
I30
tp13
a(I1056
I30
tp14
a(I992
I30
tp15
a(I1810
I30
tp16
a(I1118
I30
tp17
a(I1846
I30
tp18
asS'runtime'
p19
F0.0018391609191894531
sS'name'
p20
S'["regex", [["users_affected", "[7]", "OM"]]]'
p21
s.