(dp0
S'output'
p1
(lp2
(I1282
I50
tp3
a(I452
I50
tp4
a(I667
I50
tp5
a(I1518
I50
tp6
a(I421
I50
tp7
a(I1520
I50
tp8
a(I1345
I50
tp9
a(I2124
I50
tp10
a(I2194
I50
tp11
a(I1142
I50
tp12
a(I1512
I50
tp13
a(I1172
I50
tp14
a(I2122
I50
tp15
a(I308
I50
tp16
a(I1866
I50
tp17
a(I1365
I50
tp18
a(I1104
I50
tp19
a(I663
I50
tp20
a(I1748
I50
tp21
asS'runtime'
p22
F0.0028138160705566406
sS'name'
p23
S'["regex", [["chg", "[3]", "OM"]]]'
p24
s.