(dp0
S'output'
p1
(lp2
(I1746
I55
tp3
a(I634
I55
tp4
a(I629
I55
tp5
a(I422
I55
tp6
a(I1307
I55
tp7
a(I631
I55
tp8
a(I1508
I55
tp9
a(I632
I55
tp10
a(I627
I55
tp11
a(I1106
I55
tp12
a(I635
I55
tp13
a(I1108
I55
tp14
a(I630
I55
tp15
a(I1507
I55
tp16
a(I68
I55
tp17
a(I426
I55
tp18
a(I2226
I55
tp19
a(I308
I55
tp20
a(I685
I55
tp21
a(I451
I55
tp22
a(I1726
I55
tp23
a(I425
I55
tp24
a(I665
I55
tp25
asS'runtime'
p26
F0.0018520355224609375
sS'name'
p27
S'["regex", [["app_comments", "[0]", "OM"]]]'
p28
s.