(dp0
S'output'
p1
(lp2
(I1880
I50
tp3
a(I1947
I50
tp4
a(I2213
I50
tp5
a(I839
I50
tp6
a(I1347
I50
tp7
a(I1865
I50
tp8
a(I1012
I50
tp9
a(I670
I50
tp10
asS'runtime'
p11
F0.002508878707885742
sS'name'
p12
S'["regex", [["chg", "[8]", "OM"]]]'
p13
s.