(dp0
S'output'
p1
(lp2
(I608
I58
tp3
a(I427
I58
tp4
a(I261
I58
tp5
a(I2243
I58
tp6
a(I70
I58
tp7
a(I1583
I58
tp8
asS'runtime'
p9
F0.0019137859344482422
sS'name'
p10
S'["regex", [["account_manager", "[p]", "OM"]]]'
p11
s.