(dp0
S'output'
p1
(lp2
(I2258
I7
tp3
a(I344
I7
tp4
a(I435
I7
tp5
a(I1292
I7
tp6
a(I1733
I7
tp7
a(I2254
I7
tp8
a(I807
I7
tp9
a(I409
I7
tp10
a(I2255
I7
tp11
a(I1012
I7
tp12
a(I1709
I7
tp13
a(I975
I7
tp14
a(I1427
I7
tp15
a(I1091
I7
tp16
a(I1660
I7
tp17
a(I2157
I7
tp18
a(I623
I7
tp19
asS'runtime'
p20
F0.0018818378448486328
sS'name'
p21
S'["regex", [["name", "[1]", "OM"]]]'
p22
s.