(dp0
S'output'
p1
(lp2
(I491
I48
tp3
a(I1655
I48
tp4
a(I1212
I48
tp5
a(I769
I48
tp6
a(I2144
I48
tp7
a(I1511
I48
tp8
a(I1795
I48
tp9
a(I1597
I48
tp10
a(I1684
I48
tp11
a(I1154
I48
tp12
a(I1445
I48
tp13
a(I1807
I48
tp14
a(I1505
I48
tp15
a(I1599
I48
tp16
a(I1681
I48
tp17
a(I763
I48
tp18
a(I626
I48
tp19
a(I1114
I48
tp20
a(I1233
I48
tp21
a(I296
I48
tp22
a(I1793
I48
tp23
a(I235
I48
tp24
a(I1977
I48
tp25
a(I1840
I48
tp26
a(I1806
I48
tp27
a(I1889
I48
tp28
a(I722
I48
tp29
a(I1193
I48
tp30
a(I1516
I48
tp31
a(I1201
I48
tp32
a(I527
I48
tp33
a(I1617
I48
tp34
a(I1689
I48
tp35
a(I1832
I48
tp36
a(I2068
I48
tp37
a(I657
I48
tp38
a(I495
I48
tp39
a(I1761
I48
tp40
asS'runtime'
p41
F0.0018010139465332031
sS'name'
p42
S'["regex", [["req", "[5]", "OM"]]]'
p43
s.