(dp0
S'output'
p1
(lp2
(I1751
I31
tp3
a(I1317
I31
tp4
a(I2239
I31
tp5
a(I1088
I31
tp6
a(I816
I31
tp7
a(I2036
I31
tp8
a(I299
I31
tp9
a(I276
I31
tp10
a(I102
I31
tp11
a(I1519
I31
tp12
a(I1745
I31
tp13
a(I1445
I31
tp14
a(I542
I31
tp15
a(I480
I31
tp16
a(I809
I31
tp17
a(I1746
I31
tp18
a(I2085
I31
tp19
a(I1750
I31
tp20
a(I308
I31
tp21
a(I1749
I31
tp22
asS'runtime'
p23
F0.0018999576568603516
sS'name'
p24
S'["regex", [["end_users", "[l]", "OM"]]]'
p25
s.