(dp0
S'output'
p1
(lp2
(I952
I8
tp3
a(I959
I8
tp4
a(I262
I8
tp5
a(I957
I8
tp6
a(I1662
I8
tp7
a(I1161
I8
tp8
a(I951
I8
tp9
a(I958
I8
tp10
a(I533
I8
tp11
a(I956
I8
tp12
a(I954
I8
tp13
a(I950
I8
tp14
a(I1627
I8
tp15
a(I955
I8
tp16
a(I953
I8
tp17
a(I960
I8
tp18
a(I78
I8
tp19
a(I2014
I8
tp20
asS'runtime'
p21
F0.0018620491027832031
sS'name'
p22
S'["regex", [["app_abbr", "[&]", "OM"]]]'
p23
s.