(dp0
S'output'
p1
(lp2
(I1734
I9
tp3
a(I837
I9
tp4
a(I742
I9
tp5
a(I1363
I9
tp6
a(I1732
I9
tp7
a(I681
I9
tp8
a(I1655
I9
tp9
a(I1608
I9
tp10
a(I2037
I9
tp11
a(I1398
I9
tp12
a(I429
I9
tp13
asS'runtime'
p14
F0.0019588470458984375
sS'name'
p15
S'["regex", [["product_nm", "[Z]", "OM"]]]'
p16
s.