(dp0
S'output'
p1
(lp2
(I748
I27
tp3
a(I1234
I27
tp4
a(I723
I27
tp5
a(I319
I27
tp6
a(I1212
I27
tp7
a(I741
I27
tp8
a(I727
I27
tp9
a(I2248
I27
tp10
a(I829
I27
tp11
asS'runtime'
p12
F0.001882791519165039
sS'name'
p13
S'["regex", [["alt_app_critical", "[)]", "OM"]]]'
p14
s.