(dp0
S'output'
p1
(lp2
(I521
I58
tp3
a(I1193
I58
tp4
a(I830
I58
tp5
a(I501
I58
tp6
a(I608
I58
tp7
a(I487
I58
tp8
a(I513
I58
tp9
a(I499
I58
tp10
a(I242
I58
tp11
a(I2054
I58
tp12
a(I490
I58
tp13
a(I757
I58
tp14
a(I70
I58
tp15
a(I1949
I58
tp16
a(I1308
I58
tp17
asS'runtime'
p18
F0.0018701553344726562
sS'name'
p19
S'["regex", [["account_manager", "[K]", "OM"]]]'
p20
s.