(dp0
S'output'
p1
(lp2
(I1583
I13
tp3
a(I1901
I13
tp4
a(I2243
I13
tp5
a(I2054
I13
tp6
a(I601
I13
tp7
a(I223
I13
tp8
a(I70
I13
tp9
a(I602
I13
tp10
asS'runtime'
p11
F0.0018379688262939453
sS'name'
p12
S'["regex", [["curr_status", "[i]", "OM"]]]'
p13
s.