(dp0
S'output'
p1
(lp2
(I748
I27
tp3
a(I1621
I27
tp4
a(I278
I27
tp5
a(I723
I27
tp6
a(I484
I27
tp7
a(I1622
I27
tp8
a(I2084
I27
tp9
a(I741
I27
tp10
a(I727
I27
tp11
asS'runtime'
p12
F0.001909017562866211
sS'name'
p13
S'["regex", [["alt_app_critical", "[7]", "OM"]]]'
p14
s.