(dp0
S'output'
p1
(lp2
(I1163
I58
tp3
a(I85
I58
tp4
a(I71
I58
tp5
a(I216
I58
tp6
a(I217
I58
tp7
a(I427
I58
tp8
a(I1040
I58
tp9
a(I215
I58
tp10
a(I1539
I58
tp11
a(I70
I58
tp12
a(I1456
I58
tp13
asS'runtime'
p14
F0.0018360614776611328
sS'name'
p15
S'["regex", [["account_manager", "[t]", "OM"]]]'
p16
s.