(dp0
S'output'
p1
(lp2
(I1419
I43
tp3
a(I1093
I43
tp4
a(I1858
I43
tp5
a(I670
I43
tp6
a(I288
I43
tp7
a(I1434
I43
tp8
a(I1420
I43
tp9
a(I679
I43
tp10
a(I289
I43
tp11
a(I1490
I43
tp12
asS'runtime'
p13
F0.0018429756164550781
sS'name'
p14
S'["regex", [["health_info", "[e]", "OM"]]]'
p15
s.