(dp0
S'output'
p1
(lp2
(I1833
I27
tp3
a(I1814
I27
tp4
a(I1816
I27
tp5
a(I1
I27
tp6
a(I2084
I27
tp7
a(I686
I27
tp8
a(I1151
I27
tp9
a(I596
I27
tp10
asS'runtime'
p11
F0.0018839836120605469
sS'name'
p12
S'["regex", [["alt_app_critical", "[.]", "OM"]]]'
p13
s.