(dp0
S'output'
p1
(lp2
(I695
I36
tp3
a(I1414
I36
tp4
a(I1415
I36
tp5
a(I697
I36
tp6
a(I1401
I36
tp7
a(I1421
I36
tp8
a(I696
I36
tp9
a(I39
I36
tp10
a(I1420
I36
tp11
a(I1403
I36
tp12
a(I1402
I36
tp13
a(I1406
I36
tp14
a(I1419
I36
tp15
a(I1418
I36
tp16
asS'runtime'
p17
F0.0018570423126220703
sS'name'
p18
S'["regex", [["region_1", "[E]", "OM"]]]'
p19
s.