(dp0
S'output'
p1
(lp2
(I1464
I29
tp3
a(I1523
I29
tp4
a(I796
I29
tp5
a(I1274
I29
tp6
a(I905
I29
tp7
a(I2255
I29
tp8
a(I1384
I29
tp9
a(I2252
I29
tp10
a(I2232
I29
tp11
a(I736
I29
tp12
a(I2254
I29
tp13
a(I477
I29
tp14
a(I902
I29
tp15
a(I1376
I29
tp16
a(I809
I29
tp17
a(I1007
I29
tp18
a(I904
I29
tp19
a(I909
I29
tp20
a(I1219
I29
tp21
a(I1825
I29
tp22
a(I1504
I29
tp23
a(I901
I29
tp24
a(I1467
I29
tp25
a(I806
I29
tp26
a(I1465
I29
tp27
a(I476
I29
tp28
a(I2257
I29
tp29
a(I1456
I29
tp30
a(I1891
I29
tp31
a(I908
I29
tp32
a(I910
I29
tp33
a(I475
I29
tp34
a(I900
I29
tp35
a(I825
I29
tp36
a(I1929
I29
tp37
a(I730
I29
tp38
a(I1463
I29
tp39
a(I2256
I29
tp40
a(I907
I29
tp41
a(I1385
I29
tp42
a(I1170
I29
tp43
a(I899
I29
tp44
a(I906
I29
tp45
a(I1928
I29
tp46
asS'runtime'
p47
F0.0018410682678222656
sS'name'
p48
S'["regex", [["priority", "[1]", "OM"]]]'
p49
s.