(dp0
S'output'
p1
(lp2
(I1506
I39
tp3
a(I2085
I39
tp4
a(I1439
I39
tp5
a(I593
I39
tp6
a(I1811
I39
tp7
a(I1772
I39
tp8
a(I69
I39
tp9
a(I1812
I39
tp10
a(I1851
I39
tp11
a(I52
I39
tp12
a(I584
I39
tp13
a(I1185
I39
tp14
a(I1443
I39
tp15
asS'runtime'
p16
F0.0019021034240722656
sS'name'
p17
S'["regex", [["gxp_ind", "[L]", "OM"]]]'
p18
s.