(dp0
S'output'
p1
(lp2
(I6
I9
tp3
a(I1843
I9
tp4
a(I1841
I9
tp5
a(I1439
I9
tp6
a(I1355
I9
tp7
a(I1916
I9
tp8
a(I2184
I9
tp9
a(I2031
I9
tp10
a(I1524
I9
tp11
a(I498
I9
tp12
a(I559
I9
tp13
a(I2208
I9
tp14
a(I557
I9
tp15
a(I1970
I9
tp16
a(I1775
I9
tp17
a(I618
I9
tp18
a(I583
I9
tp19
a(I1304
I9
tp20
a(I1701
I9
tp21
a(I1619
I9
tp22
a(I593
I9
tp23
a(I1962
I9
tp24
a(I76
I9
tp25
a(I619
I9
tp26
a(I1948
I9
tp27
a(I1270
I9
tp28
a(I1751
I9
tp29
a(I1202
I9
tp30
a(I1611
I9
tp31
a(I227
I9
tp32
a(I532
I9
tp33
a(I1706
I9
tp34
a(I2066
I9
tp35
a(I1801
I9
tp36
a(I448
I9
tp37
a(I1869
I9
tp38
a(I558
I9
tp39
a(I2183
I9
tp40
a(I2092
I9
tp41
a(I1369
I9
tp42
a(I1674
I9
tp43
a(I2145
I9
tp44
a(I56
I9
tp45
a(I582
I9
tp46
a(I1395
I9
tp47
a(I1700
I9
tp48
a(I1393
I9
tp49
a(I2015
I9
tp50
a(I592
I9
tp51
a(I700
I9
tp52
a(I1736
I9
tp53
a(I771
I9
tp54
a(I1844
I9
tp55
a(I1281
I9
tp56
a(I1933
I9
tp57
a(I1229
I9
tp58
a(I224
I9
tp59
a(I2161
I9
tp60
a(I2231
I9
tp61
a(I1356
I9
tp62
a(I1450
I9
tp63
a(I1880
I9
tp64
a(I1915
I9
tp65
a(I452
I9
tp66
a(I450
I9
tp67
a(I2069
I9
tp68
a(I253
I9
tp69
a(I990
I9
tp70
a(I1500
I9
tp71
a(I521
I9
tp72
a(I2005
I9
tp73
a(I1397
I9
tp74
a(I547
I9
tp75
a(I545
I9
tp76
a(I1618
I9
tp77
a(I1277
I9
tp78
a(I1280
I9
tp79
a(I756
I9
tp80
a(I2250
I9
tp81
a(I2017
I9
tp82
a(I1762
I9
tp83
a(I1278
I9
tp84
a(I1583
I9
tp85
a(I1882
I9
tp86
a(I823
I9
tp87
a(I520
I9
tp88
a(I2070
I9
tp89
a(I1939
I9
tp90
a(I1396
I9
tp91
a(I1056
I9
tp92
a(I1965
I9
tp93
a(I652
I9
tp94
a(I1514
I9
tp95
a(I1688
I9
tp96
a(I1573
I9
tp97
a(I678
I9
tp98
a(I2003
I9
tp99
a(I2001
I9
tp100
a(I258
I9
tp101
a(I2249
I9
tp102
a(I1200
I9
tp103
a(I491
I9
tp104
a(I1308
I9
tp105
a(I585
I9
tp106
a(I296
I9
tp107
a(I310
I9
tp108
a(I35
I9
tp109
a(I1121
I9
tp110
a(I1117
I9
tp111
a(I717
I9
tp112
a(I1607
I9
tp113
a(I1753
I9
tp114
a(I440
I9
tp115
a(I1816
I9
tp116
a(I243
I9
tp117
a(I548
I9
tp118
a(I753
I9
tp119
a(I1570
I9
tp120
a(I2000
I9
tp121
a(I1852
I9
tp122
a(I574
I9
tp123
a(I666
I9
tp124
a(I1096
I9
tp125
a(I0
I9
tp126
a(I1110
I9
tp127
a(I2131
I9
tp128
a(I2218
I9
tp129
a(I1690
I9
tp130
a(I1114
I9
tp131
a(I1519
I9
tp132
a(I2144
I9
tp133
a(I1517
I9
tp134
a(I1742
I9
tp135
a(I1228
I9
tp136
a(I2065
I9
tp137
a(I1617
I9
tp138
a(I1608
I9
tp139
a(I1254
I9
tp140
a(I1851
I9
tp141
a(I1348
I9
tp142
a(I785
I9
tp143
a(I834
I9
tp144
a(I1493
I9
tp145
a(I1858
I9
tp146
a(I1323
I9
tp147
a(I2124
I9
tp148
a(I1896
I9
tp149
a(I1955
I9
tp150
a(I2004
I9
tp151
a(I1953
I9
tp152
a(I2002
I9
tp153
a(I527
I9
tp154
a(I525
I9
tp155
a(I494
I9
tp156
a(I537
I9
tp157
a(I74
I9
tp158
a(I39
I9
tp159
a(I1157
I9
tp160
a(I262
I9
tp161
a(I2046
I9
tp162
a(I561
I9
tp163
a(I1634
I9
tp164
a(I2053
I9
tp165
a(I1296
I9
tp166
a(I1693
I9
tp167
a(I587
I9
tp168
a(I681
I9
tp169
a(I1754
I9
tp170
a(I1207
I9
tp171
a(I2125
I9
tp172
a(I244
I9
tp173
a(I303
I9
tp174
a(I1243
I9
tp175
a(I1849
I9
tp176
a(I1863
I9
tp177
a(I24
I9
tp178
a(I1574
I9
tp179
a(I1635
I9
tp180
a(I1666
I9
tp181
a(I1845
I9
tp182
a(I48
I9
tp183
a(I2247
I9
tp184
a(I1694
I9
tp185
a(I1567
I9
tp186
a(I1692
I9
tp187
a(I2042
I9
tp188
a(I1044
I9
tp189
a(I680
I9
tp190
a(I694
I9
tp191
a(I2019
I9
tp192
a(I788
I9
tp193
a(I481
I9
tp194
a(I786
I9
tp195
a(I541
I9
tp196
a(I2240
I9
tp197
a(I77
I9
tp198
a(I302
I9
tp199
a(I507
I9
tp200
a(I1836
I9
tp201
a(I1790
I9
tp202
a(I615
I9
tp203
a(I1336
I9
tp204
a(I2030
I9
tp205
a(I1139
I9
tp206
a(I420
I9
tp207
a(I1298
I9
tp208
a(I1442
I9
tp209
a(I221
I9
tp210
a(I591
I9
tp211
a(I233
I9
tp212
a(I538
I9
tp213
a(I1495
I9
tp214
a(I2006
I9
tp215
a(I2051
I9
tp216
a(I513
I9
tp217
a(I589
I9
tp218
a(I1901
I9
tp219
a(I1614
I9
tp220
a(I588
I9
tp221
a(I1582
I9
tp222
a(I1194
I9
tp223
a(I1671
I9
tp224
a(I1126
I9
tp225
a(I1019
I9
tp226
a(I1220
I9
tp227
a(I1346
I9
tp228
a(I1136
I9
tp229
a(I2045
I9
tp230
a(I220
I9
tp231
a(I777
I9
tp232
a(I1815
I9
tp233
a(I629
I9
tp234
a(I758
I9
tp235
a(I1827
I9
tp236
a(I2118
I9
tp237
a(I2186
I9
tp238
a(I2018
I9
tp239
a(I512
I9
tp240
a(I1908
I9
tp241
a(I1127
I9
tp242
a(I1956
I9
tp243
a(I1545
I9
tp244
a(I5
I9
tp245
a(I1158
I9
tp246
a(I433
I9
tp247
a(I1506
I9
tp248
a(I31
I9
tp249
a(I29
I9
tp250
a(I2029
I9
tp251
a(I1711
I9
tp252
a(I508
I9
tp253
a(I1606
I9
tp254
a(I602
I9
tp255
a(I55
I9
tp256
a(I1800
I9
tp257
a(I278
I9
tp258
a(I579
I9
tp259
a(I1140
I9
tp260
a(I1709
I9
tp261
a(I800
I9
tp262
a(I1197
I9
tp263
a(I1934
I9
tp264
a(I1115
I9
tp265
a(I2094
I9
tp266
a(I1741
I9
tp267
a(I711
I9
tp268
a(I1944
I9
tp269
a(I422
I9
tp270
a(I1233
I9
tp271
a(I2
I9
tp272
a(I1289
I9
tp273
a(I1054
I9
tp274
a(I1771
I9
tp275
a(I540
I9
tp276
a(I1879
I9
tp277
a(I1616
I9
tp278
a(I2196
I9
tp279
a(I1999
I9
tp280
a(I1748
I9
tp281
a(I1198
I9
tp282
a(I1223
I9
tp283
a(I1497
I9
tp284
a(I1802
I9
tp285
a(I2129
I9
tp286
a(I581
I9
tp287
a(I1222
I9
tp288
a(I1931
I9
tp289
a(I292
I9
tp290
a(I2212
I9
tp291
a(I607
I9
tp292
a(I720
I9
tp293
a(I605
I9
tp294
a(I1342
I9
tp295
a(I1551
I9
tp296
a(I828
I9
tp297
a(I745
I9
tp298
a(I2236
I9
tp299
a(I1923
I9
tp300
a(I1735
I9
tp301
a(I434
I9
tp302
a(I239
I9
tp303
a(I1261
I9
tp304
a(I1947
I9
tp305
a(I1006
I9
tp306
a(I2008
I9
tp307
a(I2007
I9
tp308
a(I1211
I9
tp309
a(I580
I9
tp310
a(I770
I9
tp311
a(I578
I9
tp312
a(I1300
I9
tp313
a(I1520
I9
tp314
a(I1630
I9
tp315
a(I604
I9
tp316
a(I2234
I9
tp317
a(I630
I9
tp318
a(I1699
I9
tp319
a(I724
I9
tp320
a(I1098
I9
tp321
a(I1746
I9
tp322
a(I1867
I9
tp323
a(I781
I9
tp324
a(I1100
I9
tp325
a(I1772
I9
tp326
a(I842
I9
tp327
asS'runtime'
p328
F0.0019481182098388672
sS'name'
p329
S'["regex", [["product_nm", "[D]", "OM"]]]'
p330
s.