(dp0
S'output'
p1
(lp2
(I2182
I53
tp3
a(I1630
I53
tp4
a(I1627
I53
tp5
a(I1801
I53
tp6
a(I1794
I53
tp7
a(I1629
I53
tp8
a(I1766
I53
tp9
a(I1795
I53
tp10
a(I1628
I53
tp11
a(I1610
I53
tp12
a(I2192
I53
tp13
a(I1797
I53
tp14
a(I1611
I53
tp15
a(I1796
I53
tp16
a(I1567
I53
tp17
a(I1325
I53
tp18
asS'runtime'
p19
F0.0019550323486328125
sS'name'
p20
S'["regex", [["prmry_bus_function", "[j]", "OM"]]]'
p21
s.