(dp0
S'output'
p1
(lp2
(I1980
I50
tp3
a(I1107
I50
tp4
a(I1342
I50
tp5
a(I1343
I50
tp6
a(I1979
I50
tp7
a(I512
I50
tp8
a(I1356
I50
tp9
a(I2118
I50
tp10
a(I2125
I50
tp11
a(I683
I50
tp12
a(I1278
I50
tp13
a(I1013
I50
tp14
a(I1867
I50
tp15
asS'runtime'
p16
F0.0024950504302978516
sS'name'
p17
S'["regex", [["chg", "[9]", "OM"]]]'
p18
s.