(dp0
S'output'
p1
(lp2
(I2214
I9
tp3
a(I1307
I9
tp4
a(I994
I9
tp5
a(I1865
I9
tp6
a(I701
I9
tp7
a(I2111
I9
tp8
a(I1046
I9
tp9
a(I55
I9
tp10
a(I1864
I9
tp11
a(I1365
I9
tp12
a(I630
I9
tp13
a(I1364
I9
tp14
a(I1359
I9
tp15
a(I2125
I9
tp16
a(I1006
I9
tp17
a(I1047
I9
tp18
a(I1494
I9
tp19
a(I1358
I9
tp20
a(I2215
I9
tp21
a(I1351
I9
tp22
asS'runtime'
p23
F0.0018908977508544922
sS'name'
p24
S'["regex", [["product_nm", "[q]", "OM"]]]'
p25
s.