(dp0
S'output'
p1
(lp2
(I636
I50
tp3
a(I637
I50
tp4
a(I1922
I50
tp5
a(I1275
I50
tp6
a(I679
I50
tp7
a(I586
I50
tp8
a(I268
I50
tp9
a(I579
I50
tp10
a(I214
I50
tp11
a(I1355
I50
tp12
a(I1342
I50
tp13
a(I1333
I50
tp14
a(I1867
I50
tp15
a(I1882
I50
tp16
asS'runtime'
p17
F0.0025701522827148438
sS'name'
p18
S'["regex", [["chg", "[6]", "OM"]]]'
p19
s.