(dp0
S'output'
p1
(lp2
(I702
I27
tp3
a(I809
I27
tp4
a(I986
I27
tp5
a(I748
I27
tp6
a(I2134
I27
tp7
a(I1825
I27
tp8
a(I1234
I27
tp9
a(I723
I27
tp10
a(I2030
I27
tp11
a(I741
I27
tp12
a(I1158
I27
tp13
a(I727
I27
tp14
asS'runtime'
p15
F0.0018711090087890625
sS'name'
p16
S'["regex", [["alt_app_critical", "[S]", "OM"]]]'
p17
s.