(dp0
S'output'
p1
(lp2
(I608
I58
tp3
a(I71
I58
tp4
a(I1273
I58
tp5
a(I261
I58
tp6
a(I2243
I58
tp7
a(I1583
I58
tp8
asS'runtime'
p9
F0.0018661022186279297
sS'name'
p10
S'["regex", [["account_manager", "[J]", "OM"]]]'
p11
s.