(dp0
S'output'
p1
(lp2
(I1308
I58
tp3
a(I85
I58
tp4
a(I1239
I58
tp5
a(I71
I58
tp6
a(I242
I58
tp7
asS'runtime'
p8
F0.001850128173828125
sS'name'
p9
S'["regex", [["account_manager", "[M]", "OM"]]]'
p10
s.