(dp0
S'output'
p1
(lp2
(I1769
I52
tp3
a(I1792
I52
tp4
a(I52
I52
tp5
a(I1859
I52
tp6
a(I1352
I52
tp7
a(I1367
I52
tp8
a(I1867
I52
tp9
a(I1872
I52
tp10
a(I1870
I52
tp11
a(I653
I52
tp12
a(I1357
I52
tp13
a(I2017
I52
tp14
asS'runtime'
p15
F0.002424955368041992
sS'name'
p16
S'["regex", [["description", "[\\"]", "OM"]]]'
p17
s.