(dp0
S'output'
p1
(lp2
(I1361
I50
tp3
a(I156
I50
tp4
a(I1772
I50
tp5
a(I157
I50
tp6
a(I728
I50
tp7
a(I1439
I50
tp8
a(I1346
I50
tp9
a(I1369
I50
tp10
a(I1284
I50
tp11
a(I155
I50
tp12
a(I1757
I50
tp13
a(I64
I50
tp14
a(I423
I50
tp15
a(I2240
I50
tp16
a(I545
I50
tp17
a(I652
I50
tp18
a(I653
I50
tp19
a(I50
I50
tp20
a(I1513
I50
tp21
a(I1748
I50
tp22
a(I1013
I50
tp23
asS'runtime'
p24
F0.002641916275024414
sS'name'
p25
S'["regex", [["chg", "[4]", "OM"]]]'
p26
s.