(dp0
S'output'
p1
(lp2
(I30
I27
tp3
a(I1941
I27
tp4
a(I32
I27
tp5
a(I809
I27
tp6
a(I986
I27
tp7
a(I748
I27
tp8
a(I213
I27
tp9
a(I615
I27
tp10
a(I33
I27
tp11
a(I723
I27
tp12
a(I2084
I27
tp13
a(I2030
I27
tp14
a(I31
I27
tp15
a(I89
I27
tp16
a(I741
I27
tp17
a(I727
I27
tp18
a(I34
I27
tp19
a(I1821
I27
tp20
asS'runtime'
p21
F0.0019040107727050781
sS'name'
p22
S'["regex", [["alt_app_critical", "[T]", "OM"]]]'
p23
s.