(dp0
S'output'
p1
(lp2
(I1751
I31
tp3
a(I308
I31
tp4
a(I1519
I31
tp5
a(I1745
I31
tp6
a(I1749
I31
tp7
a(I542
I31
tp8
a(I480
I31
tp9
a(I1746
I31
tp10
a(I1750
I31
tp11
a(I2036
I31
tp12
asS'runtime'
p13
F0.0019140243530273438
sS'name'
p14
S'["regex", [["end_users", "[P]", "OM"]]]'
p15
s.