(dp0
S'output'
p1
(lp2
(I1042
I55
tp3
a(I1307
I55
tp4
a(I1517
I55
tp5
a(I1722
I55
tp6
a(I451
I55
tp7
a(I501
I55
tp8
a(I68
I55
tp9
a(I2226
I55
tp10
a(I1656
I55
tp11
a(I1635
I55
tp12
a(I613
I55
tp13
a(I1735
I55
tp14
asS'runtime'
p15
F0.0019180774688720703
sS'name'
p16
S'["regex", [["app_comments", "[z]", "OM"]]]'
p17
s.