(dp0
S'output'
p1
(lp2
(I1514
I8
tp3
a(I326
I8
tp4
a(I1181
I8
tp5
a(I804
I8
tp6
a(I1332
I8
tp7
a(I2167
I8
tp8
a(I213
I8
tp9
a(I1795
I8
tp10
a(I1800
I8
tp11
a(I2165
I8
tp12
a(I557
I8
tp13
a(I148
I8
tp14
a(I2083
I8
tp15
a(I1191
I8
tp16
a(I716
I8
tp17
asS'runtime'
p18
F0.0019218921661376953
sS'name'
p19
S'["regex", [["app_abbr", "[3]", "OM"]]]'
p20
s.