(dp0
S'output'
p1
(lp2
(I1744
I38
tp3
a(I1400
I38
tp4
a(I1913
I38
tp5
a(I783
I38
tp6
a(I1185
I38
tp7
a(I1366
I38
tp8
a(I1367
I38
tp9
a(I730
I38
tp10
a(I1513
I38
tp11
a(I1399
I38
tp12
asS'runtime'
p13
F0.0018639564514160156
sS'name'
p14
S'["regex", [["regulated_non_gxp_ind", "[S]", "OM"]]]'
p15
s.