(dp0
S'output'
p1
(lp2
(I1180
I37
tp3
a(I49
I37
tp4
a(I1099
I37
tp5
a(I1273
I37
tp6
a(I769
I37
tp7
a(I777
I37
tp8
a(I1404
I37
tp9
a(I1809
I37
tp10
a(I48
I37
tp11
a(I767
I37
tp12
a(I1129
I37
tp13
a(I445
I37
tp14
a(I1539
I37
tp15
a(I1098
I37
tp16
a(I1808
I37
tp17
a(I1230
I37
tp18
a(I1892
I37
tp19
a(I1630
I37
tp20
a(I1128
I37
tp21
a(I1167
I37
tp22
a(I1530
I37
tp23
a(I1807
I37
tp24
asS'runtime'
p25
F0.001977205276489258
sS'name'
p26
S'["regex", [["pri_staff_loc", "[z]", "OM"]]]'
p27
s.