(dp0
S'output'
p1
(lp2
(I658
I45
tp3
a(I1539
I45
tp4
a(I1537
I45
tp5
a(I1536
I45
tp6
a(I2076
I45
tp7
a(I1531
I45
tp8
a(I1529
I45
tp9
a(I1538
I45
tp10
a(I1535
I45
tp11
a(I1528
I45
tp12
a(I1533
I45
tp13
a(I1532
I45
tp14
a(I1530
I45
tp15
a(I1534
I45
tp16
asS'runtime'
p17
F0.00185394287109375
sS'name'
p18
S'["regex", [["ccard_data", "[/]", "OM"]]]'
p19
s.