(dp0
S'output'
p1
(lp2
(I1052
I23
tp3
a(I309
I23
tp4
a(I1801
I23
tp5
a(I555
I23
tp6
a(I305
I23
tp7
a(I2190
I23
tp8
asS'runtime'
p9
F0.0018880367279052734
sS'name'
p10
S'["regex", [["bus_hours", "[U]", "OM"]]]'
p11
s.