(dp0
S'output'
p1
(lp2
(I213
I26
tp3
a(I986
I26
tp4
a(I2143
I26
tp5
a(I2134
I26
tp6
a(I1663
I26
tp7
a(I1648
I26
tp8
a(I454
I26
tp9
a(I496
I26
tp10
asS'runtime'
p11
F0.0018448829650878906
sS'name'
p12
S'["regex", [["app_critical", "[N]", "OM"]]]'
p13
s.