(dp0
S'output'
p1
(lp2
(I83
I31
tp3
a(I1317
I31
tp4
a(I1806
I31
tp5
a(I1751
I31
tp6
a(I1771
I31
tp7
a(I308
I31
tp8
a(I102
I31
tp9
a(I616
I31
tp10
a(I1745
I31
tp11
a(I1445
I31
tp12
a(I542
I31
tp13
a(I1088
I31
tp14
a(I809
I31
tp15
a(I1746
I31
tp16
a(I1750
I31
tp17
a(I628
I31
tp18
a(I1749
I31
tp19
asS'runtime'
p20
F0.0018939971923828125
sS'name'
p21
S'["regex", [["end_users", "[y]", "OM"]]]'
p22
s.