(dp0
S'output'
p1
(lp2
(I452
I39
tp3
a(I664
I39
tp4
a(I581
I39
tp5
a(I484
I39
tp6
a(I1345
I39
tp7
a(I1040
I39
tp8
asS'runtime'
p9
F0.0018780231475830078
sS'name'
p10
S'["regex", [["gxp_ind", "[x]", "OM"]]]'
p11
s.