(dp0
S'output'
p1
(lp2
(I529
I50
tp3
a(I1948
I50
tp4
a(I1747
I50
tp5
a(I1369
I50
tp6
a(I1275
I50
tp7
a(I1811
I50
tp8
a(I1773
I50
tp9
a(I1327
I50
tp10
a(I1172
I50
tp11
a(I1513
I50
tp12
a(I1012
I50
tp13
a(I299
I50
tp14
a(I1104
I50
tp15
asS'runtime'
p16
F0.0026040077209472656
sS'name'
p17
S'["regex", [["chg", "[7]", "OM"]]]'
p18
s.