(dp0
S'output'
p1
(lp2
(I1746
I55
tp3
a(I1307
I55
tp4
a(I1507
I55
tp5
a(I1916
I55
tp6
a(I1726
I55
tp7
a(I1161
I55
tp8
a(I1508
I55
tp9
a(I422
I55
tp10
a(I425
I55
tp11
a(I2226
I55
tp12
a(I665
I55
tp13
a(I302
I55
tp14
a(I1177
I55
tp15
asS'runtime'
p16
F0.0019328594207763672
sS'name'
p17
S'["regex", [["app_comments", "[2]", "OM"]]]'
p18
s.