(dp0
S'output'
p1
(lp2
(I1078
I52
tp3
a(I201
I52
tp4
a(I259
I52
tp5
a(I258
I52
tp6
a(I1105
I52
tp7
a(I1352
I52
tp8
a(I2118
I52
tp9
a(I197
I52
tp10
a(I252
I52
tp11
a(I555
I52
tp12
a(I688
I52
tp13
a(I1134
I52
tp14
a(I2125
I52
tp15
a(I452
I52
tp16
a(I1400
I52
tp17
asS'runtime'
p18
F0.0024261474609375
sS'name'
p19
S'["regex", [["description", "[\']", "OM"]]]'
p20
s.