(dp0
S'output'
p1
(lp2
(I1805
I23
tp3
a(I310
I23
tp4
a(I1743
I23
tp5
a(I794
I23
tp6
a(I1980
I23
tp7
a(I2206
I23
tp8
a(I1161
I23
tp9
a(I1323
I23
tp10
a(I2212
I23
tp11
a(I2141
I23
tp12
a(I63
I23
tp13
a(I2240
I23
tp14
a(I1009
I23
tp15
a(I1322
I23
tp16
a(I2102
I23
tp17
a(I1324
I23
tp18
a(I1742
I23
tp19
a(I1568
I23
tp20
a(I2207
I23
tp21
asS'runtime'
p22
F0.001931905746459961
sS'name'
p23
S'["regex", [["bus_hours", "[b]", "OM"]]]'
p24
s.