(dp0
S'output'
p1
(lp2
(I672
I21
tp3
a(I1171
I21
tp4
a(I663
I21
tp5
a(I654
I21
tp6
a(I1170
I21
tp7
a(I671
I21
tp8
a(I307
I21
tp9
asS'runtime'
p10
F0.0018749237060546875
sS'name'
p11
S'["regex", [["retire_plan", "[a]", "OM"]]]'
p12
s.