(dp0
S'output'
p1
(lp2
(I1927
I52
tp3
a(I1926
I52
tp4
a(I1748
I52
tp5
a(I1747
I52
tp6
a(I1401
I52
tp7
asS'runtime'
p8
F0.002440214157104492
sS'name'
p9
S'["regex", [["description", "[+]", "OM"]]]'
p10
s.