(dp0
S'output'
p1
(lp2
(I1445
I31
tp3
a(I816
I31
tp4
a(I308
I31
tp5
a(I1801
I31
tp6
a(I102
I31
tp7
a(I1743
I31
tp8
a(I305
I31
tp9
a(I2143
I31
tp10
a(I1699
I31
tp11
a(I809
I31
tp12
a(I2036
I31
tp13
asS'runtime'
p14
F0.0019040107727050781
sS'name'
p15
S'["regex", [["end_users", "[m]", "OM"]]]'
p16
s.