(dp0
S'output'
p1
(lp2
(I1421
I2
tp3
a(I830
I2
tp4
a(I688
I2
tp5
a(I55
I2
tp6
a(I602
I2
tp7
a(I1299
I2
tp8
a(I1308
I2
tp9
a(I499
I2
tp10
a(I1401
I2
tp11
a(I487
I2
tp12
a(I601
I2
tp13
a(I1403
I2
tp14
a(I1456
I2
tp15
a(I1915
I2
tp16
a(I71
I2
tp17
a(I490
I2
tp18
asS'runtime'
p19
F0.0022859573364257812
sS'name'
p20
S'["regex", [["tracking_id", "[8]", "OM"]]]'
p21
s.