(dp0
S'output'
p1
(lp2
(I1398
I52
tp3
a(I1269
I52
tp4
a(I1755
I52
tp5
a(I681
I52
tp6
a(I1734
I52
tp7
a(I2127
I52
tp8
a(I2099
I52
tp9
a(I1108
I52
tp10
a(I834
I52
tp11
a(I1521
I52
tp12
a(I742
I52
tp13
a(I1445
I52
tp14
a(I176
I52
tp15
a(I429
I52
tp16
a(I1363
I52
tp17
asS'runtime'
p18
F0.0024170875549316406
sS'name'
p19
S'["regex", [["description", "[Z]", "OM"]]]'
p20
s.