(dp0
S'output'
p1
(lp2
(I1746
I55
tp3
a(I1691
I55
tp4
a(I1590
I55
tp5
a(I1615
I55
tp6
a(I1704
I55
tp7
a(I1655
I55
tp8
a(I1712
I55
tp9
a(I1666
I55
tp10
a(I1736
I55
tp11
a(I1732
I55
tp12
a(I1661
I55
tp13
a(I1734
I55
tp14
a(I1727
I55
tp15
a(I1651
I55
tp16
a(I1711
I55
tp17
asS'runtime'
p18
F0.0018720626831054688
sS'name'
p19
S'["regex", [["app_comments", "[B]", "OM"]]]'
p20
s.