(dp0
S'output'
p1
(lp2
(I649
I27
tp3
a(I748
I27
tp4
a(I278
I27
tp5
a(I225
I27
tp6
a(I722
I27
tp7
a(I723
I27
tp8
a(I741
I27
tp9
a(I727
I27
tp10
asS'runtime'
p11
F0.0018689632415771484
sS'name'
p12
S'["regex", [["alt_app_critical", "[:]", "OM"]]]'
p13
s.