(dp0
S'output'
p1
(lp2
(I2243
I34
tp3
a(I1901
I34
tp4
a(I1583
I34
tp5
a(I242
I34
tp6
a(I1163
I34
tp7
a(I830
I34
tp8
a(I85
I34
tp9
a(I1040
I34
tp10
a(I599
I34
tp11
a(I602
I34
tp12
a(I1456
I34
tp13
a(I70
I34
tp14
a(I2054
I34
tp15
a(I601
I34
tp16
a(I1894
I34
tp17
a(I261
I34
tp18
a(I608
I34
tp19
a(I71
I34
tp20
asS'runtime'
p21
F0.0018811225891113281
sS'name'
p22
S'["regex", [["division_1", "[R]", "OM"]]]'
p23
s.