(dp0
S'output'
p1
(lp2
(I1678
I6
tp3
a(I2163
I6
tp4
a(I34
I6
tp5
a(I1802
I6
tp6
a(I435
I6
tp7
a(I1287
I6
tp8
a(I554
I6
tp9
a(I780
I6
tp10
a(I1499
I6
tp11
a(I590
I6
tp12
a(I32
I6
tp13
a(I1135
I6
tp14
a(I1186
I6
tp15
a(I33
I6
tp16
a(I291
I6
tp17
a(I662
I6
tp18
a(I225
I6
tp19
a(I1111
I6
tp20
a(I58
I6
tp21
a(I2236
I6
tp22
a(I1630
I6
tp23
asS'runtime'
p24
F0.0018880367279052734
sS'name'
p25
S'["regex", [["classid", "[D]", "OM"]]]'
p26
s.