(dp0
S'output'
p1
(lp2
(I505
I42
tp3
a(I1284
I42
tp4
a(I1285
I42
tp5
a(I1283
I42
tp6
a(I1286
I42
tp7
a(I1277
I42
tp8
a(I1282
I42
tp9
a(I1278
I42
tp10
a(I1280
I42
tp11
a(I1287
I42
tp12
a(I1281
I42
tp13
a(I1279
I42
tp14
asS'runtime'
p15
F0.0018520355224609375
sS'name'
p16
S'["regex", [["client_dta", "[y]", "OM"]]]'
p17
s.