(dp0
S'output'
p1
(lp2
(I1798
I50
tp3
a(I568
I50
tp4
a(I994
I50
tp5
a(I505
I50
tp6
a(I1346
I50
tp7
a(I1514
I50
tp8
a(I1868
I50
tp9
a(I2019
I50
tp10
a(I54
I50
tp11
a(I584
I50
tp12
a(I783
I50
tp13
a(I276
I50
tp14
a(I651
I50
tp15
a(I1941
I50
tp16
a(I592
I50
tp17
a(I55
I50
tp18
asS'runtime'
p19
F0.002711057662963867
sS'name'
p20
S'["regex", [["chg", "[5]", "OM"]]]'
p21
s.