(dp0
S'output'
p1
(lp2
(I223
I60
tp3
a(I599
I60
tp4
a(I261
I60
tp5
a(I1583
I60
tp6
a(I242
I60
tp7
asS'runtime'
p8
F0.0018279552459716797
sS'name'
p9
S'["regex", [["application_business_owner", "[e]", "OM"]]]'
p10
s.