(dp0
S'output'
p1
(lp2
(I632
I7
tp3
a(I1479
I7
tp4
a(I975
I7
tp5
a(I1089
I7
tp6
a(I1091
I7
tp7
a(I1598
I7
tp8
a(I631
I7
tp9
asS'runtime'
p10
F0.001895904541015625
sS'name'
p11
S'["regex", [["name", "[.]", "OM"]]]'
p12
s.