(dp0
S'output'
p1
(lp2
(I581
I30
tp3
a(I1496
I30
tp4
a(I1398
I30
tp5
a(I989
I30
tp6
a(I637
I30
tp7
a(I272
I30
tp8
a(I273
I30
tp9
a(I52
I30
tp10
a(I579
I30
tp11
a(I308
I30
tp12
a(I1396
I30
tp13
a(I584
I30
tp14
a(I583
I30
tp15
a(I890
I30
tp16
a(I643
I30
tp17
a(I653
I30
tp18
a(I582
I30
tp19
a(I1185
I30
tp20
a(I580
I30
tp21
a(I593
I30
tp22
asS'runtime'
p23
F0.0018489360809326172
sS'name'
p24
S'["regex", [["users_affected", "[6]", "OM"]]]'
p25
s.