(dp0
S'output'
p1
(lp2
(I827
I23
tp3
a(I2228
I23
tp4
a(I310
I23
tp5
a(I2095
I23
tp6
a(I2172
I23
tp7
a(I418
I23
tp8
a(I2143
I23
tp9
a(I1009
I23
tp10
a(I1130
I23
tp11
a(I775
I23
tp12
asS'runtime'
p13
F0.001928091049194336
sS'name'
p14
S'["regex", [["bus_hours", "[g]", "OM"]]]'
p15
s.