(dp0
S'output'
p1
(lp2
(I1421
I13
tp3
a(I1420
I13
tp4
a(I1418
I13
tp5
a(I1415
I13
tp6
a(I1403
I13
tp7
a(I1401
I13
tp8
a(I1414
I13
tp9
a(I1402
I13
tp10
a(I1406
I13
tp11
a(I1419
I13
tp12
asS'runtime'
p13
F0.0018761157989501953
sS'name'
p14
S'["regex", [["curr_status", "[ ]", "OM"]]]'
p15
s.