(dp0
S'output'
p1
(lp2
(I1099
I17
tp3
a(I2250
I17
tp4
a(I2251
I17
tp5
a(I2249
I17
tp6
a(I264
I17
tp7
a(I427
I17
tp8
asS'runtime'
p9
F0.0019268989562988281
sS'name'
p10
S'["regex", [["retirement", "[1]", "OM"]]]'
p11
s.