(dp0
S'output'
p1
(lp2
(I484
I42
tp3
a(I1093
I42
tp4
a(I775
I42
tp5
a(I483
I42
tp6
a(I710
I42
tp7
a(I1437
I42
tp8
a(I40
I42
tp9
a(I712
I42
tp10
a(I670
I42
tp11
a(I711
I42
tp12
a(I2017
I42
tp13
a(I493
I42
tp14
asS'runtime'
p15
F0.0018219947814941406
sS'name'
p16
S'["regex", [["client_dta", "[e]", "OM"]]]'
p17
s.