(dp0
S'output'
p1
(lp2
(I1455
I37
tp3
a(I2190
I37
tp4
a(I1419
I37
tp5
a(I1420
I37
tp6
a(I802
I37
tp7
a(I591
I37
tp8
a(I1437
I37
tp9
asS'runtime'
p10
F0.0019500255584716797
sS'name'
p11
S'["regex", [["pri_staff_loc", "[v]", "OM"]]]'
p12
s.