(dp0
S'output'
p1
(lp2
(I2190
I53
tp3
a(I1108
I53
tp4
a(I2242
I53
tp5
a(I1103
I53
tp6
a(I2237
I53
tp7
a(I1763
I53
tp8
a(I1756
I53
tp9
a(I1105
I53
tp10
a(I1111
I53
tp11
a(I549
I53
tp12
a(I2244
I53
tp13
a(I2240
I53
tp14
a(I1714
I53
tp15
a(I2239
I53
tp16
a(I1110
I53
tp17
a(I1107
I53
tp18
a(I1100
I53
tp19
a(I2241
I53
tp20
a(I2247
I53
tp21
a(I480
I53
tp22
a(I2238
I53
tp23
a(I2246
I53
tp24
a(I2243
I53
tp25
a(I1713
I53
tp26
a(I55
I53
tp27
a(I1104
I53
tp28
a(I1099
I53
tp29
a(I2073
I53
tp30
a(I2104
I53
tp31
a(I2061
I53
tp32
a(I1715
I53
tp33
a(I545
I53
tp34
a(I448
I53
tp35
a(I1566
I53
tp36
a(I550
I53
tp37
a(I547
I53
tp38
a(I1712
I53
tp39
a(I2062
I53
tp40
a(I1187
I53
tp41
a(I2188
I53
tp42
a(I1109
I53
tp43
a(I254
I53
tp44
a(I1051
I53
tp45
a(I1890
I53
tp46
a(I2192
I53
tp47
a(I2245
I53
tp48
a(I2187
I53
tp49
a(I1106
I53
tp50
asS'runtime'
p51
F0.0019071102142333984
sS'name'
p52
S'["regex", [["prmry_bus_function", "[W]", "OM"]]]'
p53
s.