(dp0
S'output'
p1
(lp2
(I1130
I31
tp3
a(I155
I31
tp4
a(I308
I31
tp5
a(I1445
I31
tp6
a(I2143
I31
tp7
asS'runtime'
p8
F0.0019249916076660156
sS'name'
p9
S'["regex", [["end_users", "[\\n]", "OM"]]]'
p10
s.