(dp0
S'output'
p1
(lp2
(I2046
I9
tp3
a(I2165
I9
tp4
a(I1334
I9
tp5
a(I763
I9
tp6
a(I1514
I9
tp7
a(I1191
I9
tp8
asS'runtime'
p9
F0.001920938491821289
sS'name'
p10
S'["regex", [["product_nm", "[3]", "OM"]]]'
p11
s.