(dp0
S'output'
p1
(lp2
(I2139
I55
tp3
a(I1736
I55
tp4
a(I1675
I55
tp5
a(I1726
I55
tp6
a(I451
I55
tp7
a(I1916
I55
tp8
a(I1173
I55
tp9
a(I1022
I55
tp10
a(I1099
I55
tp11
a(I68
I55
tp12
a(I2173
I55
tp13
a(I1656
I55
tp14
a(I1651
I55
tp15
a(I1612
I55
tp16
a(I302
I55
tp17
a(I1223
I55
tp18
a(I1625
I55
tp19
asS'runtime'
p20
F0.0018482208251953125
sS'name'
p21
S'["regex", [["app_comments", "[x]", "OM"]]]'
p22
s.