(dp0
S'output'
p1
(lp2
(I1273
I58
tp3
a(I85
I58
tp4
a(I599
I58
tp5
a(I71
I58
tp6
a(I1239
I58
tp7
a(I216
I58
tp8
a(I217
I58
tp9
a(I1163
I58
tp10
a(I261
I58
tp11
a(I215
I58
tp12
a(I2243
I58
tp13
a(I70
I58
tp14
a(I1583
I58
tp15
a(I608
I58
tp16
asS'runtime'
p17
F0.0018658638000488281
sS'name'
p18
S'["regex", [["account_manager", "[o]", "OM"]]]'
p19
s.