(dp0
S'output'
p1
(lp2
(I1509
I39
tp3
a(I452
I39
tp4
a(I581
I39
tp5
a(I664
I39
tp6
a(I593
I39
tp7
a(I1811
I39
tp8
a(I1772
I39
tp9
a(I69
I39
tp10
a(I484
I39
tp11
a(I1812
I39
tp12
a(I52
I39
tp13
a(I1185
I39
tp14
a(I1040
I39
tp15
asS'runtime'
p16
F0.0018761157989501953
sS'name'
p17
S'["regex", [["gxp_ind", "[ ]", "OM"]]]'
p18
s.