(dp0
S'output'
p1
(lp2
(I2245
I31
tp3
a(I206
I31
tp4
a(I2036
I31
tp5
a(I308
I31
tp6
a(I2184
I31
tp7
a(I524
I31
tp8
a(I596
I31
tp9
asS'runtime'
p10
F0.0018930435180664062
sS'name'
p11
S'["regex", [["end_users", "[.]", "OM"]]]'
p12
s.