(dp0
S'output'
p1
(lp2
(I1285
I6
tp3
a(I1802
I6
tp4
a(I590
I6
tp5
a(I32
I6
tp6
a(I662
I6
tp7
a(I1630
I6
tp8
a(I2163
I6
tp9
a(I1287
I6
tp10
a(I554
I6
tp11
a(I780
I6
tp12
a(I2236
I6
tp13
a(I33
I6
tp14
a(I58
I6
tp15
a(I1499
I6
tp16
a(I1678
I6
tp17
a(I1135
I6
tp18
a(I1186
I6
tp19
a(I291
I6
tp20
a(I1340
I6
tp21
a(I34
I6
tp22
a(I435
I6
tp23
a(I225
I6
tp24
a(I1111
I6
tp25
asS'runtime'
p26
F0.0018608570098876953
sS'name'
p27
S'["regex", [["classid", "[U]", "OM"]]]'
p28
s.