(dp0
S'output'
p1
(lp2
(I452
I39
tp3
a(I1509
I39
tp4
a(I664
I39
tp5
a(I581
I39
tp6
a(I484
I39
tp7
a(I594
I39
tp8
a(I1040
I39
tp9
asS'runtime'
p10
F0.0018470287322998047
sS'name'
p11
S'["regex", [["gxp_ind", "[t]", "OM"]]]'
p12
s.