(dp0
S'output'
p1
(lp2
(I1880
I51
tp3
a(I2213
I51
tp4
a(I1172
I51
tp5
a(I2019
I51
tp6
a(I1343
I51
tp7
a(I2125
I51
tp8
a(I2122
I51
tp9
a(I1275
I51
tp10
a(I1947
I51
tp11
a(I839
I51
tp12
a(I1170
I51
tp13
a(I579
I51
tp14
a(I1012
I51
tp15
a(I1935
I51
tp16
a(I1327
I51
tp17
a(I1104
I51
tp18
a(I1865
I51
tp19
a(I299
I51
tp20
a(I1948
I51
tp21
a(I1747
I51
tp22
asS'runtime'
p23
F0.0032498836517333984
sS'name'
p24
S'["regex", [["total_cases", "[8]", "OM"]]]'
p25
s.