(dp0
S'output'
p1
(lp2
(I2184
I17
tp3
a(I2251
I17
tp4
a(I2249
I17
tp5
a(I2250
I17
tp6
a(I2183
I17
tp7
asS'runtime'
p8
F0.0018420219421386719
sS'name'
p9
S'["regex", [["retirement", "[3]", "OM"]]]'
p10
s.