(dp0
S'output'
p1
(lp2
(I2153
I52
tp3
a(I352
I52
tp4
a(I318
I52
tp5
a(I1667
I52
tp6
a(I418
I52
tp7
a(I2108
I52
tp8
a(I848
I52
tp9
a(I223
I52
tp10
a(I1070
I52
tp11
a(I1485
I52
tp12
a(I1651
I52
tp13
a(I402
I52
tp14
a(I440
I52
tp15
a(I1836
I52
tp16
a(I1760
I52
tp17
a(I227
I52
tp18
a(I1064
I52
tp19
a(I343
I52
tp20
a(I1190
I52
tp21
a(I1564
I52
tp22
a(I1898
I52
tp23
a(I176
I52
tp24
a(I63
I52
tp25
a(I388
I52
tp26
a(I24
I52
tp27
a(I839
I52
tp28
a(I312
I52
tp29
a(I2217
I52
tp30
a(I1022
I52
tp31
a(I1437
I52
tp32
a(I1908
I52
tp33
a(I264
I52
tp34
a(I390
I52
tp35
a(I1739
I52
tp36
a(I1354
I52
tp37
a(I1851
I52
tp38
a(I653
I52
tp39
a(I1800
I52
tp40
a(I978
I52
tp41
a(I807
I52
tp42
a(I1014
I52
tp43
a(I315
I52
tp44
a(I393
I52
tp45
a(I765
I52
tp46
a(I1512
I52
tp47
a(I357
I52
tp48
a(I1883
I52
tp49
a(I1657
I52
tp50
a(I1261
I52
tp51
asS'runtime'
p52
F0.002454996109008789
sS'name'
p53
S'["regex", [["description", "[X]", "OM"]]]'
p54
s.