(dp0
S'output'
p1
(lp2
(I1193
I59
tp3
a(I602
I59
tp4
a(I71
I59
tp5
a(I601
I59
tp6
a(I261
I59
tp7
a(I2243
I59
tp8
asS'runtime'
p9
F0.0018551349639892578
sS'name'
p10
S'["regex", [["application_it_owner", "[l]", "OM"]]]'
p11
s.