(dp0
S'output'
p1
(lp2
(I521
I58
tp3
a(I1193
I58
tp4
a(I501
I58
tp5
a(I487
I58
tp6
a(I513
I58
tp7
a(I499
I58
tp8
a(I1163
I58
tp9
a(I599
I58
tp10
a(I490
I58
tp11
a(I757
I58
tp12
a(I1949
I58
tp13
asS'runtime'
p14
F0.0018780231475830078
sS'name'
p15
S'["regex", [["account_manager", "[k]", "OM"]]]'
p16
s.