(dp0
S'output'
p1
(lp2
(I85
I58
tp3
a(I608
I58
tp4
a(I242
I58
tp5
a(I1163
I58
tp6
a(I261
I58
tp7
a(I1040
I58
tp8
a(I1239
I58
tp9
a(I1308
I58
tp10
a(I2243
I58
tp11
a(I1583
I58
tp12
asS'runtime'
p13
F0.001867055892944336
sS'name'
p14
S'["regex", [["account_manager", "[l]", "OM"]]]'
p15
s.