(dp0
S'output'
p1
(lp2
(I85
I58
tp3
a(I599
I58
tp4
a(I602
I58
tp5
a(I601
I58
tp6
a(I1163
I58
tp7
a(I1456
I58
tp8
a(I1239
I58
tp9
a(I1308
I58
tp10
a(I1539
I58
tp11
a(I1894
I58
tp12
asS'runtime'
p13
F0.0018241405487060547
sS'name'
p14
S'["regex", [["account_manager", "[u]", "OM"]]]'
p15
s.