(dp0
S'output'
p1
(lp2
(I70
I58
tp3
a(I608
I58
tp4
a(I242
I58
tp5
a(I830
I58
tp6
a(I1239
I58
tp7
a(I2054
I58
tp8
asS'runtime'
p9
F0.0018949508666992188
sS'name'
p10
S'["regex", [["account_manager", "[F]", "OM"]]]'
p11
s.