(dp0
S'output'
p1
(lp2
(I2184
I9
tp3
a(I1405
I9
tp4
a(I1417
I9
tp5
a(I279
I9
tp6
a(I1448
I9
tp7
a(I2158
I9
tp8
a(I2122
I9
tp9
asS'runtime'
p10
F0.0018849372863769531
sS'name'
p11
S'["regex", [["product_nm", "[_]", "OM"]]]'
p12
s.