(dp0
S'output'
p1
(lp2
(I2137
I11
tp3
a(I985
I11
tp4
a(I587
I11
tp5
a(I1948
I11
tp6
a(I477
I11
tp7
a(I585
I11
tp8
a(I56
I11
tp9
a(I97
I11
tp10
a(I868
I11
tp11
asS'runtime'
p12
F0.001875162124633789
sS'name'
p13
S'["regex", [["status", "[R]", "OM"]]]'
p14
s.