(dp0
S'output'
p1
(lp2
(I1130
I31
tp3
a(I1445
I31
tp4
a(I308
I31
tp5
a(I1801
I31
tp6
a(I305
I31
tp7
a(I809
I31
tp8
asS'runtime'
p9
F0.0018968582153320312
sS'name'
p10
S'["regex", [["end_users", "[k]", "OM"]]]'
p11
s.