(dp0
S'output'
p1
(lp2
(I1107
I9
tp3
a(I1137
I9
tp4
a(I1983
I9
tp5
a(I1694
I9
tp6
a(I1323
I9
tp7
a(I2165
I9
tp8
a(I1334
I9
tp9
a(I291
I9
tp10
a(I288
I9
tp11
a(I2158
I9
tp12
a(I761
I9
tp13
a(I1450
I9
tp14
a(I295
I9
tp15
asS'runtime'
p16
F0.001889944076538086
sS'name'
p17
S'["regex", [["product_nm", "[2]", "OM"]]]'
p18
s.