(dp0
S'output'
p1
(lp2
(I1557
I21
tp3
a(I821
I21
tp4
a(I803
I21
tp5
a(I1553
I21
tp6
a(I810
I21
tp7
a(I814
I21
tp8
a(I1170
I21
tp9
a(I1171
I21
tp10
a(I822
I21
tp11
a(I307
I21
tp12
asS'runtime'
p13
F0.001850128173828125
sS'name'
p14
S'["regex", [["retire_plan", "[M]", "OM"]]]'
p15
s.