(dp0
S'output'
p1
(lp2
(I2216
I55
tp3
a(I1736
I55
tp4
a(I1916
I55
tp5
a(I1173
I55
tp6
a(I1022
I55
tp7
a(I1634
I55
tp8
a(I1099
I55
tp9
a(I2173
I55
tp10
a(I1651
I55
tp11
a(I302
I55
tp12
a(I1223
I55
tp13
asS'runtime'
p14
F0.0018601417541503906
sS'name'
p15
S'["regex", [["app_comments", "[E]", "OM"]]]'
p16
s.