(dp0
S'output'
p1
(lp2
(I938
I8
tp3
a(I351
I8
tp4
a(I1766
I8
tp5
a(I349
I8
tp6
a(I331
I8
tp7
a(I350
I8
tp8
a(I348
I8
tp9
a(I2059
I8
tp10
a(I1630
I8
tp11
a(I955
I8
tp12
a(I825
I8
tp13
a(I732
I8
tp14
a(I327
I8
tp15
a(I718
I8
tp16
asS'runtime'
p17
F0.001859903335571289
sS'name'
p18
S'["regex", [["app_abbr", "[J]", "OM"]]]'
p19
s.