(dp0
S'output'
p1
(lp2
(I1894
I58
tp3
a(I85
I58
tp4
a(I608
I58
tp5
a(I602
I58
tp6
a(I1163
I58
tp7
a(I242
I58
tp8
a(I601
I58
tp9
a(I427
I58
tp10
a(I261
I58
tp11
a(I1040
I58
tp12
a(I599
I58
tp13
a(I1308
I58
tp14
a(I1239
I58
tp15
a(I1539
I58
tp16
a(I70
I58
tp17
a(I2243
I58
tp18
a(I1583
I58
tp19
a(I1456
I58
tp20
asS'runtime'
p21
F0.0018749237060546875
sS'name'
p22
S'["regex", [["account_manager", "[a]", "OM"]]]'
p23
s.