(dp0
S'output'
p1
(lp2
(I1193
I59
tp3
a(I602
I59
tp4
a(I71
I59
tp5
a(I513
I59
tp6
a(I242
I59
tp7
a(I601
I59
tp8
a(I261
I59
tp9
a(I70
I59
tp10
a(I599
I59
tp11
a(I2243
I59
tp12
asS'runtime'
p13
F0.0018661022186279297
sS'name'
p14
S'["regex", [["application_it_owner", "[a]", "OM"]]]'
p15
s.