(dp0
S'output'
p1
(lp2
(I1512
I3
tp3
a(I2081
I3
tp4
a(I1315
I3
tp5
a(I1012
I3
tp6
a(I496
I3
tp7
a(I380
I3
tp8
a(I732
I3
tp9
a(I149
I3
tp10
a(I454
I3
tp11
a(I1015
I3
tp12
a(I851
I3
tp13
a(I2137
I3
tp14
a(I2058
I3
tp15
a(I2000
I3
tp16
asS'runtime'
p17
F0.0023000240325927734
sS'name'
p18
S'["regex", [["ccr_number", "[;]", "OM"]]]'
p19
s.