(dp0
S'output'
p1
(lp2
(I1445
I31
tp3
a(I206
I31
tp4
a(I596
I31
tp5
a(I102
I31
tp6
a(I2184
I31
tp7
a(I305
I31
tp8
a(I2245
I31
tp9
a(I1801
I31
tp10
a(I155
I31
tp11
a(I1037
I31
tp12
a(I2036
I31
tp13
a(I577
I31
tp14
asS'runtime'
p15
F0.0019190311431884766
sS'name'
p16
S'["regex", [["end_users", "[)]", "OM"]]]'
p17
s.