(dp0
S'output'
p1
(lp2
(I1402
I46
tp3
a(I283
I46
tp4
a(I1598
I46
tp5
a(I1622
I46
tp6
a(I1176
I46
tp7
a(I1186
I46
tp8
a(I1612
I46
tp9
a(I2171
I46
tp10
a(I1889
I46
tp11
a(I599
I46
tp12
a(I1298
I46
tp13
a(I2181
I46
tp14
a(I482
I46
tp15
a(I1617
I46
tp16
a(I645
I46
tp17
a(I2247
I46
tp18
a(I1266
I46
tp19
a(I1732
I46
tp20
a(I246
I46
tp21
a(I1303
I46
tp22
a(I1194
I46
tp23
a(I1405
I46
tp24
a(I2068
I46
tp25
asS'runtime'
p26
F0.0017910003662109375
sS'name'
p27
S'["regex", [["inc", "[7]", "OM"]]]'
p28
s.