(dp0
S'output'
p1
(lp2
(I875
I7
tp3
a(I262
I7
tp4
a(I2014
I7
tp5
a(I1627
I7
tp6
a(I533
I7
tp7
a(I1662
I7
tp8
asS'runtime'
p9
F0.0019252300262451172
sS'name'
p10
S'["regex", [["name", "[&]", "OM"]]]'
p11
s.