(dp0
S'output'
p1
(lp2
(I55
I36
tp3
a(I1751
I36
tp4
a(I1524
I36
tp5
a(I1930
I36
tp6
a(I1305
I36
tp7
a(I688
I36
tp8
a(I1311
I36
tp9
a(I1520
I36
tp10
a(I1299
I36
tp11
a(I545
I36
tp12
a(I56
I36
tp13
a(I2031
I36
tp14
a(I1915
I36
tp15
a(I2208
I36
tp16
a(I1999
I36
tp17
a(I2196
I36
tp18
a(I1757
I36
tp19
a(I1300
I36
tp20
a(I529
I36
tp21
asS'runtime'
p22
F0.0018749237060546875
sS'name'
p23
S'["regex", [["region_1", "[C]", "OM"]]]'
p24
s.