(dp0
S'output'
p1
(lp2
(I599
I60
tp3
a(I1583
I60
tp4
a(I261
I60
tp5
a(I602
I60
tp6
a(I601
I60
tp7
asS'runtime'
p8
F0.0018310546875
sS'name'
p9
S'["regex", [["application_business_owner", "[c]", "OM"]]]'
p10
s.