(dp0
S'output'
p1
(lp2
(I30
I27
tp3
a(I32
I27
tp4
a(I986
I27
tp5
a(I1941
I27
tp6
a(I33
I27
tp7
a(I31
I27
tp8
a(I89
I27
tp9
a(I1212
I27
tp10
a(I34
I27
tp11
a(I1821
I27
tp12
asS'runtime'
p13
F0.0019350051879882812
sS'name'
p14
S'["regex", [["alt_app_critical", "[O]", "OM"]]]'
p15
s.