(dp0
S'output'
p1
(lp2
(I1350
I8
tp3
a(I1277
I8
tp4
a(I2148
I8
tp5
a(I213
I8
tp6
a(I1089
I8
tp7
a(I1800
I8
tp8
a(I1709
I8
tp9
a(I91
I8
tp10
a(I288
I8
tp11
asS'runtime'
p12
F0.001889944076538086
sS'name'
p13
S'["regex", [["app_abbr", "[0]", "OM"]]]'
p14
s.