(dp0
S'output'
p1
(lp2
(I1762
I30
tp3
a(I2213
I30
tp4
a(I594
I30
tp5
a(I1757
I30
tp6
a(I1520
I30
tp7
a(I1935
I30
tp8
a(I834
I30
tp9
a(I2196
I30
tp10
a(I1173
I30
tp11
a(I1758
I30
tp12
a(I1356
I30
tp13
a(I1339
I30
tp14
a(I542
I30
tp15
a(I909
I30
tp16
a(I1216
I30
tp17
a(I1106
I30
tp18
a(I1185
I30
tp19
a(I1999
I30
tp20
asS'runtime'
p21
F0.0018870830535888672
sS'name'
p22
S'["regex", [["users_affected", "[8]", "OM"]]]'
p23
s.