(dp0
S'output'
p1
(lp2
(I1442
I39
tp3
a(I299
I39
tp4
a(I1496
I39
tp5
a(I593
I39
tp6
a(I1772
I39
tp7
a(I69
I39
tp8
a(I583
I39
tp9
a(I1497
I39
tp10
a(I52
I39
tp11
a(I1507
I39
tp12
a(I585
I39
tp13
asS'runtime'
p14
F0.001870870590209961
sS'name'
p15
S'["regex", [["gxp_ind", "[C]", "OM"]]]'
p16
s.