(dp0
S'output'
p1
(lp2
(I1445
I31
tp3
a(I816
I31
tp4
a(I276
I31
tp5
a(I1519
I31
tp6
a(I2239
I31
tp7
a(I524
I31
tp8
a(I480
I31
tp9
a(I809
I31
tp10
a(I308
I31
tp11
asS'runtime'
p12
F0.0018339157104492188
sS'name'
p13
S'["regex", [["end_users", "[b]", "OM"]]]'
p14
s.