(dp0
S'output'
p1
(lp2
(I1
I53
tp3
a(I0
I53
tp4
a(I795
I53
tp5
a(I2
I53
tp6
a(I1800
I53
tp7
a(I2193
I53
tp8
a(I2187
I53
tp9
a(I2146
I53
tp10
asS'runtime'
p11
F0.0018870830535888672
sS'name'
p12
S'["regex", [["prmry_bus_function", "[0]", "OM"]]]'
p13
s.