(dp0
S'output'
p1
(lp2
(I1744
I38
tp3
a(I2111
I38
tp4
a(I2018
I38
tp5
a(I664
I38
tp6
a(I1366
I38
tp7
a(I1913
I38
tp8
a(I588
I38
tp9
a(I589
I38
tp10
a(I1792
I38
tp11
a(I783
I38
tp12
a(I1185
I38
tp13
a(I1110
I38
tp14
a(I1367
I38
tp15
a(I730
I38
tp16
a(I1513
I38
tp17
a(I1399
I38
tp18
a(I1400
I38
tp19
a(I990
I38
tp20
asS'runtime'
p21
F0.0018541812896728516
sS'name'
p22
S'["regex", [["regulated_non_gxp_ind", "[O]", "OM"]]]'
p23
s.