(dp0
S'output'
p1
(lp2
(I1130
I8
tp3
a(I2001
I8
tp4
a(I2182
I8
tp5
a(I1547
I8
tp6
a(I546
I8
tp7
a(I1865
I8
tp8
a(I1864
I8
tp9
a(I815
I8
tp10
a(I1170
I8
tp11
a(I1138
I8
tp12
asS'runtime'
p13
F0.0018701553344726562
sS'name'
p14
S'["regex", [["app_abbr", "[Q]", "OM"]]]'
p15
s.