(dp0
S'output'
p1
(lp2
(I1873
I30
tp3
a(I1172
I30
tp4
a(I2083
I30
tp5
a(I38
I30
tp6
a(I908
I30
tp7
a(I478
I30
tp8
a(I1183
I30
tp9
a(I1772
I30
tp10
asS'runtime'
p11
F0.0018241405487060547
sS'name'
p12
S'["regex", [["users_affected", "[9]", "OM"]]]'
p13
s.