(dp0
S'output'
p1
(lp2
(I1894
I36
tp3
a(I261
I36
tp4
a(I1456
I36
tp5
a(I223
I36
tp6
a(I1901
I36
tp7
a(I608
I36
tp8
asS'runtime'
p9
F0.0018429756164550781
sS'name'
p10
S'["regex", [["region_1", "[G]", "OM"]]]'
p11
s.