(dp0
S'output'
p1
(lp2
(I702
I27
tp3
a(I719
I27
tp4
a(I986
I27
tp5
a(I748
I27
tp6
a(I723
I27
tp7
a(I2084
I27
tp8
a(I1087
I27
tp9
a(I1086
I27
tp10
a(I715
I27
tp11
a(I1212
I27
tp12
a(I741
I27
tp13
a(I727
I27
tp14
asS'runtime'
p15
F0.0019049644470214844
sS'name'
p16
S'["regex", [["alt_app_critical", "[P]", "OM"]]]'
p17
s.