(dp0
S'output'
p1
(lp2
(I1269
I27
tp3
a(I2023
I27
tp4
a(I792
I27
tp5
a(I1825
I27
tp6
a(I1234
I27
tp7
a(I2084
I27
tp8
a(I2030
I27
tp9
a(I1151
I27
tp10
a(I1212
I27
tp11
a(I1158
I27
tp12
a(I791
I27
tp13
asS'runtime'
p14
F0.0018520355224609375
sS'name'
p15
S'["regex", [["alt_app_critical", "[v]", "OM"]]]'
p16
s.