(dp0
S'output'
p1
(lp2
(I89517
I1
tp3
a(I44999
I1
tp4
a(I42403
I1
tp5
a(I115215
I1
tp6
a(I37995
I1
tp7
a(I165282
I1
tp8
a(I52088
I1
tp9
a(I138419
I1
tp10
a(I185697
I1
tp11
a(I56827
I1
tp12
a(I57703
I1
tp13
a(I37653
I1
tp14
a(I130594
I1
tp15
a(I185788
I1
tp16
a(I99579
I1
tp17
a(I169761
I1
tp18
a(I57314
I1
tp19
a(I154095
I1
tp20
a(I74669
I1
tp21
a(I53995
I1
tp22
a(I18648
I1
tp23
a(I174053
I1
tp24
asS'runtime'
p25
F0.1465611457824707
sS'name'
p26
S'["regex", [["l_name", "[;]", "OM"]]]'
p27
s.