(dp0
S'output'
p1
(lp2
(I45295
I12
tp3
a(I100084
I12
tp4
a(I25457
I12
tp5
a(I197639
I12
tp6
a(I27148
I12
tp7
a(I57213
I12
tp8
a(I80952
I12
tp9
a(I134240
I12
tp10
a(I131152
I12
tp11
a(I30398
I12
tp12
a(I159464
I12
tp13
a(I78612
I12
tp14
a(I76562
I12
tp15
a(I74440
I12
tp16
a(I176423
I12
tp17
a(I121558
I12
tp18
a(I198444
I12
tp19
a(I169785
I12
tp20
a(I54175
I12
tp21
a(I97614
I12
tp22
a(I129873
I12
tp23
a(I76120
I12
tp24
a(I134588
I12
tp25
a(I94234
I12
tp26
a(I91818
I12
tp27
a(I58557
I12
tp28
a(I46825
I12
tp29
a(I43408
I12
tp30
a(I188931
I12
tp31
a(I127314
I12
tp32
a(I161553
I12
tp33
a(I142700
I12
tp34
a(I63003
I12
tp35
a(I146809
I12
tp36
a(I104102
I12
tp37
a(I64683
I12
tp38
a(I74505
I12
tp39
a(I60018
I12
tp40
a(I160647
I12
tp41
a(I174489
I12
tp42
a(I37631
I12
tp43
a(I81838
I12
tp44
a(I81329
I12
tp45
a(I91671
I12
tp46
a(I164806
I12
tp47
a(I194454
I12
tp48
a(I190923
I12
tp49
a(I67218
I12
tp50
a(I171592
I12
tp51
a(I171099
I12
tp52
a(I80138
I12
tp53
a(I134518
I12
tp54
a(I154005
I12
tp55
a(I747
I12
tp56
a(I12186
I12
tp57
a(I92400
I12
tp58
a(I46002
I12
tp59
a(I63166
I12
tp60
a(I41846
I12
tp61
a(I52261
I12
tp62
a(I166267
I12
tp63
a(I184874
I12
tp64
a(I14399
I12
tp65
a(I151613
I12
tp66
a(I160532
I12
tp67
a(I82929
I12
tp68
a(I189862
I12
tp69
a(I62133
I12
tp70
a(I116385
I12
tp71
a(I176871
I12
tp72
a(I75819
I12
tp73
a(I56303
I12
tp74
a(I189598
I12
tp75
a(I62445
I12
tp76
a(I118952
I12
tp77
a(I123099
I12
tp78
a(I161898
I12
tp79
a(I91773
I12
tp80
a(I118658
I12
tp81
a(I51000
I12
tp82
a(I137461
I12
tp83
a(I191501
I12
tp84
a(I162908
I12
tp85
a(I88103
I12
tp86
a(I189910
I12
tp87
a(I52187
I12
tp88
a(I4765
I12
tp89
a(I119996
I12
tp90
a(I57647
I12
tp91
a(I159538
I12
tp92
a(I95559
I12
tp93
a(I174424
I12
tp94
a(I25851
I12
tp95
a(I76633
I12
tp96
a(I117248
I12
tp97
a(I137151
I12
tp98
a(I49009
I12
tp99
a(I60043
I12
tp100
a(I78906
I12
tp101
a(I12607
I12
tp102
a(I38994
I12
tp103
a(I42241
I12
tp104
a(I103176
I12
tp105
a(I159335
I12
tp106
a(I37147
I12
tp107
a(I181369
I12
tp108
a(I142225
I12
tp109
a(I136439
I12
tp110
a(I176550
I12
tp111
a(I93616
I12
tp112
a(I46959
I12
tp113
a(I166065
I12
tp114
a(I131844
I12
tp115
a(I50353
I12
tp116
a(I185760
I12
tp117
a(I190249
I12
tp118
a(I165584
I12
tp119
a(I187277
I12
tp120
a(I2452
I12
tp121
a(I152387
I12
tp122
a(I74130
I12
tp123
a(I71694
I12
tp124
a(I171436
I12
tp125
a(I36192
I12
tp126
a(I62414
I12
tp127
a(I148836
I12
tp128
a(I21538
I12
tp129
a(I47671
I12
tp130
a(I180759
I12
tp131
a(I150627
I12
tp132
a(I124001
I12
tp133
a(I73927
I12
tp134
a(I71461
I12
tp135
a(I34521
I12
tp136
a(I141636
I12
tp137
a(I88312
I12
tp138
a(I22359
I12
tp139
a(I189370
I12
tp140
a(I84431
I12
tp141
a(I176683
I12
tp142
a(I74732
I12
tp143
a(I78841
I12
tp144
a(I97375
I12
tp145
a(I28435
I12
tp146
a(I31330
I12
tp147
a(I93478
I12
tp148
a(I29483
I12
tp149
a(I113033
I12
tp150
a(I69025
I12
tp151
a(I64424
I12
tp152
a(I103350
I12
tp153
a(I138733
I12
tp154
a(I97924
I12
tp155
a(I169602
I12
tp156
a(I126027
I12
tp157
a(I86697
I12
tp158
a(I160336
I12
tp159
a(I178366
I12
tp160
a(I7442
I12
tp161
a(I42689
I12
tp162
a(I174030
I12
tp163
a(I84268
I12
tp164
a(I147338
I12
tp165
a(I55609
I12
tp166
a(I60324
I12
tp167
a(I111955
I12
tp168
a(I194281
I12
tp169
a(I142673
I12
tp170
a(I105304
I12
tp171
a(I52691
I12
tp172
a(I23573
I12
tp173
a(I32700
I12
tp174
a(I41498
I12
tp175
a(I118729
I12
tp176
a(I137250
I12
tp177
a(I21982
I12
tp178
a(I41005
I12
tp179
a(I112178
I12
tp180
a(I174250
I12
tp181
a(I127577
I12
tp182
a(I66756
I12
tp183
a(I110470
I12
tp184
a(I79243
I12
tp185
a(I129257
I12
tp186
a(I107855
I12
tp187
a(I14856
I12
tp188
a(I12772
I12
tp189
a(I187027
I12
tp190
a(I186534
I12
tp191
a(I136457
I12
tp192
a(I114863
I12
tp193
a(I49443
I12
tp194
a(I121970
I12
tp195
a(I181503
I12
tp196
a(I130301
I12
tp197
a(I43524
I12
tp198
a(I128947
I12
tp199
a(I23992
I12
tp200
a(I174103
I12
tp201
a(I187339
I12
tp202
a(I58101
I12
tp203
a(I70718
I12
tp204
a(I25229
I12
tp205
a(I96835
I12
tp206
a(I157793
I12
tp207
a(I129110
I12
tp208
a(I9388
I12
tp209
a(I125706
I12
tp210
a(I192799
I12
tp211
a(I6862
I12
tp212
a(I153050
I12
tp213
a(I95467
I12
tp214
a(I146249
I12
tp215
a(I56048
I12
tp216
a(I129740
I12
tp217
a(I147601
I12
tp218
a(I19399
I12
tp219
a(I125503
I12
tp220
a(I140469
I12
tp221
a(I199354
I12
tp222
a(I37071
I12
tp223
a(I166093
I12
tp224
a(I45386
I12
tp225
a(I139278
I12
tp226
a(I159076
I12
tp227
a(I177683
I12
tp228
a(I171032
I12
tp229
a(I127356
I12
tp230
a(I39467
I12
tp231
a(I57392
I12
tp232
a(I9709
I12
tp233
a(I102663
I12
tp234
a(I26380
I12
tp235
a(I65723
I12
tp236
a(I74547
I12
tp237
a(I56113
I12
tp238
a(I123910
I12
tp239
a(I96033
I12
tp240
a(I166439
I12
tp241
a(I150027
I12
tp242
a(I167980
I12
tp243
a(I122937
I12
tp244
a(I164832
I12
tp245
a(I76959
I12
tp246
a(I193415
I12
tp247
a(I50333
I12
tp248
a(I78500
I12
tp249
a(I88678
I12
tp250
a(I184336
I12
tp251
a(I41067
I12
tp252
a(I46704
I12
tp253
a(I47412
I12
tp254
a(I151858
I12
tp255
a(I108359
I12
tp256
a(I49398
I12
tp257
a(I116674
I12
tp258
a(I172964
I12
tp259
a(I63110
I12
tp260
a(I135221
I12
tp261
a(I78812
I12
tp262
a(I89227
I12
tp263
a(I132073
I12
tp264
a(I169729
I12
tp265
a(I158922
I12
tp266
a(I28898
I12
tp267
a(I154198
I12
tp268
a(I117163
I12
tp269
a(I65064
I12
tp270
a(I111589
I12
tp271
a(I53900
I12
tp272
a(I139929
I12
tp273
a(I180800
I12
tp274
a(I72902
I12
tp275
a(I186652
I12
tp276
a(I174377
I12
tp277
a(I38287
I12
tp278
a(I41055
I12
tp279
a(I5010
I12
tp280
a(I134414
I12
tp281
a(I59739
I12
tp282
a(I137247
I12
tp283
a(I192036
I12
tp284
a(I1570
I12
tp285
a(I35302
I12
tp286
a(I49737
I12
tp287
a(I157168
I12
tp288
a(I164968
I12
tp289
a(I109885
I12
tp290
a(I166648
I12
tp291
a(I61276
I12
tp292
a(I165899
I12
tp293
a(I98153
I12
tp294
a(I196999
I12
tp295
a(I71148
I12
tp296
a(I58873
I12
tp297
a(I132256
I12
tp298
a(I57126
I12
tp299
a(I129237
I12
tp300
a(I134892
I12
tp301
a(I166704
I12
tp302
a(I94622
I12
tp303
a(I111276
I12
tp304
a(I145415
I12
tp305
a(I78272
I12
tp306
a(I165335
I12
tp307
a(I55426
I12
tp308
a(I123441
I12
tp309
a(I18502
I12
tp310
a(I13468
I12
tp311
a(I74832
I12
tp312
a(I82191
I12
tp313
a(I63757
I12
tp314
a(I143202
I12
tp315
a(I59585
I12
tp316
a(I196310
I12
tp317
a(I24970
I12
tp318
a(I95650
I12
tp319
a(I154551
I12
tp320
a(I36373
I12
tp321
a(I78281
I12
tp322
a(I20848
I12
tp323
a(I28131
I12
tp324
a(I99809
I12
tp325
a(I160744
I12
tp326
a(I29179
I12
tp327
a(I42073
I12
tp328
a(I193472
I12
tp329
a(I26507
I12
tp330
a(I196922
I12
tp331
a(I134989
I12
tp332
a(I187857
I12
tp333
a(I74181
I12
tp334
a(I105951
I12
tp335
a(I156292
I12
tp336
a(I161788
I12
tp337
a(I4267
I12
tp338
a(I169588
I12
tp339
a(I123953
I12
tp340
a(I137095
I12
tp341
a(I8426
I12
tp342
a(I118169
I12
tp343
a(I14079
I12
tp344
a(I185262
I12
tp345
a(I143101
I12
tp346
a(I39940
I12
tp347
a(I80307
I12
tp348
a(I13314
I12
tp349
a(I24604
I12
tp350
a(I94249
I12
tp351
a(I5072
I12
tp352
a(I113807
I12
tp353
a(I66196
I12
tp354
a(I32935
I12
tp355
a(I199528
I12
tp356
a(I67876
I12
tp357
a(I86739
I12
tp358
a(I139554
I12
tp359
a(I172918
I12
tp360
a(I49935
I12
tp361
a(I16813
I12
tp362
a(I77772
I12
tp363
a(I192865
I12
tp364
a(I81351
I12
tp365
a(I109947
I12
tp366
a(I5081
I12
tp367
a(I128061
I12
tp368
a(I74308
I12
tp369
a(I87544
I12
tp370
a(I25941
I12
tp371
a(I34409
I12
tp372
a(I80144
I12
tp373
a(I148175
I12
tp374
a(I161855
I12
tp375
a(I96973
I12
tp376
a(I55707
I12
tp377
a(I123229
I12
tp378
a(I122724
I12
tp379
a(I107388
I12
tp380
a(I113964
I12
tp381
a(I128168
I12
tp382
a(I186560
I12
tp383
a(I170621
I12
tp384
a(I162616
I12
tp385
a(I96587
I12
tp386
a(I184144
I12
tp387
a(I65549
I12
tp388
a(I41605
I12
tp389
a(I137402
I12
tp390
a(I40607
I12
tp391
a(I178254
I12
tp392
a(I156836
I12
tp393
a(I134739
I12
tp394
a(I136280
I12
tp395
a(I18620
I12
tp396
a(I135787
I12
tp397
a(I1327
I12
tp398
a(I140407
I12
tp399
a(I26951
I12
tp400
a(I140714
I12
tp401
a(I166847
I12
tp402
a(I9149
I12
tp403
a(I179059
I12
tp404
a(I21361
I12
tp405
a(I131448
I12
tp406
a(I16949
I12
tp407
a(I102027
I12
tp408
a(I15951
I12
tp409
a(I121089
I12
tp410
a(I155822
I12
tp411
a(I66151
I12
tp412
a(I143126
I12
tp413
a(I57034
I12
tp414
a(I170784
I12
tp415
a(I82318
I12
tp416
a(I87462
I12
tp417
a(I48043
I12
tp418
a(I159241
I12
tp419
a(I12660
I12
tp420
a(I23075
I12
tp421
a(I19434
I12
tp422
a(I187557
I12
tp423
a(I89858
I12
tp424
a(I113360
I12
tp425
a(I142740
I12
tp426
a(I23880
I12
tp427
a(I95574
I12
tp428
a(I139616
I12
tp429
a(I51743
I12
tp430
a(I97747
I12
tp431
a(I50136
I12
tp432
a(I186352
I12
tp433
a(I71777
I12
tp434
a(I177147
I12
tp435
a(I2853
I12
tp436
a(I128123
I12
tp437
a(I80601
I12
tp438
a(I40765
I12
tp439
a(I85316
I12
tp440
a(I136947
I12
tp441
a(I36593
I12
tp442
a(I45493
I12
tp443
a(I195083
I12
tp444
a(I100282
I12
tp445
a(I29652
I12
tp446
a(I40067
I12
tp447
a(I78977
I12
tp448
a(I127463
I12
tp449
a(I72342
I12
tp450
a(I18412
I12
tp451
a(I153593
I12
tp452
a(I146193
I12
tp453
a(I140190
I12
tp454
a(I100771
I12
tp455
a(I105915
I12
tp456
a(I42858
I12
tp457
a(I161495
I12
tp458
a(I15411
I12
tp459
a(I100994
I12
tp460
a(I190108
I12
tp461
a(I65611
I12
tp462
a(I30377
I12
tp463
a(I104724
I12
tp464
a(I176402
I12
tp465
a(I85381
I12
tp466
a(I46811
I12
tp467
a(I69540
I12
tp468
a(I48984
I12
tp469
a(I167351
I12
tp470
a(I94229
I12
tp471
a(I84446
I12
tp472
a(I43570
I12
tp473
a(I128993
I12
tp474
a(I64622
I12
tp475
a(I178372
I12
tp476
a(I180851
I12
tp477
a(I151746
I12
tp478
a(I75896
I12
tp479
a(I148358
I12
tp480
a(I7401
I12
tp481
a(I49040
I12
tp482
a(I116739
I12
tp483
a(I122376
I12
tp484
a(I136133
I12
tp485
a(I144236
I12
tp486
a(I63946
I12
tp487
a(I20447
I12
tp488
a(I92302
I12
tp489
a(I38545
I12
tp490
a(I83096
I12
tp491
a(I132693
I12
tp492
a(I113148
I12
tp493
a(I158810
I12
tp494
a(I127599
I12
tp495
a(I138529
I12
tp496
a(I58166
I12
tp497
a(I12172
I12
tp498
a(I57152
I12
tp499
a(I63743
I12
tp500
a(I1454
I12
tp501
a(I85508
I12
tp502
a(I27571
I12
tp503
a(I198861
I12
tp504
a(I172585
I12
tp505
a(I67213
I12
tp506
a(I27794
I12
tp507
a(I29351
I12
tp508
a(I7254
I12
tp509
a(I145669
I12
tp510
a(I84064
I12
tp511
a(I37666
I12
tp512
a(I81105
I12
tp513
a(I151356
I12
tp514
a(I127269
I12
tp515
a(I101219
I12
tp516
a(I28615
I12
tp517
a(I86565
I12
tp518
a(I152728
I12
tp519
a(I134210
I12
tp520
a(I141809
I12
tp521
a(I48902
I12
tp522
a(I27408
I12
tp523
a(I155262
I12
tp524
a(I51708
I12
tp525
a(I111314
I12
tp526
a(I155521
I12
tp527
a(I151365
I12
tp528
a(I43539
I12
tp529
a(I14690
I12
tp530
a(I82449
I12
tp531
a(I12312
I12
tp532
a(I5500
I12
tp533
a(I183941
I12
tp534
a(I76610
I12
tp535
a(I41455
I12
tp536
a(I12274
I12
tp537
a(I68571
I12
tp538
a(I125721
I12
tp539
a(I125044
I12
tp540
a(I18227
I12
tp541
a(I185730
I12
tp542
a(I159477
I12
tp543
a(I76619
I12
tp544
a(I161018
I12
tp545
a(I12624
I12
tp546
a(I29197
I12
tp547
a(I106516
I12
tp548
a(I22546
I12
tp549
a(I44583
I12
tp550
a(I78892
I12
tp551
a(I183970
I12
tp552
a(I185527
I12
tp553
a(I130662
I12
tp554
a(I83051
I12
tp555
a(I123162
I12
tp556
a(I135390
I12
tp557
a(I154932
I12
tp558
a(I157411
I12
tp559
a(I95538
I12
tp560
a(I64959
I12
tp561
a(I195028
I12
tp562
a(I132465
I12
tp563
a(I193400
I12
tp564
a(I164540
I12
tp565
a(I105018
I12
tp566
a(I149136
I12
tp567
a(I36350
I12
tp568
a(I30292
I12
tp569
a(I178885
I12
tp570
a(I190235
I12
tp571
a(I111502
I12
tp572
a(I36573
I12
tp573
a(I104851
I12
tp574
a(I149856
I12
tp575
a(I78225
I12
tp576
a(I162551
I12
tp577
a(I106837
I12
tp578
a(I60843
I12
tp579
a(I145242
I12
tp580
a(I144749
I12
tp581
a(I4648
I12
tp582
a(I186341
I12
tp583
a(I30348
I12
tp584
a(I4155
I12
tp585
a(I197631
I12
tp586
a(I113661
I12
tp587
a(I43697
I12
tp588
a(I169751
I12
tp589
a(I21310
I12
tp590
a(I36187
I12
tp591
a(I143315
I12
tp592
a(I196663
I12
tp593
a(I11750
I12
tp594
a(I136764
I12
tp595
a(I91721
I12
tp596
a(I104944
I12
tp597
a(I139951
I12
tp598
a(I88749
I12
tp599
a(I100532
I12
tp600
a(I7372
I12
tp601
a(I140923
I12
tp602
a(I115498
I12
tp603
a(I16701
I12
tp604
a(I194342
I12
tp605
a(I99164
I12
tp606
a(I175115
I12
tp607
a(I84410
I12
tp608
a(I12816
I12
tp609
a(I96205
I12
tp610
a(I21640
I12
tp611
a(I147873
I12
tp612
a(I114786
I12
tp613
a(I93457
I12
tp614
a(I56088
I12
tp615
a(I62246
I12
tp616
a(I40149
I12
tp617
a(I143152
I12
tp618
a(I84207
I12
tp619
a(I123117
I12
tp620
a(I107020
I12
tp621
a(I184251
I12
tp622
a(I176665
I12
tp623
a(I67121
I12
tp624
a(I148119
I12
tp625
a(I133621
I12
tp626
a(I174236
I12
tp627
a(I62027
I12
tp628
a(I153680
I12
tp629
a(I51988
I12
tp630
a(I96475
I12
tp631
a(I59810
I12
tp632
a(I67610
I12
tp633
a(I120265
I12
tp634
a(I173580
I12
tp635
a(I195328
I12
tp636
a(I165055
I12
tp637
a(I81085
I12
tp638
a(I131778
I12
tp639
a(I183555
I12
tp640
a(I120914
I12
tp641
a(I139111
I12
tp642
a(I148933
I12
tp643
a(I109514
I12
tp644
a(I128377
I12
tp645
a(I22673
I12
tp646
a(I151280
I12
tp647
a(I114974
I12
tp648
a(I20257
I12
tp649
a(I101255
I12
tp650
a(I98624
I12
tp651
a(I89523
I12
tp652
a(I43010
I12
tp653
a(I154566
I12
tp654
a(I52090
I12
tp655
a(I103465
I12
tp656
a(I174514
I12
tp657
a(I53391
I12
tp658
a(I64062
I12
tp659
a(I68268
I12
tp660
a(I22920
I12
tp661
a(I109860
I12
tp662
a(I61137
I12
tp663
a(I7248
I12
tp664
a(I65865
I12
tp665
a(I38750
I12
tp666
a(I124333
I12
tp667
a(I84914
I12
tp668
a(I22144
I12
tp669
a(I73198
I12
tp670
a(I189427
I12
tp671
a(I84472
I12
tp672
a(I17495
I12
tp673
a(I108739
I12
tp674
a(I166581
I12
tp675
a(I76380
I12
tp676
a(I124114
I12
tp677
a(I13838
I12
tp678
a(I160612
I12
tp679
a(I191330
I12
tp680
a(I57880
I12
tp681
a(I24619
I12
tp682
a(I54921
I12
tp683
a(I5103
I12
tp684
a(I179358
I12
tp685
a(I185132
I12
tp686
a(I70130
I12
tp687
a(I47777
I12
tp688
a(I157447
I12
tp689
a(I150796
I12
tp690
a(I38587
I12
tp691
a(I12394
I12
tp692
a(I67199
I12
tp693
a(I140078
I12
tp694
a(I34690
I12
tp695
a(I134159
I12
tp696
a(I58924
I12
tp697
a(I132059
I12
tp698
a(I114362
I12
tp699
a(I174749
I12
tp700
a(I191676
I12
tp701
a(I49886
I12
tp702
a(I48872
I12
tp703
a(I87798
I12
tp704
a(I29605
I12
tp705
a(I48379
I12
tp706
a(I182638
I12
tp707
a(I144836
I12
tp708
a(I78807
I12
tp709
a(I6620
I12
tp710
a(I85050
I12
tp711
a(I2192
I12
tp712
a(I184911
I12
tp713
a(I98302
I12
tp714
a(I19021
I12
tp715
a(I178260
I12
tp716
a(I195841
I12
tp717
a(I152513
I12
tp718
a(I173671
I12
tp719
a(I189291
I12
tp720
a(I93381
I12
tp721
a(I76059
I12
tp722
a(I48928
I12
tp723
a(I143076
I12
tp724
a(I25489
I12
tp725
a(I78588
I12
tp726
a(I139077
I12
tp727
a(I131593
I12
tp728
a(I54644
I12
tp729
a(I136737
I12
tp730
a(I162870
I12
tp731
a(I6629
I12
tp732
a(I174144
I12
tp733
a(I77596
I12
tp734
a(I64399
I12
tp735
a(I49556
I12
tp736
a(I63890
I12
tp737
a(I85927
I12
tp738
a(I12805
I12
tp739
a(I21932
I12
tp740
a(I58205
I12
tp741
a(I173497
I12
tp742
a(I17760
I12
tp743
a(I199630
I12
tp744
a(I99869
I12
tp745
a(I158754
I12
tp746
a(I166353
I12
tp747
a(I145557
I12
tp748
a(I52208
I12
tp749
a(I134220
I12
tp750
a(I92776
I12
tp751
a(I194759
I12
tp752
a(I164470
I12
tp753
a(I171895
I12
tp754
a(I42222
I12
tp755
a(I78653
I12
tp756
a(I199411
I12
tp757
a(I87477
I12
tp758
a(I189456
I12
tp759
a(I178637
I12
tp760
a(I143491
I12
tp761
a(I48790
I12
tp762
a(I186437
I12
tp763
a(I112968
I12
tp764
a(I11850
I12
tp765
a(I92832
I12
tp766
a(I45666
I12
tp767
a(I167192
I12
tp768
a(I2904
I12
tp769
a(I67520
I12
tp770
a(I84526
I12
tp771
a(I186749
I12
tp772
a(I140856
I12
tp773
a(I177303
I12
tp774
a(I118112
I12
tp775
a(I94398
I12
tp776
a(I50883
I12
tp777
a(I44232
I12
tp778
a(I47911
I12
tp779
a(I171915
I12
tp780
a(I194442
I12
tp781
a(I9124
I12
tp782
a(I118099
I12
tp783
a(I56226
I12
tp784
a(I124241
I12
tp785
a(I52070
I12
tp786
a(I162330
I12
tp787
a(I159198
I12
tp788
a(I54836
I12
tp789
a(I125921
I12
tp790
a(I141566
I12
tp791
a(I160246
I12
tp792
a(I182267
I12
tp793
a(I155818
I12
tp794
a(I35417
I12
tp795
a(I128703
I12
tp796
a(I4206
I12
tp797
a(I106097
I12
tp798
a(I154327
I12
tp799
a(I8412
I12
tp800
a(I19851
I12
tp801
a(I188565
I12
tp802
a(I176361
I12
tp803
a(I17236
I12
tp804
a(I47045
I12
tp805
a(I173945
I12
tp806
a(I50720
I12
tp807
a(I149988
I12
tp808
a(I103059
I12
tp809
a(I25058
I12
tp810
a(I96247
I12
tp811
a(I77065
I12
tp812
a(I3693
I12
tp813
a(I61224
I12
tp814
a(I195975
I12
tp815
a(I41189
I12
tp816
a(I79594
I12
tp817
a(I152473
I12
tp818
a(I95040
I12
tp819
a(I13565
I12
tp820
a(I189108
I12
tp821
a(I136632
I12
tp822
a(I155671
I12
tp823
a(I167366
I12
tp824
a(I50729
I12
tp825
a(I164670
I12
tp826
a(I163986
I12
tp827
a(I109121
I12
tp828
a(I35103
I12
tp829
a(I142427
I12
tp830
a(I47315
I12
tp831
a(I145186
I12
tp832
a(I131548
I12
tp833
a(I153381
I12
tp834
a(I165300
I12
tp835
a(I175971
I12
tp836
a(I77174
I12
tp837
a(I194085
I12
tp838
a(I118766
I12
tp839
a(I23101
I12
tp840
a(I100420
I12
tp841
a(I54771
I12
tp842
a(I100057
I12
tp843
a(I171100
I12
tp844
a(I191593
I12
tp845
a(I75983
I12
tp846
a(I179924
I12
tp847
a(I154006
I12
tp848
a(I197356
I12
tp849
a(I177568
I12
tp850
a(I89951
I12
tp851
a(I63325
I12
tp852
a(I83439
I12
tp853
a(I126622
I12
tp854
a(I142324
I12
tp855
a(I174833
I12
tp856
a(I191649
I12
tp857
a(I121019
I12
tp858
a(I182399
I12
tp859
a(I24701
I12
tp860
a(I31539
I12
tp861
a(I16696
I12
tp862
a(I157298
I12
tp863
a(I196111
I12
tp864
a(I133253
I12
tp865
a(I23520
I12
tp866
a(I91295
I12
tp867
a(I138397
I12
tp868
a(I35921
I12
tp869
a(I162392
I12
tp870
a(I188092
I12
tp871
a(I66842
I12
tp872
a(I26930
I12
tp873
a(I144097
I12
tp874
a(I42405
I12
tp875
a(I185689
I12
tp876
a(I157636
I12
tp877
a(I40898
I12
tp878
a(I69254
I12
tp879
a(I174133
I12
tp880
a(I183260
I12
tp881
a(I48698
I12
tp882
a(I125979
I12
tp883
a(I48205
I12
tp884
a(I65132
I12
tp885
a(I166623
I12
tp886
a(I8925
I12
tp887
a(I13316
I12
tp888
a(I15270
I12
tp889
a(I147525
I12
tp890
a(I195225
I12
tp891
a(I36100
I12
tp892
a(I9474
I12
tp893
a(I118449
I12
tp894
a(I113355
I12
tp895
a(I24873
I12
tp896
a(I154947
I12
tp897
a(I189445
I12
tp898
a(I71609
I12
tp899
a(I64974
I12
tp900
a(I31697
I12
tp901
a(I10712
I12
tp902
a(I180710
I12
tp903
a(I27285
I12
tp904
a(I168357
I12
tp905
a(I178786
I12
tp906
a(I116399
I12
tp907
a(I176460
I12
tp908
a(I95350
I12
tp909
a(I59178
I12
tp910
a(I65753
I12
tp911
a(I141226
I12
tp912
a(I189757
I12
tp913
a(I185156
I12
tp914
a(I161749
I12
tp915
a(I150338
I12
tp916
a(I1973
I12
tp917
a(I126394
I12
tp918
a(I145257
I12
tp919
a(I164185
I12
tp920
a(I182247
I12
tp921
a(I160555
I12
tp922
a(I77292
I12
tp923
a(I63131
I12
tp924
a(I168010
I12
tp925
a(I161959
I12
tp926
a(I157971
I12
tp927
a(I179571
I12
tp928
a(I3756
I12
tp929
a(I27378
I12
tp930
a(I178081
I12
tp931
a(I94215
I12
tp932
a(I58299
I12
tp933
a(I185881
I12
tp934
a(I182720
I12
tp935
a(I113710
I12
tp936
a(I69762
I12
tp937
a(I104011
I12
tp938
a(I110861
I12
tp939
a(I2243
I12
tp940
a(I100114
I12
tp941
a(I101794
I12
tp942
a(I149013
I12
tp943
a(I66411
I12
tp944
a(I109101
I12
tp945
a(I42467
I12
tp946
a(I122337
I12
tp947
a(I100859
I12
tp948
a(I86698
I12
tp949
a(I130137
I12
tp950
a(I53437
I12
tp951
a(I134852
I12
tp952
a(I42690
I12
tp953
a(I182502
I12
tp954
a(I36055
I12
tp955
a(I16267
I12
tp956
a(I18686
I12
tp957
a(I142674
I12
tp958
a(I6508
I12
tp959
a(I184266
I12
tp960
a(I162961
I12
tp961
a(I188694
I12
tp962
a(I80375
I12
tp963
a(I94810
I12
tp964
a(I48816
I12
tp965
a(I28781
I12
tp966
a(I143239
I12
tp967
a(I63722
I12
tp968
a(I99737
I12
tp969
a(I93102
I12
tp970
a(I117762
I12
tp971
a(I158129
I12
tp972
a(I152087
I12
tp973
a(I116171
I12
tp974
a(I193679
I12
tp975
a(I58435
I12
tp976
a(I3845
I12
tp977
a(I24160
I12
tp978
a(I103197
I12
tp979
a(I191187
I12
tp980
a(I197329
I12
tp981
a(I28888
I12
tp982
a(I144789
I12
tp983
a(I72602
I12
tp984
a(I9545
I12
tp985
a(I188847
I12
tp986
a(I179148
I12
tp987
a(I94130
I12
tp988
a(I154572
I12
tp989
a(I103487
I12
tp990
a(I4674
I12
tp991
a(I60920
I12
tp992
a(I44725
I12
tp993
a(I125707
I12
tp994
a(I13498
I12
tp995
a(I140414
I12
tp996
a(I140993
I12
tp997
a(I2966
I12
tp998
a(I113482
I12
tp999
a(I164191
I12
tp1000
a(I41767
I12
tp1001
a(I169828
I12
tp1002
a(I75793
I12
tp1003
a(I67096
I12
tp1004
a(I154581
I12
tp1005
a(I117036
I12
tp1006
a(I9891
I12
tp1007
a(I46578
I12
tp1008
a(I119515
I12
tp1009
a(I20069
I12
tp1010
a(I118264
I12
tp1011
a(I165229
I12
tp1012
a(I4288
I12
tp1013
a(I152189
I12
tp1014
a(I197508
I12
tp1015
a(I11571
I12
tp1016
a(I15234
I12
tp1017
a(I171043
I12
tp1018
a(I95477
I12
tp1019
a(I120845
I12
tp1020
a(I185283
I12
tp1021
a(I14792
I12
tp1022
a(I51979
I12
tp1023
a(I31365
I12
tp1024
a(I85661
I12
tp1025
a(I48292
I12
tp1026
a(I149075
I12
tp1027
a(I11352
I12
tp1028
a(I69904
I12
tp1029
a(I19190
I12
tp1030
a(I70349
I12
tp1031
a(I100185
I12
tp1032
a(I75264
I12
tp1033
a(I181183
I12
tp1034
a(I88440
I12
tp1035
a(I88023
I12
tp1036
a(I28806
I12
tp1037
a(I105013
I12
tp1038
a(I116363
I12
tp1039
a(I56341
I12
tp1040
a(I134633
I12
tp1041
a(I93773
I12
tp1042
a(I129283
I12
tp1043
a(I128082
I12
tp1044
a(I154215
I12
tp1045
a(I98501
I12
tp1046
a(I139802
I12
tp1047
a(I130271
I12
tp1048
a(I103645
I12
tp1049
a(I60838
I12
tp1050
a(I173577
I12
tp1051
a(I168194
I12
tp1052
a(I72557
I12
tp1053
a(I57714
I12
tp1054
a(I2593
I12
tp1055
a(I161832
I12
tp1056
a(I161415
I12
tp1057
a(I146917
I12
tp1058
a(I56460
I12
tp1059
a(I26171
I12
tp1060
a(I73773
I12
tp1061
a(I183360
I12
tp1062
a(I176814
I12
tp1063
a(I98813
I12
tp1064
a(I130327
I12
tp1065
a(I65150
I12
tp1066
a(I29392
I12
tp1067
a(I178494
I12
tp1068
a(I3907
I12
tp1069
a(I169288
I12
tp1070
a(I182700
I12
tp1071
a(I136027
I12
tp1072
a(I98847
I12
tp1073
a(I52297
I12
tp1074
a(I61424
I12
tp1075
a(I100527
I12
tp1076
a(I139852
I12
tp1077
a(I14435
I12
tp1078
a(I140918
I12
tp1079
a(I190282
I12
tp1080
a(I58060
I12
tp1081
a(I101499
I12
tp1082
a(I38272
I12
tp1083
a(I48959
I12
tp1084
a(I186173
I12
tp1085
a(I158168
I12
tp1086
a(I50929
I12
tp1087
a(I87296
I12
tp1088
a(I12811
I12
tp1089
a(I129385
I12
tp1090
a(I192888
I12
tp1091
a(I101332
I12
tp1092
a(I41281
I12
tp1093
a(I80520
I12
tp1094
a(I2535
I12
tp1095
a(I8172
I12
tp1096
a(I145563
I12
tp1097
a(I121126
I12
tp1098
a(I90837
I12
tp1099
a(I175915
I12
tp1100
a(I5513
I12
tp1101
a(I16803
I12
tp1102
a(I8711
I12
tp1103
a(I26981
I12
tp1104
a(I148863
I12
tp1105
a(I180866
I12
tp1106
a(I48796
I12
tp1107
a(I199711
I12
tp1108
a(I64195
I12
tp1109
a(I182546
I12
tp1110
a(I49352
I12
tp1111
a(I24359
I12
tp1112
a(I52955
I12
tp1113
a(I140317
I12
tp1114
a(I152800
I12
tp1115
a(I127391
I12
tp1116
a(I59805
I12
tp1117
a(I51108
I12
tp1118
a(I98210
I12
tp1119
a(I179145
I12
tp1120
a(I6115
I12
tp1121
a(I36833
I12
tp1122
a(I103926
I12
tp1123
a(I164541
I12
tp1124
a(I189342
I12
tp1125
a(I190658
I12
tp1126
a(I176753
I12
tp1127
a(I160389
I12
tp1128
a(I135503
I12
tp1129
a(I91988
I12
tp1130
a(I141102
I12
tp1131
a(I157031
I12
tp1132
a(I76741
I12
tp1133
a(I19308
I12
tp1134
a(I78282
I12
tp1135
a(I140164
I12
tp1136
a(I132578
I12
tp1137
a(I93175
I12
tp1138
a(I79014
I12
tp1139
a(I179458
I12
tp1140
a(I114629
I12
tp1141
a(I26508
I12
tp1142
a(I43261
I12
tp1143
a(I6324
I12
tp1144
a(I140211
I12
tp1145
a(I15874
I12
tp1146
a(I154545
I12
tp1147
a(I119162
I12
tp1148
a(I64041
I12
tp1149
a(I54851
I12
tp1150
a(I152662
I12
tp1151
a(I77887
I12
tp1152
a(I65632
I12
tp1153
a(I78308
I12
tp1154
a(I110903
I12
tp1155
a(I165692
I12
tp1156
a(I47540
I12
tp1157
a(I181091
I12
tp1158
a(I141672
I12
tp1159
a(I82294
I12
tp1160
a(I186235
I12
tp1161
a(I181823
I12
tp1162
a(I163389
I12
tp1163
a(I153108
I12
tp1164
a(I136830
I12
tp1165
a(I152276
I12
tp1166
a(I50075
I12
tp1167
a(I27978
I12
tp1168
a(I141728
I12
tp1169
a(I95071
I12
tp1170
a(I191325
I12
tp1171
a(I169886
I12
tp1172
a(I183947
I12
tp1173
a(I141555
I12
tp1174
a(I4589
I12
tp1175
a(I114612
I12
tp1176
a(I64699
I12
tp1177
a(I8985
I12
tp1178
a(I66685
I12
tp1179
a(I161812
I12
tp1180
a(I154681
I12
tp1181
a(I131040
I12
tp1182
a(I104607
I12
tp1183
a(I93860
I12
tp1184
a(I1698
I12
tp1185
a(I73809
I12
tp1186
a(I57968
I12
tp1187
a(I36655
I12
tp1188
a(I161838
I12
tp1189
a(I136007
I12
tp1190
a(I129356
I12
tp1191
a(I99067
I12
tp1192
a(I190464
I12
tp1193
a(I104919
I12
tp1194
a(I159708
I12
tp1195
a(I67723
I12
tp1196
a(I98281
I12
tp1197
a(I178255
I12
tp1198
a(I3668
I12
tp1199
a(I174851
I12
tp1200
a(I17153
I12
tp1201
a(I10518
I12
tp1202
a(I81149
I12
tp1203
a(I183182
I12
tp1204
a(I18833
I12
tp1205
a(I75672
I12
tp1206
a(I137468
I12
tp1207
a(I42411
I12
tp1208
a(I92169
I12
tp1209
a(I185711
I12
tp1210
a(I195887
I12
tp1211
a(I115254
I12
tp1212
a(I69260
I12
tp1213
a(I138905
I12
tp1214
a(I117427
I12
tp1215
a(I184504
I12
tp1216
a(I77591
I12
tp1217
a(I26945
I12
tp1218
a(I54695
I12
tp1219
a(I6149
I12
tp1220
a(I50523
I12
tp1221
a(I192010
I12
tp1222
a(I58746
I12
tp1223
a(I92918
I12
tp1224
a(I148755
I12
tp1225
a(I31407
I12
tp1226
a(I4781
I12
tp1227
a(I61544
I12
tp1228
a(I52935
I12
tp1229
a(I125046
I12
tp1230
a(I185548
I12
tp1231
a(I32379
I12
tp1232
a(I140505
I12
tp1233
a(I61250
I12
tp1234
a(I124664
I12
tp1235
a(I23388
I12
tp1236
a(I93320
I12
tp1237
a(I111690
I12
tp1238
a(I134419
I12
tp1239
a(I37656
I12
tp1240
a(I101158
I12
tp1241
a(I54485
I12
tp1242
a(I185299
I12
tp1243
a(I18313
I12
tp1244
a(I127223
I12
tp1245
a(I5876
I12
tp1246
a(I3826
I12
tp1247
a(I175009
I12
tp1248
a(I104872
I12
tp1249
a(I121701
I12
tp1250
a(I31244
I12
tp1251
a(I139626
I12
tp1252
a(I191936
I12
tp1253
a(I42547
I12
tp1254
a(I24113
I12
tp1255
a(I72343
I12
tp1256
a(I42054
I12
tp1257
a(I35403
I12
tp1258
a(I94377
I12
tp1259
a(I182002
I12
tp1260
a(I142531
I12
tp1261
a(I178962
I12
tp1262
a(I115905
I12
tp1263
a(I144072
I12
tp1264
a(I196903
I12
tp1265
a(I45275
I12
tp1266
a(I131130
I12
tp1267
a(I20838
I12
tp1268
a(I141163
I12
tp1269
a(I118317
I12
tp1270
a(I143336
I12
tp1271
a(I47687
I12
tp1272
a(I147174
I12
tp1273
a(I188581
I12
tp1274
a(I98380
I12
tp1275
a(I102489
I12
tp1276
a(I91249
I12
tp1277
a(I198377
I12
tp1278
a(I47504
I12
tp1279
a(I60670
I12
tp1280
a(I162637
I12
tp1281
a(I142368
I12
tp1282
a(I24055
I12
tp1283
a(I188445
I12
tp1284
a(I108463
I12
tp1285
a(I185905
I12
tp1286
a(I191771
I12
tp1287
a(I145125
I12
tp1288
a(I145817
I12
tp1289
a(I189183
I12
tp1290
a(I36782
I12
tp1291
a(I72445
I12
tp1292
a(I188418
I12
tp1293
a(I167345
I12
tp1294
a(I11305
I12
tp1295
a(I45004
I12
tp1296
a(I141
I12
tp1297
a(I97940
I12
tp1298
a(I170051
I12
tp1299
a(I64679
I12
tp1300
a(I1622
I12
tp1301
a(I183239
I12
tp1302
a(I124196
I12
tp1303
a(I134867
I12
tp1304
a(I135915
I12
tp1305
a(I132527
I12
tp1306
a(I175966
I12
tp1307
a(I15789
I12
tp1308
a(I13667
I12
tp1309
a(I44385
I12
tp1310
a(I72552
I12
tp1311
a(I59847
I12
tp1312
a(I153070
I12
tp1313
a(I139325
I12
tp1314
a(I40516
I12
tp1315
a(I146419
I12
tp1316
a(I21489
I12
tp1317
a(I48847
I12
tp1318
a(I120525
I12
tp1319
a(I121217
I12
tp1320
a(I26860
I12
tp1321
a(I115261
I12
tp1322
a(I163162
I12
tp1323
a(I199524
I12
tp1324
a(I47640
I12
tp1325
a(I131029
I12
tp1326
a(I8060
I12
tp1327
a(I1292
I12
tp1328
a(I5401
I12
tp1329
a(I63101
I12
tp1330
a(I108916
I12
tp1331
a(I195597
I12
tp1332
a(I132430
I12
tp1333
a(I38952
I12
tp1334
a(I41440
I12
tp1335
a(I58013
I12
tp1336
a(I49240
I12
tp1337
a(I74940
I12
tp1338
a(I111817
I12
tp1339
a(I69839
I12
tp1340
a(I18228
I12
tp1341
a(I194280
I12
tp1342
a(I126710
I12
tp1343
a(I166821
I12
tp1344
a(I29947
I12
tp1345
a(I182477
I12
tp1346
a(I163192
I12
tp1347
a(I150487
I12
tp1348
a(I129675
I12
tp1349
a(I147600
I12
tp1350
a(I125519
I12
tp1351
a(I14334
I12
tp1352
a(I15758
I12
tp1353
a(I7906
I12
tp1354
a(I51964
I12
tp1355
a(I93556
I12
tp1356
a(I134110
I12
tp1357
a(I194003
I12
tp1358
a(I4868
I12
tp1359
a(I35586
I12
tp1360
a(I131275
I12
tp1361
a(I166073
I12
tp1362
a(I187710
I12
tp1363
a(I142221
I12
tp1364
a(I196364
I12
tp1365
a(I46939
I12
tp1366
a(I173599
I12
tp1367
a(I3108
I12
tp1368
a(I141779
I12
tp1369
a(I88038
I12
tp1370
a(I159893
I12
tp1371
a(I128606
I12
tp1372
a(I187491
I12
tp1373
a(I193633
I12
tp1374
a(I186253
I12
tp1375
a(I136921
I12
tp1376
a(I112964
I12
tp1377
a(I186831
I12
tp1378
a(I56968
I12
tp1379
a(I77287
I12
tp1380
a(I72235
I12
tp1381
a(I99321
I12
tp1382
a(I91229
I12
tp1383
a(I152164
I12
tp1384
a(I196371
I12
tp1385
a(I84578
I12
tp1386
a(I151671
I12
tp1387
a(I82731
I12
tp1388
a(I67977
I12
tp1389
a(I121076
I12
tp1390
a(I117672
I12
tp1391
a(I91062
I12
tp1392
a(I101733
I12
tp1393
a(I76812
I12
tp1394
a(I117179
I12
tp1395
a(I188352
I12
tp1396
a(I164398
I12
tp1397
a(I92211
I12
tp1398
a(I19607
I12
tp1399
a(I21148
I12
tp1400
a(I162891
I12
tp1401
a(I93967
I12
tp1402
a(I40643
I12
tp1403
a(I158994
I12
tp1404
a(I58568
I12
tp1405
a(I127783
I12
tp1406
a(I38303
I12
tp1407
a(I64420
I12
tp1408
a(I103330
I12
tp1409
a(I111130
I12
tp1410
a(I90057
I12
tp1411
a(I32624
I12
tp1412
a(I107998
I12
tp1413
a(I93748
I12
tp1414
a(I198194
I12
tp1415
a(I86693
I12
tp1416
a(I145578
I12
tp1417
a(I10350
I12
tp1418
a(I114291
I12
tp1419
a(I68802
I12
tp1420
a(I114566
I12
tp1421
a(I191376
I12
tp1422
a(I79183
I12
tp1423
a(I177825
I12
tp1424
a(I156161
I12
tp1425
a(I23553
I12
tp1426
a(I41494
I12
tp1427
a(I21962
I12
tp1428
a(I98169
I12
tp1429
a(I80863
I12
tp1430
a(I135159
I12
tp1431
a(I141478
I12
tp1432
a(I5628
I12
tp1433
a(I116333
I12
tp1434
a(I141096
I12
tp1435
a(I52970
I12
tp1436
a(I85245
I12
tp1437
a(I20994
I12
tp1438
a(I148934
I12
tp1439
a(I11211
I12
tp1440
a(I94861
I12
tp1441
a(I172180
I12
tp1442
a(I22674
I12
tp1443
a(I25153
I12
tp1444
a(I51286
I12
tp1445
a(I191182
I12
tp1446
a(I98022
I12
tp1447
a(I170901
I12
tp1448
a(I161711
I12
tp1449
a(I139105
I12
tp1450
a(I124278
I12
tp1451
a(I7693
I12
tp1452
a(I100334
I12
tp1453
a(I4669
I12
tp1454
a(I180292
I12
tp1455
a(I99825
I12
tp1456
a(I168835
I12
tp1457
a(I178414
I12
tp1458
a(I11001
I12
tp1459
a(I130404
I12
tp1460
a(I198163
I12
tp1461
a(I162679
I12
tp1462
a(I158251
I12
tp1463
a(I112602
I12
tp1464
a(I123143
I12
tp1465
a(I96012
I12
tp1466
a(I50969
I12
tp1467
a(I124608
I12
tp1468
a(I98431
I12
tp1469
a(I65922
I12
tp1470
a(I79375
I12
tp1471
a(I171028
I12
tp1472
a(I47555
I12
tp1473
a(I78866
I12
tp1474
a(I104999
I12
tp1475
a(I120458
I12
tp1476
a(I181838
I12
tp1477
a(I21661
I12
tp1478
a(I94884
I12
tp1479
a(I80546
I12
tp1480
a(I115793
I12
tp1481
a(I131255
I12
tp1482
a(I30485
I12
tp1483
a(I82558
I12
tp1484
a(I110699
I12
tp1485
a(I74543
I12
tp1486
a(I150750
I12
tp1487
a(I154413
I12
tp1488
a(I35124
I12
tp1489
a(I21219
I12
tp1490
a(I41266
I12
tp1491
a(I115626
I12
tp1492
a(I180669
I12
tp1493
a(I176135
I12
tp1494
a(I50822
I12
tp1495
a(I155701
I12
tp1496
a(I33756
I12
tp1497
a(I128570
I12
tp1498
a(I41556
I12
tp1499
a(I118531
I12
tp1500
a(I197163
I12
tp1501
a(I41063
I12
tp1502
a(I13932
I12
tp1503
a(I31946
I12
tp1504
a(I34425
I12
tp1505
a(I180959
I12
tp1506
a(I96989
I12
tp1507
a(I28049
I12
tp1508
a(I25434
I12
tp1509
a(I101385
I12
tp1510
a(I188781
I12
tp1511
a(I56455
I12
tp1512
a(I124470
I12
tp1513
a(I197605
I12
tp1514
a(I27114
I12
tp1515
a(I195842
I12
tp1516
a(I160459
I12
tp1517
a(I7290
I12
tp1518
a(I134974
I12
tp1519
a(I80901
I12
tp1520
a(I194907
I12
tp1521
a(I44985
I12
tp1522
a(I170874
I12
tp1523
a(I141127
I12
tp1524
a(I46033
I12
tp1525
a(I82166
I12
tp1526
a(I116688
I12
tp1527
a(I100506
I12
tp1528
a(I178270
I12
tp1529
a(I91316
I12
tp1530
a(I42593
I12
tp1531
a(I142870
I12
tp1532
a(I170125
I12
tp1533
a(I197442
I12
tp1534
a(I111110
I12
tp1535
a(I188341
I12
tp1536
a(I98140
I12
tp1537
a(I93712
I12
tp1538
a(I54654
I12
tp1539
a(I142614
I12
tp1540
a(I54877
I12
tp1541
a(I14104
I12
tp1542
a(I164471
I12
tp1543
a(I26748
I12
tp1544
a(I188122
I12
tp1545
a(I2804
I12
tp1546
a(I22435
I12
tp1547
a(I100359
I12
tp1548
a(I7692
I12
tp1549
a(I98752
I12
tp1550
a(I94769
I12
tp1551
a(I96958
I12
tp1552
a(I75540
I12
tp1553
a(I114883
I12
tp1554
a(I42279
I12
tp1555
a(I154763
I12
tp1556
a(I185563
I12
tp1557
a(I6969
I12
tp1558
a(I155982
I12
tp1559
a(I130973
I12
tp1560
a(I175524
I12
tp1561
a(I161126
I12
tp1562
a(I38878
I12
tp1563
a(I116786
I12
tp1564
a(I60074
I12
tp1565
a(I105070
I12
tp1566
a(I18116
I12
tp1567
a(I71793
I12
tp1568
a(I101173
I12
tp1569
a(I80617
I12
tp1570
a(I12741
I12
tp1571
a(I86380
I12
tp1572
a(I93154
I12
tp1573
a(I42069
I12
tp1574
a(I155723
I12
tp1575
a(I198765
I12
tp1576
a(I176362
I12
tp1577
a(I130368
I12
tp1578
a(I107438
I12
tp1579
a(I27652
I12
tp1580
a(I199091
I12
tp1581
a(I41393
I12
tp1582
a(I158231
I12
tp1583
a(I79814
I12
tp1584
a(I61468
I12
tp1585
a(I25552
I12
tp1586
a(I103060
I12
tp1587
a(I15427
I12
tp1588
a(I176927
I12
tp1589
a(I137508
I12
tp1590
a(I8915
I12
tp1591
a(I11945
I12
tp1592
a(I166104
I12
tp1593
a(I139494
I12
tp1594
a(I118352
I12
tp1595
a(I119706
I12
tp1596
a(I22487
I12
tp1597
a(I53677
I12
tp1598
a(I108466
I12
tp1599
a(I181802
I12
tp1600
a(I54313
I12
tp1601
a(I640
I12
tp1602
a(I99932
I12
tp1603
a(I85178
I12
tp1604
a(I71273
I12
tp1605
a(I19149
I12
tp1606
a(I20690
I12
tp1607
a(I97665
I12
tp1608
a(I105721
I12
tp1609
a(I180128
I12
tp1610
a(I29021
I12
tp1611
a(I149523
I12
tp1612
a(I83810
I12
tp1613
a(I122897
I12
tp1614
a(I56363
I12
tp1615
a(I107056
I12
tp1616
a(I157854
I12
tp1617
a(I59373
I12
tp1618
a(I118258
I12
tp1619
a(I136865
I12
tp1620
a(I112908
I12
tp1621
a(I43200
I12
tp1622
a(I191101
I12
tp1623
a(I25907
I12
tp1624
a(I143260
I12
tp1625
a(I1470
I12
tp1626
a(I183828
I12
tp1627
a(I91666
I12
tp1628
a(I146984
I12
tp1629
a(I198301
I12
tp1630
a(I112917
I12
tp1631
a(I48862
I12
tp1632
a(I184972
I12
tp1633
a(I175396
I12
tp1634
a(I131830
I12
tp1635
a(I12197
I12
tp1636
a(I122713
I12
tp1637
a(I32256
I12
tp1638
a(I13245
I12
tp1639
a(I126935
I12
tp1640
a(I166022
I12
tp1641
a(I34568
I12
tp1642
a(I37479
I12
tp1643
a(I34075
I12
tp1644
a(I44746
I12
tp1645
a(I182393
I12
tp1646
a(I151950
I12
tp1647
a(I109789
I12
tp1648
a(I28412
I12
tp1649
a(I54618
I12
tp1650
a(I181278
I12
tp1651
a(I164212
I12
tp1652
a(I147003
I12
tp1653
a(I107007
I12
tp1654
a(I84654
I12
tp1655
a(I12034
I12
tp1656
a(I51377
I12
tp1657
a(I140984
I12
tp1658
a(I161909
I12
tp1659
a(I133840
I12
tp1660
a(I179604
I12
tp1661
a(I83779
I12
tp1662
a(I21906
I12
tp1663
a(I179111
I12
tp1664
a(I50518
I12
tp1665
a(I65964
I12
tp1666
a(I95242
I12
tp1667
a(I176480
I12
tp1668
a(I160285
I12
tp1669
a(I85459
I12
tp1670
a(I153634
I12
tp1671
a(I125971
I12
tp1672
a(I169109
I12
tp1673
a(I144444
I12
tp1674
a(I162458
I12
tp1675
a(I16559
I12
tp1676
a(I22196
I12
tp1677
a(I125025
I12
tp1678
a(I146124
I12
tp1679
a(I90410
I12
tp1680
a(I63295
I12
tp1681
a(I89412
I12
tp1682
a(I23383
I12
tp1683
a(I25606
I12
tp1684
a(I197045
I12
tp1685
a(I51723
I12
tp1686
a(I6074
I12
tp1687
a(I136082
I12
tp1688
a(I97743
I12
tp1689
a(I136653
I12
tp1690
a(I27286
I12
tp1691
a(I36110
I12
tp1692
a(I168723
I12
tp1693
a(I101137
I12
tp1694
a(I80597
I12
tp1695
a(I55932
I12
tp1696
a(I77193
I12
tp1697
a(I38639
I12
tp1698
a(I144286
I12
tp1699
a(I190811
I12
tp1700
a(I20505
I12
tp1701
a(I160704
I12
tp1702
a(I108078
I12
tp1703
a(I57988
I12
tp1704
a(I72322
I12
tp1705
a(I37432
I12
tp1706
a(I153589
I12
tp1707
a(I65810
I12
tp1708
a(I197003
I12
tp1709
a(I35231
I12
tp1710
a(I7607
I12
tp1711
a(I182241
I12
tp1712
a(I154956
I12
tp1713
a(I163911
I12
tp1714
a(I128677
I12
tp1715
a(I13307
I12
tp1716
a(I178296
I12
tp1717
a(I119686
I12
tp1718
a(I138460
I12
tp1719
a(I145803
I12
tp1720
a(I69520
I12
tp1721
a(I29438
I12
tp1722
a(I186371
I12
tp1723
a(I22354
I12
tp1724
a(I159745
I12
tp1725
a(I84426
I12
tp1726
a(I155615
I12
tp1727
a(I194525
I12
tp1728
a(I180809
I12
tp1729
a(I87192
I12
tp1730
a(I2556
I12
tp1731
a(I195674
I12
tp1732
a(I137481
I12
tp1733
a(I14512
I12
tp1734
a(I28446
I12
tp1735
a(I128291
I12
tp1736
a(I126241
I12
tp1737
a(I176490
I12
tp1738
a(I187908
I12
tp1739
a(I128514
I12
tp1740
a(I136113
I12
tp1741
a(I154647
I12
tp1742
a(I197493
I12
tp1743
a(I151499
I12
tp1744
a(I87504
I12
tp1745
a(I34369
I12
tp1746
a(I160840
I12
tp1747
a(I161530
I12
tp1748
a(I102094
I12
tp1749
a(I30955
I12
tp1750
a(I1434
I12
tp1751
a(I77641
I12
tp1752
a(I20208
I12
tp1753
a(I131015
I12
tp1754
a(I40511
I12
tp1755
a(I177725
I12
tp1756
a(I69382
I12
tp1757
a(I70923
I12
tp1758
a(I81594
I12
tp1759
a(I24992
I12
tp1760
a(I189060
I12
tp1761
a(I106359
I12
tp1762
a(I91379
I12
tp1763
a(I148949
I12
tp1764
a(I167467
I12
tp1765
a(I153221
I12
tp1766
a(I160905
I12
tp1767
a(I67572
I12
tp1768
a(I55457
I12
tp1769
a(I97049
I12
tp1770
a(I121981
I12
tp1771
a(I162272
I12
tp1772
a(I181498
I12
tp1773
a(I43535
I12
tp1774
a(I16909
I12
tp1775
a(I192348
I12
tp1776
a(I156805
I12
tp1777
a(I103481
I12
tp1778
a(I84125
I12
tp1779
a(I130921
I12
tp1780
a(I161873
I12
tp1781
a(I142644
I12
tp1782
a(I4517
I12
tp1783
a(I104536
I12
tp1784
a(I131417
I12
tp1785
a(I5489
I12
tp1786
a(I112617
I12
tp1787
a(I162258
I12
tp1788
a(I7678
I12
tp1789
a(I90390
I12
tp1790
a(I133829
I12
tp1791
a(I19684
I12
tp1792
a(I91362
I12
tp1793
a(I163243
I12
tp1794
a(I132954
I12
tp1795
a(I148400
I12
tp1796
a(I112158
I12
tp1797
a(I66925
I12
tp1798
a(I95092
I12
tp1799
a(I72739
I12
tp1800
a(I18060
I12
tp1801
a(I30980
I12
tp1802
a(I102658
I12
tp1803
a(I47793
I12
tp1804
a(I92344
I12
tp1805
a(I59159
I12
tp1806
a(I104847
I12
tp1807
a(I20705
I12
tp1808
a(I74049
I12
tp1809
a(I106312
I12
tp1810
a(I134175
I12
tp1811
a(I74781
I12
tp1812
a(I168484
I12
tp1813
a(I15846
I12
tp1814
a(I104628
I12
tp1815
a(I13947
I12
tp1816
a(I97933
I12
tp1817
a(I8064
I12
tp1818
a(I47423
I12
tp1819
a(I20797
I12
tp1820
a(I10483
I12
tp1821
a(I122662
I12
tp1822
a(I136028
I12
tp1823
a(I80907
I12
tp1824
a(I55738
I12
tp1825
a(I528
I12
tp1826
a(I155267
I12
tp1827
a(I63105
I12
tp1828
a(I2208
I12
tp1829
a(I130830
I12
tp1830
a(I84573
I12
tp1831
a(I115987
I12
tp1832
a(I82726
I12
tp1833
a(I139145
I12
tp1834
a(I127213
I12
tp1835
a(I77556
I12
tp1836
a(I34673
I12
tp1837
a(I197145
I12
tp1838
a(I183426
I12
tp1839
a(I88359
I12
tp1840
a(I97183
I12
tp1841
a(I99662
I12
tp1842
a(I103325
I12
tp1843
a(I180644
I12
tp1844
a(I127320
I12
tp1845
a(I92518
I12
tp1846
a(I176661
I12
tp1847
a(I21948
I12
tp1848
a(I35806
I12
tp1849
a(I2529
I12
tp1850
a(I190440
I12
tp1851
a(I106486
I12
tp1852
a(I69943
I12
tp1853
a(I199869
I12
tp1854
a(I94608
I12
tp1855
a(I61287
I12
tp1856
a(I54725
I12
tp1857
a(I7707
I12
tp1858
a(I148857
I12
tp1859
a(I66015
I12
tp1860
a(I38884
I12
tp1861
a(I109677
I12
tp1862
a(I167688
I12
tp1863
a(I111218
I12
tp1864
a(I2875
I12
tp1865
a(I196900
I12
tp1866
a(I135488
I12
tp1867
a(I21245
I12
tp1868
a(I163844
I12
tp1869
a(I110003
I12
tp1870
a(I148913
I12
tp1871
a(I3607
I12
tp1872
a(I198608
I12
tp1873
a(I46478
I12
tp1874
a(I107611
I12
tp1875
a(I147722
I12
tp1876
a(I125625
I12
tp1877
a(I192718
I12
tp1878
a(I50899
I12
tp1879
a(I54562
I12
tp1880
a(I163537
I12
tp1881
a(I194458
I12
tp1882
a(I155055
I12
tp1883
a(I157534
I12
tp1884
a(I172980
I12
tp1885
a(I25953
I12
tp1886
a(I150390
I12
tp1887
a(I1005
I12
tp1888
a(I112588
I12
tp1889
a(I96810
I12
tp1890
a(I75392
I12
tp1891
a(I194621
I12
tp1892
a(I55800
I12
tp1893
a(I39605
I12
tp1894
a(I83723
I12
tp1895
a(I11536
I12
tp1896
a(I764
I12
tp1897
a(I110878
I12
tp1898
a(I131397
I12
tp1899
a(I169802
I12
tp1900
a(I132622
I12
tp1901
a(I5469
I12
tp1902
a(I50020
I12
tp1903
a(I93203
I12
tp1904
a(I129890
I12
tp1905
a(I160280
I12
tp1906
a(I192555
I12
tp1907
a(I84468
I12
tp1908
a(I115612
I12
tp1909
a(I176309
I12
tp1910
a(I127824
I12
tp1911
a(I123412
I12
tp1912
a(I57383
I12
tp1913
a(I87685
I12
tp1914
a(I83513
I12
tp1915
a(I96736
I12
tp1916
a(I32930
I12
tp1917
a(I6232
I12
tp1918
a(I99947
I12
tp1919
a(I2351
I12
tp1920
a(I21214
I12
tp1921
a(I73524
I12
tp1922
a(I86241
I12
tp1923
a(I161406
I12
tp1924
a(I10666
I12
tp1925
a(I81855
I12
tp1926
a(I116593
I12
tp1927
a(I111992
I12
tp1928
a(I155523
I12
tp1929
a(I83455
I12
tp1930
a(I178049
I12
tp1931
a(I80648
I12
tp1932
a(I144999
I12
tp1933
a(I17098
I12
tp1934
a(I167712
I12
tp1935
a(I174852
I12
tp1936
a(I171414
I12
tp1937
a(I22950
I12
tp1938
a(I58197
I12
tp1939
a(I53616
I12
tp1940
a(I143275
I12
tp1941
a(I194590
I12
tp1942
a(I52278
I12
tp1943
a(I17919
I12
tp1944
a(I76548
I12
tp1945
a(I172590
I12
tp1946
a(I60593
I12
tp1947
a(I186571
I12
tp1948
a(I77520
I12
tp1949
a(I119188
I12
tp1950
a(I115016
I12
tp1951
a(I197125
I12
tp1952
a(I170449
I12
tp1953
a(I30680
I12
tp1954
a(I121840
I12
tp1955
a(I189615
I12
tp1956
a(I69214
I12
tp1957
a(I7341
I12
tp1958
a(I159039
I12
tp1959
a(I96872
I12
tp1960
a(I48933
I12
tp1961
a(I115072
I12
tp1962
a(I144622
I12
tp1963
a(I105203
I12
tp1964
a(I173145
I12
tp1965
a(I101306
I12
tp1966
a(I124884
I12
tp1967
a(I139218
I12
tp1968
a(I14465
I12
tp1969
a(I71304
I12
tp1970
a(I136747
I12
tp1971
a(I99423
I12
tp1972
a(I80989
I12
tp1973
a(I125540
I12
tp1974
a(I13606
I12
tp1975
a(I97916
I12
tp1976
a(I173274
I12
tp1977
a(I179619
I12
tp1978
a(I21921
I12
tp1979
a(I91148
I12
tp1980
a(I76650
I12
tp1981
a(I95257
I12
tp1982
a(I153649
I12
tp1983
a(I191132
I12
tp1984
a(I144459
I12
tp1985
a(I168760
I12
tp1986
a(I2855
I12
tp1987
a(I54486
I12
tp1988
a(I51082
I12
tp1989
a(I155961
I12
tp1990
a(I32992
I12
tp1991
a(I95926
I12
tp1992
a(I69008
I12
tp1993
a(I41323
I12
tp1994
a(I86063
I12
tp1995
a(I130526
I12
tp1996
a(I108084
I12
tp1997
a(I50879
I12
tp1998
a(I61041
I12
tp1999
a(I69941
I12
tp2000
a(I233
I12
tp2001
a(I158759
I12
tp2002
a(I52559
I12
tp2003
a(I91469
I12
tp2004
a(I52050
I12
tp2005
a(I53607
I12
tp2006
a(I197008
I12
tp2007
a(I16411
I12
tp2008
a(I185888
I12
tp2009
a(I58003
I12
tp2010
a(I127458
I12
tp2011
a(I84120
I12
tp2012
a(I69722
I12
tp2013
a(I91759
I12
tp2014
a(I131870
I12
tp2015
a(I54156
I12
tp2016
a(I130363
I12
tp2017
a(I34538
I12
tp2018
a(I17216
I12
tp2019
a(I42869
I12
tp2020
a(I83484
I12
tp2021
a(I134522
I12
tp2022
a(I30868
I12
tp2023
a(I164419
I12
tp2024
a(I47681
I12
tp2025
a(I190119
I12
tp2026
a(I176906
I12
tp2027
a(I144660
I12
tp2028
a(I12573
I12
tp2029
a(I7403
I12
tp2030
a(I114469
I12
tp2031
a(I181065
I12
tp2032
a(I116261
I12
tp2033
a(I99195
I12
tp2034
a(I51673
I12
tp2035
a(I93276
I12
tp2036
a(I40720
I12
tp2037
a(I80079
I12
tp2038
a(I17022
I12
tp2039
a(I3796
I12
tp2040
a(I9938
I12
tp2041
a(I4615
I12
tp2042
a(I176520
I12
tp2043
a(I168107
I12
tp2044
a(I127813
I12
tp2045
a(I34208
I12
tp2046
a(I175967
I12
tp2047
a(I83805
I12
tp2048
a(I79204
I12
tp2049
a(I170739
I12
tp2050
a(I92297
I12
tp2051
a(I87535
I12
tp2052
a(I97441
I12
tp2053
a(I60517
I12
tp2054
a(I62058
I12
tp2055
a(I119434
I12
tp2056
a(I22655
I12
tp2057
a(I106884
I12
tp2058
a(I37621
I12
tp2059
a(I99753
I12
tp2060
a(I167538
I12
tp2061
a(I19983
I12
tp2062
a(I85010
I12
tp2063
a(I198221
I12
tp2064
a(I121015
I12
tp2065
a(I25190
I12
tp2066
a(I94440
I12
tp2067
a(I75097
I12
tp2068
a(I6589
I12
tp2069
a(I128964
I12
tp2070
a(I28610
I12
tp2071
a(I7814
I12
tp2072
a(I109545
I12
tp2073
a(I129620
I12
tp2074
a(I135762
I12
tp2075
a(I147201
I12
tp2076
a(I20076
I12
tp2077
a(I144586
I12
tp2078
a(I171012
I12
tp2079
a(I140689
I12
tp2080
a(I118422
I12
tp2081
a(I126711
I12
tp2082
a(I82544
I12
tp2083
a(I160770
I12
tp2084
a(I43550
I12
tp2085
a(I176163
I12
tp2086
a(I139754
I12
tp2087
a(I92736
I12
tp2088
a(I194384
I12
tp2089
a(I151726
I12
tp2090
a(I35531
I12
tp2091
a(I21626
I12
tp2092
a(I116542
I12
tp2093
a(I109891
I12
tp2094
a(I181569
I12
tp2095
a(I111432
I12
tp2096
a(I1888
I12
tp2097
a(I40991
I12
tp2098
a(I88093
I12
tp2099
a(I46628
I12
tp2100
a(I119763
I12
tp2101
a(I96917
I12
tp2102
a(I82074
I12
tp2103
a(I146575
I12
tp2104
a(I54450
I12
tp2105
a(I76904
I12
tp2106
a(I26350
I12
tp2107
a(I85235
I12
tp2108
a(I177446
I12
tp2109
a(I172375
I12
tp2110
a(I38837
I12
tp2111
a(I108048
I12
tp2112
a(I193155
I12
tp2113
a(I180690
I12
tp2114
a(I22664
I12
tp2115
a(I24650
I12
tp2116
a(I134649
I12
tp2117
a(I11424
I12
tp2118
a(I98471
I12
tp2119
a(I4369
I12
tp2120
a(I59174
I12
tp2121
a(I196821
I12
tp2122
a(I41084
I12
tp2123
a(I118059
I12
tp2124
a(I163055
I12
tp2125
a(I64242
I12
tp2126
a(I30120
I12
tp2127
a(I46949
I12
tp2128
a(I40298
I12
tp2129
a(I35886
I12
tp2130
a(I36934
I12
tp2131
a(I33037
I12
tp2132
a(I130836
I12
tp2133
a(I6339
I12
tp2134
a(I12481
I12
tp2135
a(I165590
I12
tp2136
a(I74629
I12
tp2137
a(I157092
I12
tp2138
a(I134995
I12
tp2139
a(I91063
I12
tp2140
a(I51644
I12
tp2141
a(I103275
I12
tp2142
a(I26676
I12
tp2143
a(I105448
I12
tp2144
a(I89253
I12
tp2145
a(I73412
I12
tp2146
a(I135398
I12
tp2147
a(I40151
I12
tp2148
a(I156380
I12
tp2149
a(I116225
I12
tp2150
a(I155594
I12
tp2151
a(I52878
I12
tp2152
a(I166391
I12
tp2153
a(I69296
I12
tp2154
a(I95518
I12
tp2155
a(I193132
I12
tp2156
a(I186417
I12
tp2157
a(I193374
I12
tp2158
a(I12091
I12
tp2159
a(I5529
I12
tp2160
a(I49076
I12
tp2161
a(I32634
I12
tp2162
a(I31885
I12
tp2163
a(I121416
I12
tp2164
a(I177227
I12
tp2165
a(I40709
I12
tp2166
a(I44640
I12
tp2167
a(I103630
I12
tp2168
a(I63718
I12
tp2169
a(I93082
I12
tp2170
a(I177481
I12
tp2171
a(I61871
I12
tp2172
a(I199018
I12
tp2173
a(I80857
I12
tp2174
a(I55936
I12
tp2175
a(I103159
I12
tp2176
a(I19012
I12
tp2177
a(I135153
I12
tp2178
a(I103686
I12
tp2179
a(I66253
I12
tp2180
a(I7555
I12
tp2181
a(I190674
I12
tp2182
a(I85324
I12
tp2183
a(I188827
I12
tp2184
a(I177213
I12
tp2185
a(I37215
I12
tp2186
a(I101159
I12
tp2187
a(I2397
I12
tp2188
a(I163859
I12
tp2189
a(I169496
I12
tp2190
a(I12762
I12
tp2191
a(I139422
I12
tp2192
a(I99826
I12
tp2193
a(I191239
I12
tp2194
a(I177334
I12
tp2195
a(I160012
I12
tp2196
a(I107626
I12
tp2197
a(I24768
I12
tp2198
a(I122967
I12
tp2199
a(I4996
I12
tp2200
a(I35714
I12
tp2201
a(I63401
I12
tp2202
a(I12303
I12
tp2203
a(I154561
I12
tp2204
a(I66599
I12
tp2205
a(I105952
I12
tp2206
a(I35511
I12
tp2207
a(I21606
I12
tp2208
a(I178448
I12
tp2209
a(I155849
I12
tp2210
a(I112
I12
tp2211
a(I175407
I12
tp2212
a(I194270
I12
tp2213
a(I192037
I12
tp2214
a(I182331
I12
tp2215
a(I132940
I12
tp2216
a(I5977
I12
tp2217
a(I21439
I12
tp2218
a(I163182
I12
tp2219
a(I7657
I12
tp2220
a(I15504
I12
tp2221
a(I65101
I12
tp2222
a(I133052
I12
tp2223
a(I155905
I12
tp2224
a(I172395
I12
tp2225
a(I152573
I12
tp2226
a(I8992
I12
tp2227
a(I150751
I12
tp2228
a(I181266
I12
tp2229
a(I38801
I12
tp2230
a(I97702
I12
tp2231
a(I132949
I12
tp2232
a(I46601
I12
tp2233
a(I39966
I12
tp2234
a(I188963
I12
tp2235
a(I39457
I12
tp2236
a(I116359
I12
tp2237
a(I57398
I12
tp2238
a(I194107
I12
tp2239
a(I37866
I12
tp2240
a(I96767
I12
tp2241
a(I173620
I12
tp2242
a(I77941
I12
tp2243
a(I82640
I12
tp2244
a(I198541
I12
tp2245
a(I40771
I12
tp2246
a(I124232
I12
tp2247
a(I138582
I12
tp2248
a(I166922
I12
tp2249
a(I43449
I12
tp2250
a(I117088
I12
tp2251
a(I198099
I12
tp2252
a(I15825
I12
tp2253
a(I164838
I12
tp2254
a(I117820
I12
tp2255
a(I198755
I12
tp2256
a(I41057
I12
tp2257
a(I177782
I12
tp2258
a(I105595
I12
tp2259
a(I25984
I12
tp2260
a(I102207
I12
tp2261
a(I22257
I12
tp2262
a(I55733
I12
tp2263
a(I110522
I12
tp2264
a(I18793
I12
tp2265
a(I48317
I12
tp2266
a(I144338
I12
tp2267
a(I154753
I12
tp2268
a(I53834
I12
tp2269
a(I196601
I12
tp2270
a(I101988
I12
tp2271
a(I75362
I12
tp2272
a(I78104
I12
tp2273
a(I101495
I12
tp2274
a(I29397
I12
tp2275
a(I99632
I12
tp2276
a(I147376
I12
tp2277
a(I184739
I12
tp2278
a(I109810
I12
tp2279
a(I182689
I12
tp2280
a(I20330
I12
tp2281
a(I124953
I12
tp2282
a(I183677
I12
tp2283
a(I47748
I12
tp2284
a(I16966
I12
tp2285
a(I114256
I12
tp2286
a(I62221
I12
tp2287
a(I55570
I12
tp2288
a(I57051
I12
tp2289
a(I134173
I12
tp2290
a(I132409
I12
tp2291
a(I107744
I12
tp2292
a(I82335
I12
tp2293
a(I60238
I12
tp2294
a(I96669
I12
tp2295
a(I55204
I12
tp2296
a(I53154
I12
tp2297
a(I28186
I12
tp2298
a(I88628
I12
tp2299
a(I92131
I12
tp2300
a(I48750
I12
tp2301
a(I189942
I12
tp2302
a(I134821
I12
tp2303
a(I5290
I12
tp2304
a(I4797
I12
tp2305
a(I95863
I12
tp2306
a(I85719
I12
tp2307
a(I93062
I12
tp2308
a(I87260
I12
tp2309
a(I9449
I12
tp2310
a(I6477
I12
tp2311
a(I4099
I12
tp2312
a(I28498
I12
tp2313
a(I26120
I12
tp2314
a(I43897
I12
tp2315
a(I38917
I12
tp2316
a(I38879
I12
tp2317
a(I45198
I12
tp2318
a(I132755
I12
tp2319
a(I71138
I12
tp2320
a(I130039
I12
tp2321
a(I78320
I12
tp2322
a(I46170
I12
tp2323
a(I4904
I12
tp2324
a(I194444
I12
tp2325
a(I124736
I12
tp2326
a(I14589
I12
tp2327
a(I177075
I12
tp2328
a(I175025
I12
tp2329
a(I86854
I12
tp2330
a(I23413
I12
tp2331
a(I126416
I12
tp2332
a(I86078
I12
tp2333
a(I11917
I12
tp2334
a(I13458
I12
tp2335
a(I68680
I12
tp2336
a(I162123
I12
tp2337
a(I49413
I12
tp2338
a(I68187
I12
tp2339
a(I94393
I12
tp2340
a(I87325
I12
tp2341
a(I66340
I12
tp2342
a(I142547
I12
tp2343
a(I159657
I12
tp2344
a(I17617
I12
tp2345
a(I144088
I12
tp2346
a(I123539
I12
tp2347
a(I161685
I12
tp2348
a(I110827
I12
tp2349
a(I183646
I12
tp2350
a(I2484
I12
tp2351
a(I131085
I12
tp2352
a(I68736
I12
tp2353
a(I88563
I12
tp2354
a(I54338
I12
tp2355
a(I143352
I12
tp2356
a(I50950
I12
tp2357
a(I123061
I12
tp2358
a(I128698
I12
tp2359
a(I91774
I12
tp2360
a(I41684
I12
tp2361
a(I187090
I12
tp2362
a(I75637
I12
tp2363
a(I76526
I12
tp2364
a(I183702
I12
tp2365
a(I38725
I12
tp2366
a(I115551
I12
tp2367
a(I55320
I12
tp2368
a(I87927
I12
tp2369
a(I7637
I12
tp2370
a(I48508
I12
tp2371
a(I91098
I12
tp2372
a(I182767
I12
tp2373
a(I26223
I12
tp2374
a(I90605
I12
tp2375
a(I129737
I12
tp2376
a(I30706
I12
tp2377
a(I70781
I12
tp2378
a(I27974
I12
tp2379
a(I43420
I12
tp2380
a(I138490
I12
tp2381
a(I186704
I12
tp2382
a(I25103
I12
tp2383
a(I69566
I12
tp2384
a(I97224
I12
tp2385
a(I96731
I12
tp2386
a(I20448
I12
tp2387
a(I195767
I12
tp2388
a(I67866
I12
tp2389
a(I58676
I12
tp2390
a(I84300
I12
tp2391
a(I103163
I12
tp2392
a(I132842
I12
tp2393
a(I179645
I12
tp2394
a(I111987
I12
tp2395
a(I159376
I12
tp2396
a(I2127
I12
tp2397
a(I73805
I12
tp2398
a(I168555
I12
tp2399
a(I57964
I12
tp2400
a(I134939
I12
tp2401
a(I10442
I12
tp2402
a(I66788
I12
tp2403
a(I33527
I12
tp2404
a(I79275
I12
tp2405
a(I7088
I12
tp2406
a(I122221
I12
tp2407
a(I113192
I12
tp2408
a(I138892
I12
tp2409
a(I176151
I12
tp2410
a(I12548
I12
tp2411
a(I154291
I12
tp2412
a(I76034
I12
tp2413
a(I127665
I12
tp2414
a(I108405
I12
tp2415
a(I197426
I12
tp2416
a(I162622
I12
tp2417
a(I24466
I12
tp2418
a(I31041
I12
tp2419
a(I28625
I12
tp2420
a(I122328
I12
tp2421
a(I7829
I12
tp2422
a(I56299
I12
tp2423
a(I182959
I12
tp2424
a(I182450
I12
tp2425
a(I155335
I12
tp2426
a(I42188
I12
tp2427
a(I60202
I12
tp2428
a(I129172
I12
tp2429
a(I57587
I12
tp2430
a(I80745
I12
tp2431
a(I26575
I12
tp2432
a(I73677
I12
tp2433
a(I80654
I12
tp2434
a(I178753
I12
tp2435
a(I45355
I12
tp2436
a(I179781
I12
tp2437
a(I96923
I12
tp2438
a(I107453
I12
tp2439
a(I139769
I12
tp2440
a(I82080
I12
tp2441
a(I131677
I12
tp2442
a(I28772
I12
tp2443
a(I40211
I12
tp2444
a(I125026
I12
tp2445
a(I13585
I12
tp2446
a(I74965
I12
tp2447
a(I90411
I12
tp2448
a(I166618
I12
tp2449
a(I135407
I12
tp2450
a(I155887
I12
tp2451
a(I35053
I12
tp2452
a(I158120
I12
tp2453
a(I33206
I12
tp2454
a(I6075
I12
tp2455
a(I78186
I12
tp2456
a(I126084
I12
tp2457
a(I79411
I12
tp2458
a(I110129
I12
tp2459
a(I46150
I12
tp2460
a(I49321
I12
tp2461
a(I24656
I12
tp2462
a(I120510
I12
tp2463
a(I81091
I12
tp2464
a(I166674
I12
tp2465
a(I152769
I12
tp2466
a(I197320
I12
tp2467
a(I69927
I12
tp2468
a(I167563
I12
tp2469
a(I131291
I12
tp2470
a(I142730
I12
tp2471
a(I142237
I12
tp2472
a(I35892
I12
tp2473
a(I109027
I12
tp2474
a(I49128
I12
tp2475
a(I131840
I12
tp2476
a(I63086
I12
tp2477
a(I190261
I12
tp2478
a(I107403
I12
tp2479
a(I119631
I12
tp2480
a(I82435
I12
tp2481
a(I75784
I12
tp2482
a(I180246
I12
tp2483
a(I167276
I12
tp2484
a(I122520
I12
tp2485
a(I77303
I12
tp2486
a(I78844
I12
tp2487
a(I89259
I12
tp2488
a(I33545
I12
tp2489
a(I59678
I12
tp2490
a(I169761
I12
tp2491
a(I116008
I12
tp2492
a(I185223
I12
tp2493
a(I130358
I12
tp2494
a(I132837
I12
tp2495
a(I174400
I12
tp2496
a(I84920
I12
tp2497
a(I167285
I12
tp2498
a(I48169
I12
tp2499
a(I24528
I12
tp2500
a(I63631
I12
tp2501
a(I199512
I12
tp2502
a(I192287
I12
tp2503
a(I166094
I12
tp2504
a(I1821
I12
tp2505
a(I29988
I12
tp2506
a(I27938
I12
tp2507
a(I14033
I12
tp2508
a(I156888
I12
tp2509
a(I127799
I12
tp2510
a(I51440
I12
tp2511
a(I16222
I12
tp2512
a(I132451
I12
tp2513
a(I136114
I12
tp2514
a(I99190
I12
tp2515
a(I90073
I12
tp2516
a(I32384
I12
tp2517
a(I38975
I12
tp2518
a(I108014
I12
tp2519
a(I74737
I12
tp2520
a(I152998
I12
tp2521
a(I150723
I12
tp2522
a(I21173
I12
tp2523
a(I58640
I12
tp2524
a(I199890
I12
tp2525
a(I129963
I12
tp2526
a(I165210
I12
tp2527
a(I39287
I12
tp2528
a(I152764
I12
tp2529
a(I20437
I12
tp2530
a(I120282
I12
tp2531
a(I80879
I12
tp2532
a(I29285
I12
tp2533
a(I81595
I12
tp2534
a(I181885
I12
tp2535
a(I110964
I12
tp2536
a(I151859
I12
tp2537
a(I44930
I12
tp2538
a(I7068
I12
tp2539
a(I149771
I12
tp2540
a(I93829
I12
tp2541
a(I109531
I12
tp2542
a(I156750
I12
tp2543
a(I46268
I12
tp2544
a(I1225
I12
tp2545
a(I47311
I12
tp2546
a(I17548
I12
tp2547
a(I191313
I12
tp2548
a(I50920
I12
tp2549
a(I120135
I12
tp2550
a(I98038
I12
tp2551
a(I101209
I12
tp2552
a(I126909
I12
tp2553
a(I155076
I12
tp2554
a(I139121
I12
tp2555
a(I36405
I12
tp2556
a(I111081
I12
tp2557
a(I141010
I12
tp2558
a(I64079
I12
tp2559
a(I111813
I12
tp2560
a(I155871
I12
tp2561
a(I174486
I12
tp2562
a(I26539
I12
tp2563
a(I1571
I12
tp2564
a(I81441
I12
tp2565
a(I99382
I12
tp2566
a(I125499
I12
tp2567
a(I140974
I12
tp2568
a(I13821
I12
tp2569
a(I107697
I12
tp2570
a(I119925
I12
tp2571
a(I51996
I12
tp2572
a(I176963
I12
tp2573
a(I11073
I12
tp2574
a(I19897
I12
tp2575
a(I57404
I12
tp2576
a(I81071
I12
tp2577
a(I181854
I12
tp2578
a(I66228
I12
tp2579
a(I178866
I12
tp2580
a(I8510
I12
tp2581
a(I199
I12
tp2582
a(I141942
I12
tp2583
a(I96037
I12
tp2584
a(I137890
I12
tp2585
a(I178424
I12
tp2586
a(I181178
I12
tp2587
a(I101392
I12
tp2588
a(I175752
I12
tp2589
a(I33772
I12
tp2590
a(I175259
I12
tp2591
a(I56415
I12
tp2592
a(I193629
I12
tp2593
a(I708
I12
tp2594
a(I26761
I12
tp2595
a(I62806
I12
tp2596
a(I139383
I12
tp2597
a(I112252
I12
tp2598
a(I21291
I12
tp2599
a(I159646
I12
tp2600
a(I180096
I12
tp2601
a(I134169
I12
tp2602
a(I18815
I12
tp2603
a(I102958
I12
tp2604
a(I66549
I12
tp2605
a(I18975
I12
tp2606
a(I130209
I12
tp2607
a(I128200
I12
tp2608
a(I17191
I12
tp2609
a(I93398
I12
tp2610
a(I100741
I12
tp2611
a(I73610
I12
tp2612
a(I112953
I12
tp2613
a(I138653
I12
tp2614
a(I150436
I12
tp2615
a(I48595
I12
tp2616
a(I179221
I12
tp2617
a(I72080
I12
tp2618
a(I194923
I12
tp2619
a(I126053
I12
tp2620
a(I20336
I12
tp2621
a(I46558
I12
tp2622
a(I65076
I12
tp2623
a(I39907
I12
tp2624
a(I31815
I12
tp2625
a(I74405
I12
tp2626
a(I28667
I12
tp2627
a(I91332
I12
tp2628
a(I135046
I12
tp2629
a(I81722
I12
tp2630
a(I165199
I12
tp2631
a(I150047
I12
tp2632
a(I60244
I12
tp2633
a(I111619
I12
tp2634
a(I74717
I12
tp2635
a(I135190
I12
tp2636
a(I112806
I12
tp2637
a(I108634
I12
tp2638
a(I38064
I12
tp2639
a(I114287
I12
tp2640
a(I121630
I12
tp2641
a(I153197
I12
tp2642
a(I1140
I12
tp2643
a(I74019
I12
tp2644
a(I66951
I12
tp2645
a(I182501
I12
tp2646
a(I144699
I12
tp2647
a(I162713
I12
tp2648
a(I72512
I12
tp2649
a(I192407
I12
tp2650
a(I68100
I12
tp2651
a(I153523
I12
tp2652
a(I85937
I12
tp2653
a(I87494
I12
tp2654
a(I73244
I12
tp2655
a(I55875
I12
tp2656
a(I156933
I12
tp2657
a(I189937
I12
tp2658
a(I142966
I12
tp2659
a(I140599
I12
tp2660
a(I85734
I12
tp2661
a(I61850
I12
tp2662
a(I80624
I12
tp2663
a(I18351
I12
tp2664
a(I95606
I12
tp2665
a(I106624
I12
tp2666
a(I19007
I12
tp2667
a(I1205
I12
tp2668
a(I49419
I12
tp2669
a(I127183
I12
tp2670
a(I6782
I12
tp2671
a(I141761
I12
tp2672
a(I66005
I12
tp2673
a(I128923
I12
tp2674
a(I73533
I12
tp2675
a(I150884
I12
tp2676
a(I165850
I12
tp2677
a(I7331
I12
tp2678
a(I125938
I12
tp2679
a(I94471
I12
tp2680
a(I81144
I12
tp2681
a(I63168
I12
tp2682
a(I166013
I12
tp2683
a(I96644
I12
tp2684
a(I197427
I12
tp2685
a(I92055
I12
tp2686
a(I65862
I12
tp2687
a(I60384
I12
tp2688
a(I163152
I12
tp2689
a(I139208
I12
tp2690
a(I14294
I12
tp2691
a(I16441
I12
tp2692
a(I188635
I12
tp2693
a(I134303
I12
tp2694
a(I133794
I12
tp2695
a(I37047
I12
tp2696
a(I175386
I12
tp2697
a(I38512
I12
tp2698
a(I128894
I12
tp2699
a(I60748
I12
tp2700
a(I39936
I12
tp2701
a(I14783
I12
tp2702
a(I151997
I12
tp2703
a(I43379
I12
tp2704
a(I10178
I12
tp2705
a(I16753
I12
tp2706
a(I50746
I12
tp2707
a(I164496
I12
tp2708
a(I11343
I12
tp2709
a(I111188
I12
tp2710
a(I89859
I12
tp2711
a(I144513
I12
tp2712
a(I45159
I12
tp2713
a(I183498
I12
tp2714
a(I20706
I12
tp2715
a(I32145
I12
tp2716
a(I43928
I12
tp2717
a(I115622
I12
tp2718
a(I16304
I12
tp2719
a(I186735
I12
tp2720
a(I110452
I12
tp2721
a(I90145
I12
tp2722
a(I44167
I12
tp2723
a(I136165
I12
tp2724
a(I66201
I12
tp2725
a(I107072
I12
tp2726
a(I26798
I12
tp2727
a(I169649
I12
tp2728
a(I97478
I12
tp2729
a(I198261
I12
tp2730
a(I14620
I12
tp2731
a(I30095
I12
tp2732
a(I134149
I12
tp2733
a(I149851
I12
tp2734
a(I160216
I12
tp2735
a(I169292
I12
tp2736
a(I177761
I12
tp2737
a(I74871
I12
tp2738
a(I103234
I12
tp2739
a(I124939
I12
tp2740
a(I112058
I12
tp2741
a(I89961
I12
tp2742
a(I199299
I12
tp2743
a(I41601
I12
tp2744
a(I166038
I12
tp2745
a(I128492
I12
tp2746
a(I43790
I12
tp2747
a(I9821
I12
tp2748
a(I1816
I12
tp2749
a(I103031
I12
tp2750
a(I114470
I12
tp2751
a(I181405
I12
tp2752
a(I44269
I12
tp2753
a(I105204
I12
tp2754
a(I167336
I12
tp2755
a(I17454
I12
tp2756
a(I143416
I12
tp2757
a(I126586
I12
tp2758
a(I179787
I12
tp2759
a(I187386
I12
tp2760
a(I25769
I12
tp2761
a(I73999
I12
tp2762
a(I150206
I12
tp2763
a(I151190
I12
tp2764
a(I182817
I12
tp2765
a(I195461
I12
tp2766
a(I138028
I12
tp2767
a(I61774
I12
tp2768
a(I151453
I12
tp2769
a(I444
I12
tp2770
a(I11115
I12
tp2771
a(I193562
I12
tp2772
a(I4553
I12
tp2773
a(I110151
I12
tp2774
a(I138683
I12
tp2775
a(I196444
I12
tp2776
a(I129213
I12
tp2777
a(I22212
I12
tp2778
a(I138037
I12
tp2779
a(I24890
I12
tp2780
a(I77200
I12
tp2781
a(I117901
I12
tp2782
a(I25622
I12
tp2783
a(I18971
I12
tp2784
a(I32223
I12
tp2785
a(I130018
I12
tp2786
a(I61611
I12
tp2787
a(I83632
I12
tp2788
a(I137325
I12
tp2789
a(I4899
I12
tp2790
a(I68385
I12
tp2791
a(I63784
I12
tp2792
a(I15077
I12
tp2793
a(I59195
I12
tp2794
a(I175513
I12
tp2795
a(I52148
I12
tp2796
a(I74101
I12
tp2797
a(I178042
I12
tp2798
a(I95184
I12
tp2799
a(I35907
I12
tp2800
a(I57511
I12
tp2801
a(I196898
I12
tp2802
a(I104247
I12
tp2803
a(I106420
I12
tp2804
a(I105927
I12
tp2805
a(I159479
I12
tp2806
a(I110579
I12
tp2807
a(I80450
I12
tp2808
a(I13067
I12
tp2809
a(I172751
I12
tp2810
a(I100564
I12
tp2811
a(I87427
I12
tp2812
a(I41170
I12
tp2813
a(I43359
I12
tp2814
a(I160270
I12
tp2815
a(I16733
I12
tp2816
a(I110104
I12
tp2817
a(I193230
I12
tp2818
a(I26273
I12
tp2819
a(I141854
I12
tp2820
a(I41735
I12
tp2821
a(I183478
I12
tp2822
a(I130154
I12
tp2823
a(I49791
I12
tp2824
a(I76676
I12
tp2825
a(I74421
I12
tp2826
a(I38334
I12
tp2827
a(I129987
I12
tp2828
a(I30226
I12
tp2829
a(I5057
I12
tp2830
a(I50340
I12
tp2831
a(I189743
I12
tp2832
a(I150324
I12
tp2833
a(I167137
I12
tp2834
a(I97000
I12
tp2835
a(I149831
I12
tp2836
a(I122700
I12
tp2837
a(I183808
I12
tp2838
a(I79214
I12
tp2839
a(I160196
I12
tp2840
a(I125378
I12
tp2841
a(I156024
I12
tp2842
a(I74293
I12
tp2843
a(I7759
I12
tp2844
a(I196867
I12
tp2845
a(I145665
I12
tp2846
a(I38664
I12
tp2847
a(I38171
I12
tp2848
a(I88185
I12
tp2849
a(I74126
I12
tp2850
a(I46995
I12
tp2851
a(I197346
I12
tp2852
a(I72619
I12
tp2853
a(I141637
I12
tp2854
a(I29954
I12
tp2855
a(I54302
I12
tp2856
a(I9069
I12
tp2857
a(I70004
I12
tp2858
a(I83429
I12
tp2859
a(I76778
I12
tp2860
a(I12799
I12
tp2861
a(I99607
I12
tp2862
a(I84085
I12
tp2863
a(I188026
I12
tp2864
a(I129833
I12
tp2865
a(I173967
I12
tp2866
a(I155533
I12
tp2867
a(I185295
I12
tp2868
a(I184129
I12
tp2869
a(I113992
I12
tp2870
a(I199371
I12
tp2871
a(I168364
I12
tp2872
a(I50186
I12
tp2873
a(I65888
I12
tp2874
a(I110628
I12
tp2875
a(I43042
I12
tp2876
a(I78530
I12
tp2877
a(I20655
I12
tp2878
a(I163215
I12
tp2879
a(I22120
I12
tp2880
a(I68300
I12
tp2881
a(I28970
I12
tp2882
a(I137945
I12
tp2883
a(I29702
I12
tp2884
a(I150482
I12
tp2885
a(I103553
I12
tp2886
a(I96918
I12
tp2887
a(I145401
I12
tp2888
a(I28767
I12
tp2889
a(I83556
I12
tp2890
a(I72465
I12
tp2891
a(I17527
I12
tp2892
a(I76412
I12
tp2893
a(I63275
I12
tp2894
a(I197534
I12
tp2895
a(I150772
I12
tp2896
a(I117255
I12
tp2897
a(I43128
I12
tp2898
a(I172057
I12
tp2899
a(I177710
I12
tp2900
a(I94852
I12
tp2901
a(I6726
I12
tp2902
a(I24651
I12
tp2903
a(I135951
I12
tp2904
a(I101133
I12
tp2905
a(I96532
I12
tp2906
a(I190664
I12
tp2907
a(I131286
I12
tp2908
a(I175493
I12
tp2909
a(I196621
I12
tp2910
a(I45469
I12
tp2911
a(I8024
I12
tp2912
a(I79718
I12
tp2913
a(I197221
I12
tp2914
a(I140333
I12
tp2915
a(I49123
I12
tp2916
a(I26880
I12
tp2917
a(I45759
I12
tp2918
a(I23153
I12
tp2919
a(I85301
I12
tp2920
a(I199803
I12
tp2921
a(I54074
I12
tp2922
a(I145743
I12
tp2923
a(I115454
I12
tp2924
a(I151885
I12
tp2925
a(I160709
I12
tp2926
a(I4972
I12
tp2927
a(I176095
I12
tp2928
a(I149469
I12
tp2929
a(I159005
I12
tp2930
a(I32542
I12
tp2931
a(I84589
I12
tp2932
a(I10555
I12
tp2933
a(I193258
I12
tp2934
a(I139161
I12
tp2935
a(I55551
I12
tp2936
a(I157102
I12
tp2937
a(I123825
I12
tp2938
a(I4981
I12
tp2939
a(I45596
I12
tp2940
a(I75216
I12
tp2941
a(I190526
I12
tp2942
a(I184999
I12
tp2943
a(I97366
I12
tp2944
a(I16987
I12
tp2945
a(I35001
I12
tp2946
a(I171770
I12
tp2947
a(I93469
I12
tp2948
a(I19160
I12
tp2949
a(I123622
I12
tp2950
a(I114505
I12
tp2951
a(I57072
I12
tp2952
a(I97199
I12
tp2953
a(I168877
I12
tp2954
a(I180428
I12
tp2955
a(I158563
I12
tp2956
a(I38954
I12
tp2957
a(I50304
I12
tp2958
a(I193604
I12
tp2959
a(I37363
I12
tp2960
a(I166385
I12
tp2961
a(I190456
I12
tp2962
a(I48766
I12
tp2963
a(I68813
I12
tp2964
a(I145916
I12
tp2965
a(I91886
I12
tp2966
a(I194791
I12
tp2967
a(I110405
I12
tp2968
a(I177482
I12
tp2969
a(I89849
I12
tp2970
a(I191578
I12
tp2971
a(I111453
I12
tp2972
a(I94071
I12
tp2973
a(I185813
I12
tp2974
a(I62844
I12
tp2975
a(I83081
I12
tp2976
a(I189488
I12
tp2977
a(I174750
I12
tp2978
a(I80365
I12
tp2979
a(I141473
I12
tp2980
a(I100008
I12
tp2981
a(I5383
I12
tp2982
a(I16054
I12
tp2983
a(I1211
I12
tp2984
a(I183065
I12
tp2985
a(I101688
I12
tp2986
a(I138135
I12
tp2987
a(I9542
I12
tp2988
a(I18366
I12
tp2989
a(I65556
I12
tp2990
a(I110019
I12
tp2991
a(I47122
I12
tp2992
a(I133088
I12
tp2993
a(I41119
I12
tp2994
a(I79524
I12
tp2995
a(I149585
I12
tp2996
a(I144567
I12
tp2997
a(I155238
I12
tp2998
a(I124432
I12
tp2999
a(I192734
I12
tp3000
a(I151341
I12
tp3001
a(I50915
I12
tp3002
a(I152882
I12
tp3003
a(I128938
I12
tp3004
a(I128445
I12
tp3005
a(I172996
I12
tp3006
a(I52595
I12
tp3007
a(I21368
I12
tp3008
a(I8663
I12
tp3009
a(I133097
I12
tp3010
a(I108176
I12
tp3011
a(I30975
I12
tp3012
a(I66990
I12
tp3013
a(I14956
I12
tp3014
a(I116507
I12
tp3015
a(I24778
I12
tp3016
a(I29922
I12
tp3017
a(I121430
I12
tp3018
a(I60451
I12
tp3019
a(I33825
I12
tp3020
a(I145381
I12
tp3021
a(I87692
I12
tp3022
a(I173721
I12
tp3023
a(I68782
I12
tp3024
a(I72701
I12
tp3025
a(I18692
I12
tp3026
a(I89372
I12
tp3027
a(I130964
I12
tp3028
a(I71570
I12
tp3029
a(I126299
I12
tp3030
a(I21433
I12
tp3031
a(I15514
I12
tp3032
a(I195056
I12
tp3033
a(I164527
I12
tp3034
a(I125108
I12
tp3035
a(I174689
I12
tp3036
a(I137320
I12
tp3037
a(I5831
I12
tp3038
a(I45174
I12
tp3039
a(I99981
I12
tp3040
a(I61312
I12
tp3041
a(I41277
I12
tp3042
a(I157478
I12
tp3043
a(I75270
I12
tp3044
a(I90972
I12
tp3045
a(I134155
I12
tp3046
a(I48594
I12
tp3047
a(I18049
I12
tp3048
a(I66535
I12
tp3049
a(I125420
I12
tp3050
a(I23626
I12
tp3051
a(I63993
I12
tp3052
a(I151310
I12
tp3053
a(I113432
I12
tp3054
a(I13943
I12
tp3055
a(I152358
I12
tp3056
a(I43247
I12
tp3057
a(I146671
I12
tp3058
a(I114420
I12
tp3059
a(I23459
I12
tp3060
a(I160673
I12
tp3061
a(I186806
I12
tp3062
a(I189285
I12
tp3063
a(I66060
I12
tp3064
a(I110523
I12
tp3065
a(I63534
I12
tp3066
a(I128893
I12
tp3067
a(I190001
I12
tp3068
a(I85062
I12
tp3069
a(I27125
I12
tp3070
a(I76564
I12
tp3071
a(I93377
I12
tp3072
a(I62166
I12
tp3073
a(I153819
I12
tp3074
a(I34056
I12
tp3075
a(I31571
I12
tp3076
a(I51618
I12
tp3077
a(I103249
I12
tp3078
a(I175542
I12
tp3079
a(I26650
I12
tp3080
a(I135970
I12
tp3081
a(I130607
I12
tp3082
a(I71213
I12
tp3083
a(I25059
I12
tp3084
a(I72161
I12
tp3085
a(I23296
I12
tp3086
a(I157209
I12
tp3087
a(I96888
I12
tp3088
a(I57052
I12
tp3089
a(I66874
I12
tp3090
a(I175849
I12
tp3091
a(I66381
I12
tp3092
a(I122888
I12
tp3093
a(I17772
I12
tp3094
a(I199626
I12
tp3095
a(I104088
I12
tp3096
a(I102054
I12
tp3097
a(I174165
I12
tp3098
a(I121609
I12
tp3099
a(I31408
I12
tp3100
a(I74014
I12
tp3101
a(I123932
I12
tp3102
a(I95273
I12
tp3103
a(I34452
I12
tp3104
a(I147090
I12
tp3105
a(I46664
I12
tp3106
a(I46171
I12
tp3107
a(I22227
I12
tp3108
a(I127381
I12
tp3109
a(I146155
I12
tp3110
a(I11186
I12
tp3111
a(I78279
I12
tp3112
a(I104409
I12
tp3113
a(I56898
I12
tp3114
a(I130033
I12
tp3115
a(I146704
I12
tp3116
a(I156033
I12
tp3117
a(I96150
I12
tp3118
a(I190013
I12
tp3119
a(I65785
I12
tp3120
a(I180760
I12
tp3121
a(I173948
I12
tp3122
a(I121332
I12
tp3123
a(I160242
I12
tp3124
a(I155830
I12
tp3125
a(I91775
I12
tp3126
a(I131886
I12
tp3127
a(I106109
I12
tp3128
a(I86940
I12
tp3129
a(I133566
I12
tp3130
a(I127508
I12
tp3131
a(I159783
I12
tp3132
a(I182752
I12
tp3133
a(I47697
I12
tp3134
a(I31856
I12
tp3135
a(I191815
I12
tp3136
a(I29516
I12
tp3137
a(I138491
I12
tp3138
a(I148313
I12
tp3139
a(I167871
I12
tp3140
a(I75709
I12
tp3141
a(I72404
I12
tp3142
a(I48262
I12
tp3143
a(I50741
I12
tp3144
a(I117225
I12
tp3145
a(I78415
I12
tp3146
a(I76365
I12
tp3147
a(I6228
I12
tp3148
a(I107779
I12
tp3149
a(I132711
I12
tp3150
a(I85189
I12
tp3151
a(I93292
I12
tp3152
a(I181137
I12
tp3153
a(I199927
I12
tp3154
a(I70396
I12
tp3155
a(I34224
I12
tp3156
a(I77548
I12
tp3157
a(I199463
I12
tp3158
a(I84891
I12
tp3159
a(I39052
I12
tp3160
a(I157849
I12
tp3161
a(I163502
I12
tp3162
a(I115891
I12
tp3163
a(I130225
I12
tp3164
a(I179920
I12
tp3165
a(I41364
I12
tp3166
a(I138218
I12
tp3167
a(I27598
I12
tp3168
a(I174611
I12
tp3169
a(I50667
I12
tp3170
a(I56485
I12
tp3171
a(I11248
I12
tp3172
a(I7774
I12
tp3173
a(I147985
I12
tp3174
a(I186567
I12
tp3175
a(I156278
I12
tp3176
a(I110616
I12
tp3177
a(I68493
I12
tp3178
a(I81625
I12
tp3179
a(I165102
I12
tp3180
a(I82244
I12
tp3181
a(I28920
I12
tp3182
a(I13749
I12
tp3183
a(I185692
I12
tp3184
a(I100481
I12
tp3185
a(I40598
I12
tp3186
a(I79941
I12
tp3187
a(I51872
I12
tp3188
a(I44757
I12
tp3189
a(I158507
I12
tp3190
a(I46298
I12
tp3191
a(I184713
I12
tp3192
a(I68534
I12
tp3193
a(I185701
I12
tp3194
a(I50201
I12
tp3195
a(I164223
I12
tp3196
a(I171223
I12
tp3197
a(I10289
I12
tp3198
a(I23541
I12
tp3199
a(I45042
I12
tp3200
a(I89793
I12
tp3201
a(I9430
I12
tp3202
a(I114079
I12
tp3203
a(I189884
I12
tp3204
a(I199748
I12
tp3205
a(I65975
I12
tp3206
a(I92105
I12
tp3207
a(I158045
I12
tp3208
a(I92727
I12
tp3209
a(I178150
I12
tp3210
a(I116614
I12
tp3211
a(I56655
I12
tp3212
a(I26366
I12
tp3213
a(I9044
I12
tp3214
a(I46956
I12
tp3215
a(I115679
I12
tp3216
a(I126094
I12
tp3217
a(I195549
I12
tp3218
a(I76976
I12
tp3219
a(I121972
I12
tp3220
a(I95346
I12
tp3221
a(I155015
I12
tp3222
a(I9100
I12
tp3223
a(I150843
I12
tp3224
a(I62904
I12
tp3225
a(I138618
I12
tp3226
a(I88528
I12
tp3227
a(I101438
I12
tp3228
a(I4182
I12
tp3229
a(I58971
I12
tp3230
a(I26911
I12
tp3231
a(I78033
I12
tp3232
a(I176464
I12
tp3233
a(I153727
I12
tp3234
a(I127728
I12
tp3235
a(I73647
I12
tp3236
a(I47454
I12
tp3237
a(I79789
I12
tp3238
a(I58311
I12
tp3239
a(I123
I12
tp3240
a(I96384
I12
tp3241
a(I97372
I12
tp3242
a(I73933
I12
tp3243
a(I98696
I12
tp3244
a(I22542
I12
tp3245
a(I13336
I12
tp3246
a(I78379
I12
tp3247
a(I38960
I12
tp3248
a(I125039
I12
tp3249
a(I100615
I12
tp3250
a(I40716
I12
tp3251
a(I126745
I12
tp3252
a(I134848
I12
tp3253
a(I141439
I12
tp3254
a(I193838
I12
tp3255
a(I49277
I12
tp3256
a(I196212
I12
tp3257
a(I88883
I12
tp3258
a(I121158
I12
tp3259
a(I25333
I12
tp3260
a(I79184
I12
tp3261
a(I47535
I12
tp3262
a(I152506
I12
tp3263
a(I195741
I12
tp3264
a(I75959
I12
tp3265
a(I127590
I12
tp3266
a(I123373
I12
tp3267
a(I16060
I12
tp3268
a(I189722
I12
tp3269
a(I53556
I12
tp3270
a(I175699
I12
tp3271
a(I177497
I12
tp3272
a(I192959
I12
tp3273
a(I72558
I12
tp3274
a(I165941
I12
tp3275
a(I23184
I12
tp3276
a(I33278
I12
tp3277
a(I72781
I12
tp3278
a(I149607
I12
tp3279
a(I155930
I12
tp3280
a(I66269
I12
tp3281
a(I41988
I12
tp3282
a(I112017
I12
tp3283
a(I50428
I12
tp3284
a(I188843
I12
tp3285
a(I30640
I12
tp3286
a(I117388
I12
tp3287
a(I31296
I12
tp3288
a(I106670
I12
tp3289
a(I7352
I12
tp3290
a(I158487
I12
tp3291
a(I173178
I12
tp3292
a(I199570
I12
tp3293
a(I104288
I12
tp3294
a(I75805
I12
tp3295
a(I99876
I12
tp3296
a(I41939
I12
tp3297
a(I2520
I12
tp3298
a(I132151
I12
tp3299
a(I74214
I12
tp3300
a(I145387
I12
tp3301
a(I191074
I12
tp3302
a(I9903
I12
tp3303
a(I114782
I12
tp3304
a(I89773
I12
tp3305
a(I128785
I12
tp3306
a(I118369
I12
tp3307
a(I133831
I12
tp3308
a(I28965
I12
tp3309
a(I102604
I12
tp3310
a(I11583
I12
tp3311
a(I181565
I12
tp3312
a(I43842
I12
tp3313
a(I102338
I12
tp3314
a(I41720
I12
tp3315
a(I23046
I12
tp3316
a(I152527
I12
tp3317
a(I114838
I12
tp3318
a(I159818
I12
tp3319
a(I130653
I12
tp3320
a(I50274
I12
tp3321
a(I63270
I12
tp3322
a(I33673
I12
tp3323
a(I9008
I12
tp3324
a(I19186
I12
tp3325
a(I83368
I12
tp3326
a(I42508
I12
tp3327
a(I144921
I12
tp3328
a(I193407
I12
tp3329
a(I188979
I12
tp3330
a(I192642
I12
tp3331
a(I198538
I12
tp3332
a(I89168
I12
tp3333
a(I197310
I12
tp3334
a(I98497
I12
tp3335
a(I86828
I12
tp3336
a(I137610
I12
tp3337
a(I41785
I12
tp3338
a(I133021
I12
tp3339
a(I95652
I12
tp3340
a(I95159
I12
tp3341
a(I7526
I12
tp3342
a(I58219
I12
tp3343
a(I135727
I12
tp3344
a(I67043
I12
tp3345
a(I158696
I12
tp3346
a(I43451
I12
tp3347
a(I175269
I12
tp3348
a(I150604
I12
tp3349
a(I144042
I12
tp3350
a(I40759
I12
tp3351
a(I128596
I12
tp3352
a(I34498
I12
tp3353
a(I41073
I12
tp3354
a(I127708
I12
tp3355
a(I106379
I12
tp3356
a(I76030
I12
tp3357
a(I123438
I12
tp3358
a(I88517
I12
tp3359
a(I96620
I12
tp3360
a(I56974
I12
tp3361
a(I105444
I12
tp3362
a(I89233
I12
tp3363
a(I134772
I12
tp3364
a(I29413
I12
tp3365
a(I150446
I12
tp3366
a(I78852
I12
tp3367
a(I51633
I12
tp3368
a(I75211
I12
tp3369
a(I21493
I12
tp3370
a(I85133
I12
tp3371
a(I176796
I12
tp3372
a(I115779
I12
tp3373
a(I86674
I12
tp3374
a(I10824
I12
tp3375
a(I148054
I12
tp3376
a(I102060
I12
tp3377
a(I124110
I12
tp3378
a(I154003
I12
tp3379
a(I136597
I12
tp3380
a(I99309
I12
tp3381
a(I146380
I12
tp3382
a(I126506
I12
tp3383
a(I160322
I12
tp3384
a(I19960
I12
tp3385
a(I19211
I12
tp3386
a(I173119
I12
tp3387
a(I37581
I12
tp3388
a(I28035
I12
tp3389
a(I30930
I12
tp3390
a(I9465
I12
tp3391
a(I188767
I12
tp3392
a(I102419
I12
tp3393
a(I58904
I12
tp3394
a(I131170
I12
tp3395
a(I18992
I12
tp3396
a(I137199
I12
tp3397
a(I158839
I12
tp3398
a(I48801
I12
tp3399
a(I77413
I12
tp3400
a(I67671
I12
tp3401
a(I7042
I12
tp3402
a(I38150
I12
tp3403
a(I57751
I12
tp3404
a(I21749
I12
tp3405
a(I131087
I12
tp3406
a(I100955
I12
tp3407
a(I109505
I12
tp3408
a(I40782
I12
tp3409
a(I187013
I12
tp3410
a(I195116
I12
tp3411
a(I126432
I12
tp3412
a(I79519
I12
tp3413
a(I180099
I12
tp3414
a(I89681
I12
tp3415
a(I72375
I12
tp3416
a(I114965
I12
tp3417
a(I81199
I12
tp3418
a(I87341
I12
tp3419
a(I71500
I12
tp3420
a(I196074
I12
tp3421
a(I41919
I12
tp3422
a(I56253
I12
tp3423
a(I133572
I12
tp3424
a(I172482
I12
tp3425
a(I47063
I12
tp3426
a(I20614
I12
tp3427
a(I195125
I12
tp3428
a(I81978
I12
tp3429
a(I118349
I12
tp3430
a(I112380
I12
tp3431
a(I140613
I12
tp3432
a(I148335
I12
tp3433
a(I27678
I12
tp3434
a(I129901
I12
tp3435
a(I76148
I12
tp3436
a(I73189
I12
tp3437
a(I11328
I12
tp3438
a(I18943
I12
tp3439
a(I163957
I12
tp3440
a(I13097
I12
tp3441
a(I69983
I12
tp3442
a(I104333
I12
tp3443
a(I181652
I12
tp3444
a(I126787
I12
tp3445
a(I27990
I12
tp3446
a(I13829
I12
tp3447
a(I108972
I12
tp3448
a(I186720
I12
tp3449
a(I69582
I12
tp3450
a(I149540
I12
tp3451
a(I59041
I12
tp3452
a(I31704
I12
tp3453
a(I168934
I12
tp3454
a(I146581
I12
tp3455
a(I53232
I12
tp3456
a(I104547
I12
tp3457
a(I198262
I12
tp3458
a(I80110
I12
tp3459
a(I173809
I12
tp3460
a(I43445
I12
tp3461
a(I84316
I12
tp3462
a(I168459
I12
tp3463
a(I34255
I12
tp3464
a(I179661
I12
tp3465
a(I198766
I12
tp3466
a(I125415
I12
tp3467
a(I163820
I12
tp3468
a(I151545
I12
tp3469
a(I61914
I12
tp3470
a(I2143
I12
tp3471
a(I196888
I12
tp3472
a(I138359
I12
tp3473
a(I155251
I12
tp3474
a(I49877
I12
tp3475
a(I142530
I12
tp3476
a(I153325
I12
tp3477
a(I81138
I12
tp3478
a(I14248
I12
tp3479
a(I167259
I12
tp3480
a(I119859
I12
tp3481
a(I67735
I12
tp3482
a(I3664
I12
tp3483
a(I128190
I12
tp3484
a(I48935
I12
tp3485
a(I5433
I12
tp3486
a(I187485
I12
tp3487
a(I182685
I12
tp3488
a(I42916
I12
tp3489
a(I57250
I12
tp3490
a(I184166
I12
tp3491
a(I152939
I12
tp3492
a(I109108
I12
tp3493
a(I115250
I12
tp3494
a(I187880
I12
tp3495
a(I48716
I12
tp3496
a(I189610
I12
tp3497
a(I99637
I12
tp3498
a(I183068
I12
tp3499
a(I191290
I12
tp3500
a(I122883
I12
tp3501
a(I163666
I12
tp3502
a(I139766
I12
tp3503
a(I62984
I12
tp3504
a(I29723
I12
tp3505
a(I186912
I12
tp3506
a(I131214
I12
tp3507
a(I19940
I12
tp3508
a(I20988
I12
tp3509
a(I172719
I12
tp3510
a(I98925
I12
tp3511
a(I28788
I12
tp3512
a(I138531
I12
tp3513
a(I6966
I12
tp3514
a(I74981
I12
tp3515
a(I116620
I12
tp3516
a(I121517
I12
tp3517
a(I154153
I12
tp3518
a(I158375
I12
tp3519
a(I13398
I12
tp3520
a(I39515
I12
tp3521
a(I147641
I12
tp3522
a(I155744
I12
tp3523
a(I199458
I12
tp3524
a(I54481
I12
tp3525
a(I102711
I12
tp3526
a(I144303
I12
tp3527
a(I154974
I12
tp3528
a(I176562
I12
tp3529
a(I106870
I12
tp3530
a(I51749
I12
tp3531
a(I28108
I12
tp3532
a(I190477
I12
tp3533
a(I166980
I12
tp3534
a(I107586
I12
tp3535
a(I180721
I12
tp3536
a(I95870
I12
tp3537
a(I89987
I12
tp3538
a(I161665
I12
tp3539
a(I140680
I12
tp3540
a(I198380
I12
tp3541
a(I68000
I12
tp3542
a(I64526
I12
tp3543
a(I112996
I12
tp3544
a(I185899
I12
tp3545
a(I29658
I12
tp3546
a(I179248
I12
tp3547
a(I148617
I12
tp3548
a(I77812
I12
tp3549
a(I191160
I12
tp3550
a(I11527
I12
tp3551
a(I63158
I12
tp3552
a(I190061
I12
tp3553
a(I163635
I12
tp3554
a(I113052
I12
tp3555
a(I171457
I12
tp3556
a(I76844
I12
tp3557
a(I183460
I12
tp3558
a(I59042
I12
tp3559
a(I38502
I12
tp3560
a(I13077
I12
tp3561
a(I195691
I12
tp3562
a(I172745
I12
tp3563
a(I49776
I12
tp3564
a(I2270
I12
tp3565
a(I97164
I12
tp3566
a(I160583
I12
tp3567
a(I63437
I12
tp3568
a(I103871
I12
tp3569
a(I101821
I12
tp3570
a(I158528
I12
tp3571
a(I111162
I12
tp3572
a(I122857
I12
tp3573
a(I196240
I12
tp3574
a(I104527
I12
tp3575
a(I128255
I12
tp3576
a(I2326
I12
tp3577
a(I152712
I12
tp3578
a(I73499
I12
tp3579
a(I131476
I12
tp3580
a(I49785
I12
tp3581
a(I189728
I12
tp3582
a(I156647
I12
tp3583
a(I9949
I12
tp3584
a(I188617
I12
tp3585
a(I141713
I12
tp3586
a(I37623
I12
tp3587
a(I96508
I12
tp3588
a(I77658
I12
tp3589
a(I83977
I12
tp3590
a(I142701
I12
tp3591
a(I173091
I12
tp3592
a(I132397
I12
tp3593
a(I54269
I12
tp3594
a(I43699
I12
tp3595
a(I178434
I12
tp3596
a(I49841
I12
tp3597
a(I36631
I12
tp3598
a(I10438
I12
tp3599
a(I179915
I12
tp3600
a(I88186
I12
tp3601
a(I8591
I12
tp3602
a(I93724
I12
tp3603
a(I155478
I12
tp3604
a(I25320
I12
tp3605
a(I150557
I12
tp3606
a(I98257
I12
tp3607
a(I160922
I12
tp3608
a(I45552
I12
tp3609
a(I193197
I12
tp3610
a(I154392
I12
tp3611
a(I163988
I12
tp3612
a(I61683
I12
tp3613
a(I26865
I12
tp3614
a(I68457
I12
tp3615
a(I43536
I12
tp3616
a(I102782
I12
tp3617
a(I89556
I12
tp3618
a(I52360
I12
tp3619
a(I121831
I12
tp3620
a(I103498
I12
tp3621
a(I132878
I12
tp3622
a(I95000
I12
tp3623
a(I151159
I12
tp3624
a(I24815
I12
tp3625
a(I71917
I12
tp3626
a(I152748
I12
tp3627
a(I5027
I12
tp3628
a(I29703
I12
tp3629
a(I59323
I12
tp3630
a(I174617
I12
tp3631
a(I14330
I12
tp3632
a(I105743
I12
tp3633
a(I177421
I12
tp3634
a(I6930
I12
tp3635
a(I68310
I12
tp3636
a(I22405
I12
tp3637
a(I102619
I12
tp3638
a(I190176
I12
tp3639
a(I33695
I12
tp3640
a(I92580
I12
tp3641
a(I98722
I12
tp3642
a(I72024
I12
tp3643
a(I55829
I12
tp3644
a(I183543
I12
tp3645
a(I46130
I12
tp3646
a(I69608
I12
tp3647
a(I137799
I12
tp3648
a(I10230
I12
tp3649
a(I90188
I12
tp3650
a(I127065
I12
tp3651
a(I99012
I12
tp3652
a(I6544
I12
tp3653
a(I23373
I12
tp3654
a(I106834
I12
tp3655
a(I51713
I12
tp3656
a(I112487
I12
tp3657
a(I171784
I12
tp3658
a(I93561
I12
tp3659
a(I147866
I12
tp3660
a(I18086
I12
tp3661
a(I56431
I12
tp3662
a(I129310
I12
tp3663
a(I180495
I12
tp3664
a(I71397
I12
tp3665
a(I4013
I12
tp3666
a(I179636
I12
tp3667
a(I22039
I12
tp3668
a(I41760
I12
tp3669
a(I35881
I12
tp3670
a(I188052
I12
tp3671
a(I194627
I12
tp3672
a(I168001
I12
tp3673
a(I89255
I12
tp3674
a(I190038
I12
tp3675
a(I45753
I12
tp3676
a(I65311
I12
tp3677
a(I39118
I12
tp3678
a(I136989
I12
tp3679
a(I64802
I12
tp3680
a(I174396
I12
tp3681
a(I159269
I12
tp3682
a(I102238
I12
tp3683
a(I84916
I12
tp3684
a(I129896
I12
tp3685
a(I32829
I12
tp3686
a(I195671
I12
tp3687
a(I8885
I12
tp3688
a(I170559
I12
tp3689
a(I98691
I12
tp3690
a(I76101
I12
tp3691
a(I51436
I12
tp3692
a(I5531
I12
tp3693
a(I112137
I12
tp3694
a(I42458
I12
tp3695
a(I133618
I12
tp3696
a(I156940
I12
tp3697
a(I56110
I12
tp3698
a(I49026
I12
tp3699
a(I153905
I12
tp3700
a(I112440
I12
tp3701
a(I46411
I12
tp3702
a(I100884
I12
tp3703
a(I179656
I12
tp3704
a(I29774
I12
tp3705
a(I55891
I12
tp3706
a(I160337
I12
tp3707
a(I156949
I12
tp3708
a(I42804
I12
tp3709
a(I87291
I12
tp3710
a(I7001
I12
tp3711
a(I96115
I12
tp3712
a(I121483
I12
tp3713
a(I32003
I12
tp3714
a(I115464
I12
tp3715
a(I33989
I12
tp3716
a(I74860
I12
tp3717
a(I22304
I12
tp3718
a(I163554
I12
tp3719
a(I137814
I12
tp3720
a(I84474
I12
tp3721
a(I19828
I12
tp3722
a(I130088
I12
tp3723
a(I34794
I12
tp3724
a(I99837
I12
tp3725
a(I29444
I12
tp3726
a(I171187
I12
tp3727
a(I155851
I12
tp3728
a(I133754
I12
tp3729
a(I35725
I12
tp3730
a(I33603
I12
tp3731
a(I92488
I12
tp3732
a(I59959
I12
tp3733
a(I14310
I12
tp3734
a(I105963
I12
tp3735
a(I114761
I12
tp3736
a(I54878
I12
tp3737
a(I4295
I12
tp3738
a(I149285
I12
tp3739
a(I32891
I12
tp3740
a(I158080
I12
tp3741
a(I13119
I12
tp3742
a(I112020
I12
tp3743
a(I74483
I12
tp3744
a(I1879
I12
tp3745
a(I144907
I12
tp3746
a(I54202
I12
tp3747
a(I147585
I12
tp3748
a(I37868
I12
tp3749
a(I50762
I12
tp3750
a(I33440
I12
tp3751
a(I78436
I12
tp3752
a(I63249
I12
tp3753
a(I196510
I12
tp3754
a(I137644
I12
tp3755
a(I82870
I12
tp3756
a(I76219
I12
tp3757
a(I39961
I12
tp3758
a(I88447
I12
tp3759
a(I90670
I12
tp3760
a(I133472
I12
tp3761
a(I20239
I12
tp3762
a(I183570
I12
tp3763
a(I136897
I12
tp3764
a(I72069
I12
tp3765
a(I193192
I12
tp3766
a(I106318
I12
tp3767
a(I158390
I12
tp3768
a(I77756
I12
tp3769
a(I176315
I12
tp3770
a(I119372
I12
tp3771
a(I100462
I12
tp3772
a(I191682
I12
tp3773
a(I127703
I12
tp3774
a(I91531
I12
tp3775
a(I19344
I12
tp3776
a(I68941
I12
tp3777
a(I129383
I12
tp3778
a(I66070
I12
tp3779
a(I53100
I12
tp3780
a(I124955
I12
tp3781
a(I22653
I12
tp3782
a(I137221
I12
tp3783
a(I39903
I12
tp3784
a(I177117
I12
tp3785
a(I104930
I12
tp3786
a(I100518
I12
tp3787
a(I62972
I12
tp3788
a(I14426
I12
tp3789
a(I156848
I12
tp3790
a(I9837
I12
tp3791
a(I67368
I12
tp3792
a(I88293
I12
tp3793
a(I31628
I12
tp3794
a(I1339
I12
tp3795
a(I92992
I12
tp3796
a(I86446
I12
tp3797
a(I101816
I12
tp3798
a(I184181
I12
tp3799
a(I60956
I12
tp3800
a(I166859
I12
tp3801
a(I113295
I12
tp3802
a(I17470
I12
tp3803
a(I53901
I12
tp3804
a(I98452
I12
tp3805
a(I174659
I12
tp3806
a(I148033
I12
tp3807
a(I143432
I12
tp3808
a(I167591
I12
tp3809
a(I84177
I12
tp3810
a(I173291
I12
tp3811
a(I49562
I12
tp3812
a(I81332
I12
tp3813
a(I54706
I12
tp3814
a(I175464
I12
tp3815
a(I50550
I12
tp3816
a(I28197
I12
tp3817
a(I36365
I12
tp3818
a(I70105
I12
tp3819
a(I124910
I12
tp3820
a(I139332
I12
tp3821
a(I151610
I12
tp3822
a(I16591
I12
tp3823
a(I134975
I12
tp3824
a(I20178
I12
tp3825
a(I88456
I12
tp3826
a(I94614
I12
tp3827
a(I58899
I12
tp3828
a(I33237
I12
tp3829
a(I128008
I12
tp3830
a(I71642
I12
tp3831
a(I53296
I12
tp3832
a(I97775
I12
tp3833
a(I17396
I12
tp3834
a(I165025
I12
tp3835
a(I180510
I12
tp3836
a(I60086
I12
tp3837
a(I137834
I12
tp3838
a(I177802
I12
tp3839
a(I123007
I12
tp3840
a(I89500
I12
tp3841
a(I101901
I12
tp3842
a(I97300
I12
tp3843
a(I133078
I12
tp3844
a(I81964
I12
tp3845
a(I13962
I12
tp3846
a(I189092
I12
tp3847
a(I105122
I12
tp3848
a(I135275
I12
tp3849
a(I18121
I12
tp3850
a(I6818
I12
tp3851
a(I99119
I12
tp3852
a(I146221
I12
tp3853
a(I152430
I12
tp3854
a(I106941
I12
tp3855
a(I139204
I12
tp3856
a(I178547
I12
tp3857
a(I9862
I12
tp3858
a(I3211
I12
tp3859
a(I152653
I12
tp3860
a(I139592
I12
tp3861
a(I44310
I12
tp3862
a(I30405
I12
tp3863
a(I111387
I12
tp3864
a(I56522
I12
tp3865
a(I73954
I12
tp3866
a(I122291
I12
tp3867
a(I7420
I12
tp3868
a(I145835
I12
tp3869
a(I93193
I12
tp3870
a(I131887
I12
tp3871
a(I143340
I12
tp3872
a(I94241
I12
tp3873
a(I146567
I12
tp3874
a(I25573
I12
tp3875
a(I33420
I12
tp3876
a(I161966
I12
tp3877
a(I107287
I12
tp3878
a(I126782
I12
tp3879
a(I43924
I12
tp3880
a(I49068
I12
tp3881
a(I121179
I12
tp3882
a(I183162
I12
tp3883
a(I90141
I12
tp3884
a(I95778
I12
tp3885
a(I180696
I12
tp3886
a(I31206
I12
tp3887
a(I176156
I12
tp3888
a(I163503
I12
tp3889
a(I151695
I12
tp3890
a(I83124
I12
tp3891
a(I93795
I12
tp3892
a(I100645
I12
tp3893
a(I91455
I12
tp3894
a(I117079
I12
tp3895
a(I49077
I12
tp3896
a(I27599
I12
tp3897
a(I6294
I12
tp3898
a(I83436
I12
tp3899
a(I159387
I12
tp3900
a(I67658
I12
tp3901
a(I73311
I12
tp3902
a(I47886
I12
tp3903
a(I124004
I12
tp3904
a(I47377
I12
tp3905
a(I43221
I12
tp3906
a(I18556
I12
tp3907
a(I38187
I12
tp3908
a(I77729
I12
tp3909
a(I157703
I12
tp3910
a(I45322
I12
tp3911
a(I35711
I12
tp3912
a(I2178
I12
tp3913
a(I131128
I12
tp3914
a(I181749
I12
tp3915
a(I113248
I12
tp3916
a(I5200
I12
tp3917
a(I132884
I12
tp3918
a(I73923
I12
tp3919
a(I35979
I12
tp3920
a(I99967
I12
tp3921
a(I193031
I12
tp3922
a(I36260
I12
tp3923
a(I146776
I12
tp3924
a(I120166
I12
tp3925
a(I197922
I12
tp3926
a(I15943
I12
tp3927
a(I121846
I12
tp3928
a(I53439
I12
tp3929
a(I122562
I12
tp3930
a(I133852
I12
tp3931
a(I120715
I12
tp3932
a(I105193
I12
tp3933
a(I45372
I12
tp3934
a(I78188
I12
tp3935
a(I40992
I12
tp3936
a(I119780
I12
tp3937
a(I84962
I12
tp3938
a(I103569
I12
tp3939
a(I77078
I12
tp3940
a(I22192
I12
tp3941
a(I72990
I12
tp3942
a(I84264
I12
tp3943
a(I63291
I12
tp3944
a(I89290
I12
tp3945
a(I26367
I12
tp3946
a(I45429
I12
tp3947
a(I27791
I12
tp3948
a(I112190
I12
tp3949
a(I59467
I12
tp3950
a(I68874
I12
tp3951
a(I103199
I12
tp3952
a(I113870
I12
tp3953
a(I66259
I12
tp3954
a(I102690
I12
tp3955
a(I15057
I12
tp3956
a(I59608
I12
tp3957
a(I11669
I12
tp3958
a(I177050
I12
tp3959
a(I97520
I12
tp3960
a(I106344
I12
tp3961
a(I178038
I12
tp3962
a(I7547
I12
tp3963
a(I181209
I12
tp3964
a(I101439
I12
tp3965
a(I89214
I12
tp3966
a(I43725
I12
tp3967
a(I42371
I12
tp3968
a(I178603
I12
tp3969
a(I118085
I12
tp3970
a(I126188
I12
tp3971
a(I73632
I12
tp3972
a(I47455
I12
tp3973
a(I28455
I12
tp3974
a(I189065
I12
tp3975
a(I131632
I12
tp3976
a(I83949
I12
tp3977
a(I24227
I12
tp3978
a(I175602
I12
tp3979
a(I144135
I12
tp3980
a(I190053
I12
tp3981
a(I131437
I12
tp3982
a(I65326
I12
tp3983
a(I179076
I12
tp3984
a(I130353
I12
tp3985
a(I57606
I12
tp3986
a(I178583
I12
tp3987
a(I171945
I12
tp3988
a(I26046
I12
tp3989
a(I159757
I12
tp3990
a(I84931
I12
tp3991
a(I11086
I12
tp3992
a(I76839
I12
tp3993
a(I59037
I12
tp3994
a(I83032
I12
tp3995
a(I21175
I12
tp3996
a(I80060
I12
tp3997
a(I20386
I12
tp3998
a(I180876
I12
tp3999
a(I156899
I12
tp4000
a(I117480
I12
tp4001
a(I135077
I12
tp4002
a(I162751
I12
tp4003
a(I49604
I12
tp4004
a(I94584
I12
tp4005
a(I97931
I12
tp4006
a(I6202
I12
tp4007
a(I140777
I12
tp4008
a(I148624
I12
tp4009
a(I99917
I12
tp4010
a(I31676
I12
tp4011
a(I37123
I12
tp4012
a(I147841
I12
tp4013
a(I29287
I12
tp4014
a(I106262
I12
tp4015
a(I124187
I12
tp4016
a(I167133
I12
tp4017
a(I93592
I12
tp4018
a(I117194
I12
tp4019
a(I39791
I12
tp4020
a(I74273
I12
tp4021
a(I159367
I12
tp4022
a(I66047
I12
tp4023
a(I74519
I12
tp4024
a(I80381
I12
tp4025
a(I71428
I12
tp4026
a(I114374
I12
tp4027
a(I119102
I12
tp4028
a(I19973
I12
tp4029
a(I90540
I12
tp4030
a(I21021
I12
tp4031
a(I142803
I12
tp4032
a(I78808
I12
tp4033
a(I69175
I12
tp4034
a(I45547
I12
tp4035
a(I165872
I12
tp4036
a(I53347
I12
tp4037
a(I143026
I12
tp4038
a(I79047
I12
tp4039
a(I129829
I12
tp4040
a(I82218
I12
tp4041
a(I22335
I12
tp4042
a(I15684
I12
tp4043
a(I21826
I12
tp4044
a(I130801
I12
tp4045
a(I17414
I12
tp4046
a(I110608
I12
tp4047
a(I155087
I12
tp4048
a(I37957
I12
tp4049
a(I118194
I12
tp4050
a(I87689
I12
tp4051
a(I14972
I12
tp4052
a(I57562
I12
tp4053
a(I102817
I12
tp4054
a(I23047
I12
tp4055
a(I190390
I12
tp4056
a(I12313
I12
tp4057
a(I163199
I12
tp4058
a(I165422
I12
tp4059
a(I17028
I12
tp4060
a(I62008
I12
tp4061
a(I14325
I12
tp4062
a(I119282
I12
tp4063
a(I165919
I12
tp4064
a(I51476
I12
tp4065
a(I37571
I12
tp4066
a(I96456
I12
tp4067
a(I15749
I12
tp4068
a(I99210
I12
tp4069
a(I45902
I12
tp4070
a(I12625
I12
tp4071
a(I64951
I12
tp4072
a(I177690
I12
tp4073
a(I103912
I12
tp4074
a(I36342
I12
tp4075
a(I120485
I12
tp4076
a(I137549
I12
tp4077
a(I109678
I12
tp4078
a(I59588
I12
tp4079
a(I131266
I12
tp4080
a(I76401
I12
tp4081
a(I170104
I12
tp4082
a(I78726
I12
tp4083
a(I23861
I12
tp4084
a(I64732
I12
tp4085
a(I150761
I12
tp4086
a(I133455
I12
tp4087
a(I86782
I12
tp4088
a(I145057
I12
tp4089
a(I20481
I12
tp4090
a(I36360
I12
tp4091
a(I171367
I12
tp4092
a(I181189
I12
tp4093
a(I43466
I12
tp4094
a(I180191
I12
tp4095
a(I99812
I12
tp4096
a(I179682
I12
tp4097
a(I18065
I12
tp4098
a(I23642
I12
tp4099
a(I192366
I12
tp4100
a(I54563
I12
tp4101
a(I139378
I12
tp4102
a(I15144
I12
tp4103
a(I185142
I12
tp4104
a(I108799
I12
tp4105
a(I30126
I12
tp4106
a(I154054
I12
tp4107
a(I84512
I12
tp4108
a(I13776
I12
tp4109
a(I107668
I12
tp4110
a(I157249
I12
tp4111
a(I53851
I12
tp4112
a(I104633
I12
tp4113
a(I17695
I12
tp4114
a(I159438
I12
tp4115
a(I195869
I12
tp4116
a(I48956
I12
tp4117
a(I125132
I12
tp4118
a(I97123
I12
tp4119
a(I103265
I12
tp4120
a(I179480
I12
tp4121
a(I105454
I12
tp4122
a(I86548
I12
tp4123
a(I170481
I12
tp4124
a(I82519
I12
tp4125
a(I174172
I12
tp4126
a(I16892
I12
tp4127
a(I169859
I12
tp4128
a(I25298
I12
tp4129
a(I36737
I12
tp4130
a(I38294
I12
tp4131
a(I116168
I12
tp4132
a(I165194
I12
tp4133
a(I77561
I12
tp4134
a(I191327
I12
tp4135
a(I6675
I12
tp4136
a(I65399
I12
tp4137
a(I75221
I12
tp4138
a(I148860
I12
tp4139
a(I166874
I12
tp4140
a(I119945
I12
tp4141
a(I2541
I12
tp4142
a(I26156
I12
tp4143
a(I47265
I12
tp4144
a(I58631
I12
tp4145
a(I134838
I12
tp4146
a(I75877
I12
tp4147
a(I19212
I12
tp4148
a(I154393
I12
tp4149
a(I99455
I12
tp4150
a(I7719
I12
tp4151
a(I115845
I12
tp4152
a(I135976
I12
tp4153
a(I66011
I12
tp4154
a(I77983
I12
tp4155
a(I175718
I12
tp4156
a(I183061
I12
tp4157
a(I96969
I12
tp4158
a(I158671
I12
tp4159
a(I168268
I12
tp4160
a(I77247
I12
tp4161
a(I177092
I12
tp4162
a(I41848
I12
tp4163
a(I143831
I12
tp4164
a(I91189
I12
tp4165
a(I43474
I12
tp4166
a(I179488
I12
tp4167
a(I122776
I12
tp4168
a(I136734
I12
tp4169
a(I25965
I12
tp4170
a(I162851
I12
tp4171
a(I84850
I12
tp4172
a(I82654
I12
tp4173
a(I129590
I12
tp4174
a(I159210
I12
tp4175
a(I105646
I12
tp4176
a(I93181
I12
tp4177
a(I121092
I12
tp4178
a(I170673
I12
tp4179
a(I149688
I12
tp4180
a(I90310
I12
tp4181
a(I56528
I12
tp4182
a(I106079
I12
tp4183
a(I64081
I12
tp4184
a(I98120
I12
tp4185
a(I45061
I12
tp4186
a(I172985
I12
tp4187
a(I82784
I12
tp4188
a(I93215
I12
tp4189
a(I199118
I12
tp4190
a(I79825
I12
tp4191
a(I91608
I12
tp4192
a(I146681
I12
tp4193
a(I70319
I12
tp4194
a(I129204
I12
tp4195
a(I20542
I12
tp4196
a(I113915
I12
tp4197
a(I77093
I12
tp4198
a(I52428
I12
tp4199
a(I136827
I12
tp4200
a(I6463
I12
tp4201
a(I27991
I12
tp4202
a(I152501
I12
tp4203
a(I103892
I12
tp4204
a(I99464
I12
tp4205
a(I136167
I12
tp4206
a(I48278
I12
tp4207
a(I162284
I12
tp4208
a(I71780
I12
tp4209
a(I75027
I12
tp4210
a(I107302
I12
tp4211
a(I178415
I12
tp4212
a(I43446
I12
tp4213
a(I114619
I12
tp4214
a(I132544
I12
tp4215
a(I51246
I12
tp4216
a(I177284
I12
tp4217
a(I45719
I12
tp4218
a(I85261
I12
tp4219
a(I83139
I12
tp4220
a(I176033
I12
tp4221
a(I109256
I12
tp4222
a(I10459
I12
tp4223
a(I152861
I12
tp4224
a(I95133
I12
tp4225
a(I131876
I12
tp4226
a(I183123
I12
tp4227
a(I133264
I12
tp4228
a(I132553
I12
tp4229
a(I192995
I12
tp4230
a(I159402
I12
tp4231
a(I160959
I12
tp4232
a(I7281
I12
tp4233
a(I88279
I12
tp4234
a(I36661
I12
tp4235
a(I110300
I12
tp4236
a(I197886
I12
tp4237
a(I26646
I12
tp4238
a(I185708
I12
tp4239
a(I148512
I12
tp4240
a(I25055
I12
tp4241
a(I2193
I12
tp4242
a(I171686
I12
tp4243
a(I91307
I12
tp4244
a(I198786
I12
tp4245
a(I45342
I12
tp4246
a(I100131
I12
tp4247
a(I114465
I12
tp4248
a(I99638
I12
tp4249
a(I110309
I12
tp4250
a(I167347
I12
tp4251
a(I169986
I12
tp4252
a(I42417
I12
tp4253
a(I166854
I12
tp4254
a(I50217
I12
tp4255
a(I80013
I12
tp4256
a(I188126
I12
tp4257
a(I7460
I12
tp4258
a(I75475
I12
tp4259
a(I39735
I12
tp4260
a(I82325
I12
tp4261
a(I29001
I12
tp4262
a(I182110
I12
tp4263
a(I189329
I12
tp4264
a(I59353
I12
tp4265
a(I13892
I12
tp4266
a(I175682
I12
tp4267
a(I46167
I12
tp4268
a(I92777
I12
tp4269
a(I193276
I12
tp4270
a(I160129
I12
tp4271
a(I194248
I12
tp4272
a(I95581
I12
tp4273
a(I34441
I12
tp4274
a(I185410
I12
tp4275
a(I148463
I12
tp4276
a(I60574
I12
tp4277
a(I180722
I12
tp4278
a(I105061
I12
tp4279
a(I90218
I12
tp4280
a(I36121
I12
tp4281
a(I30335
I12
tp4282
a(I57220
I12
tp4283
a(I59206
I12
tp4284
a(I41884
I12
tp4285
a(I38650
I12
tp4286
a(I166230
I12
tp4287
a(I94147
I12
tp4288
a(I145029
I12
tp4289
a(I120364
I12
tp4290
a(I105117
I12
tp4291
a(I183716
I12
tp4292
a(I161463
I12
tp4293
a(I146709
I12
tp4294
a(I26927
I12
tp4295
a(I111326
I12
tp4296
a(I26238
I12
tp4297
a(I34550
I12
tp4298
a(I178542
I12
tp4299
a(I47037
I12
tp4300
a(I91588
I12
tp4301
a(I146490
I12
tp4302
a(I92244
I12
tp4303
a(I177411
I12
tp4304
a(I190337
I12
tp4305
a(I74442
I12
tp4306
a(I166111
I12
tp4307
a(I41181
I12
tp4308
a(I179091
I12
tp4309
a(I14050
I12
tp4310
a(I156412
I12
tp4311
a(I49007
I12
tp4312
a(I186221
I12
tp4313
a(I77347
I12
tp4314
a(I129177
I12
tp4315
a(I42495
I12
tp4316
a(I24061
I12
tp4317
a(I74498
I12
tp4318
a(I150705
I12
tp4319
a(I21190
I12
tp4320
a(I195701
I12
tp4321
a(I115322
I12
tp4322
a(I115597
I12
tp4323
a(I143132
I12
tp4324
a(I41288
I12
tp4325
a(I180135
I12
tp4326
a(I18442
I12
tp4327
a(I46432
I12
tp4328
a(I48711
I12
tp4329
a(I95773
I12
tp4330
a(I147923
I12
tp4331
a(I31185
I12
tp4332
a(I55256
I12
tp4333
a(I170057
I12
tp4334
a(I93281
I12
tp4335
a(I7973
I12
tp4336
a(I179916
I12
tp4337
a(I189738
I12
tp4338
a(I84799
I12
tp4339
a(I53572
I12
tp4340
a(I4849
I12
tp4341
a(I30726
I12
tp4342
a(I138709
I12
tp4343
a(I96658
I12
tp4344
a(I118975
I12
tp4345
a(I27085
I12
tp4346
a(I193691
I12
tp4347
a(I23200
I12
tp4348
a(I91231
I12
tp4349
a(I40029
I12
tp4350
a(I122492
I12
tp4351
a(I197850
I12
tp4352
a(I749
I12
tp4353
a(I153004
I12
tp4354
a(I196103
I12
tp4355
a(I2922
I12
tp4356
a(I21529
I12
tp4357
a(I178734
I12
tp4358
a(I51
I12
tp4359
a(I11253
I12
tp4360
a(I117404
I12
tp4361
a(I176634
I12
tp4362
a(I23209
I12
tp4363
a(I41150
I12
tp4364
a(I81677
I12
tp4365
a(I44737
I12
tp4366
a(I39643
I12
tp4367
a(I165405
I12
tp4368
a(I40199
I12
tp4369
a(I103332
I12
tp4370
a(I124860
I12
tp4371
a(I128969
I12
tp4372
a(I24030
I12
tp4373
a(I108589
I12
tp4374
a(I74723
I12
tp4375
a(I68072
I12
tp4376
a(I33863
I12
tp4377
a(I8694
I12
tp4378
a(I64089
I12
tp4379
a(I22131
I12
tp4380
a(I192821
I12
tp4381
a(I173762
I12
tp4382
a(I11599
I12
tp4383
a(I30462
I12
tp4384
a(I45415
I12
tp4385
a(I186902
I12
tp4386
a(I21471
I12
tp4387
a(I178660
I12
tp4388
a(I162449
I12
tp4389
a(I153259
I12
tp4390
a(I18031
I12
tp4391
a(I189214
I12
tp4392
a(I192299
I12
tp4393
a(I96054
I12
tp4394
a(I45964
I12
tp4395
a(I124650
I12
tp4396
a(I118015
I12
tp4397
a(I130995
I12
tp4398
a(I84482
I12
tp4399
a(I159046
I12
tp4400
a(I60794
I12
tp4401
a(I127631
I12
tp4402
a(I158349
I12
tp4403
a(I18504
I12
tp4404
a(I158312
I12
tp4405
a(I30299
I12
tp4406
a(I121952
I12
tp4407
a(I152548
I12
tp4408
a(I183607
I12
tp4409
a(I111509
I12
tp4410
a(I119612
I12
tp4411
a(I140105
I12
tp4412
a(I120180
I12
tp4413
a(I106339
I12
tp4414
a(I185489
I12
tp4415
a(I46945
I12
tp4416
a(I58235
I12
tp4417
a(I101418
I12
tp4418
a(I182400
I12
tp4419
a(I193486
I12
tp4420
a(I132595
I12
tp4421
a(I197382
I12
tp4422
a(I45440
I12
tp4423
a(I65296
I12
tp4424
a(I8830
I12
tp4425
a(I2947
I12
tp4426
a(I114195
I12
tp4427
a(I197656
I12
tp4428
a(I22997
I12
tp4429
a(I98859
I12
tp4430
a(I18569
I12
tp4431
a(I107683
I12
tp4432
a(I150701
I12
tp4433
a(I98692
I12
tp4434
a(I83974
I12
tp4435
a(I165200
I12
tp4436
a(I175631
I12
tp4437
a(I84417
I12
tp4438
a(I96389
I12
tp4439
a(I198952
I12
tp4440
a(I118410
I12
tp4441
a(I190521
I12
tp4442
a(I47780
I12
tp4443
a(I130129
I12
tp4444
a(I69308
I12
tp4445
a(I171721
I12
tp4446
a(I187183
I12
tp4447
a(I124126
I12
tp4448
a(I150243
I12
tp4449
a(I88370
I12
tp4450
a(I58081
I12
tp4451
a(I53480
I12
tp4452
a(I84214
I12
tp4453
a(I53186
I12
tp4454
a(I55892
I12
tp4455
a(I52488
I12
tp4456
a(I151840
I12
tp4457
a(I111957
I12
tp4458
a(I39770
I12
tp4459
a(I182192
I12
tp4460
a(I6509
I12
tp4461
a(I133153
I12
tp4462
a(I189992
I12
tp4463
a(I197098
I12
tp4464
a(I10905
I12
tp4465
a(I100019
I12
tp4466
a(I66758
I12
tp4467
a(I191179
I12
tp4468
a(I160117
I12
tp4469
a(I173886
I12
tp4470
a(I101699
I12
tp4471
a(I161708
I12
tp4472
a(I98335
I12
tp4473
a(I69154
I12
tp4474
a(I45542
I12
tp4475
a(I198635
I12
tp4476
a(I8346
I12
tp4477
a(I160354
I12
tp4478
a(I60559
I12
tp4479
a(I175789
I12
tp4480
a(I105652
I12
tp4481
a(I167016
I12
tp4482
a(I107638
I12
tp4483
a(I24780
I12
tp4484
a(I70528
I12
tp4485
a(I47938
I12
tp4486
a(I128949
I12
tp4487
a(I122298
I12
tp4488
a(I1552
I12
tp4489
a(I56269
I12
tp4490
a(I172498
I12
tp4491
a(I51841
I12
tp4492
a(I117699
I12
tp4493
a(I20630
I12
tp4494
a(I140955
I12
tp4495
a(I22803
I12
tp4496
a(I119906
I12
tp4497
a(I12056
I12
tp4498
a(I149286
I12
tp4499
a(I45872
I12
tp4500
a(I184227
I12
tp4501
a(I112140
I12
tp4502
a(I163178
I12
tp4503
a(I34329
I12
tp4504
a(I92721
I12
tp4505
a(I186424
I12
tp4506
a(I7669
I12
tp4507
a(I199849
I12
tp4508
a(I135361
I12
tp4509
a(I124630
I12
tp4510
a(I41772
I12
tp4511
a(I112932
I12
tp4512
a(I115639
I12
tp4513
a(I131795
I12
tp4514
a(I105498
I12
tp4515
a(I156207
I12
tp4516
a(I18484
I12
tp4517
a(I5603
I12
tp4518
a(I134625
I12
tp4519
a(I146597
I12
tp4520
a(I109657
I12
tp4521
a(I178442
I12
tp4522
a(I104563
I12
tp4523
a(I71362
I12
tp4524
a(I129795
I12
tp4525
a(I35130
I12
tp4526
a(I145662
I12
tp4527
a(I58708
I12
tp4528
a(I149868
I12
tp4529
a(I129056
I12
tp4530
a(I177299
I12
tp4531
a(I137880
I12
tp4532
a(I130288
I12
tp4533
a(I151305
I12
tp4534
a(I47907
I12
tp4535
a(I119585
I12
tp4536
a(I148197
I12
tp4537
a(I108778
I12
tp4538
a(I55729
I12
tp4539
a(I92188
I12
tp4540
a(I13771
I12
tp4541
a(I24442
I12
tp4542
a(I74895
I12
tp4543
a(I163551
I12
tp4544
a(I187533
I12
tp4545
a(I35476
I12
tp4546
a(I85057
I12
tp4547
a(I145992
I12
tp4548
a(I34983
I12
tp4549
a(I119382
I12
tp4550
a(I34020
I12
tp4551
a(I154323
I12
tp4552
a(I108834
I12
tp4553
a(I153830
I12
tp4554
a(I91541
I12
tp4555
a(I12011
I12
tp4556
a(I86447
I12
tp4557
a(I115043
I12
tp4558
a(I92197
I12
tp4559
a(I178784
I12
tp4560
a(I10327
I12
tp4561
a(I95494
I12
tp4562
a(I182991
I12
tp4563
a(I97667
I12
tp4564
a(I144811
I12
tp4565
a(I132421
I12
tp4566
a(I127327
I12
tp4567
a(I125277
I12
tp4568
a(I51044
I12
tp4569
a(I57363
I12
tp4570
a(I32610
I12
tp4571
a(I17783
I12
tp4572
a(I29739
I12
tp4573
a(I88624
I12
tp4574
a(I157679
I12
tp4575
a(I187757
I12
tp4576
a(I74009
I12
tp4577
a(I27263
I12
tp4578
a(I138547
I12
tp4579
a(I158594
I12
tp4580
a(I79153
I12
tp4581
a(I170822
I12
tp4582
a(I68346
I12
tp4583
a(I96080
I12
tp4584
a(I135183
I12
tp4585
a(I114110
I12
tp4586
a(I26132
I12
tp4587
a(I92616
I12
tp4588
a(I58407
I12
tp4589
a(I164310
I12
tp4590
a(I196064
I12
tp4591
a(I93348
I12
tp4592
a(I11857
I12
tp4593
a(I138328
I12
tp4594
a(I158391
I12
tp4595
a(I6763
I12
tp4596
a(I42778
I12
tp4597
a(I90224
I12
tp4598
a(I167215
I12
tp4599
a(I37684
I12
tp4600
a(I133938
I12
tp4601
a(I187518
I12
tp4602
a(I102727
I12
tp4603
a(I18341
I12
tp4604
a(I76733
I12
tp4605
a(I12738
I12
tp4606
a(I100728
I12
tp4607
a(I133079
I12
tp4608
a(I75139
I12
tp4609
a(I28124
I12
tp4610
a(I53306
I12
tp4611
a(I50174
I12
tp4612
a(I138625
I12
tp4613
a(I48411
I12
tp4614
a(I33568
I12
tp4615
a(I173464
I12
tp4616
a(I78071
I12
tp4617
a(I150874
I12
tp4618
a(I49699
I12
tp4619
a(I151922
I12
tp4620
a(I31265
I12
tp4621
a(I42631
I12
tp4622
a(I175346
I12
tp4623
a(I90798
I12
tp4624
a(I83714
I12
tp4625
a(I155825
I12
tp4626
a(I4213
I12
tp4627
a(I158014
I12
tp4628
a(I21415
I12
tp4629
a(I130390
I12
tp4630
a(I170472
I12
tp4631
a(I17243
I12
tp4632
a(I60426
I12
tp4633
a(I166329
I12
tp4634
a(I51322
I12
tp4635
a(I156646
I12
tp4636
a(I134293
I12
tp4637
a(I70298
I12
tp4638
a(I146505
I12
tp4639
a(I157795
I12
tp4640
a(I65633
I12
tp4641
a(I148864
I12
tp4642
a(I1853
I12
tp4643
a(I68185
I12
tp4644
a(I106533
I12
tp4645
a(I7174
I12
tp4646
a(I55644
I12
tp4647
a(I123403
I12
tp4648
a(I10601
I12
tp4649
a(I18448
I12
tp4650
a(I132227
I12
tp4651
a(I194881
I12
tp4652
a(I53228
I12
tp4653
a(I78410
I12
tp4654
a(I71775
I12
tp4655
a(I28260
I12
tp4656
a(I41745
I12
tp4657
a(I4376
I12
tp4658
a(I27767
I12
tp4659
a(I21205
I12
tp4660
a(I58672
I12
tp4661
a(I11166
I12
tp4662
a(I141037
I12
tp4663
a(I101618
I12
tp4664
a(I70151
I12
tp4665
a(I96268
I12
tp4666
a(I143210
I12
tp4667
a(I177535
I12
tp4668
a(I42035
I12
tp4669
a(I93852
I12
tp4670
a(I13985
I12
tp4671
a(I139726
I12
tp4672
a(I174294
I12
tp4673
a(I58681
I12
tp4674
a(I186170
I12
tp4675
a(I22941
I12
tp4676
a(I18769
I12
tp4677
a(I177591
I12
tp4678
a(I63509
I12
tp4679
a(I19994
I12
tp4680
a(I101232
I12
tp4681
a(I51171
I12
tp4682
a(I184882
I12
tp4683
a(I47175
I12
tp4684
a(I128170
I12
tp4685
a(I12544
I12
tp4686
a(I148308
I12
tp4687
a(I88258
I12
tp4688
a(I25201
I12
tp4689
a(I152674
I12
tp4690
a(I20875
I12
tp4691
a(I125991
I12
tp4692
a(I85842
I12
tp4693
a(I2937
I12
tp4694
a(I126941
I12
tp4695
a(I117912
I12
tp4696
a(I74236
I12
tp4697
a(I5210
I12
tp4698
a(I151728
I12
tp4699
a(I180340
I12
tp4700
a(I191779
I12
tp4701
a(I127298
I12
tp4702
a(I101806
I12
tp4703
a(I168883
I12
tp4704
a(I159234
I12
tp4705
a(I195000
I12
tp4706
a(I179061
I12
tp4707
a(I26571
I12
tp4708
a(I166066
I12
tp4709
a(I110654
I12
tp4710
a(I167565
I12
tp4711
a(I129703
I12
tp4712
a(I33878
I12
tp4713
a(I172293
I12
tp4714
a(I111901
I12
tp4715
a(I68819
I12
tp4716
a(I173265
I12
tp4717
a(I90423
I12
tp4718
a(I194364
I12
tp4719
a(I168171
I12
tp4720
a(I132015
I12
tp4721
a(I48045
I12
tp4722
a(I60544
I12
tp4723
a(I42758
I12
tp4724
a(I137088
I12
tp4725
a(I70416
I12
tp4726
a(I18046
I12
tp4727
a(I146130
I12
tp4728
a(I231
I12
tp4729
a(I44438
I12
tp4730
a(I194373
I12
tp4731
a(I144283
I12
tp4732
a(I107359
I12
tp4733
a(I27687
I12
tp4734
a(I199126
I12
tp4735
a(I112503
I12
tp4736
a(I115674
I12
tp4737
a(I10735
I12
tp4738
a(I94878
I12
tp4739
a(I62238
I12
tp4740
a(I109755
I12
tp4741
a(I95850
I12
tp4742
a(I56447
I12
tp4743
a(I184742
I12
tp4744
a(I107415
I12
tp4745
a(I5877
I12
tp4746
a(I6569
I12
tp4747
a(I93633
I12
tp4748
a(I56264
I12
tp4749
a(I160726
I12
tp4750
a(I40069
I12
tp4751
a(I20922
I12
tp4752
a(I57501
I12
tp4753
a(I47977
I12
tp4754
a(I135249
I12
tp4755
a(I789
I12
tp4756
a(I59674
I12
tp4757
a(I176841
I12
tp4758
a(I157647
I12
tp4759
a(I71469
I12
tp4760
a(I50484
I12
tp4761
a(I1761
I12
tp4762
a(I29928
I12
tp4763
a(I115800
I12
tp4764
a(I105917
I12
tp4765
a(I186632
I12
tp4766
a(I5491
I12
tp4767
a(I165197
I12
tp4768
a(I103046
I12
tp4769
a(I24540
I12
tp4770
a(I26703
I12
tp4771
a(I104018
I12
tp4772
a(I45825
I12
tp4773
a(I90376
I12
tp4774
a(I179336
I12
tp4775
a(I128253
I12
tp4776
a(I138975
I12
tp4777
a(I149756
I12
tp4778
a(I71083
I12
tp4779
a(I88073
I12
tp4780
a(I15725
I12
tp4781
a(I60276
I12
tp4782
a(I66418
I12
tp4783
a(I142369
I12
tp4784
a(I137768
I12
tp4785
a(I90085
I12
tp4786
a(I135428
I12
tp4787
a(I198914
I12
tp4788
a(I139031
I12
tp4789
a(I49312
I12
tp4790
a(I169845
I12
tp4791
a(I56126
I12
tp4792
a(I108941
I12
tp4793
a(I186689
I12
tp4794
a(I116741
I12
tp4795
a(I60332
I12
tp4796
a(I39776
I12
tp4797
a(I49614
I12
tp4798
a(I89117
I12
tp4799
a(I35364
I12
tp4800
a(I55251
I12
tp4801
a(I8738
I12
tp4802
a(I67639
I12
tp4803
a(I29790
I12
tp4804
a(I88675
I12
tp4805
a(I77435
I12
tp4806
a(I117053
I12
tp4807
a(I63729
I12
tp4808
a(I22264
I12
tp4809
a(I75095
I12
tp4810
a(I118278
I12
tp4811
a(I94650
I12
tp4812
a(I48197
I12
tp4813
a(I95875
I12
tp4814
a(I44007
I12
tp4815
a(I24875
I12
tp4816
a(I189514
I12
tp4817
a(I53348
I12
tp4818
a(I181016
I12
tp4819
a(I147755
I12
tp4820
a(I145289
I12
tp4821
a(I189347
I12
tp4822
a(I65266
I12
tp4823
a(I50183
I12
tp4824
a(I29048
I12
tp4825
a(I187840
I12
tp4826
a(I73897
I12
tp4827
a(I93455
I12
tp4828
a(I46782
I12
tp4829
a(I62228
I12
tp4830
a(I50988
I12
tp4831
a(I57563
I12
tp4832
a(I134045
I12
tp4833
a(I124393
I12
tp4834
a(I176154
I12
tp4835
a(I27207
I12
tp4836
a(I38843
I12
tp4837
a(I184485
I12
tp4838
a(I171515
I12
tp4839
a(I108202
I12
tp4840
a(I82009
I12
tp4841
a(I90880
I12
tp4842
a(I107709
I12
tp4843
a(I37572
I12
tp4844
a(I15475
I12
tp4845
a(I15750
I12
tp4846
a(I30441
I12
tp4847
a(I190864
I12
tp4848
a(I187646
I12
tp4849
a(I139779
I12
tp4850
a(I177826
I12
tp4851
a(I185290
I12
tp4852
a(I7200
I12
tp4853
a(I135140
I12
tp4854
a(I82065
I12
tp4855
a(I69111
I12
tp4856
a(I120486
I12
tp4857
a(I119536
I12
tp4858
a(I50778
I12
tp4859
a(I188195
I12
tp4860
a(I142897
I12
tp4861
a(I30497
I12
tp4862
a(I39308
I12
tp4863
a(I172859
I12
tp4864
a(I120456
I12
tp4865
a(I116148
I12
tp4866
a(I17843
I12
tp4867
a(I191861
I12
tp4868
a(I37637
I12
tp4869
a(I12972
I12
tp4870
a(I131769
I12
tp4871
a(I59598
I12
tp4872
a(I163539
I12
tp4873
a(I182712
I12
tp4874
a(I101413
I12
tp4875
a(I12236
I12
tp4876
a(I123934
I12
tp4877
a(I157250
I12
tp4878
a(I78517
I12
tp4879
a(I6330
I12
tp4880
a(I198349
I12
tp4881
a(I160980
I12
tp4882
a(I35201
I12
tp4883
a(I184302
I12
tp4884
a(I139158
I12
tp4885
a(I103775
I12
tp4886
a(I81422
I12
tp4887
a(I70498
I12
tp4888
a(I179217
I12
tp4889
a(I96631
I12
tp4890
a(I33318
I12
tp4891
a(I151420
I12
tp4892
a(I13786
I12
tp4893
a(I74910
I12
tp4894
a(I74401
I12
tp4895
a(I25630
I12
tp4896
a(I196827
I12
tp4897
a(I112746
I12
tp4898
a(I108157
I12
tp4899
a(I88434
I12
tp4900
a(I177167
I12
tp4901
a(I134600
I12
tp4902
a(I173526
I12
tp4903
a(I118405
I12
tp4904
a(I3035
I12
tp4905
a(I130617
I12
tp4906
a(I4576
I12
tp4907
a(I109139
I12
tp4908
a(I115281
I12
tp4909
a(I123731
I12
tp4910
a(I5308
I12
tp4911
a(I58569
I12
tp4912
a(I170833
I12
tp4913
a(I116961
I12
tp4914
a(I122614
I12
tp4915
a(I31653
I12
tp4916
a(I105292
I12
tp4917
a(I83827
I12
tp4918
a(I15319
I12
tp4919
a(I33244
I12
tp4920
a(I128058
I12
tp4921
a(I168425
I12
tp4922
a(I12432
I12
tp4923
a(I118019
I12
tp4924
a(I111489
I12
tp4925
a(I158382
I12
tp4926
a(I132217
I12
tp4927
a(I16607
I12
tp4928
a(I120580
I12
tp4929
a(I94630
I12
tp4930
a(I77232
I12
tp4931
a(I102430
I12
tp4932
a(I154996
I12
tp4933
a(I186036
I12
tp4934
a(I191667
I12
tp4935
a(I198871
I12
tp4936
a(I46197
I12
tp4937
a(I105357
I12
tp4938
a(I149908
I12
tp4939
a(I136003
I12
tp4940
a(I63816
I12
tp4941
a(I96167
I12
tp4942
a(I17611
I12
tp4943
a(I65546
I12
tp4944
a(I85344
I12
tp4945
a(I78798
I12
tp4946
a(I103458
I12
tp4947
a(I111057
I12
tp4948
a(I13978
I12
tp4949
a(I53321
I12
tp4950
a(I29680
I12
tp4951
a(I58036
I12
tp4952
a(I151870
I12
tp4953
a(I55077
I12
tp4954
a(I30412
I12
tp4955
a(I135291
I12
tp4956
a(I81194
I12
tp4957
a(I76529
I12
tp4958
a(I137464
I12
tp4959
a(I71511
I12
tp4960
a(I67083
I12
tp4961
a(I191504
I12
tp4962
a(I118913
I12
tp4963
a(I128622
I12
tp4964
a(I49221
I12
tp4965
a(I80482
I12
tp4966
a(I13099
I12
tp4967
a(I162185
I12
tp4968
a(I188844
I12
tp4969
a(I72716
I12
tp4970
a(I192561
I12
tp4971
a(I176414
I12
tp4972
a(I51706
I12
tp4973
a(I194750
I12
tp4974
a(I161549
I12
tp4975
a(I75028
I12
tp4976
a(I87240
I12
tp4977
a(I74535
I12
tp4978
a(I53979
I12
tp4979
a(I130461
I12
tp4980
a(I175012
I12
tp4981
a(I114620
I12
tp4982
a(I156186
I12
tp4983
a(I4041
I12
tp4984
a(I5598
I12
tp4985
a(I122420
I12
tp4986
a(I191984
I12
tp4987
a(I103393
I12
tp4988
a(I129526
I12
tp4989
a(I46040
I12
tp4990
a(I92330
I12
tp4991
a(I74346
I12
tp4992
a(I134711
I12
tp4993
a(I31938
I12
tp4994
a(I160888
I12
tp4995
a(I94086
I12
tp4996
a(I75996
I12
tp4997
a(I25935
I12
tp4998
a(I52052
I12
tp4999
a(I199681
I12
tp5000
a(I49093
I12
tp5001
a(I129051
I12
tp5002
a(I137882
I12
tp5003
a(I99293
I12
tp5004
a(I173129
I12
tp5005
a(I65527
I12
tp5006
a(I181756
I12
tp5007
a(I152841
I12
tp5008
a(I138579
I12
tp5009
a(I72818
I12
tp5010
a(I25991
I12
tp5011
a(I76005
I12
tp5012
a(I197887
I12
tp5013
a(I48381
I12
tp5014
a(I158212
I12
tp5015
a(I124951
I12
tp5016
a(I163356
I12
tp5017
a(I57808
I12
tp5018
a(I67730
I12
tp5019
a(I184897
I12
tp5020
a(I196680
I12
tp5021
a(I138919
I12
tp5022
a(I79958
I12
tp5023
a(I167515
I12
tp5024
a(I79576
I12
tp5025
a(I185680
I12
tp5026
a(I31561
I12
tp5027
a(I6896
I12
tp5028
a(I75695
I12
tp5029
a(I16734
I12
tp5030
a(I184161
I12
tp5031
a(I134087
I12
tp5032
a(I102860
I12
tp5033
a(I17450
I12
tp5034
a(I82493
I12
tp5035
a(I89587
I12
tp5036
a(I81495
I12
tp5037
a(I150202
I12
tp5038
a(I177936
I12
tp5039
a(I64126
I12
tp5040
a(I84173
I12
tp5041
a(I16790
I12
tp5042
a(I92997
I12
tp5043
a(I165619
I12
tp5044
a(I73776
I12
tp5045
a(I169630
I12
tp5046
a(I119796
I12
tp5047
a(I64675
I12
tp5048
a(I84978
I12
tp5049
a(I38049
I12
tp5050
a(I173836
I12
tp5051
a(I147643
I12
tp5052
a(I94335
I12
tp5053
a(I7470
I12
tp5054
a(I192898
I12
tp5055
a(I39729
I12
tp5056
a(I181254
I12
tp5057
a(I44444
I12
tp5058
a(I96075
I12
tp5059
a(I187728
I12
tp5060
a(I73229
I12
tp5061
a(I59843
I12
tp5062
a(I58386
I12
tp5063
a(I33217
I12
tp5064
a(I151596
I12
tp5065
a(I82912
I12
tp5066
a(I60575
I12
tp5067
a(I177742
I12
tp5068
a(I1181
I12
tp5069
a(I29348
I12
tp5070
a(I27298
I12
tp5071
a(I134426
I12
tp5072
a(I179422
I12
tp5073
a(I47841
I12
tp5074
a(I92392
I12
tp5075
a(I196854
I12
tp5076
a(I52556
I12
tp5077
a(I38651
I12
tp5078
a(I117410
I12
tp5079
a(I46726
I12
tp5080
a(I177454
I12
tp5081
a(I17385
I12
tp5082
a(I141822
I12
tp5083
a(I135764
I12
tp5084
a(I1288
I12
tp5085
a(I18117
I12
tp5086
a(I66331
I12
tp5087
a(I26912
I12
tp5088
a(I42387
I12
tp5089
a(I132855
I12
tp5090
a(I35243
I12
tp5091
a(I73648
I12
tp5092
a(I43043
I12
tp5093
a(I180257
I12
tp5094
a(I114216
I12
tp5095
a(I120374
I12
tp5096
a(I156313
I12
tp5097
a(I576
I12
tp5098
a(I79108
I12
tp5099
a(I107704
I12
tp5100
a(I148803
I12
tp5101
a(I32065
I12
tp5102
a(I181078
I12
tp5103
a(I10587
I12
tp5104
a(I171961
I12
tp5105
a(I150483
I12
tp5106
a(I179241
I12
tp5107
a(I55542
I12
tp5108
a(I157357
I12
tp5109
a(I21684
I12
tp5110
a(I170277
I12
tp5111
a(I148091
I12
tp5112
a(I58611
I12
tp5113
a(I171249
I12
tp5114
a(I4021
I12
tp5115
a(I44892
I12
tp5116
a(I31186
I12
tp5117
a(I125078
I12
tp5118
a(I87532
I12
tp5119
a(I50336
I12
tp5120
a(I165469
I12
tp5121
a(I120406
I12
tp5122
a(I171814
I12
tp5123
a(I22652
I12
tp5124
a(I199917
I12
tp5125
a(I66998
I12
tp5126
a(I149168
I12
tp5127
a(I177514
I12
tp5128
a(I105343
I12
tp5129
a(I177021
I12
tp5130
a(I57476
I12
tp5131
a(I100915
I12
tp5132
a(I87541
I12
tp5133
a(I62620
I12
tp5134
a(I171595
I12
tp5135
a(I76478
I12
tp5136
a(I167788
I12
tp5137
a(I78019
I12
tp5138
a(I102162
I12
tp5139
a(I52025
I12
tp5140
a(I191200
I12
tp5141
a(I119118
I12
tp5142
a(I128292
I12
tp5143
a(I75110
I12
tp5144
a(I19989
I12
tp5145
a(I35691
I12
tp5146
a(I119834
I12
tp5147
a(I65588
I12
tp5148
a(I3655
I12
tp5149
a(I182894
I12
tp5150
a(I45081
I12
tp5151
a(I51313
I12
tp5152
a(I75384
I12
tp5153
a(I20870
I12
tp5154
a(I105180
I12
tp5155
a(I3472
I12
tp5156
a(I50691
I12
tp5157
a(I4473
I12
tp5158
a(I91790
I12
tp5159
a(I128477
I12
tp5160
a(I117907
I12
tp5161
a(I31322
I12
tp5162
a(I108208
I12
tp5163
a(I159006
I12
tp5164
a(I194669
I12
tp5165
a(I193315
I12
tp5166
a(I183922
I12
tp5167
a(I27425
I12
tp5168
a(I186664
I12
tp5169
a(I116539
I12
tp5170
a(I134777
I12
tp5171
a(I102833
I12
tp5172
a(I164213
I12
tp5173
a(I104314
I12
tp5174
a(I70797
I12
tp5175
a(I115348
I12
tp5176
a(I64146
I12
tp5177
a(I180391
I12
tp5178
a(I156447
I12
tp5179
a(I39709
I12
tp5180
a(I51492
I12
tp5181
a(I103123
I12
tp5182
a(I57634
I12
tp5183
a(I37094
I12
tp5184
a(I150768
I12
tp5185
a(I104370
I12
tp5186
a(I45409
I12
tp5187
a(I196039
I12
tp5188
a(I8229
I12
tp5189
a(I82892
I12
tp5190
a(I80366
I12
tp5191
a(I78909
I12
tp5192
a(I182548
I12
tp5193
a(I90199
I12
tp5194
a(I99023
I12
tp5195
a(I178893
I12
tp5196
a(I164050
I12
tp5197
a(I44417
I12
tp5198
a(I172566
I12
tp5199
a(I45974
I12
tp5200
a(I140106
I12
tp5201
a(I134680
I12
tp5202
a(I35883
I12
tp5203
a(I127625
I12
tp5204
a(I44707
I12
tp5205
a(I81394
I12
tp5206
a(I50849
I12
tp5207
a(I168440
I12
tp5208
a(I131346
I12
tp5209
a(I184110
I12
tp5210
a(I101252
I12
tp5211
a(I41858
I12
tp5212
a(I80696
I12
tp5213
a(I21318
I12
tp5214
a(I145739
I12
tp5215
a(I17146
I12
tp5216
a(I94121
I12
tp5217
a(I43023
I12
tp5218
a(I193982
I12
tp5219
a(I153106
I12
tp5220
a(I95054
I12
tp5221
a(I18570
I12
tp5222
a(I154786
I12
tp5223
a(I172727
I12
tp5224
a(I59669
I12
tp5225
a(I67772
I12
tp5226
a(I17711
I12
tp5227
a(I32045
I12
tp5228
a(I142132
I12
tp5229
a(I94966
I12
tp5230
a(I73637
I12
tp5231
a(I69465
I12
tp5232
a(I130487
I12
tp5233
a(I152788
I12
tp5234
a(I118411
I12
tp5235
a(I190522
I12
tp5236
a(I193819
I12
tp5237
a(I47225
I12
tp5238
a(I117476
I12
tp5239
a(I144240
I12
tp5240
a(I97195
I12
tp5241
a(I99674
I12
tp5242
a(I158575
I12
tp5243
a(I197485
I12
tp5244
a(I29044
I12
tp5245
a(I12833
I12
tp5246
a(I6198
I12
tp5247
a(I50316
I12
tp5248
a(I2557
I12
tp5249
a(I124676
I12
tp5250
a(I19228
I12
tp5251
a(I34703
I12
tp5252
a(I41278
I12
tp5253
a(I14147
I12
tp5254
a(I177494
I12
tp5255
a(I72539
I12
tp5256
a(I8733
I12
tp5257
a(I167972
I12
tp5258
a(I81363
I12
tp5259
a(I172329
I12
tp5260
a(I167414
I12
tp5261
a(I146406
I12
tp5262
a(I50325
I12
tp5263
a(I62537
I12
tp5264
a(I75949
I12
tp5265
a(I1716
I12
tp5266
a(I147122
I12
tp5267
a(I110198
I12
tp5268
a(I191180
I12
tp5269
a(I15608
I12
tp5270
a(I118741
I12
tp5271
a(I30590
I12
tp5272
a(I154755
I12
tp5273
a(I43986
I12
tp5274
a(I112288
I12
tp5275
a(I163086
I12
tp5276
a(I42596
I12
tp5277
a(I17171
I12
tp5278
a(I97041
I12
tp5279
a(I10520
I12
tp5280
a(I9335
I12
tp5281
a(I153387
I12
tp5282
a(I91038
I12
tp5283
a(I18851
I12
tp5284
a(I174705
I12
tp5285
a(I161718
I12
tp5286
a(I169518
I12
tp5287
a(I180792
I12
tp5288
a(I180299
I12
tp5289
a(I153168
I12
tp5290
a(I191245
I12
tp5291
a(I90819
I12
tp5292
a(I149287
I12
tp5293
a(I57558
I12
tp5294
a(I11564
I12
tp5295
a(I197454
I12
tp5296
a(I164177
I12
tp5297
a(I62053
I12
tp5298
a(I17264
I12
tp5299
a(I160308
I12
tp5300
a(I83532
I12
tp5301
a(I199850
I12
tp5302
a(I54873
I12
tp5303
a(I149760
I12
tp5304
a(I68285
I12
tp5305
a(I190167
I12
tp5306
a(I187625
I12
tp5307
a(I166702
I12
tp5308
a(I93543
I12
tp5309
a(I134664
I12
tp5310
a(I165501
I12
tp5311
a(I25120
I12
tp5312
a(I16019
I12
tp5313
a(I36322
I12
tp5314
a(I165016
I12
tp5315
a(I96764
I12
tp5316
a(I181935
I12
tp5317
a(I137332
I12
tp5318
a(I75043
I12
tp5319
a(I40768
I12
tp5320
a(I83374
I12
tp5321
a(I86269
I12
tp5322
a(I90665
I12
tp5323
a(I51262
I12
tp5324
a(I149133
I12
tp5325
a(I24131
I12
tp5326
a(I95809
I12
tp5327
a(I9288
I12
tp5328
a(I56406
I12
tp5329
a(I157881
I12
tp5330
a(I85277
I12
tp5331
a(I157022
I12
tp5332
a(I181115
I12
tp5333
a(I88498
I12
tp5334
a(I160920
I12
tp5335
a(I124477
I12
tp5336
a(I182264
I12
tp5337
a(I167231
I12
tp5338
a(I56020
I12
tp5339
a(I73601
I12
tp5340
a(I44780
I12
tp5341
a(I52123
I12
tp5342
a(I136029
I12
tp5343
a(I63842
I12
tp5344
a(I114340
I12
tp5345
a(I46549
I12
tp5346
a(I185724
I12
tp5347
a(I34977
I12
tp5348
a(I91323
I12
tp5349
a(I167530
I12
tp5350
a(I38015
I12
tp5351
a(I3197
I12
tp5352
a(I48945
I12
tp5353
a(I77557
I12
tp5354
a(I191307
I12
tp5355
a(I165813
I12
tp5356
a(I29008
I12
tp5357
a(I162393
I12
tp5358
a(I104466
I12
tp5359
a(I80522
I12
tp5360
a(I134818
I12
tp5361
a(I198232
I12
tp5362
a(I38071
I12
tp5363
a(I103952
I12
tp5364
a(I1131
I12
tp5365
a(I92784
I12
tp5366
a(I23934
I12
tp5367
a(I74998
I12
tp5368
a(I66500
I12
tp5369
a(I48066
I12
tp5370
a(I181617
I12
tp5371
a(I144248
I12
tp5372
a(I10886
I12
tp5373
a(I59369
I12
tp5374
a(I52734
I12
tp5375
a(I119555
I12
tp5376
a(I19201
I12
tp5377
a(I178440
I12
tp5378
a(I170604
I12
tp5379
a(I167200
I12
tp5380
a(I121235
I12
tp5381
a(I21730
I12
tp5382
a(I98556
I12
tp5383
a(I161626
I12
tp5384
a(I4105
I12
tp5385
a(I26142
I12
tp5386
a(I95597
I12
tp5387
a(I41844
I12
tp5388
a(I161435
I12
tp5389
a(I97770
I12
tp5390
a(I115711
I12
tp5391
a(I93358
I12
tp5392
a(I193203
I12
tp5393
a(I137845
I12
tp5394
a(I155770
I12
tp5395
a(I103230
I12
tp5396
a(I155047
I12
tp5397
a(I131077
I12
tp5398
a(I169482
I12
tp5399
a(I168989
I12
tp5400
a(I159699
I12
tp5401
a(I60902
I12
tp5402
a(I7322
I12
tp5403
a(I23024
I12
tp5404
a(I105133
I12
tp5405
a(I199265
I12
tp5406
a(I194664
I12
tp5407
a(I48421
I12
tp5408
a(I122060
I12
tp5409
a(I125963
I12
tp5410
a(I29200
I12
tp5411
a(I8143
I12
tp5412
a(I14718
I12
tp5413
a(I14285
I12
tp5414
a(I157140
I12
tp5415
a(I40402
I12
tp5416
a(I136328
I12
tp5417
a(I123879
I12
tp5418
a(I134294
I12
tp5419
a(I22085
I12
tp5420
a(I88569
I12
tp5421
a(I131884
I12
tp5422
a(I187844
I12
tp5423
a(I177427
I12
tp5424
a(I98402
I12
tp5425
a(I148637
I12
tp5426
a(I185758
I12
tp5427
a(I14066
I12
tp5428
a(I80310
I12
tp5429
a(I115557
I12
tp5430
a(I49023
I12
tp5431
a(I17969
I12
tp5432
a(I663
I12
tp5433
a(I85694
I12
tp5434
a(I172818
I12
tp5435
a(I52417
I12
tp5436
a(I159751
I12
tp5437
a(I160593
I12
tp5438
a(I22886
I12
tp5439
a(I96737
I12
tp5440
a(I172615
I12
tp5441
a(I120315
I12
tp5442
a(I49858
I12
tp5443
a(I141527
I12
tp5444
a(I81628
I12
tp5445
a(I8592
I12
tp5446
a(I5374
I12
tp5447
a(I163644
I12
tp5448
a(I196578
I12
tp5449
a(I58479
I12
tp5450
a(I33054
I12
tp5451
a(I123506
I12
tp5452
a(I183175
I12
tp5453
a(I103734
I12
tp5454
a(I49472
I12
tp5455
a(I14254
I12
tp5456
a(I66301
I12
tp5457
a(I192516
I12
tp5458
a(I190466
I12
tp5459
a(I65047
I12
tp5460
a(I140661
I12
tp5461
a(I90571
I12
tp5462
a(I134010
I12
tp5463
a(I21545
I12
tp5464
a(I102543
I12
tp5465
a(I113214
I12
tp5466
a(I34957
I12
tp5467
a(I32835
I12
tp5468
a(I117420
I12
tp5469
a(I12554
I12
tp5470
a(I187065
I12
tp5471
a(I162400
I12
tp5472
a(I1823
I12
tp5473
a(I112339
I12
tp5474
a(I99618
I12
tp5475
a(I11985
I12
tp5476
a(I105688
I12
tp5477
a(I79078
I12
tp5478
a(I24816
I12
tp5479
a(I68530
I12
tp5480
a(I141866
I12
tp5481
a(I71296
I12
tp5482
a(I45119
I12
tp5483
a(I122350
I12
tp5484
a(I68088
I12
tp5485
a(I107730
I12
tp5486
a(I16769
I12
tp5487
a(I72686
I12
tp5488
a(I190379
I12
tp5489
a(I61765
I12
tp5490
a(I182090
I12
tp5491
a(I23078
I12
tp5492
a(I124885
I12
tp5493
a(I34684
I12
tp5494
a(I19930
I12
tp5495
a(I162974
I12
tp5496
a(I113140
I12
tp5497
a(I20978
I12
tp5498
a(I153275
I12
tp5499
a(I116351
I12
tp5500
a(I77700
I12
tp5501
a(I12038
I12
tp5502
a(I11671
I12
tp5503
a(I128838
I12
tp5504
a(I37109
I12
tp5505
a(I91149
I12
tp5506
a(I21012
I12
tp5507
a(I38849
I12
tp5508
a(I50632
I12
tp5509
a(I20519
I12
tp5510
a(I34437
I12
tp5511
a(I42540
I12
tp5512
a(I28834
I12
tp5513
a(I164918
I12
tp5514
a(I15561
I12
tp5515
a(I162095
I12
tp5516
a(I124722
I12
tp5517
a(I196328
I12
tp5518
a(I150855
I12
tp5519
a(I49664
I12
tp5520
a(I126911
I12
tp5521
a(I133486
I12
tp5522
a(I145265
I12
tp5523
a(I18576
I12
tp5524
a(I161876
I12
tp5525
a(I102482
I12
tp5526
a(I125704
I12
tp5527
a(I99179
I12
tp5528
a(I26907
I12
tp5529
a(I78538
I12
tp5530
a(I110813
I12
tp5531
a(I93924
I12
tp5532
a(I166345
I12
tp5533
a(I9105
I12
tp5534
a(I37272
I12
tp5535
a(I143170
I12
tp5536
a(I62204
I12
tp5537
a(I91568
I12
tp5538
a(I120353
I12
tp5539
a(I23013
I12
tp5540
a(I161932
I12
tp5541
a(I12266
I12
tp5542
a(I13823
I12
tp5543
a(I168695
I12
tp5544
a(I122033
I12
tp5545
a(I136309
I12
tp5546
a(I196393
I12
tp5547
a(I65940
I12
tp5548
a(I11075
I12
tp5549
a(I29189
I12
tp5550
a(I189881
I12
tp5551
a(I175647
I12
tp5552
a(I83485
I12
tp5553
a(I11298
I12
tp5554
a(I52890
I12
tp5555
a(I101360
I12
tp5556
a(I185519
I12
tp5557
a(I163422
I12
tp5558
a(I117933
I12
tp5559
a(I86706
I12
tp5560
a(I47303
I12
tp5561
a(I133627
I12
tp5562
a(I102092
I12
tp5563
a(I62762
I12
tp5564
a(I70314
I12
tp5565
a(I51206
I12
tp5566
a(I5557
I12
tp5567
a(I13660
I12
tp5568
a(I56843
I12
tp5569
a(I9685
I12
tp5570
a(I60286
I12
tp5571
a(I153556
I12
tp5572
a(I174913
I12
tp5573
a(I192375
I12
tp5574
a(I127586
I12
tp5575
a(I52504
I12
tp5576
a(I156966
I12
tp5577
a(I69333
I12
tp5578
a(I117547
I12
tp5579
a(I12681
I12
tp5580
a(I20784
I12
tp5581
a(I19975
I12
tp5582
a(I84560
I12
tp5583
a(I5394
I12
tp5584
a(I16065
I12
tp5585
a(I27848
I12
tp5586
a(I165078
I12
tp5587
a(I145290
I12
tp5588
a(I151865
I12
tp5589
a(I159968
I12
tp5590
a(I105378
I12
tp5591
a(I188855
I12
tp5592
a(I10341
I12
tp5593
a(I83913
I12
tp5594
a(I157552
I12
tp5595
a(I98351
I12
tp5596
a(I175582
I12
tp5597
a(I136756
I12
tp5598
a(I84222
I12
tp5599
a(I136263
I12
tp5600
a(I23205
I12
tp5601
a(I3192
I12
tp5602
a(I39639
I12
tp5603
a(I131221
I12
tp5604
a(I80722
I12
tp5605
a(I143880
I12
tp5606
a(I98663
I12
tp5607
a(I174614
I12
tp5608
a(I104300
I12
tp5609
a(I26489
I12
tp5610
a(I1568
I12
tp5611
a(I9183
I12
tp5612
a(I100836
I12
tp5613
a(I139746
I12
tp5614
a(I112631
I12
tp5615
a(I96853
I12
tp5616
a(I49242
I12
tp5617
a(I126217
I12
tp5618
a(I29470
I12
tp5619
a(I119922
I12
tp5620
a(I192801
I12
tp5621
a(I110376
I12
tp5622
a(I142651
I12
tp5623
a(I162222
I12
tp5624
a(I62717
I12
tp5625
a(I55810
I12
tp5626
a(I157617
I12
tp5627
a(I85446
I12
tp5628
a(I104309
I12
tp5629
a(I198185
I12
tp5630
a(I82066
I12
tp5631
a(I176143
I12
tp5632
a(I37073
I12
tp5633
a(I195499
I12
tp5634
a(I917
I12
tp5635
a(I41788
I12
tp5636
a(I21232
I12
tp5637
a(I104365
I12
tp5638
a(I17844
I12
tp5639
a(I160635
I12
tp5640
a(I57919
I12
tp5641
a(I90178
I12
tp5642
a(I97272
I12
tp5643
a(I95831
I12
tp5644
a(I56412
I12
tp5645
a(I99002
I12
tp5646
a(I176766
I12
tp5647
a(I169409
I12
tp5648
a(I13185
I12
tp5649
a(I163047
I12
tp5650
a(I166218
I12
tp5651
a(I156535
I12
tp5652
a(I76245
I12
tp5653
a(I37419
I12
tp5654
a(I55433
I12
tp5655
a(I179693
I12
tp5656
a(I109729
I12
tp5657
a(I137896
I12
tp5658
a(I121957
I12
tp5659
a(I129272
I12
tp5660
a(I39099
I12
tp5661
a(I8810
I12
tp5662
a(I184089
I12
tp5663
a(I93888
I12
tp5664
a(I100479
I12
tp5665
a(I21806
I12
tp5666
a(I106621
I12
tp5667
a(I192116
I12
tp5668
a(I67970
I12
tp5669
a(I185137
I12
tp5670
a(I14662
I12
tp5671
a(I17141
I12
tp5672
a(I69451
I12
tp5673
a(I10490
I12
tp5674
a(I144352
I12
tp5675
a(I80914
I12
tp5676
a(I14280
I12
tp5677
a(I12246
I12
tp5678
a(I140447
I12
tp5679
a(I52814
I12
tp5680
a(I139938
I12
tp5681
a(I117841
I12
tp5682
a(I133430
I12
tp5683
a(I133303
I12
tp5684
a(I174895
I12
tp5685
a(I128222
I12
tp5686
a(I110900
I12
tp5687
a(I187107
I12
tp5688
a(I22774
I12
tp5689
a(I143099
I12
tp5690
a(I52138
I12
tp5691
a(I18877
I12
tp5692
a(I90050
I12
tp5693
a(I153464
I12
tp5694
a(I9687
I12
tp5695
a(I170115
I12
tp5696
a(I196154
I12
tp5697
a(I167679
I12
tp5698
a(I141908
I12
tp5699
a(I30467
I12
tp5700
a(I108647
I12
tp5701
a(I102009
I12
tp5702
a(I64915
I12
tp5703
a(I84194
I12
tp5704
a(I132758
I12
tp5705
a(I162726
I12
tp5706
a(I82347
I12
tp5707
a(I32626
I12
tp5708
a(I63016
I12
tp5709
a(I192054
I12
tp5710
a(I160827
I12
tp5711
a(I186944
I12
tp5712
a(I98478
I12
tp5713
a(I38579
I12
tp5714
a(I184604
I12
tp5715
a(I139561
I12
tp5716
a(I90952
I12
tp5717
a(I173061
I12
tp5718
a(I189988
I12
tp5719
a(I99283
I12
tp5720
a(I27096
I12
tp5721
a(I167699
I12
tp5722
a(I76437
I12
tp5723
a(I72290
I12
tp5724
a(I110177
I12
tp5725
a(I125639
I12
tp5726
a(I82137
I12
tp5727
a(I123776
I12
tp5728
a(I134463
I12
tp5729
a(I68418
I12
tp5730
a(I178694
I12
tp5731
a(I26460
I12
tp5732
a(I96105
I12
tp5733
a(I38416
I12
tp5734
a(I56702
I12
tp5735
a(I100488
I12
tp5736
a(I86827
I12
tp5737
a(I93676
I12
tp5738
a(I46747
I12
tp5739
a(I68708
I12
tp5740
a(I173154
I12
tp5741
a(I58249
I12
tp5742
a(I66352
I12
tp5743
a(I12295
I12
tp5744
a(I155062
I12
tp5745
a(I140219
I12
tp5746
a(I185215
I12
tp5747
a(I150397
I12
tp5748
a(I140951
I12
tp5749
a(I113744
I12
tp5750
a(I50962
I12
tp5751
a(I89307
I12
tp5752
a(I66361
I12
tp5753
a(I74464
I12
tp5754
a(I184223
I12
tp5755
a(I21924
I12
tp5756
a(I32595
I12
tp5757
a(I158746
I12
tp5758
a(I68041
I12
tp5759
a(I125485
I12
tp5760
a(I55348
I12
tp5761
a(I91619
I12
tp5762
a(I72123
I12
tp5763
a(I36005
I12
tp5764
a(I159960
I12
tp5765
a(I18939
I12
tp5766
a(I4778
I12
tp5767
a(I188160
I12
tp5768
a(I622
I12
tp5769
a(I91842
I12
tp5770
a(I130680
I12
tp5771
a(I167882
I12
tp5772
a(I147086
I12
tp5773
a(I195556
I12
tp5774
a(I125592
I12
tp5775
a(I151548
I12
tp5776
a(I24329
I12
tp5777
a(I170095
I12
tp5778
a(I77933
I12
tp5779
a(I61044
I12
tp5780
a(I172833
I12
tp5781
a(I35126
I12
tp5782
a(I73531
I12
tp5783
a(I83353
I12
tp5784
a(I91456
I12
tp5785
a(I36607
I12
tp5786
a(I10673
I12
tp5787
a(I165323
I12
tp5788
a(I51241
I12
tp5789
a(I165599
I12
tp5790
a(I107587
I12
tp5791
a(I28332
I12
tp5792
a(I120074
I12
tp5793
a(I178975
I12
tp5794
a(I50382
I12
tp5795
a(I126180
I12
tp5796
a(I174803
I12
tp5797
a(I115409
I12
tp5798
a(I69431
I12
tp5799
a(I38204
I12
tp5800
a(I197858
I12
tp5801
a(I41391
I12
tp5802
a(I187340
I12
tp5803
a(I191449
I12
tp5804
a(I185407
I12
tp5805
a(I19517
I12
tp5806
a(I32753
I12
tp5807
a(I175608
I12
tp5808
a(I14423
I12
tp5809
a(I126645
I12
tp5810
a(I189566
I12
tp5811
a(I29389
I12
tp5812
a(I91521
I12
tp5813
a(I54152
I12
tp5814
a(I143079
I12
tp5815
a(I117654
I12
tp5816
a(I53659
I12
tp5817
a(I85053
I12
tp5818
a(I75680
I12
tp5819
a(I92686
I12
tp5820
a(I20322
I12
tp5821
a(I54647
I12
tp5822
a(I72661
I12
tp5823
a(I50219
I12
tp5824
a(I129007
I12
tp5825
a(I19624
I12
tp5826
a(I156854
I12
tp5827
a(I182971
I12
tp5828
a(I1838
I12
tp5829
a(I181124
I12
tp5830
a(I42921
I12
tp5831
a(I150386
I12
tp5832
a(I166849
I12
tp5833
a(I70102
I12
tp5834
a(I196746
I12
tp5835
a(I45134
I12
tp5836
a(I69277
I12
tp5837
a(I183204
I12
tp5838
a(I14106
I12
tp5839
a(I20681
I12
tp5840
a(I7471
I12
tp5841
a(I9441
I12
tp5842
a(I4840
I12
tp5843
a(I22437
I12
tp5844
a(I168187
I12
tp5845
a(I48554
I12
tp5846
a(I182105
I12
tp5847
a(I33727
I12
tp5848
a(I175470
I12
tp5849
a(I15293
I12
tp5850
a(I111475
I12
tp5851
a(I98754
I12
tp5852
a(I174961
I12
tp5853
a(I6520
I12
tp5854
a(I132747
I12
tp5855
a(I170194
I12
tp5856
a(I77389
I12
tp5857
a(I138324
I12
tp5858
a(I157057
I12
tp5859
a(I20737
I12
tp5860
a(I134920
I12
tp5861
a(I3355
I12
tp5862
a(I27645
I12
tp5863
a(I94329
I12
tp5864
a(I197146
I12
tp5865
a(I110483
I12
tp5866
a(I51089
I12
tp5867
a(I109990
I12
tp5868
a(I5884
I12
tp5869
a(I41839
I12
tp5870
a(I23405
I12
tp5871
a(I139634
I12
tp5872
a(I117281
I12
tp5873
a(I147204
I12
tp5874
a(I11960
I12
tp5875
a(I109771
I12
tp5876
a(I161402
I12
tp5877
a(I103209
I12
tp5878
a(I54834
I12
tp5879
a(I91969
I12
tp5880
a(I130058
I12
tp5881
a(I174722
I12
tp5882
a(I162887
I12
tp5883
a(I43044
I12
tp5884
a(I62931
I12
tp5885
a(I51375
I12
tp5886
a(I178508
I12
tp5887
a(I830
I12
tp5888
a(I89287
I12
tp5889
a(I59690
I12
tp5890
a(I21888
I12
tp5891
a(I100081
I12
tp5892
a(I128248
I12
tp5893
a(I145769
I12
tp5894
a(I124367
I12
tp5895
a(I156626
I12
tp5896
a(I68737
I12
tp5897
a(I158932
I12
tp5898
a(I135830
I12
tp5899
a(I15429
I12
tp5900
a(I122860
I12
tp5901
a(I97892
I12
tp5902
a(I138003
I12
tp5903
a(I176913
I12
tp5904
a(I61227
I12
tp5905
a(I65955
I12
tp5906
a(I47521
I12
tp5907
a(I111667
I12
tp5908
a(I98946
I12
tp5909
a(I173731
I12
tp5910
a(I24565
I12
tp5911
a(I65180
I12
tp5912
a(I144882
I12
tp5913
a(I112854
I12
tp5914
a(I76682
I12
tp5915
a(I174493
I12
tp5916
a(I41299
I12
tp5917
a(I104681
I12
tp5918
a(I140470
I12
tp5919
a(I175974
I12
tp5920
a(I114152
I12
tp5921
a(I185846
I12
tp5922
a(I65792
I12
tp5923
a(I49853
I12
tp5924
a(I16087
I12
tp5925
a(I144387
I12
tp5926
a(I187612
I12
tp5927
a(I97022
I12
tp5928
a(I173415
I12
tp5929
a(I39801
I12
tp5930
a(I175588
I12
tp5931
a(I125511
I12
tp5932
a(I160934
I12
tp5933
a(I121515
I12
tp5934
a(I123994
I12
tp5935
a(I80770
I12
tp5936
a(I135855
I12
tp5937
a(I20596
I12
tp5938
a(I64803
I12
tp5939
a(I12164
I12
tp5940
a(I129846
I12
tp5941
a(I68541
I12
tp5942
a(I145305
I12
tp5943
a(I28927
I12
tp5944
a(I51640
I12
tp5945
a(I35701
I12
tp5946
a(I109084
I12
tp5947
a(I91791
I12
tp5948
a(I134721
I12
tp5949
a(I130120
I12
tp5950
a(I117415
I12
tp5951
a(I79566
I12
tp5952
a(I141225
I12
tp5953
a(I196750
I12
tp5954
a(I42901
I12
tp5955
a(I63216
I12
tp5956
a(I158056
I12
tp5957
a(I110634
I12
tp5958
a(I191556
I12
tp5959
a(I41457
I12
tp5960
a(I92759
I12
tp5961
a(I177926
I12
tp5962
a(I127068
I12
tp5963
a(I82025
I12
tp5964
a(I22142
I12
tp5965
a(I74957
I12
tp5966
a(I49027
I12
tp5967
a(I35538
I12
tp5968
a(I47560
I12
tp5969
a(I92576
I12
tp5970
a(I23566
I12
tp5971
a(I170605
I12
tp5972
a(I34679
I12
tp5973
a(I126332
I12
tp5974
a(I72752
I12
tp5975
a(I10403
I12
tp5976
a(I82081
I12
tp5977
a(I186038
I12
tp5978
a(I48315
I12
tp5979
a(I83562
I12
tp5980
a(I51502
I12
tp5981
a(I79236
I12
tp5982
a(I144279
I12
tp5983
a(I5045
I12
tp5984
a(I59817
I12
tp5985
a(I64961
I12
tp5986
a(I110670
I12
tp5987
a(I108071
I12
tp5988
a(I93317
I12
tp5989
a(I20125
I12
tp5990
a(I83335
I12
tp5991
a(I28829
I12
tp5992
a(I116819
I12
tp5993
a(I37653
I12
tp5994
a(I89195
I12
tp5995
a(I713
I12
tp5996
a(I59181
I12
tp5997
a(I174988
I12
tp5998
a(I98019
I12
tp5999
a(I17640
I12
tp6000
a(I97526
I12
tp6001
a(I109656
I12
tp6002
a(I61354
I12
tp6003
a(I75776
I12
tp6004
a(I58739
I12
tp6005
a(I7537
I12
tp6006
a(I55767
I12
tp6007
a(I170816
I12
tp6008
a(I182411
I12
tp6009
a(I16361
I12
tp6010
a(I151124
I12
tp6011
a(I33537
I12
tp6012
a(I65966
I12
tp6013
a(I190742
I12
tp6014
a(I132232
I12
tp6015
a(I98075
I12
tp6016
a(I177946
I12
tp6017
a(I117252
I12
tp6018
a(I100753
I12
tp6019
a(I171942
I12
tp6020
a(I189867
I12
tp6021
a(I33827
I12
tp6022
a(I79338
I12
tp6023
a(I107694
I12
tp6024
a(I102584
I12
tp6025
a(I193820
I12
tp6026
a(I142142
I12
tp6027
a(I113037
I12
tp6028
a(I173281
I12
tp6029
a(I69080
I12
tp6030
a(I104503
I12
tp6031
a(I20117
I12
tp6032
a(I134123
I12
tp6033
a(I87194
I12
tp6034
a(I102896
I12
tp6035
a(I76387
I12
tp6036
a(I143464
I12
tp6037
a(I134855
I12
tp6038
a(I5324
I12
tp6039
a(I139583
I12
tp6040
a(I14148
I12
tp6041
a(I110402
I12
tp6042
a(I84209
I12
tp6043
a(I122374
I12
tp6044
a(I195509
I12
tp6045
a(I42496
I12
tp6046
a(I115130
I12
tp6047
a(I120783
I12
tp6048
a(I114132
I12
tp6049
a(I87506
I12
tp6050
a(I148630
I12
tp6051
a(I29770
I12
tp6052
a(I124177
I12
tp6053
a(I5333
I12
tp6054
a(I198537
I12
tp6055
a(I49391
I12
tp6056
a(I60321
I12
tp6057
a(I188778
I12
tp6058
a(I36910
I12
tp6059
a(I58438
I12
tp6060
a(I197109
I12
tp6061
a(I41116
I12
tp6062
a(I19019
I12
tp6063
a(I195855
I12
tp6064
a(I165566
I12
tp6065
a(I126147
I12
tp6066
a(I146126
I12
tp6067
a(I181899
I12
tp6068
a(I3406
I12
tp6069
a(I170909
I12
tp6070
a(I64564
I12
tp6071
a(I12769
I12
tp6072
a(I159720
I12
tp6073
a(I172197
I12
tp6074
a(I149807
I12
tp6075
a(I173678
I12
tp6076
a(I22325
I12
tp6077
a(I165312
I12
tp6078
a(I103307
I12
tp6079
a(I81210
I12
tp6080
a(I197455
I12
tp6081
a(I80717
I12
tp6082
a(I338
I12
tp6083
a(I97644
I12
tp6084
a(I19833
I12
tp6085
a(I199135
I12
tp6086
a(I3736
I12
tp6087
a(I105975
I12
tp6088
a(I156668
I12
tp6089
a(I36011
I12
tp6090
a(I83887
I12
tp6091
a(I87149
I12
tp6092
a(I66164
I12
tp6093
a(I111912
I12
tp6094
a(I27020
I12
tp6095
a(I2052
I12
tp6096
a(I15288
I12
tp6097
a(I93225
I12
tp6098
a(I143201
I12
tp6099
a(I50774
I12
tp6100
a(I131756
I12
tp6101
a(I76891
I12
tp6102
a(I168633
I12
tp6103
a(I78432
I12
tp6104
a(I91857
I12
tp6105
a(I21720
I12
tp6106
a(I172855
I12
tp6107
a(I52454
I12
tp6108
a(I28510
I12
tp6109
a(I83857
I12
tp6110
a(I22907
I12
tp6111
a(I182335
I12
tp6112
a(I30274
I12
tp6113
a(I93606
I12
tp6114
a(I164533
I12
tp6115
a(I26810
I12
tp6116
a(I182847
I12
tp6117
a(I136956
I12
tp6118
a(I195794
I12
tp6119
a(I104833
I12
tp6120
a(I194440
I12
tp6121
a(I17127
I12
tp6122
a(I174792
I12
tp6123
a(I23456
I12
tp6124
a(I124255
I12
tp6125
a(I171357
I12
tp6126
a(I90978
I12
tp6127
a(I129560
I12
tp6128
a(I33773
I12
tp6129
a(I105123
I12
tp6130
a(I196359
I12
tp6131
a(I170166
I12
tp6132
a(I106111
I12
tp6133
a(I157572
I12
tp6134
a(I69446
I12
tp6135
a(I38219
I12
tp6136
a(I147194
I12
tp6137
a(I97104
I12
tp6138
a(I125460
I12
tp6139
a(I66066
I12
tp6140
a(I188037
I12
tp6141
a(I2719
I12
tp6142
a(I172452
I12
tp6143
a(I14931
I12
tp6144
a(I119377
I12
tp6145
a(I62665
I12
tp6146
a(I12591
I12
tp6147
a(I1844
I12
tp6148
a(I41187
I12
tp6149
a(I145128
I12
tp6150
a(I143094
I12
tp6151
a(I191308
I12
tp6152
a(I66538
I12
tp6153
a(I113291
I12
tp6154
a(I83002
I12
tp6155
a(I163984
I12
tp6156
a(I76367
I12
tp6157
a(I16973
I12
tp6158
a(I23318
I12
tp6159
a(I74011
I12
tp6160
a(I131581
I12
tp6161
a(I79648
I12
tp6162
a(I97169
I12
tp6163
a(I90142
I12
tp6164
a(I43655
I12
tp6165
a(I176268
I12
tp6166
a(I41024
I12
tp6167
a(I163095
I12
tp6168
a(I49355
I12
tp6169
a(I120528
I12
tp6170
a(I193423
I12
tp6171
a(I125837
I12
tp6172
a(I29074
I12
tp6173
a(I4106
I12
tp6174
a(I73245
I12
tp6175
a(I33233
I12
tp6176
a(I99994
I12
tp6177
a(I181232
I12
tp6178
a(I1197
I12
tp6179
a(I42789
I12
tp6180
a(I188539
I12
tp6181
a(I134442
I12
tp6182
a(I103231
I12
tp6183
a(I81134
I12
tp6184
a(I37186
I12
tp6185
a(I15089
I12
tp6186
a(I32774
I12
tp6187
a(I110005
I12
tp6188
a(I154985
I12
tp6189
a(I34770
I12
tp6190
a(I138888
I12
tp6191
a(I126439
I12
tp6192
a(I138395
I12
tp6193
a(I9802
I12
tp6194
a(I166498
I12
tp6195
a(I36983
I12
tp6196
a(I48422
I12
tp6197
a(I26236
I12
tp6198
a(I12994
I12
tp6199
a(I137460
I12
tp6200
a(I172982
I12
tp6201
a(I118117
I12
tp6202
a(I68027
I12
tp6203
a(I145791
I12
tp6204
a(I49201
I12
tp6205
a(I171171
I12
tp6206
a(I160757
I12
tp6207
a(I33360
I12
tp6208
a(I33311
I12
tp6209
a(I143068
I12
tp6210
a(I188099
I12
tp6211
a(I23766
I12
tp6212
a(I74459
I12
tp6213
a(I118666
I12
tp6214
a(I59705
I12
tp6215
a(I2272
I12
tp6216
a(I115558
I12
tp6217
a(I167868
I12
tp6218
a(I10603
I12
tp6219
a(I142900
I12
tp6220
a(I11335
I12
tp6221
a(I601
I12
tp6222
a(I52418
I12
tp6223
a(I5745
I12
tp6224
a(I148600
I12
tp6225
a(I65414
I12
tp6226
a(I128335
I12
tp6227
a(I171774
I12
tp6228
a(I121684
I12
tp6229
a(I95058
I12
tp6230
a(I138241
I12
tp6231
a(I56864
I12
tp6232
a(I165006
I12
tp6233
a(I103389
I12
tp6234
a(I82404
I12
tp6235
a(I92819
I12
tp6236
a(I94360
I12
tp6237
a(I78421
I12
tp6238
a(I126960
I12
tp6239
a(I107785
I12
tp6240
a(I83120
I12
tp6241
a(I112869
I12
tp6242
a(I36586
I12
tp6243
a(I109465
I12
tp6244
a(I38143
I12
tp6245
a(I64004
I12
tp6246
a(I67507
I12
tp6247
a(I28088
I12
tp6248
a(I141567
I12
tp6249
a(I187945
I12
tp6250
a(I105103
I12
tp6251
a(I133699
I12
tp6252
a(I29868
I12
tp6253
a(I122055
I12
tp6254
a(I48870
I12
tp6255
a(I195388
I12
tp6256
a(I27376
I12
tp6257
a(I133265
I12
tp6258
a(I68968
I12
tp6259
a(I42358
I12
tp6260
a(I52773
I12
tp6261
a(I166779
I12
tp6262
a(I36992
I12
tp6263
a(I149486
I12
tp6264
a(I53821
I12
tp6265
a(I131140
I12
tp6266
a(I188070
I12
tp6267
a(I3671
I12
tp6268
a(I121530
I12
tp6269
a(I165648
I12
tp6270
a(I79572
I12
tp6271
a(I25771
I12
tp6272
a(I129861
I12
tp6273
a(I49482
I12
tp6274
a(I186207
I12
tp6275
a(I65041
I12
tp6276
a(I145366
I12
tp6277
a(I171792
I12
tp6278
a(I12336
I12
tp6279
a(I62957
I12
tp6280
a(I86696
I12
tp6281
a(I27434
I12
tp6282
a(I20667
I12
tp6283
a(I66079
I12
tp6284
a(I82306
I12
tp6285
a(I153912
I12
tp6286
a(I153495
I12
tp6287
a(I6901
I12
tp6288
a(I167071
I12
tp6289
a(I56340
I12
tp6290
a(I29714
I12
tp6291
a(I154151
I12
tp6292
a(I133
I12
tp6293
a(I45113
I12
tp6294
a(I178537
I12
tp6295
a(I132177
I12
tp6296
a(I92774
I12
tp6297
a(I94315
I12
tp6298
a(I75465
I12
tp6299
a(I83568
I12
tp6300
a(I179621
I12
tp6301
a(I56652
I12
tp6302
a(I26363
I12
tp6303
a(I161938
I12
tp6304
a(I104386
I12
tp6305
a(I99974
I12
tp6306
a(I41013
I12
tp6307
a(I126091
I12
tp6308
a(I173010
I12
tp6309
a(I189012
I12
tp6310
a(I199809
I12
tp6311
a(I147563
I12
tp6312
a(I194156
I12
tp6313
a(I176974
I12
tp6314
a(I80965
I12
tp6315
a(I126896
I12
tp6316
a(I139124
I12
tp6317
a(I140721
I12
tp6318
a(I101928
I12
tp6319
a(I72839
I12
tp6320
a(I68667
I12
tp6321
a(I141802
I12
tp6322
a(I135744
I12
tp6323
a(I81154
I12
tp6324
a(I131863
I12
tp6325
a(I59676
I12
tp6326
a(I170192
I12
tp6327
a(I172946
I12
tp6328
a(I195589
I12
tp6329
a(I141343
I12
tp6330
a(I161230
I12
tp6331
a(I181759
I12
tp6332
a(I90773
I12
tp6333
a(I182426
I12
tp6334
a(I63149
I12
tp6335
a(I119912
I12
tp6336
a(I107207
I12
tp6337
a(I71897
I12
tp6338
a(I182716
I12
tp6339
a(I60657
I12
tp6340
a(I16220
I12
tp6341
a(I88075
I12
tp6342
a(I52882
I12
tp6343
a(I159531
I12
tp6344
a(I119968
I12
tp6345
a(I104029
I12
tp6346
a(I179752
I12
tp6347
a(I62763
I12
tp6348
a(I115057
I12
tp6349
a(I97704
I12
tp6350
a(I11801
I12
tp6351
a(I6707
I12
tp6352
a(I130711
I12
tp6353
a(I104518
I12
tp6354
a(I14529
I12
tp6355
a(I76677
I12
tp6356
a(I64224
I12
tp6357
a(I133023
I12
tp6358
a(I8526
I12
tp6359
a(I180125
I12
tp6360
a(I140265
I12
tp6361
a(I175953
I12
tp6362
a(I158647
I12
tp6363
a(I89621
I12
tp6364
a(I127420
I12
tp6365
a(I138091
I12
tp6366
a(I88030
I12
tp6367
a(I54753
I12
tp6368
a(I91212
I12
tp6369
a(I176319
I12
tp6370
a(I132804
I12
tp6371
a(I147138
I12
tp6372
a(I79480
I12
tp6373
a(I106886
I12
tp6374
a(I158428
I12
tp6375
a(I79755
I12
tp6376
a(I31465
I12
tp6377
a(I75599
I12
tp6378
a(I152598
I12
tp6379
a(I69996
I12
tp6380
a(I123257
I12
tp6381
a(I65568
I12
tp6382
a(I187016
I12
tp6383
a(I180534
I12
tp6384
a(I69004
I12
tp6385
a(I73113
I12
tp6386
a(I81216
I12
tp6387
a(I77852
I12
tp6388
a(I97948
I12
tp6389
a(I31811
I12
tp6390
a(I147342
I12
tp6391
a(I184487
I12
tp6392
a(I82011
I12
tp6393
a(I155878
I12
tp6394
a(I136090
I12
tp6395
a(I162223
I12
tp6396
a(I184244
I12
tp6397
a(I97681
I12
tp6398
a(I33121
I12
tp6399
a(I169846
I12
tp6400
a(I143397
I12
tp6401
a(I107481
I12
tp6402
a(I158783
I12
tp6403
a(I62020
I12
tp6404
a(I172019
I12
tp6405
a(I124408
I12
tp6406
a(I94295
I12
tp6407
a(I40198
I12
tp6408
a(I173749
I12
tp6409
a(I90891
I12
tp6410
a(I146558
I12
tp6411
a(I140612
I12
tp6412
a(I27528
I12
tp6413
a(I111434
I12
tp6414
a(I98208
I12
tp6415
a(I34658
I12
tp6416
a(I127868
I12
tp6417
a(I138283
I12
tp6418
a(I113114
I12
tp6419
a(I82569
I12
tp6420
a(I134642
I12
tp6421
a(I81078
I12
tp6422
a(I149093
I12
tp6423
a(I142442
I12
tp6424
a(I157888
I12
tp6425
a(I24366
I12
tp6426
a(I138116
I12
tp6427
a(I68408
I12
tp6428
a(I194815
I12
tp6429
a(I21242
I12
tp6430
a(I121436
I12
tp6431
a(I142275
I12
tp6432
a(I176584
I12
tp6433
a(I94853
I12
tp6434
a(I57913
I12
tp6435
a(I44703
I12
tp6436
a(I89683
I12
tp6437
a(I78519
I12
tp6438
a(I157897
I12
tp6439
a(I54575
I12
tp6440
a(I150829
I12
tp6441
a(I142056
I12
tp6442
a(I174331
I12
tp6443
a(I134861
I12
tp6444
a(I106329
I12
tp6445
a(I114176
I12
tp6446
a(I19315
I12
tp6447
a(I58225
I12
tp6448
a(I110551
I12
tp6449
a(I74304
I12
tp6450
a(I42128
I12
tp6451
a(I14444
I12
tp6452
a(I2169
I12
tp6453
a(I88804
I12
tp6454
a(I91558
I12
tp6455
a(I197662
I12
tp6456
a(I196844
I12
tp6457
a(I158243
I12
tp6458
a(I85639
I12
tp6459
a(I191899
I12
tp6460
a(I7146
I12
tp6461
a(I166574
I12
tp6462
a(I128772
I12
tp6463
a(I126722
I12
tp6464
a(I100529
I12
tp6465
a(I169955
I12
tp6466
a(I112757
I12
tp6467
a(I121628
I12
tp6468
a(I167546
I12
tp6469
a(I117456
I12
tp6470
a(I165699
I12
tp6471
a(I71058
I12
tp6472
a(I64423
I12
tp6473
a(I180652
I12
tp6474
a(I29024
I12
tp6475
a(I10190
I12
tp6476
a(I156516
I12
tp6477
a(I6178
I12
tp6478
a(I173521
I12
tp6479
a(I152725
I12
tp6480
a(I4587
I12
tp6481
a(I76382
I12
tp6482
a(I31436
I12
tp6483
a(I197755
I12
tp6484
a(I19161
I12
tp6485
a(I93568
I12
tp6486
a(I138132
I12
tp6487
a(I6999
I12
tp6488
a(I173062
I12
tp6489
a(I100875
I12
tp6490
a(I182142
I12
tp6491
a(I39858
I12
tp6492
a(I197588
I12
tp6493
a(I50305
I12
tp6494
a(I111240
I12
tp6495
a(I193605
I12
tp6496
a(I154186
I12
tp6497
a(I73823
I12
tp6498
a(I118030
I12
tp6499
a(I119571
I12
tp6500
a(I183057
I12
tp6501
a(I107350
I12
tp6502
a(I199685
I12
tp6503
a(I199984
I12
tp6504
a(I118509
I12
tp6505
a(I47623
I12
tp6506
a(I24933
I12
tp6507
a(I65548
I12
tp6508
a(I69657
I12
tp6509
a(I74372
I12
tp6510
a(I19507
I12
tp6511
a(I25649
I12
tp6512
a(I164338
I12
tp6513
a(I82703
I12
tp6514
a(I121032
I12
tp6515
a(I7557
I12
tp6516
a(I15660
I12
tp6517
a(I84383
I12
tp6518
a(I96595
I12
tp6519
a(I4433
I12
tp6520
a(I41916
I12
tp6521
a(I52587
I12
tp6522
a(I81991
I12
tp6523
a(I72874
I12
tp6524
a(I9817
I12
tp6525
a(I188522
I12
tp6526
a(I123074
I12
tp6527
a(I194680
I12
tp6528
a(I63191
I12
tp6529
a(I23772
I12
tp6530
a(I32103
I12
tp6531
a(I115564
I12
tp6532
a(I27675
I12
tp6533
a(I1520
I12
tp6534
a(I113754
I12
tp6535
a(I117612
I12
tp6536
a(I153006
I12
tp6537
a(I139517
I12
tp6538
a(I113587
I12
tp6539
a(I90652
I12
tp6540
a(I48274
I12
tp6541
a(I181825
I12
tp6542
a(I175190
I12
tp6543
a(I24330
I12
tp6544
a(I63673
I12
tp6545
a(I42271
I12
tp6546
a(I199460
I12
tp6547
a(I152787
I12
tp6548
a(I85201
I12
tp6549
a(I67895
I12
tp6550
a(I185062
I12
tp6551
a(I116122
I12
tp6552
a(I69360
I12
tp6553
a(I161118
I12
tp6554
a(I141746
I12
tp6555
a(I88438
I12
tp6556
a(I56895
I12
tp6557
a(I173124
I12
tp6558
a(I153592
I12
tp6559
a(I190645
I12
tp6560
a(I67676
I12
tp6561
a(I104553
I12
tp6562
a(I120127
I12
tp6563
a(I40773
I12
tp6564
a(I187291
I12
tp6565
a(I91466
I12
tp6566
a(I52063
I12
tp6567
a(I25437
I12
tp6568
a(I162423
I12
tp6569
a(I175574
I12
tp6570
a(I165333
I12
tp6571
a(I139440
I12
tp6572
a(I72350
I12
tp6573
a(I32754
I12
tp6574
a(I71841
I12
tp6575
a(I174860
I12
tp6576
a(I113433
I12
tp6577
a(I102193
I12
tp6578
a(I97099
I12
tp6579
a(I99578
I12
tp6580
a(I180560
I12
tp6581
a(I59919
I12
tp6582
a(I20871
I12
tp6583
a(I91319
I12
tp6584
a(I43797
I12
tp6585
a(I64112
I12
tp6586
a(I114477
I12
tp6587
a(I143073
I12
tp6588
a(I42922
I12
tp6589
a(I49497
I12
tp6590
a(I153454
I12
tp6591
a(I103364
I12
tp6592
a(I114035
I12
tp6593
a(I120177
I12
tp6594
a(I33656
I12
tp6595
a(I92124
I12
tp6596
a(I8963
I12
tp6597
a(I105760
I12
tp6598
a(I108255
I12
tp6599
a(I36068
I12
tp6600
a(I49553
I12
tp6601
a(I107048
I12
tp6602
a(I89755
I12
tp6603
a(I165516
I12
tp6604
a(I118250
I12
tp6605
a(I145668
I12
tp6606
a(I3356
I12
tp6607
a(I186767
I12
tp6608
a(I174620
I12
tp6609
a(I24392
I12
tp6610
a(I111532
I12
tp6611
a(I172896
I12
tp6612
a(I92622
I12
tp6613
a(I129577
I12
tp6614
a(I184375
I12
tp6615
a(I43504
I12
tp6616
a(I127663
I12
tp6617
a(I18536
I12
tp6618
a(I142540
I12
tp6619
a(I194171
I12
tp6620
a(I99054
I12
tp6621
a(I185923
I12
tp6622
a(I195595
I12
tp6623
a(I107369
I12
tp6624
a(I133502
I12
tp6625
a(I194684
I12
tp6626
a(I83243
I12
tp6627
a(I189083
I12
tp6628
a(I18592
I12
tp6629
a(I161940
I12
tp6630
a(I81169
I12
tp6631
a(I43824
I12
tp6632
a(I111322
I12
tp6633
a(I188297
I12
tp6634
a(I95471
I12
tp6635
a(I28404
I12
tp6636
a(I139195
I12
tp6637
a(I5252
I12
tp6638
a(I87601
I12
tp6639
a(I15430
I12
tp6640
a(I163417
I12
tp6641
a(I26704
I12
tp6642
a(I175373
I12
tp6643
a(I6932
I12
tp6644
a(I101064
I12
tp6645
a(I151429
I12
tp6646
a(I133339
I12
tp6647
a(I40672
I12
tp6648
a(I146335
I12
tp6649
a(I124342
I12
tp6650
a(I179455
I12
tp6651
a(I58825
I12
tp6652
a(I194725
I12
tp6653
a(I137292
I12
tp6654
a(I42491
I12
tp6655
a(I118442
I12
tp6656
a(I148595
I12
tp6657
a(I141944
I12
tp6658
a(I142219
I12
tp6659
a(I30010
I12
tp6660
a(I18947
I12
tp6661
a(I153938
I12
tp6662
a(I25089
I12
tp6663
a(I182294
I12
tp6664
a(I136645
I12
tp6665
a(I177516
I12
tp6666
a(I140320
I12
tp6667
a(I50840
I12
tp6668
a(I196952
I12
tp6669
a(I65190
I12
tp6670
a(I28250
I12
tp6671
a(I154228
I12
tp6672
a(I59171
I12
tp6673
a(I64255
I12
tp6674
a(I30722
I12
tp6675
a(I66993
I12
tp6676
a(I183831
I12
tp6677
a(I93126
I12
tp6678
a(I72570
I12
tp6679
a(I18384
I12
tp6680
a(I6285
I12
tp6681
a(I124488
I12
tp6682
a(I55980
I12
tp6683
a(I196874
I12
tp6684
a(I110798
I12
tp6685
a(I97572
I12
tp6686
a(I165587
I12
tp6687
a(I189609
I12
tp6688
a(I179921
I12
tp6689
a(I66790
I12
tp6690
a(I112538
I12
tp6691
a(I46509
I12
tp6692
a(I72626
I12
tp6693
a(I188871
I12
tp6694
a(I83929
I12
tp6695
a(I44526
I12
tp6696
a(I112701
I12
tp6697
a(I162396
I12
tp6698
a(I853
I12
tp6699
a(I117353
I12
tp6700
a(I79567
I12
tp6701
a(I171077
I12
tp6702
a(I189180
I12
tp6703
a(I87882
I12
tp6704
a(I5024
I12
tp6705
a(I114015
I12
tp6706
a(I131447
I12
tp6707
a(I96213
I12
tp6708
a(I185776
I12
tp6709
a(I85150
I12
tp6710
a(I170796
I12
tp6711
a(I14504
I12
tp6712
a(I14087
I12
tp6713
a(I195173
I12
tp6714
a(I42683
I12
tp6715
a(I82026
I12
tp6716
a(I185983
I12
tp6717
a(I114564
I12
tp6718
a(I28977
I12
tp6719
a(I149318
I12
tp6720
a(I30458
I12
tp6721
a(I111440
I12
tp6722
a(I190401
I12
tp6723
a(I127310
I12
tp6724
a(I54235
I12
tp6725
a(I184221
I12
tp6726
a(I160339
I12
tp6727
a(I180329
I12
tp6728
a(I186456
I12
tp6729
a(I22199
I12
tp6730
a(I159846
I12
tp6731
a(I90906
I12
tp6732
a(I117039
I12
tp6733
a(I103134
I12
tp6734
a(I23879
I12
tp6735
a(I933
I12
tp6736
a(I9421
I12
tp6737
a(I192371
I12
tp6738
a(I64962
I12
tp6739
a(I100209
I12
tp6740
a(I93318
I12
tp6741
a(I127627
I12
tp6742
a(I55440
I12
tp6743
a(I70422
I12
tp6744
a(I23660
I12
tp6745
a(I118560
I12
tp6746
a(I79246
I12
tp6747
a(I163063
I12
tp6748
a(I84108
I12
tp6749
a(I98076
I12
tp6750
a(I139898
I12
tp6751
a(I118569
I12
tp6752
a(I38962
I12
tp6753
a(I127839
I12
tp6754
a(I108554
I12
tp6755
a(I95673
I12
tp6756
a(I2740
I12
tp6757
a(I163621
I12
tp6758
a(I14459
I12
tp6759
a(I93913
I12
tp6760
a(I136405
I12
tp6761
a(I143764
I12
tp6762
a(I132444
I12
tp6763
a(I195454
I12
tp6764
a(I180355
I12
tp6765
a(I87688
I12
tp6766
a(I85654
I12
tp6767
a(I68588
I12
tp6768
a(I130634
I12
tp6769
a(I147068
I12
tp6770
a(I51951
I12
tp6771
a(I6046
I12
tp6772
a(I136609
I12
tp6773
a(I64438
I12
tp6774
a(I132453
I12
tp6775
a(I135661
I12
tp6776
a(I179120
I12
tp6777
a(I90163
I12
tp6778
a(I83095
I12
tp6779
a(I109212
I12
tp6780
a(I80553
I12
tp6781
a(I55888
I12
tp6782
a(I171789
I12
tp6783
a(I155629
I12
tp6784
a(I86316
I12
tp6785
a(I34698
I12
tp6786
a(I114912
I12
tp6787
a(I177998
I12
tp6788
a(I105811
I12
tp6789
a(I189272
I12
tp6790
a(I164307
I12
tp6791
a(I173077
I12
tp6792
a(I2093
I12
tp6793
a(I190004
I12
tp6794
a(I164342
I12
tp6795
a(I12458
I12
tp6796
a(I143956
I12
tp6797
a(I139374
I12
tp6798
a(I93380
I12
tp6799
a(I107289
I12
tp6800
a(I77425
I12
tp6801
a(I35666
I12
tp6802
a(I102759
I12
tp6803
a(I26476
I12
tp6804
a(I27
I12
tp6805
a(I71200
I12
tp6806
a(I187534
I12
tp6807
a(I41619
I12
tp6808
a(I123926
I12
tp6809
a(I172198
I12
tp6810
a(I86106
I12
tp6811
a(I180008
I12
tp6812
a(I150043
I12
tp6813
a(I30641
I12
tp6814
a(I110615
I12
tp6815
a(I132636
I12
tp6816
a(I152207
I12
tp6817
a(I86162
I12
tp6818
a(I180310
I12
tp6819
a(I167084
I12
tp6820
a(I89816
I12
tp6821
a(I161510
I12
tp6822
a(I23787
I12
tp6823
a(I194970
I12
tp6824
a(I87476
I12
tp6825
a(I115857
I12
tp6826
a(I71521
I12
tp6827
a(I115579
I12
tp6828
a(I172014
I12
tp6829
a(I58867
I12
tp6830
a(I73201
I12
tp6831
a(I117752
I12
tp6832
a(I50775
I12
tp6833
a(I90886
I12
tp6834
a(I18699
I12
tp6835
a(I57104
I12
tp6836
a(I164478
I12
tp6837
a(I59090
I12
tp6838
a(I60770
I12
tp6839
a(I88444
I12
tp6840
a(I191621
I12
tp6841
a(I103919
I12
tp6842
a(I33955
I12
tp6843
a(I152305
I12
tp6844
a(I60072
I12
tp6845
a(I163520
I12
tp6846
a(I171863
I12
tp6847
a(I90500
I12
tp6848
a(I72066
I12
tp6849
a(I159639
I12
tp6850
a(I2374
I12
tp6851
a(I185077
I12
tp6852
a(I40779
I12
tp6853
a(I145658
I12
tp6854
a(I148905
I12
tp6855
a(I142270
I12
tp6856
a(I12739
I12
tp6857
a(I43457
I12
tp6858
a(I4647
I12
tp6859
a(I114646
I12
tp6860
a(I11914
I12
tp6861
a(I93152
I12
tp6862
a(I166488
I12
tp6863
a(I90656
I12
tp6864
a(I47845
I12
tp6865
a(I142051
I12
tp6866
a(I17121
I12
tp6867
a(I70988
I12
tp6868
a(I114427
I12
tp6869
a(I164864
I12
tp6870
a(I52078
I12
tp6871
a(I186813
I12
tp6872
a(I112580
I12
tp6873
a(I144855
I12
tp6874
a(I73736
I12
tp6875
a(I133776
I12
tp6876
a(I50947
I12
tp6877
a(I145511
I12
tp6878
a(I157073
I12
tp6879
a(I86936
I12
tp6880
a(I52134
I12
tp6881
a(I169301
I12
tp6882
a(I151198
I12
tp6883
a(I31578
I12
tp6884
a(I197641
I12
tp6885
a(I63853
I12
tp6886
a(I22388
I12
tp6887
a(I192547
I12
tp6888
a(I115771
I12
tp6889
a(I10816
I12
tp6890
a(I95490
I12
tp6891
a(I32143
I12
tp6892
a(I103821
I12
tp6893
a(I93507
I12
tp6894
a(I132417
I12
tp6895
a(I62280
I12
tp6896
a(I87980
I12
tp6897
a(I154717
I12
tp6898
a(I59371
I12
tp6899
a(I183792
I12
tp6900
a(I169647
I12
tp6901
a(I36525
I12
tp6902
a(I145740
I12
tp6903
a(I38066
I12
tp6904
a(I41253
I12
tp6905
a(I146712
I12
tp6906
a(I9966
I12
tp6907
a(I199923
I12
tp6908
a(I35334
I12
tp6909
a(I69643
I12
tp6910
a(I81338
I12
tp6911
a(I58896
I12
tp6912
a(I190932
I12
tp6913
a(I139338
I12
tp6914
a(I183801
I12
tp6915
a(I93344
I12
tp6916
a(I53521
I12
tp6917
a(I173862
I12
tp6918
a(I81135
I12
tp6919
a(I185581
I12
tp6920
a(I44963
I12
tp6921
a(I40305
I12
tp6922
a(I149409
I12
tp6923
a(I112040
I12
tp6924
a(I110006
I12
tp6925
a(I13243
I12
tp6926
a(I23914
I12
tp6927
a(I124441
I12
tp6928
a(I9087
I12
tp6929
a(I172162
I12
tp6930
a(I46743
I12
tp6931
a(I50170
I12
tp6932
a(I43279
I12
tp6933
a(I29374
I12
tp6934
a(I159937
I12
tp6935
a(I143048
I12
tp6936
a(I48423
I12
tp6937
a(I116438
I12
tp6938
a(I58245
I12
tp6939
a(I66348
I12
tp6940
a(I117130
I12
tp6941
a(I90015
I12
tp6942
a(I87384
I12
tp6943
a(I9143
I12
tp6944
a(I28638
I12
tp6945
a(I193048
I12
tp6946
a(I148320
I12
tp6947
a(I154107
I12
tp6948
a(I199530
I12
tp6949
a(I178112
I12
tp6950
a(I185744
I12
tp6951
a(I148225
I12
tp6952
a(I34305
I12
tp6953
a(I96814
I12
tp6954
a(I166341
I12
tp6955
a(I160283
I12
tp6956
a(I139210
I12
tp6957
a(I145785
I12
tp6958
a(I3726
I12
tp6959
a(I136339
I12
tp6960
a(I123874
I12
tp6961
a(I90108
I12
tp6962
a(I118448
I12
tp6963
a(I59503
I12
tp6964
a(I32372
I12
tp6965
a(I6947
I12
tp6966
a(I90408
I12
tp6967
a(I107237
I12
tp6968
a(I120376
I12
tp6969
a(I87449
I12
tp6970
a(I435
I12
tp6971
a(I150880
I12
tp6972
a(I6072
I12
tp6973
a(I123415
I12
tp6974
a(I22569
I12
tp6975
a(I31696
I12
tp6976
a(I132239
I12
tp6977
a(I130732
I12
tp6978
a(I167905
I12
tp6979
a(I135460
I12
tp6980
a(I80595
I12
tp6981
a(I65752
I12
tp6982
a(I73527
I12
tp6983
a(I83349
I12
tp6984
a(I128329
I12
tp6985
a(I23390
I12
tp6986
a(I67015
I12
tp6987
a(I46459
I12
tp6988
a(I137856
I12
tp6989
a(I42047
I12
tp6990
a(I22515
I12
tp6991
a(I74306
I12
tp6992
a(I2135
I12
tp6993
a(I7772
I12
tp6994
a(I143572
I12
tp6995
a(I145312
I12
tp6996
a(I117085
I12
tp6997
a(I42852
I12
tp6998
a(I129041
I12
tp6999
a(I143347
I12
tp7000
a(I29146
I12
tp7001
a(I123038
I12
tp7002
a(I30371
I12
tp7003
a(I126625
I12
tp7004
a(I12556
I12
tp7005
a(I191529
I12
tp7006
a(I117375
I12
tp7007
a(I64819
I12
tp7008
a(I195398
I12
tp7009
a(I66805
I12
tp7010
a(I180555
I12
tp7011
a(I87888
I12
tp7012
a(I92173
I12
tp7013
a(I196114
I12
tp7014
a(I30683
I12
tp7015
a(I124317
I12
tp7016
a(I157343
I12
tp7017
a(I19620
I12
tp7018
a(I104019
I12
tp7019
a(I156834
I12
tp7020
a(I36433
I12
tp7021
a(I162904
I12
tp7022
a(I34586
I12
tp7023
a(I66861
I12
tp7024
a(I92978
I12
tp7025
a(I90856
I12
tp7026
a(I69034
I12
tp7027
a(I161280
I12
tp7028
a(I101309
I12
tp7029
a(I96708
I12
tp7030
a(I59768
I12
tp7031
a(I26583
I12
tp7032
a(I183772
I12
tp7033
a(I139474
I12
tp7034
a(I107518
I12
tp7035
a(I179789
I12
tp7036
a(I40712
I12
tp7037
a(I145174
I12
tp7038
a(I106896
I12
tp7039
a(I127084
I12
tp7040
a(I72987
I12
tp7041
a(I25376
I12
tp7042
a(I74973
I12
tp7043
a(I179622
I12
tp7044
a(I66475
I12
tp7045
a(I8739
I12
tp7046
a(I121377
I12
tp7047
a(I34439
I12
tp7048
a(I183781
I12
tp7049
a(I60556
I12
tp7050
a(I190509
I12
tp7051
a(I64665
I12
tp7052
a(I40000
I12
tp7053
a(I180910
I12
tp7054
a(I153286
I12
tp7055
a(I46484
I12
tp7056
a(I44434
I12
tp7057
a(I107848
I12
tp7058
a(I56662
I12
tp7059
a(I39340
I12
tp7060
a(I35168
I12
tp7061
a(I99399
I12
tp7062
a(I106998
I12
tp7063
a(I29338
I12
tp7064
a(I137058
I12
tp7065
a(I153775
I12
tp7066
a(I11956
I12
tp7067
a(I44231
I12
tp7068
a(I70437
I12
tp7069
a(I129322
I12
tp7070
a(I196339
I12
tp7071
a(I150850
I12
tp7072
a(I17656
I12
tp7073
a(I178524
I12
tp7074
a(I115211
I12
tp7075
a(I199017
I12
tp7076
a(I181116
I12
tp7077
a(I58006
I12
tp7078
a(I45036
I12
tp7079
a(I158483
I12
tp7080
a(I160024
I12
tp7081
a(I104453
I12
tp7082
a(I17712
I12
tp7083
a(I68001
I12
tp7084
a(I157608
I12
tp7085
a(I94727
I12
tp7086
a(I153612
I12
tp7087
a(I157115
I12
tp7088
a(I169343
I12
tp7089
a(I146990
I12
tp7090
a(I161943
I12
tp7091
a(I142176
I12
tp7092
a(I92235
I12
tp7093
a(I39695
I12
tp7094
a(I176909
I12
tp7095
a(I6418
I12
tp7096
a(I61223
I12
tp7097
a(I43854
I12
tp7098
a(I135074
I12
tp7099
a(I43345
I12
tp7100
a(I81766
I12
tp7101
a(I97212
I12
tp7102
a(I76845
I12
tp7103
a(I137780
I12
tp7104
a(I174051
I12
tp7105
a(I24545
I12
tp7106
a(I140790
I12
tp7107
a(I21674
I12
tp7108
a(I65113
I12
tp7109
a(I37120
I12
tp7110
a(I65732
I12
tp7111
a(I148081
I12
tp7112
a(I143755
I12
tp7113
a(I25833
I12
tp7114
a(I150270
I12
tp7115
a(I105324
I12
tp7116
a(I42011
I12
tp7117
a(I199200
I12
tp7118
a(I93781
I12
tp7119
a(I143536
I12
tp7120
a(I162479
I12
tp7121
a(I106612
I12
tp7122
a(I52022
I12
tp7123
a(I14220
I12
tp7124
a(I29619
I12
tp7125
a(I22393
I12
tp7126
a(I72565
I12
tp7127
a(I119775
I12
tp7128
a(I61069
I12
tp7129
a(I98565
I12
tp7130
a(I19035
I12
tp7131
a(I151648
I12
tp7132
a(I34510
I12
tp7133
a(I93395
I12
tp7134
a(I66769
I12
tp7135
a(I49463
I12
tp7136
a(I191206
I12
tp7137
a(I153404
I12
tp7138
a(I10057
I12
tp7139
a(I136396
I12
tp7140
a(I182245
I12
tp7141
a(I35681
I12
tp7142
a(I161735
I12
tp7143
a(I78830
I12
tp7144
a(I73909
I12
tp7145
a(I151657
I12
tp7146
a(I173694
I12
tp7147
a(I37825
I12
tp7148
a(I179530
I12
tp7149
a(I179037
I12
tp7150
a(I176659
I12
tp7151
a(I187861
I12
tp7152
a(I60464
I12
tp7153
a(I72967
I12
tp7154
a(I173750
I12
tp7155
a(I190200
I12
tp7156
a(I52235
I12
tp7157
a(I119933
I12
tp7158
a(I15746
I12
tp7159
a(I149297
I12
tp7160
a(I109894
I12
tp7161
a(I183741
I12
tp7162
a(I89338
I12
tp7163
a(I72016
I12
tp7164
a(I21462
I12
tp7165
a(I138284
I12
tp7166
a(I82570
I12
tp7167
a(I69600
I12
tp7168
a(I16036
I12
tp7169
a(I146615
I12
tp7170
a(I116326
I12
tp7171
a(I66236
I12
tp7172
a(I168649
I12
tp7173
a(I81058
I12
tp7174
a(I186319
I12
tp7175
a(I154930
I12
tp7176
a(I137561
I12
tp7177
a(I94062
I12
tp7178
a(I130493
I12
tp7179
a(I128371
I12
tp7180
a(I60785
I12
tp7181
a(I4073
I12
tp7182
a(I167167
I12
tp7183
a(I188493
I12
tp7184
a(I56916
I12
tp7185
a(I31491
I12
tp7186
a(I32479
I12
tp7187
a(I115940
I12
tp7188
a(I106330
I12
tp7189
a(I168995
I12
tp7190
a(I68641
I12
tp7191
a(I149639
I12
tp7192
a(I37430
I12
tp7193
a(I63547
I12
tp7194
a(I67050
I12
tp7195
a(I110233
I12
tp7196
a(I128074
I12
tp7197
a(I125951
I12
tp7198
a(I79022
I12
tp7199
a(I183092
I12
tp7200
a(I92418
I12
tp7201
a(I163607
I12
tp7202
a(I50460
I12
tp7203
a(I159435
I12
tp7204
a(I135567
I12
tp7205
a(I185516
I12
tp7206
a(I129768
I12
tp7207
a(I126330
I12
tp7208
a(I74190
I12
tp7209
a(I131618
I12
tp7210
a(I72683
I12
tp7211
a(I140442
I12
tp7212
a(I57840
I12
tp7213
a(I35503
I12
tp7214
a(I156945
I12
tp7215
a(I32872
I12
tp7216
a(I50469
I12
tp7217
a(I104320
I12
tp7218
a(I78143
I12
tp7219
a(I19381
I12
tp7220
a(I53690
I12
tp7221
a(I39440
I12
tp7222
a(I49534
I12
tp7223
a(I195492
I12
tp7224
a(I161134
I12
tp7225
a(I3047
I12
tp7226
a(I83018
I12
tp7227
a(I123385
I12
tp7228
a(I56595
I12
tp7229
a(I174178
I12
tp7230
a(I24306
I12
tp7231
a(I104985
I12
tp7232
a(I90158
I12
tp7233
a(I196477
I12
tp7234
a(I102130
I12
tp7235
a(I169662
I12
tp7236
a(I189709
I12
tp7237
a(I64707
I12
tp7238
a(I166775
I12
tp7239
a(I46905
I12
tp7240
a(I171342
I12
tp7241
a(I25427
I12
tp7242
a(I160162
I12
tp7243
a(I72529
I12
tp7244
a(I84312
I12
tp7245
a(I123238
I12
tp7246
a(I161643
I12
tp7247
a(I138831
I12
tp7248
a(I7725
I12
tp7249
a(I59875
I12
tp7250
a(I25650
I12
tp7251
a(I163816
I12
tp7252
a(I110757
I12
tp7253
a(I65019
I12
tp7254
a(I73817
I12
tp7255
a(I82688
I12
tp7256
a(I159959
I12
tp7257
a(I120553
I12
tp7258
a(I164355
I12
tp7259
a(I168274
I12
tp7260
a(I14849
I12
tp7261
a(I154010
I12
tp7262
a(I165858
I12
tp7263
a(I171672
I12
tp7264
a(I95228
I12
tp7265
a(I72875
I12
tp7266
a(I75354
I12
tp7267
a(I35951
I12
tp7268
a(I99624
I12
tp7269
a(I142077
I12
tp7270
a(I173491
I12
tp7271
a(I134072
I12
tp7272
a(I34327
I12
tp7273
a(I40803
I12
tp7274
a(I69268
I12
tp7275
a(I141379
I12
tp7276
a(I49217
I12
tp7277
a(I36007
I12
tp7278
a(I117323
I12
tp7279
a(I29445
I12
tp7280
a(I156345
I12
tp7281
a(I77599
I12
tp7282
a(I109858
I12
tp7283
a(I23782
I12
tp7284
a(I52653
I12
tp7285
a(I79763
I12
tp7286
a(I60453
I12
tp7287
a(I189934
I12
tp7288
a(I127037
I12
tp7289
a(I77380
I12
tp7290
a(I25585
I12
tp7291
a(I18694
I12
tp7292
a(I169555
I12
tp7293
a(I114428
I12
tp7294
a(I182129
I12
tp7295
a(I52434
I12
tp7296
a(I83848
I12
tp7297
a(I116123
I12
tp7298
a(I43936
I12
tp7299
a(I88932
I12
tp7300
a(I117272
I12
tp7301
a(I4053
I12
tp7302
a(I136173
I12
tp7303
a(I197281
I12
tp7304
a(I184071
I12
tp7305
a(I107373
I12
tp7306
a(I68398
I12
tp7307
a(I34429
I12
tp7308
a(I193943
I12
tp7309
a(I187292
I12
tp7310
a(I37903
I12
tp7311
a(I176574
I12
tp7312
a(I166925
I12
tp7313
a(I28104
I12
tp7314
a(I20012
I12
tp7315
a(I155193
I12
tp7316
a(I173134
I12
tp7317
a(I68179
I12
tp7318
a(I107089
I12
tp7319
a(I133222
I12
tp7320
a(I152853
I12
tp7321
a(I128188
I12
tp7322
a(I50377
I12
tp7323
a(I156784
I12
tp7324
a(I43742
I12
tp7325
a(I80173
I12
tp7326
a(I179958
I12
tp7327
a(I190976
I12
tp7328
a(I144834
I12
tp7329
a(I122737
I12
tp7330
a(I119142
I12
tp7331
a(I25052
I12
tp7332
a(I101003
I12
tp7333
a(I193001
I12
tp7334
a(I116734
I12
tp7335
a(I160965
I12
tp7336
a(I91257
I12
tp7337
a(I8415
I12
tp7338
a(I53670
I12
tp7339
a(I195413
I12
tp7340
a(I167344
I12
tp7341
a(I120687
I12
tp7342
a(I61470
I12
tp7343
a(I163980
I12
tp7344
a(I161770
I12
tp7345
a(I91822
I12
tp7346
a(I95741
I12
tp7347
a(I183475
I12
tp7348
a(I185016
I12
tp7349
a(I38005
I12
tp7350
a(I195194
I12
tp7351
a(I34601
I12
tp7352
a(I115599
I12
tp7353
a(I64397
I12
tp7354
a(I23095
I12
tp7355
a(I149
I12
tp7356
a(I172092
I12
tp7357
a(I195759
I12
tp7358
a(I32844
I12
tp7359
a(I49351
I12
tp7360
a(I158326
I12
tp7361
a(I141017
I12
tp7362
a(I186752
I12
tp7363
a(I117060
I12
tp7364
a(I70387
I12
tp7365
a(I199409
I12
tp7366
a(I30968
I12
tp7367
a(I96087
I12
tp7368
a(I117776
I12
tp7369
a(I71811
I12
tp7370
a(I137170
I12
tp7371
a(I82475
I12
tp7372
a(I144970
I12
tp7373
a(I127648
I12
tp7374
a(I178446
I12
tp7375
a(I134931
I12
tp7376
a(I6754
I12
tp7377
a(I88457
I12
tp7378
a(I63792
I12
tp7379
a(I44958
I12
tp7380
a(I11681
I12
tp7381
a(I111542
I12
tp7382
a(I6587
I12
tp7383
a(I41341
I12
tp7384
a(I68683
I12
tp7385
a(I55093
I12
tp7386
a(I95218
I12
tp7387
a(I88254
I12
tp7388
a(I99604
I12
tp7389
a(I149185
I12
tp7390
a(I807
I12
tp7391
a(I89994
I12
tp7392
a(I118606
I12
tp7393
a(I120147
I12
tp7394
a(I172962
I12
tp7395
a(I130069
I12
tp7396
a(I75810
I12
tp7397
a(I43055
I12
tp7398
a(I128478
I12
tp7399
a(I81460
I12
tp7400
a(I22066
I12
tp7401
a(I149674
I12
tp7402
a(I46336
I12
tp7403
a(I30397
I12
tp7404
a(I185464
I12
tp7405
a(I39145
I12
tp7406
a(I58333
I12
tp7407
a(I4753
I12
tp7408
a(I194726
I12
tp7409
a(I162388
I12
tp7410
a(I13577
I12
tp7411
a(I169581
I12
tp7412
a(I6433
I12
tp7413
a(I110468
I12
tp7414
a(I143672
I12
tp7415
a(I146329
I12
tp7416
a(I33198
I12
tp7417
a(I138493
I12
tp7418
a(I51716
I12
tp7419
a(I4017
I12
tp7420
a(I165242
I12
tp7421
a(I82384
I12
tp7422
a(I125583
I12
tp7423
a(I13374
I12
tp7424
a(I653
I12
tp7425
a(I125074
I12
tp7426
a(I35594
I12
tp7427
a(I87225
I12
tp7428
a(I113358
I12
tp7429
a(I198941
I12
tp7430
a(I32979
I12
tp7431
a(I25911
I12
tp7432
a(I64240
I12
tp7433
a(I93620
I12
tp7434
a(I110433
I12
tp7435
a(I102040
I12
tp7436
a(I105339
I12
tp7437
a(I42026
I12
tp7438
a(I171511
I12
tp7439
a(I146182
I12
tp7440
a(I65803
I12
tp7441
a(I179922
I12
tp7442
a(I66791
I12
tp7443
a(I60140
I12
tp7444
a(I147470
I12
tp7445
a(I188253
I12
tp7446
a(I22035
I12
tp7447
a(I134007
I12
tp7448
a(I188553
I12
tp7449
a(I11759
I12
tp7450
a(I194206
I12
tp7451
a(I122019
I12
tp7452
a(I128161
I12
tp7453
a(I26075
I12
tp7454
a(I8379
I12
tp7455
a(I169753
I12
tp7456
a(I156134
I12
tp7457
a(I151938
I12
tp7458
a(I141207
I12
tp7459
a(I82962
I12
tp7460
a(I90561
I12
tp7461
a(I43559
I12
tp7462
a(I110636
I12
tp7463
a(I136782
I12
tp7464
a(I84642
I12
tp7465
a(I132885
I12
tp7466
a(I114795
I12
tp7467
a(I191277
I12
tp7468
a(I121140
I12
tp7469
a(I156387
I12
tp7470
a(I61746
I12
tp7471
a(I123126
I12
tp7472
a(I63227
I12
tp7473
a(I23552
I12
tp7474
a(I20420
I12
tp7475
a(I190835
I12
tp7476
a(I196977
I12
tp7477
a(I104070
I12
tp7478
a(I34362
I12
tp7479
a(I9193
I12
tp7480
a(I17040
I12
tp7481
a(I27727
I12
tp7482
a(I193108
I12
tp7483
a(I49038
I12
tp7484
a(I175445
I12
tp7485
a(I52476
I12
tp7486
a(I187401
I12
tp7487
a(I21477
I12
tp7488
a(I171067
I12
tp7489
a(I116369
I12
tp7490
a(I49817
I12
tp7491
a(I10414
I12
tp7492
a(I149109
I12
tp7493
a(I31004
I12
tp7494
a(I125136
I12
tp7495
a(I105364
I12
tp7496
a(I140611
I12
tp7497
a(I90849
I12
tp7498
a(I122177
I12
tp7499
a(I35656
I12
tp7500
a(I137639
I12
tp7501
a(I41814
I12
tp7502
a(I32697
I12
tp7503
a(I17870
I12
tp7504
a(I9762
I12
tp7505
a(I12760
I12
tp7506
a(I114667
I12
tp7507
a(I153754
I12
tp7508
a(I99824
I12
tp7509
a(I39697
I12
tp7510
a(I121974
I12
tp7511
a(I87359
I12
tp7512
a(I115831
I12
tp7513
a(I146244
I12
tp7514
a(I178519
I12
tp7515
a(I106345
I12
tp7516
a(I157054
I12
tp7517
a(I117379
I12
tp7518
a(I161579
I12
tp7519
a(I24219
I12
tp7520
a(I34297
I12
tp7521
a(I67158
I12
tp7522
a(I17707
I12
tp7523
a(I28378
I12
tp7524
a(I11056
I12
tp7525
a(I62703
I12
tp7526
a(I70046
I12
tp7527
a(I26038
I12
tp7528
a(I177604
I12
tp7529
a(I175628
I12
tp7530
a(I92723
I12
tp7531
a(I33329
I12
tp7532
a(I79349
I12
tp7533
a(I130635
I12
tp7534
a(I55349
I12
tp7535
a(I30484
I12
tp7536
a(I102595
I12
tp7537
a(I115105
I12
tp7538
a(I48005
I12
tp7539
a(I88876
I12
tp7540
a(I76601
I12
tp7541
a(I137119
I12
tp7542
a(I175637
I12
tp7543
a(I147900
I12
tp7544
a(I188468
I12
tp7545
a(I104498
I12
tp7546
a(I75233
I12
tp7547
a(I21669
I12
tp7548
a(I146090
I12
tp7549
a(I112829
I12
tp7550
a(I12678
I12
tp7551
a(I88885
I12
tp7552
a(I139578
I12
tp7553
a(I150249
I12
tp7554
a(I187905
I12
tp7555
a(I107542
I12
tp7556
a(I82373
I12
tp7557
a(I35355
I12
tp7558
a(I29049
I12
tp7559
a(I181902
I12
tp7560
a(I175251
I12
tp7561
a(I83089
I12
tp7562
a(I164343
I12
tp7563
a(I169980
I12
tp7564
a(I23130
I12
tp7565
a(I10882
I12
tp7566
a(I183582
I12
tp7567
a(I55405
I12
tp7568
a(I126572
I12
tp7569
a(I145704
I12
tp7570
a(I14215
I12
tp7571
a(I184630
I12
tp7572
a(I146436
I12
tp7573
a(I149446
I12
tp7574
a(I24949
I12
tp7575
a(I30586
I12
tp7576
a(I91710
I12
tp7577
a(I8852
I12
tp7578
a(I139431
I12
tp7579
a(I117334
I12
tp7580
a(I1721
I12
tp7581
a(I93390
I12
tp7582
a(I174372
I12
tp7583
a(I92881
I12
tp7584
a(I121048
I12
tp7585
a(I40341
I12
tp7586
a(I123802
I12
tp7587
a(I167241
I12
tp7588
a(I175344
I12
tp7589
a(I24500
I12
tp7590
a(I26486
I12
tp7591
a(I68365
I12
tp7592
a(I195647
I12
tp7593
a(I134903
I12
tp7594
a(I37949
I12
tp7595
a(I34801
I12
tp7596
a(I147543
I12
tp7597
a(I140905
I12
tp7598
a(I169347
I12
tp7599
a(I68993
I12
tp7600
a(I113989
I12
tp7601
a(I77049
I12
tp7602
a(I104467
I12
tp7603
a(I38754
I12
tp7604
a(I74709
I12
tp7605
a(I17276
I12
tp7606
a(I152201
I12
tp7607
a(I40943
I12
tp7608
a(I150380
I12
tp7609
a(I167587
I12
tp7610
a(I58119
I12
tp7611
a(I153189
I12
tp7612
a(I4795
I12
tp7613
a(I98943
I12
tp7614
a(I143150
I12
tp7615
a(I113277
I12
tp7616
a(I131970
I12
tp7617
a(I139135
I12
tp7618
a(I39975
I12
tp7619
a(I143773
I12
tp7620
a(I120477
I12
tp7621
a(I197796
I12
tp7622
a(I147631
I12
tp7623
a(I48290
I12
tp7624
a(I187693
I12
tp7625
a(I21731
I12
tp7626
a(I41778
I12
tp7627
a(I133447
I12
tp7628
a(I32677
I12
tp7629
a(I116138
I12
tp7630
a(I94041
I12
tp7631
a(I77239
I12
tp7632
a(I181181
I12
tp7633
a(I127857
I12
tp7634
a(I49111
I12
tp7635
a(I22662
I12
tp7636
a(I99804
I12
tp7637
a(I38377
I12
tp7638
a(I97278
I12
tp7639
a(I177084
I12
tp7640
a(I16643
I12
tp7641
a(I26821
I12
tp7642
a(I133228
I12
tp7643
a(I123278
I12
tp7644
a(I64733
I12
tp7645
a(I159633
I12
tp7646
a(I156694
I12
tp7647
a(I141559
I12
tp7648
a(I81660
I12
tp7649
a(I167582
I12
tp7650
a(I25453
I12
tp7651
a(I96803
I12
tp7652
a(I16424
I12
tp7653
a(I65669
I12
tp7654
a(I125930
I12
tp7655
a(I155466
I12
tp7656
a(I190973
I12
tp7657
a(I24755
I12
tp7658
a(I95928
I12
tp7659
a(I196579
I12
tp7660
a(I121760
I12
tp7661
a(I80681
I12
tp7662
a(I40845
I12
tp7663
a(I179717
I12
tp7664
a(I197642
I12
tp7665
a(I172473
I12
tp7666
a(I131613
I12
tp7667
a(I192548
I12
tp7668
a(I91096
I12
tp7669
a(I170982
I12
tp7670
a(I17468
I12
tp7671
a(I68250
I12
tp7672
a(I21577
I12
tp7673
a(I123746
I12
tp7674
a(I91828
I12
tp7675
a(I131171
I12
tp7676
a(I79603
I12
tp7677
a(I6667
I12
tp7678
a(I24592
I12
tp7679
a(I120702
I12
tp7680
a(I139882
I12
tp7681
a(I68562
I12
tp7682
a(I70119
I12
tp7683
a(I198244
I12
tp7684
a(I187153
I12
tp7685
a(I33911
I12
tp7686
a(I41254
I12
tp7687
a(I97673
I12
tp7688
a(I141039
I12
tp7689
a(I50078
I12
tp7690
a(I55921
I12
tp7691
a(I16801
I12
tp7692
a(I83818
I12
tp7693
a(I90137
I12
tp7694
a(I132032
I12
tp7695
a(I43650
I12
tp7696
a(I67228
I12
tp7697
a(I73803
I12
tp7698
a(I46672
I12
tp7699
a(I47380
I12
tp7700
a(I115395
I12
tp7701
a(I28037
I12
tp7702
a(I86842
I12
tp7703
a(I12196
I12
tp7704
a(I44471
I12
tp7705
a(I135189
I12
tp7706
a(I46012
I12
tp7707
a(I91674
I12
tp7708
a(I33737
I12
tp7709
a(I41840
I12
tp7710
a(I58413
I12
tp7711
a(I119348
I12
tp7712
a(I131043
I12
tp7713
a(I116200
I12
tp7714
a(I130550
I12
tp7715
a(I62143
I12
tp7716
a(I40046
I12
tp7717
a(I153796
I12
tp7718
a(I6769
I12
tp7719
a(I37690
I12
tp7720
a(I188304
I12
tp7721
a(I124754
I12
tp7722
a(I103958
I12
tp7723
a(I130075
I12
tp7724
a(I30180
I12
tp7725
a(I106131
I12
tp7726
a(I126434
I12
tp7727
a(I112273
I12
tp7728
a(I127991
I12
tp7729
a(I88572
I12
tp7730
a(I156331
I12
tp7731
a(I35930
I12
tp7732
a(I149680
I12
tp7733
a(I70508
I12
tp7734
a(I1315
I12
tp7735
a(I179489
I12
tp7736
a(I20574
I12
tp7737
a(I162843
I12
tp7738
a(I32576
I12
tp7739
a(I71935
I12
tp7740
a(I176381
I12
tp7741
a(I171188
I12
tp7742
a(I198146
I12
tp7743
a(I134982
I12
tp7744
a(I133574
I12
tp7745
a(I106443
I12
tp7746
a(I69263
I12
tp7747
a(I43070
I12
tp7748
a(I164443
I12
tp7749
a(I190560
I12
tp7750
a(I89806
I12
tp7751
a(I109853
I12
tp7752
a(I173267
I12
tp7753
a(I13090
I12
tp7754
a(I89297
I12
tp7755
a(I101080
I12
tp7756
a(I170295
I12
tp7757
a(I7827
I12
tp7758
a(I195408
I12
tp7759
a(I86957
I12
tp7760
a(I47538
I12
tp7761
a(I61989
I12
tp7762
a(I103884
I12
tp7763
a(I193527
I12
tp7764
a(I177220
I12
tp7765
a(I109634
I12
tp7766
a(I75019
I12
tp7767
a(I197138
I12
tp7768
a(I32382
I12
tp7769
a(I121340
I12
tp7770
a(I69356
I12
tp7771
a(I12704
I12
tp7772
a(I127837
I12
tp7773
a(I74084
I12
tp7774
a(I90641
I12
tp7775
a(I184344
I12
tp7776
a(I26785
I12
tp7777
a(I127736
I12
tp7778
a(I142016
I12
tp7779
a(I27773
I12
tp7780
a(I106289
I12
tp7781
a(I66851
I12
tp7782
a(I74140
I12
tp7783
a(I53584
I12
tp7784
a(I195087
I12
tp7785
a(I165822
I12
tp7786
a(I126403
I12
tp7787
a(I96274
I12
tp7788
a(I29640
I12
tp7789
a(I68174
I12
tp7790
a(I170141
I12
tp7791
a(I194212
I12
tp7792
a(I81633
I12
tp7793
a(I126184
I12
tp7794
a(I132342
I12
tp7795
a(I42862
I12
tp7796
a(I171929
I12
tp7797
a(I177628
I12
tp7798
a(I128988
I12
tp7799
a(I149481
I12
tp7800
a(I140476
I12
tp7801
a(I78595
I12
tp7802
a(I37991
I12
tp7803
a(I143638
I12
tp7804
a(I73930
I12
tp7805
a(I19065
I12
tp7806
a(I145119
I12
tp7807
a(I185230
I12
tp7808
a(I72932
I12
tp7809
a(I178579
I12
tp7810
a(I116254
I12
tp7811
a(I197492
I12
tp7812
a(I113522
I12
tp7813
a(I124569
I12
tp7814
a(I107519
I12
tp7815
a(I19630
I12
tp7816
a(I178360
I12
tp7817
a(I136053
I12
tp7818
a(I160574
I12
tp7819
a(I22851
I12
tp7820
a(I5049
I12
tp7821
a(I111456
I12
tp7822
a(I120280
I12
tp7823
a(I73783
I12
tp7824
a(I165449
I12
tp7825
a(I113136
I12
tp7826
a(I195245
I12
tp7827
a(I108724
I12
tp7828
a(I180402
I12
tp7829
a(I125537
I12
tp7830
a(I199897
I12
tp7831
a(I103150
I12
tp7832
a(I128834
I12
tp7833
a(I19467
I12
tp7834
a(I125370
I12
tp7835
a(I45929
I12
tp7836
a(I190161
I12
tp7837
a(I65487
I12
tp7838
a(I71629
I12
tp7839
a(I50644
I12
tp7840
a(I28291
I12
tp7841
a(I160904
I12
tp7842
a(I46661
I12
tp7843
a(I36622
I12
tp7844
a(I6749
I12
tp7845
a(I18532
I12
tp7846
a(I30327
I12
tp7847
a(I23676
I12
tp7848
a(I53040
I12
tp7849
a(I32500
I12
tp7850
a(I111521
I12
tp7851
a(I6582
I12
tp7852
a(I107365
I12
tp7853
a(I133482
I12
tp7854
a(I73599
I12
tp7855
a(I156804
I12
tp7856
a(I133305
I12
tp7857
a(I51356
I12
tp7858
a(I88233
I12
tp7859
a(I34063
I12
tp7860
a(I44734
I12
tp7861
a(I146059
I12
tp7862
a(I107914
I12
tp7863
a(I85817
I12
tp7864
a(I100770
I12
tp7865
a(I344
I12
tp7866
a(I147989
I12
tp7867
a(I58812
I12
tp7868
a(I132148
I12
tp7869
a(I172515
I12
tp7870
a(I59468
I12
tp7871
a(I180813
I12
tp7872
a(I195946
I12
tp7873
a(I20078
I12
tp7874
a(I185459
I12
tp7875
a(I133335
I12
tp7876
a(I189883
I12
tp7877
a(I400
I12
tp7878
a(I181069
I12
tp7879
a(I88579
I12
tp7880
a(I40968
I12
tp7881
a(I146301
I12
tp7882
a(I136569
I12
tp7883
a(I53727
I12
tp7884
a(I10212
I12
tp7885
a(I188386
I12
tp7886
a(I30865
I12
tp7887
a(I183974
I12
tp7888
a(I188702
I12
tp7889
a(I128803
I12
tp7890
a(I23848
I12
tp7891
a(I73445
I12
tp7892
a(I56123
I12
tp7893
a(I19199
I12
tp7894
a(I141415
I12
tp7895
a(I86020
I12
tp7896
a(I82872
I12
tp7897
a(I155159
I12
tp7898
a(I162758
I12
tp7899
a(I120784
I12
tp7900
a(I116372
I12
tp7901
a(I97938
I12
tp7902
a(I133893
I12
tp7903
a(I121440
I12
tp7904
a(I131278
I12
tp7905
a(I136915
I12
tp7906
a(I58658
I12
tp7907
a(I84791
I12
tp7908
a(I74057
I12
tp7909
a(I73442
I12
tp7910
a(I40291
I12
tp7911
a(I93106
I12
tp7912
a(I94663
I12
tp7913
a(I170870
I12
tp7914
a(I24955
I12
tp7915
a(I198717
I12
tp7916
a(I91223
I12
tp7917
a(I10933
I12
tp7918
a(I117340
I12
tp7919
a(I154217
I12
tp7920
a(I100047
I12
tp7921
a(I139390
I12
tp7922
a(I117500
I12
tp7923
a(I66770
I12
tp7924
a(I46998
I12
tp7925
a(I119109
I12
tp7926
a(I94444
I12
tp7927
a(I73115
I12
tp7928
a(I16633
I12
tp7929
a(I167263
I12
tp7930
a(I15379
I12
tp7931
a(I32811
I12
tp7932
a(I77274
I12
tp7933
a(I142402
I12
tp7934
a(I41635
I12
tp7935
a(I8374
I12
tp7936
a(I60684
I12
tp7937
a(I184426
I12
tp7938
a(I180863
I12
tp7939
a(I126324
I12
tp7940
a(I108851
I12
tp7941
a(I55110
I12
tp7942
a(I116474
I12
tp7943
a(I109583
I12
tp7944
a(I35296
I12
tp7945
a(I51869
I12
tp7946
a(I96849
I12
tp7947
a(I54891
I12
tp7948
a(I29466
I12
tp7949
a(I105673
I12
tp7950
a(I121135
I12
tp7951
a(I149731
I12
tp7952
a(I57064
I12
tp7953
a(I13656
I12
tp7954
a(I164697
I12
tp7955
a(I120260
I12
tp7956
a(I182677
I12
tp7957
a(I165429
I12
tp7958
a(I106560
I12
tp7959
a(I60474
I12
tp7960
a(I59981
I12
tp7961
a(I58627
I12
tp7962
a(I181863
I12
tp7963
a(I156438
I12
tp7964
a(I44140
I12
tp7965
a(I179321
I12
tp7966
a(I24352
I12
tp7967
a(I30943
I12
tp7968
a(I118500
I12
tp7969
a(I27539
I12
tp7970
a(I26338
I12
tp7971
a(I131985
I12
tp7972
a(I150775
I12
tp7973
a(I144213
I12
tp7974
a(I65451
I12
tp7975
a(I94063
I12
tp7976
a(I30068
I12
tp7977
a(I105526
I12
tp7978
a(I146609
I12
tp7979
a(I92856
I12
tp7980
a(I78240
I12
tp7981
a(I157899
I12
tp7982
a(I98000
I12
tp7983
a(I39823
I12
tp7984
a(I78733
I12
tp7985
a(I90516
I12
tp7986
a(I67926
I12
tp7987
a(I30124
I12
tp7988
a(I106331
I12
tp7989
a(I47114
I12
tp7990
a(I50617
I12
tp7991
a(I111059
I12
tp7992
a(I37431
I12
tp7993
a(I96316
I12
tp7994
a(I79023
I12
tp7995
a(I187489
I12
tp7996
a(I118565
I12
tp7997
a(I174989
I12
tp7998
a(I196313
I12
tp7999
a(I4480
I12
tp8000
a(I17646
I12
tp8001
a(I324
I12
tp8002
a(I190936
I12
tp8003
a(I3927
I12
tp8004
a(I43014
I12
tp8005
a(I114187
I12
tp8006
a(I91497
I12
tp8007
a(I127378
I12
tp8008
a(I146020
I12
tp8009
a(I53858
I12
tp8010
a(I17702
I12
tp8011
a(I102793
I12
tp8012
a(I88815
I12
tp8013
a(I139508
I12
tp8014
a(I71013
I12
tp8015
a(I96637
I12
tp8016
a(I28429
I12
tp8017
a(I106177
I12
tp8018
a(I52424
I12
tp8019
a(I41260
I12
tp8020
a(I151776
I12
tp8021
a(I70919
I12
tp8022
a(I99665
I12
tp8023
a(I180663
I12
tp8024
a(I27494
I12
tp8025
a(I174025
I12
tp8026
a(I31208
I12
tp8027
a(I4598
I12
tp8028
a(I47781
I12
tp8029
a(I3773
I12
tp8030
a(I25940
I12
tp8031
a(I1651
I12
tp8032
a(I147057
I12
tp8033
a(I93304
I12
tp8034
a(I96983
I12
tp8035
a(I174784
I12
tp8036
a(I184638
I12
tp8037
a(I68118
I12
tp8038
a(I30572
I12
tp8039
a(I60541
I12
tp8040
a(I76433
I12
tp8041
a(I23125
I12
tp8042
a(I132779
I12
tp8043
a(I145007
I12
tp8044
a(I7284
I12
tp8045
a(I20769
I12
tp8046
a(I15615
I12
tp8047
a(I164356
I12
tp8048
a(I116657
I12
tp8049
a(I190489
I12
tp8050
a(I111563
I12
tp8051
a(I187021
I12
tp8052
a(I100500
I12
tp8053
a(I21059
I12
tp8054
a(I14408
I12
tp8055
a(I35936
I12
tp8056
a(I94926
I12
tp8057
a(I48932
I12
tp8058
a(I119120
I12
tp8059
a(I6617
I12
tp8060
a(I47232
I12
tp8061
a(I128499
I12
tp8062
a(I179292
I12
tp8063
a(I199785
I12
tp8064
a(I30738
I12
tp8065
a(I168767
I12
tp8066
a(I57044
I12
tp8067
a(I122087
I12
tp8068
a(I194966
I12
tp8069
a(I85915
I12
tp8070
a(I54688
I12
tp8071
a(I104462
I12
tp8072
a(I50532
I12
tp8073
a(I99857
I12
tp8074
a(I50039
I12
tp8075
a(I191526
I12
tp8076
a(I124399
I12
tp8077
a(I134814
I12
tp8078
a(I7661
I12
tp8079
a(I123890
I12
tp8080
a(I3233
I12
tp8081
a(I195240
I12
tp8082
a(I66154
I12
tp8083
a(I59519
I12
tp8084
a(I144686
I12
tp8085
a(I196614
I12
tp8086
a(I181660
I12
tp8087
a(I192331
I12
tp8088
a(I171535
I12
tp8089
a(I13837
I12
tp8090
a(I123924
I12
tp8091
a(I178625
I12
tp8092
a(I5595
I12
tp8093
a(I146589
I12
tp8094
a(I674
I12
tp8095
a(I71787
I12
tp8096
a(I172845
I12
tp8097
a(I53985
I12
tp8098
a(I80118
I12
tp8099
a(I157004
I12
tp8100
a(I142250
I12
tp8101
a(I76010
I12
tp8102
a(I8563
I12
tp8103
a(I188006
I12
tp8104
a(I34263
I12
tp8105
a(I51253
I12
tp8106
a(I158684
I12
tp8107
a(I144523
I12
tp8108
a(I39568
I12
tp8109
a(I50378
I12
tp8110
a(I28281
I12
tp8111
a(I10975
I12
tp8112
a(I122259
I12
tp8113
a(I81655
I12
tp8114
a(I91477
I12
tp8115
a(I52058
I12
tp8116
a(I151919
I12
tp8117
a(I63521
I12
tp8118
a(I199308
I12
tp8119
a(I87099
I12
tp8120
a(I47680
I12
tp8121
a(I18431
I12
tp8122
a(I147991
I12
tp8123
a(I1017
I12
tp8124
a(I88779
I12
tp8125
a(I58490
I12
tp8126
a(I21724
I12
tp8127
a(I157724
I12
tp8128
a(I86439
I12
tp8129
a(I171898
I12
tp8130
a(I58323
I12
tp8131
a(I149976
I12
tp8132
a(I123366
I12
tp8133
a(I10812
I12
tp8134
a(I91823
I12
tp8135
a(I141234
I12
tp8136
a(I150708
I12
tp8137
a(I134753
I12
tp8138
a(I17280
I12
tp8139
a(I93503
I12
tp8140
a(I133780
I12
tp8141
a(I72947
I12
tp8142
a(I120681
I12
tp8143
a(I134093
I12
tp8144
a(I190076
I12
tp8145
a(I115499
I12
tp8146
a(I109125
I12
tp8147
a(I165471
I12
tp8148
a(I2215
I12
tp8149
a(I118131
I12
tp8150
a(I189232
I12
tp8151
a(I114595
I12
tp8152
a(I132520
I12
tp8153
a(I59840
I12
tp8154
a(I74291
I12
tp8155
a(I52725
I12
tp8156
a(I46667
I12
tp8157
a(I40016
I12
tp8158
a(I14607
I12
tp8159
a(I43203
I12
tp8160
a(I79054
I12
tp8161
a(I176420
I12
tp8162
a(I170428
I12
tp8163
a(I68965
I12
tp8164
a(I53807
I12
tp8165
a(I116195
I12
tp8166
a(I182715
I12
tp8167
a(I68684
I12
tp8168
a(I94890
I12
tp8169
a(I171097
I12
tp8170
a(I88255
I12
tp8171
a(I175812
I12
tp8172
a(I84358
I12
tp8173
a(I4917
I12
tp8174
a(I162106
I12
tp8175
a(I184143
I12
tp8176
a(I178559
I12
tp8177
a(I190285
I12
tp8178
a(I183634
I12
tp8179
a(I162838
I12
tp8180
a(I47468
I12
tp8181
a(I121828
I12
tp8182
a(I157747
I12
tp8183
a(I114441
I12
tp8184
a(I24240
I12
tp8185
a(I16433
I12
tp8186
a(I197409
I12
tp8187
a(I53127
I12
tp8188
a(I169222
I12
tp8189
a(I169480
I12
tp8190
a(I137450
I12
tp8191
a(I61183
I12
tp8192
a(I166830
I12
tp8193
a(I193540
I12
tp8194
a(I185926
I12
tp8195
a(I113013
I12
tp8196
a(I129684
I12
tp8197
a(I1091
I12
tp8198
a(I191048
I12
tp8199
a(I96423
I12
tp8200
a(I20140
I12
tp8201
a(I159543
I12
tp8202
a(I54677
I12
tp8203
a(I161084
I12
tp8204
a(I78179
I12
tp8205
a(I11325
I12
tp8206
a(I105028
I12
tp8207
a(I24561
I12
tp8208
a(I137303
I12
tp8209
a(I107782
I12
tp8210
a(I37136
I12
tp8211
a(I17534
I12
tp8212
a(I177032
I12
tp8213
a(I62789
I12
tp8214
a(I156872
I12
tp8215
a(I45467
I12
tp8216
a(I187210
I12
tp8217
a(I91385
I12
tp8218
a(I20499
I12
tp8219
a(I44898
I12
tp8220
a(I149521
I12
tp8221
a(I187942
I12
tp8222
a(I31701
I12
tp8223
a(I133680
I12
tp8224
a(I94366
I12
tp8225
a(I181790
I12
tp8226
a(I159333
I12
tp8227
a(I43707
I12
tp8228
a(I12480
I12
tp8229
a(I88703
I12
tp8230
a(I193149
I12
tp8231
a(I41860
I12
tp8232
a(I161030
I12
tp8233
a(I14236
I12
tp8234
a(I191934
I12
tp8235
a(I22036
I12
tp8236
a(I158657
I12
tp8237
a(I137995
I12
tp8238
a(I113196
I12
tp8239
a(I133689
I12
tp8240
a(I175584
I12
tp8241
a(I30367
I12
tp8242
a(I56484
I12
tp8243
a(I29858
I12
tp8244
a(I23223
I12
tp8245
a(I106684
I12
tp8246
a(I178149
I12
tp8247
a(I97583
I12
tp8248
a(I27382
I12
tp8249
a(I22348
I12
tp8250
a(I134510
I12
tp8251
a(I7101
I12
tp8252
a(I70515
I12
tp8253
a(I31096
I12
tp8254
a(I65594
I12
tp8255
a(I37970
I12
tp8256
a(I126728
I12
tp8257
a(I132886
I12
tp8258
a(I126235
I12
tp8259
a(I182532
I12
tp8260
a(I3987
I12
tp8261
a(I57289
I12
tp8262
a(I134566
I12
tp8263
a(I153429
I12
tp8264
a(I63228
I12
tp8265
a(I129456
I12
tp8266
a(I33647
I12
tp8267
a(I44062
I12
tp8268
a(I98674
I12
tp8269
a(I104488
I12
tp8270
a(I110646
I12
tp8271
a(I41469
I12
tp8272
a(I86193
I12
tp8273
a(I138519
I12
tp8274
a(I197305
I12
tp8275
a(I81807
I12
tp8276
a(I88382
I12
tp8277
a(I87949
I12
tp8278
a(I66964
I12
tp8279
a(I77635
I12
tp8280
a(I149313
I12
tp8281
a(I92588
I12
tp8282
a(I56330
I12
tp8283
a(I129465
I12
tp8284
a(I14827
I12
tp8285
a(I126025
I12
tp8286
a(I167920
I12
tp8287
a(I174255
I12
tp8288
a(I147629
I12
tp8289
a(I120498
I12
tp8290
a(I159841
I12
tp8291
a(I39522
I12
tp8292
a(I9540
I12
tp8293
a(I74583
I12
tp8294
a(I186691
I12
tp8295
a(I35164
I12
tp8296
a(I119307
I12
tp8297
a(I47120
I12
tp8298
a(I121480
I12
tp8299
a(I29334
I12
tp8300
a(I105541
I12
tp8301
a(I153755
I12
tp8302
a(I5390
I12
tp8303
a(I162579
I12
tp8304
a(I37649
I12
tp8305
a(I16664
I12
tp8306
a(I53035
I12
tp8307
a(I115956
I12
tp8308
a(I90531
I12
tp8309
a(I159670
I12
tp8310
a(I73578
I12
tp8311
a(I182916
I12
tp8312
a(I70707
I12
tp8313
a(I199729
I12
tp8314
a(I135750
I12
tp8315
a(I63563
I12
tp8316
a(I99834
I12
tp8317
a(I110249
I12
tp8318
a(I85584
I12
tp8319
a(I192788
I12
tp8320
a(I45761
I12
tp8321
a(I26532
I12
tp8322
a(I169816
I12
tp8323
a(I64368
I12
tp8324
a(I172510
I12
tp8325
a(I15405
I12
tp8326
a(I98866
I12
tp8327
a(I101055
I12
tp8328
a(I139319
I12
tp8329
a(I69828
I12
tp8330
a(I139545
I12
tp8331
a(I80774
I12
tp8332
a(I134267
I12
tp8333
a(I71568
I12
tp8334
a(I23294
I12
tp8335
a(I180050
I12
tp8336
a(I77334
I12
tp8337
a(I93036
I12
tp8338
a(I104992
I12
tp8339
a(I90077
I12
tp8340
a(I48280
I12
tp8341
a(I65712
I12
tp8342
a(I161566
I12
tp8343
a(I41768
I12
tp8344
a(I154422
I12
tp8345
a(I91365
I12
tp8346
a(I51453
I12
tp8347
a(I89602
I12
tp8348
a(I129969
I12
tp8349
a(I76216
I12
tp8350
a(I107543
I12
tp8351
a(I68124
I12
tp8352
a(I32397
I12
tp8353
a(I128579
I12
tp8354
a(I192065
I12
tp8355
a(I128086
I12
tp8356
a(I50475
I12
tp8357
a(I136401
I12
tp8358
a(I49880
I12
tp8359
a(I128848
I12
tp8360
a(I49387
I12
tp8361
a(I62383
I12
tp8362
a(I40286
I12
tp8363
a(I121268
I12
tp8364
a(I116679
I12
tp8365
a(I172842
I12
tp8366
a(I104198
I12
tp8367
a(I78005
I12
tp8368
a(I118876
I12
tp8369
a(I93391
I12
tp8370
a(I112254
I12
tp8371
a(I127700
I12
tp8372
a(I145281
I12
tp8373
a(I168686
I12
tp8374
a(I138646
I12
tp8375
a(I42249
I12
tp8376
a(I113169
I12
tp8377
a(I190488
I12
tp8378
a(I103979
I12
tp8379
a(I121993
I12
tp8380
a(I170479
I12
tp8381
a(I143853
I12
tp8382
a(I34979
I12
tp8383
a(I172193
I12
tp8384
a(I29452
I12
tp8385
a(I148249
I12
tp8386
a(I68735
I12
tp8387
a(I55089
I12
tp8388
a(I50933
I12
tp8389
a(I131915
I12
tp8390
a(I44282
I12
tp8391
a(I26960
I12
tp8392
a(I185316
I12
tp8393
a(I9174
I12
tp8394
a(I133595
I12
tp8395
a(I21130
I12
tp8396
a(I106464
I12
tp8397
a(I180814
I12
tp8398
a(I20637
I12
tp8399
a(I15960
I12
tp8400
a(I121114
I12
tp8401
a(I25289
I12
tp8402
a(I149293
I12
tp8403
a(I79156
I12
tp8404
a(I9448
I12
tp8405
a(I63909
I12
tp8406
a(I172795
I12
tp8407
a(I125273
I12
tp8408
a(I69354
I12
tp8409
a(I21951
I12
tp8410
a(I19901
I12
tp8411
a(I163185
I12
tp8412
a(I113111
I12
tp8413
a(I82566
I12
tp8414
a(I27701
I12
tp8415
a(I69596
I12
tp8416
a(I106473
I12
tp8417
a(I103679
I12
tp8418
a(I192589
I12
tp8419
a(I83585
I12
tp8420
a(I111212
I12
tp8421
a(I93070
I12
tp8422
a(I164041
I12
tp8423
a(I170325
I12
tp8424
a(I199983
I12
tp8425
a(I121716
I12
tp8426
a(I25635
I12
tp8427
a(I95090
I12
tp8428
a(I7201
I12
tp8429
a(I117288
I12
tp8430
a(I84027
I12
tp8431
a(I89664
I12
tp8432
a(I1198
I12
tp8433
a(I92851
I12
tp8434
a(I162297
I12
tp8435
a(I197297
I12
tp8436
a(I140585
I12
tp8437
a(I57743
I12
tp8438
a(I129617
I12
tp8439
a(I192402
I12
tp8440
a(I193959
I12
tp8441
a(I5151
I12
tp8442
a(I111054
I12
tp8443
a(I101405
I12
tp8444
a(I158699
I12
tp8445
a(I29168
I12
tp8446
a(I155828
I12
tp8447
a(I104626
I12
tp8448
a(I41569
I12
tp8449
a(I36968
I12
tp8450
a(I67702
I12
tp8451
a(I26496
I12
tp8452
a(I196927
I12
tp8453
a(I10990
I12
tp8454
a(I166467
I12
tp8455
a(I64348
I12
tp8456
a(I99339
I12
tp8457
a(I172474
I12
tp8458
a(I183145
I12
tp8459
a(I92688
I12
tp8460
a(I53630
I12
tp8461
a(I176077
I12
tp8462
a(I21578
I12
tp8463
a(I79970
I12
tp8464
a(I169138
I12
tp8465
a(I110891
I12
tp8466
a(I59273
I12
tp8467
a(I139503
I12
tp8468
a(I54179
I12
tp8469
a(I84897
I12
tp8470
a(I28718
I12
tp8471
a(I149045
I12
tp8472
a(I161786
I12
tp8473
a(I154895
I12
tp8474
a(I161037
I12
tp8475
a(I126428
I12
tp8476
a(I52419
I12
tp8477
a(I20538
I12
tp8478
a(I27473
I12
tp8479
a(I55223
I12
tp8480
a(I77168
I12
tp8481
a(I63023
I12
tp8482
a(I65701
I12
tp8483
a(I166250
I12
tp8484
a(I29304
I12
tp8485
a(I68862
I12
tp8486
a(I37379
I12
tp8487
a(I63496
I12
tp8488
a(I69654
I12
tp8489
a(I194429
I12
tp8490
a(I183328
I12
tp8491
a(I6114
I12
tp8492
a(I176273
I12
tp8493
a(I65015
I12
tp8494
a(I60587
I12
tp8495
a(I119561
I12
tp8496
a(I127664
I12
tp8497
a(I111725
I12
tp8498
a(I70952
I12
tp8499
a(I103227
I12
tp8500
a(I164607
I12
tp8501
a(I143744
I12
tp8502
a(I183366
I12
tp8503
a(I38423
I12
tp8504
a(I131872
I12
tp8505
a(I117801
I12
tp8506
a(I106637
I12
tp8507
a(I40596
I12
tp8508
a(I145475
I12
tp8509
a(I145042
I12
tp8510
a(I184385
I12
tp8511
a(I15650
I12
tp8512
a(I139155
I12
tp8513
a(I117141
I12
tp8514
a(I155053
I12
tp8515
a(I37930
I12
tp8516
a(I28919
I12
tp8517
a(I179287
I12
tp8518
a(I22790
I12
tp8519
a(I9428
I12
tp8520
a(I158913
I12
tp8521
a(I31105
I12
tp8522
a(I74471
I12
tp8523
a(I83295
I12
tp8524
a(I164640
I12
tp8525
a(I62483
I12
tp8526
a(I191505
I12
tp8527
a(I160470
I12
tp8528
a(I189914
I12
tp8529
a(I156653
I12
tp8530
a(I195235
I12
tp8531
a(I34289
I12
tp8532
a(I146462
I12
tp8533
a(I188167
I12
tp8534
a(I63670
I12
tp8535
a(I98917
I12
tp8536
a(I98178
I12
tp8537
a(I181655
I12
tp8538
a(I126590
I12
tp8539
a(I30027
I12
tp8540
a(I139002
I12
tp8541
a(I156687
I12
tp8542
a(I123410
I12
tp8543
a(I69569
I12
tp8544
a(I16005
I12
tp8545
a(I99466
I12
tp8546
a(I46158
I12
tp8547
a(I197277
I12
tp8548
a(I170086
I12
tp8549
a(I83132
I12
tp8550
a(I101146
I12
tp8551
a(I113374
I12
tp8552
a(I198957
I12
tp8553
a(I38459
I12
tp8554
a(I65880
I12
tp8555
a(I103675
I12
tp8556
a(I81853
I12
tp8557
a(I7544
I12
tp8558
a(I93143
I12
tp8559
a(I24117
I12
tp8560
a(I160220
I12
tp8561
a(I168020
I12
tp8562
a(I146691
I12
tp8563
a(I21761
I12
tp8564
a(I166597
I12
tp8565
a(I156780
I12
tp8566
a(I164123
I12
tp8567
a(I176351
I12
tp8568
a(I10461
I12
tp8569
a(I16098
I12
tp8570
a(I151898
I12
tp8571
a(I68231
I12
tp8572
a(I37004
I12
tp8573
a(I14907
I12
tp8574
a(I188569
I12
tp8575
a(I63150
I12
tp8576
a(I56499
I12
tp8577
a(I43778
I12
tp8578
a(I88774
I12
tp8579
a(I180566
I12
tp8580
a(I120667
I12
tp8581
a(I192522
I12
tp8582
a(I138681
I12
tp8583
a(I50719
I12
tp8584
a(I175140
I12
tp8585
a(I84435
I12
tp8586
a(I187883
I12
tp8587
a(I178369
I12
tp8588
a(I98377
I12
tp8589
a(I173040
I12
tp8590
a(I149510
I12
tp8591
a(I152244
I12
tp8592
a(I169057
I12
tp8593
a(I141004
I12
tp8594
a(I27946
I12
tp8595
a(I28994
I12
tp8596
a(I188422
I12
tp8597
a(I187136
I12
tp8598
a(I89104
I12
tp8599
a(I92291
I12
tp8600
a(I124882
I12
tp8601
a(I163969
I12
tp8602
a(I19943
I12
tp8603
a(I74745
I12
tp8604
a(I93279
I12
tp8605
a(I35086
I12
tp8606
a(I27234
I12
tp8607
a(I171302
I12
tp8608
a(I83580
I12
tp8609
a(I84272
I12
tp8610
a(I16286
I12
tp8611
a(I26119
I12
tp8612
a(I107054
I12
tp8613
a(I110973
I12
tp8614
a(I28292
I12
tp8615
a(I172081
I12
tp8616
a(I87029
I12
tp8617
a(I193659
I12
tp8618
a(I148137
I12
tp8619
a(I57936
I12
tp8620
a(I108301
I12
tp8621
a(I169236
I12
tp8622
a(I147139
I12
tp8623
a(I36114
I12
tp8624
a(I68440
I12
tp8625
a(I39351
I12
tp8626
a(I41830
I12
tp8627
a(I52245
I12
tp8628
a(I159676
I12
tp8629
a(I169061
I12
tp8630
a(I167476
I12
tp8631
a(I24017
I12
tp8632
a(I180219
I12
tp8633
a(I164685
I12
tp8634
a(I1280
I12
tp8635
a(I175807
I12
tp8636
a(I89715
I12
tp8637
a(I18201
I12
tp8638
a(I128625
I12
tp8639
a(I107640
I12
tp8640
a(I157376
I12
tp8641
a(I68496
I12
tp8642
a(I163967
I12
tp8643
a(I191548
I12
tp8644
a(I76296
I12
tp8645
a(I94149
I12
tp8646
a(I69484
I12
tp8647
a(I106980
I12
tp8648
a(I117395
I12
tp8649
a(I154082
I12
tp8650
a(I143351
I12
tp8651
a(I102997
I12
tp8652
a(I124525
I12
tp8653
a(I85106
I12
tp8654
a(I137445
I12
tp8655
a(I29951
I12
tp8656
a(I88580
I12
tp8657
a(I157619
I12
tp8658
a(I183243
I12
tp8659
a(I82068
I12
tp8660
a(I98401
I12
tp8661
a(I159816
I12
tp8662
a(I118439
I12
tp8663
a(I119980
I12
tp8664
a(I9401
I12
tp8665
a(I57631
I12
tp8666
a(I75748
I12
tp8667
a(I133329
I12
tp8668
a(I124632
I12
tp8669
a(I95543
I12
tp8670
a(I40678
I12
tp8671
a(I76617
I12
tp8672
a(I36781
I12
tp8673
a(I60283
I12
tp8674
a(I46122
I12
tp8675
a(I184793
I12
tp8676
a(I94336
I12
tp8677
a(I6719
I12
tp8678
a(I155716
I12
tp8679
a(I9713
I12
tp8680
a(I101126
I12
tp8681
a(I181632
I12
tp8682
a(I17513
I12
tp8683
a(I65743
I12
tp8684
a(I104148
I12
tp8685
a(I174977
I12
tp8686
a(I139594
I12
tp8687
a(I46943
I12
tp8688
a(I151566
I12
tp8689
a(I68632
I12
tp8690
a(I170871
I12
tp8691
a(I129712
I12
tp8692
a(I22490
I12
tp8693
a(I153069
I12
tp8694
a(I30449
I12
tp8695
a(I115873
I12
tp8696
a(I95333
I12
tp8697
a(I4407
I12
tp8698
a(I78011
I12
tp8699
a(I154218
I12
tp8700
a(I172159
I12
tp8701
a(I193367
I12
tp8702
a(I88189
I12
tp8703
a(I77881
I12
tp8704
a(I19249
I12
tp8705
a(I20806
I12
tp8706
a(I31477
I12
tp8707
a(I3408
I12
tp8708
a(I153103
I12
tp8709
a(I21522
I12
tp8710
a(I29121
I12
tp8711
a(I47655
I12
tp8712
a(I139787
I12
tp8713
a(I24709
I12
tp8714
a(I89384
I12
tp8715
a(I175579
I12
tp8716
a(I46048
I12
tp8717
a(I29853
I12
tp8718
a(I33444
I12
tp8719
a(I174441
I12
tp8720
a(I25681
I12
tp8721
a(I86616
I12
tp8722
a(I82735
I12
tp8723
a(I43316
I12
tp8724
a(I82226
I12
tp8725
a(I191201
I12
tp8726
a(I186600
I12
tp8727
a(I175516
I12
tp8728
a(I123818
I12
tp8729
a(I70510
I12
tp8730
a(I190086
I12
tp8731
a(I41948
I12
tp8732
a(I161557
I12
tp8733
a(I21136
I12
tp8734
a(I82516
I12
tp8735
a(I154788
I12
tp8736
a(I95003
I12
tp8737
a(I105674
I12
tp8738
a(I103827
I12
tp8739
a(I103334
I12
tp8740
a(I81237
I12
tp8741
a(I858
I12
tp8742
a(I109577
I12
tp8743
a(I33133
I12
tp8744
a(I169842
I12
tp8745
a(I176161
I12
tp8746
a(I195719
I12
tp8747
a(I140261
I12
tp8748
a(I148408
I12
tp8749
a(I166378
I12
tp8750
a(I45642
I12
tp8751
a(I106495
I12
tp8752
a(I156932
I12
tp8753
a(I134835
I12
tp8754
a(I139257
I12
tp8755
a(I167110
I12
tp8756
a(I39007
I12
tp8757
a(I27540
I12
tp8758
a(I11585
I12
tp8759
a(I125351
I12
tp8760
a(I78678
I12
tp8761
a(I121861
I12
tp8762
a(I139786
I12
tp8763
a(I133151
I12
tp8764
a(I46626
I12
tp8765
a(I7223
I12
tp8766
a(I80358
I12
tp8767
a(I127561
I12
tp8768
a(I120493
I12
tp8769
a(I132276
I12
tp8770
a(I78952
I12
tp8771
a(I92364
I12
tp8772
a(I85742
I12
tp8773
a(I187709
I12
tp8774
a(I99988
I12
tp8775
a(I120051
I12
tp8776
a(I121243
I12
tp8777
a(I52465
I12
tp8778
a(I139100
I12
tp8779
a(I45524
I12
tp8780
a(I10706
I12
tp8781
a(I34284
I12
tp8782
a(I38393
I12
tp8783
a(I56418
I12
tp8784
a(I115442
I12
tp8785
a(I183167
I12
tp8786
a(I189309
I12
tp8787
a(I194630
I12
tp8788
a(I21584
I12
tp8789
a(I164828
I12
tp8790
a(I104641
I12
tp8791
a(I161480
I12
tp8792
a(I11052
I12
tp8793
a(I80697
I12
tp8794
a(I98638
I12
tp8795
a(I85412
I12
tp8796
a(I71507
I12
tp8797
a(I114197
I12
tp8798
a(I8649
I12
tp8799
a(I46561
I12
tp8800
a(I116155
I12
tp8801
a(I74917
I12
tp8802
a(I126344
I12
tp8803
a(I117559
I12
tp8804
a(I178289
I12
tp8805
a(I136824
I12
tp8806
a(I65926
I12
tp8807
a(I191335
I12
tp8808
a(I119237
I12
tp8809
a(I155680
I12
tp8810
a(I156427
I12
tp8811
a(I87185
I12
tp8812
a(I67188
I12
tp8813
a(I100648
I12
tp8814
a(I79675
I12
tp8815
a(I86250
I12
tp8816
a(I195786
I12
tp8817
a(I75519
I12
tp8818
a(I133655
I12
tp8819
a(I94581
I12
tp8820
a(I81355
I12
tp8821
a(I57385
I12
tp8822
a(I175026
I12
tp8823
a(I63038
I12
tp8824
a(I126620
I12
tp8825
a(I23126
I12
tp8826
a(I52490
I12
tp8827
a(I38585
I12
tp8828
a(I176583
I12
tp8829
a(I80164
I12
tp8830
a(I134460
I12
tp8831
a(I193434
I12
tp8832
a(I105801
I12
tp8833
a(I113904
I12
tp8834
a(I84323
I12
tp8835
a(I111564
I12
tp8836
a(I197872
I12
tp8837
a(I25661
I12
tp8838
a(I6129
I12
tp8839
a(I163078
I12
tp8840
a(I91523
I12
tp8841
a(I84479
I12
tp8842
a(I25494
I12
tp8843
a(I15609
I12
tp8844
a(I4445
I12
tp8845
a(I53092
I12
tp8846
a(I35849
I12
tp8847
a(I159664
I12
tp8848
a(I2206
I12
tp8849
a(I46753
I12
tp8850
a(I189608
I12
tp8851
a(I171892
I12
tp8852
a(I197939
I12
tp8853
a(I25913
I12
tp8854
a(I838
I12
tp8855
a(I11509
I12
tp8856
a(I173502
I12
tp8857
a(I159252
I12
tp8858
a(I135624
I12
tp8859
a(I93223
I12
tp8860
a(I2518
I12
tp8861
a(I178314
I12
tp8862
a(I48230
I12
tp8863
a(I12058
I12
tp8864
a(I84169
I12
tp8865
a(I125040
I12
tp8866
a(I122590
I12
tp8867
a(I175405
I12
tp8868
a(I105268
I12
tp8869
a(I166971
I12
tp8870
a(I131524
I12
tp8871
a(I76659
I12
tp8872
a(I4055
I12
tp8873
a(I91625
I12
tp8874
a(I44114
I12
tp8875
a(I176743
I12
tp8876
a(I2848
I12
tp8877
a(I87263
I12
tp8878
a(I51091
I12
tp8879
a(I77208
I12
tp8880
a(I12720
I12
tp8881
a(I58398
I12
tp8882
a(I160621
I12
tp8883
a(I117283
I12
tp8884
a(I99610
I12
tp8885
a(I51254
I12
tp8886
a(I195562
I12
tp8887
a(I140352
I12
tp8888
a(I49663
I12
tp8889
a(I27310
I12
tp8890
a(I55044
I12
tp8891
a(I118530
I12
tp8892
a(I152855
I12
tp8893
a(I83147
I12
tp8894
a(I28282
I12
tp8895
a(I37182
I12
tp8896
a(I190275
I12
tp8897
a(I150856
I12
tp8898
a(I56231
I12
tp8899
a(I111033
I12
tp8900
a(I80915
I12
tp8901
a(I13461
I12
tp8902
a(I39578
I12
tp8903
a(I74825
I12
tp8904
a(I161897
I12
tp8905
a(I161460
I12
tp8906
a(I102499
I12
tp8907
a(I34913
I12
tp8908
a(I146213
I12
tp8909
a(I38719
I12
tp8910
a(I67315
I12
tp8911
a(I14266
I12
tp8912
a(I173950
I12
tp8913
a(I3203
I12
tp8914
a(I87109
I12
tp8915
a(I167064
I12
tp8916
a(I144147
I12
tp8917
a(I170264
I12
tp8918
a(I38007
I12
tp8919
a(I45350
I12
tp8920
a(I191792
I12
tp8921
a(I174006
I12
tp8922
a(I36283
I12
tp8923
a(I169791
I12
tp8924
a(I50225
I12
tp8925
a(I136860
I12
tp8926
a(I143435
I12
tp8927
a(I52414
I12
tp8928
a(I115594
I12
tp8929
a(I62286
I12
tp8930
a(I49565
I12
tp8931
a(I180132
I12
tp8932
a(I12120
I12
tp8933
a(I164796
I12
tp8934
a(I11627
I12
tp8935
a(I78704
I12
tp8936
a(I23599
I12
tp8937
a(I162270
I12
tp8938
a(I29741
I12
tp8939
a(I184291
I12
tp8940
a(I88626
I12
tp8941
a(I124897
I12
tp8942
a(I119803
I12
tp8943
a(I115391
I12
tp8944
a(I158321
I12
tp8945
a(I3305
I12
tp8946
a(I191527
I12
tp8947
a(I182607
I12
tp8948
a(I59007
I12
tp8949
a(I90445
I12
tp8950
a(I66501
I12
tp8951
a(I186587
I12
tp8952
a(I6286
I12
tp8953
a(I64994
I12
tp8954
a(I67217
I12
tp8955
a(I62616
I12
tp8956
a(I177749
I12
tp8957
a(I189039
I12
tp8958
a(I72301
I12
tp8959
a(I5411
I12
tp8960
a(I36129
I12
tp8961
a(I51591
I12
tp8962
a(I37686
I12
tp8963
a(I197354
I12
tp8964
a(I130564
I12
tp8965
a(I38402
I12
tp8966
a(I115228
I12
tp8967
a(I159691
I12
tp8968
a(I185244
I12
tp8969
a(I72850
I12
tp8970
a(I151694
I12
tp8971
a(I58023
I12
tp8972
a(I3158
I12
tp8973
a(I4699
I12
tp8974
a(I34079
I12
tp8975
a(I143054
I12
tp8976
a(I158007
I12
tp8977
a(I90005
I12
tp8978
a(I65340
I12
tp8979
a(I71915
I12
tp8980
a(I166831
I12
tp8981
a(I120158
I12
tp8982
a(I47971
I12
tp8983
a(I185185
I12
tp8984
a(I171975
I12
tp8985
a(I124364
I12
tp8986
a(I95705
I12
tp8987
a(I180010
I12
tp8988
a(I77574
I12
tp8989
a(I182453
I12
tp8990
a(I92252
I12
tp8991
a(I63593
I12
tp8992
a(I42191
I12
tp8993
a(I122061
I12
tp8994
a(I120707
I12
tp8995
a(I74450
I12
tp8996
a(I98117
I12
tp8997
a(I61177
I12
tp8998
a(I128014
I12
tp8999
a(I73752
I12
tp9000
a(I49015
I12
tp9001
a(I1404
I12
tp9002
a(I13360
I12
tp9003
a(I86511
I12
tp9004
a(I195230
I12
tp9005
a(I42996
I12
tp9006
a(I114851
I12
tp9007
a(I191729
I12
tp9008
a(I118454
I12
tp9009
a(I59493
I12
tp9010
a(I194355
I12
tp9011
a(I89400
I12
tp9012
a(I56139
I12
tp9013
a(I53268
I12
tp9014
a(I103873
I12
tp9015
a(I61599
I12
tp9016
a(I391
I12
tp9017
a(I30296
I12
tp9018
a(I126566
I12
tp9019
a(I29803
I12
tp9020
a(I135450
I12
tp9021
a(I118068
I12
tp9022
a(I80465
I12
tp9023
a(I52039
I12
tp9024
a(I111013
I12
tp9025
a(I53580
I12
tp9026
a(I198570
I12
tp9027
a(I191935
I12
tp9028
a(I60354
I12
tp9029
a(I107573
I12
tp9030
a(I116700
I12
tp9031
a(I120809
I12
tp9032
a(I48638
I12
tp9033
a(I164118
I12
tp9034
a(I34527
I12
tp9035
a(I147165
I12
tp9036
a(I93412
I12
tp9037
a(I166291
I12
tp9038
a(I138441
I12
tp9039
a(I74129
I12
tp9040
a(I194710
I12
tp9041
a(I92919
I12
tp9042
a(I75610
I12
tp9043
a(I123824
I12
tp9044
a(I68975
I12
tp9045
a(I18405
I12
tp9046
a(I110058
I12
tp9047
a(I46079
I12
tp9048
a(I41651
I12
tp9049
a(I131746
I12
tp9050
a(I8390
I12
tp9051
a(I19061
I12
tp9052
a(I93468
I12
tp9053
a(I128977
I12
tp9054
a(I198204
I12
tp9055
a(I71241
I12
tp9056
a(I195678
I12
tp9057
a(I51885
I12
tp9058
a(I162401
I12
tp9059
a(I114806
I12
tp9060
a(I3276
I12
tp9061
a(I22139
I12
tp9062
a(I62250
I12
tp9063
a(I81792
I12
tp9064
a(I182515
I12
tp9065
a(I37813
I12
tp9066
a(I151503
I12
tp9067
a(I92542
I12
tp9068
a(I198213
I12
tp9069
a(I126026
I12
tp9070
a(I199161
I12
tp9071
a(I10400
I12
tp9072
a(I59997
I12
tp9073
a(I189715
I12
tp9074
a(I36053
I12
tp9075
a(I99742
I12
tp9076
a(I59830
I12
tp9077
a(I94079
I12
tp9078
a(I138803
I12
tp9079
a(I158850
I12
tp9080
a(I123960
I12
tp9081
a(I4090
I12
tp9082
a(I10409
I12
tp9083
a(I103695
I12
tp9084
a(I48830
I12
tp9085
a(I145884
I12
tp9086
a(I143237
I12
tp9087
a(I13706
I12
tp9088
a(I133127
I12
tp9089
a(I111517
I12
tp9090
a(I170402
I12
tp9091
a(I126903
I12
tp9092
a(I35174
I12
tp9093
a(I161212
I12
tp9094
a(I116169
I12
tp9095
a(I42541
I12
tp9096
a(I3122
I12
tp9097
a(I168519
I12
tp9098
a(I55461
I12
tp9099
a(I45762
I12
tp9100
a(I104663
I12
tp9101
a(I140678
I12
tp9102
a(I163561
I12
tp9103
a(I47442
I12
tp9104
a(I110600
I12
tp9105
a(I132128
I12
tp9106
a(I151699
I12
tp9107
a(I51345
I12
tp9108
a(I39475
I12
tp9109
a(I52826
I12
tp9110
a(I35504
I12
tp9111
a(I191596
I12
tp9112
a(I177180
I12
tp9113
a(I191038
I12
tp9114
a(I129165
I12
tp9115
a(I85650
I12
tp9116
a(I130646
I12
tp9117
a(I35513
I12
tp9118
a(I122148
I12
tp9119
a(I142158
I12
tp9120
a(I93075
I12
tp9121
a(I41276
I12
tp9122
a(I97711
I12
tp9123
a(I165726
I12
tp9124
a(I147911
I12
tp9125
a(I191350
I12
tp9126
a(I167406
I12
tp9127
a(I128580
I12
tp9128
a(I103411
I12
tp9129
a(I135430
I12
tp9130
a(I88668
I12
tp9131
a(I12414
I12
tp9132
a(I102093
I12
tp9133
a(I31956
I12
tp9134
a(I5330
I12
tp9135
a(I8517
I12
tp9136
a(I159131
I12
tp9137
a(I13661
I12
tp9138
a(I25444
I12
tp9139
a(I11422
I12
tp9140
a(I33266
I12
tp9141
a(I141985
I12
tp9142
a(I104616
I12
tp9143
a(I163084
I12
tp9144
a(I106602
I12
tp9145
a(I158912
I12
tp9146
a(I13951
I12
tp9147
a(I86830
I12
tp9148
a(I112514
I12
tp9149
a(I91036
I12
tp9150
a(I167243
I12
tp9151
a(I185357
I12
tp9152
a(I19723
I12
tp9153
a(I30341
I12
tp9154
a(I19534
I12
tp9155
a(I34980
I12
tp9156
a(I112311
I12
tp9157
a(I64789
I12
tp9158
a(I7356
I12
tp9159
a(I49946
I12
tp9160
a(I167024
I12
tp9161
a(I193628
I12
tp9162
a(I44776
I12
tp9163
a(I83702
I12
tp9164
a(I142587
I12
tp9165
a(I188351
I12
tp9166
a(I120184
I12
tp9167
a(I152203
I12
tp9168
a(I115279
I12
tp9169
a(I161027
I12
tp9170
a(I179308
I12
tp9171
a(I90826
I12
tp9172
a(I167033
I12
tp9173
a(I116959
I12
tp9174
a(I129446
I12
tp9175
a(I33621
I12
tp9176
a(I120240
I12
tp9177
a(I71533
I12
tp9178
a(I186334
I12
tp9179
a(I115335
I12
tp9180
a(I199141
I12
tp9181
a(I158392
I12
tp9182
a(I8170
I12
tp9183
a(I73213
I12
tp9184
a(I150276
I12
tp9185
a(I68785
I12
tp9186
a(I81013
I12
tp9187
a(I161995
I12
tp9188
a(I85712
I12
tp9189
a(I177470
I12
tp9190
a(I94612
I12
tp9191
a(I144193
I12
tp9192
a(I138077
I12
tp9193
a(I165361
I12
tp9194
a(I66003
I12
tp9195
a(I72738
I12
tp9196
a(I6104
I12
tp9197
a(I48794
I12
tp9198
a(I179373
I12
tp9199
a(I137832
I12
tp9200
a(I196300
I12
tp9201
a(I199487
I12
tp9202
a(I145271
I12
tp9203
a(I54001
I12
tp9204
a(I139095
I12
tp9205
a(I78287
I12
tp9206
a(I2004
I12
tp9207
a(I73859
I12
tp9208
a(I84037
I12
tp9209
a(I125932
I12
tp9210
a(I114958
I12
tp9211
a(I121949
I12
tp9212
a(I181956
I12
tp9213
a(I22291
I12
tp9214
a(I100694
I12
tp9215
a(I67703
I12
tp9216
a(I45300
I12
tp9217
a(I193182
I12
tp9218
a(I188786
I12
tp9219
a(I56246
I12
tp9220
a(I112248
I12
tp9221
a(I79808
I12
tp9222
a(I86399
I12
tp9223
a(I31278
I12
tp9224
a(I198073
I12
tp9225
a(I161841
I12
tp9226
a(I22072
I12
tp9227
a(I74903
I12
tp9228
a(I101020
I12
tp9229
a(I98061
I12
tp9230
a(I126657
I12
tp9231
a(I150943
I12
tp9232
a(I58781
I12
tp9233
a(I119716
I12
tp9234
a(I28719
I12
tp9235
a(I7646
I12
tp9236
a(I157741
I12
tp9237
a(I117224
I12
tp9238
a(I63082
I12
tp9239
a(I91839
I12
tp9240
a(I40637
I12
tp9241
a(I38515
I12
tp9242
a(I69233
I12
tp9243
a(I137094
I12
tp9244
a(I78133
I12
tp9245
a(I64907
I12
tp9246
a(I126287
I12
tp9247
a(I112382
I12
tp9248
a(I99661
I12
tp9249
a(I188443
I12
tp9250
a(I87929
I12
tp9251
a(I70623
I12
tp9252
a(I96740
I12
tp9253
a(I104107
I12
tp9254
a(I93300
I12
tp9255
a(I41249
I12
tp9256
a(I173802
I12
tp9257
a(I68863
I12
tp9258
a(I102916
I12
tp9259
a(I100866
I12
tp9260
a(I186289
I12
tp9261
a(I71828
I12
tp9262
a(I77970
I12
tp9263
a(I106582
I12
tp9264
a(I183557
I12
tp9265
a(I54026
I12
tp9266
a(I167716
I12
tp9267
a(I168764
I12
tp9268
a(I179435
I12
tp9269
a(I121242
I12
tp9270
a(I156489
I12
tp9271
a(I33520
I12
tp9272
a(I116653
I12
tp9273
a(I122723
I12
tp9274
a(I175538
I12
tp9275
a(I46023
I12
tp9276
a(I92633
I12
tp9277
a(I119359
I12
tp9278
a(I158901
I12
tp9279
a(I199772
I12
tp9280
a(I174347
I12
tp9281
a(I183171
I12
tp9282
a(I189313
I12
tp9283
a(I148718
I12
tp9284
a(I190478
I12
tp9285
a(I16939
I12
tp9286
a(I7301
I12
tp9287
a(I2185
I12
tp9288
a(I40606
I12
tp9289
a(I62450
I12
tp9290
a(I12044
I12
tp9291
a(I84155
I12
tp9292
a(I96383
I12
tp9293
a(I134999
I12
tp9294
a(I197425
I12
tp9295
a(I61752
I12
tp9296
a(I104698
I12
tp9297
a(I17744
I12
tp9298
a(I160295
I12
tp9299
a(I91611
I12
tp9300
a(I3722
I12
tp9301
a(I117728
I12
tp9302
a(I129700
I12
tp9303
a(I1107
I12
tp9304
a(I59992
I12
tp9305
a(I12053
I12
tp9306
a(I13986
I12
tp9307
a(I78637
I12
tp9308
a(I192327
I12
tp9309
a(I152997
I12
tp9310
a(I15274
I12
tp9311
a(I197055
I12
tp9312
a(I11118
I12
tp9313
a(I145853
I12
tp9314
a(I69570
I12
tp9315
a(I198520
I12
tp9316
a(I147078
I12
tp9317
a(I88117
I12
tp9318
a(I11341
I12
tp9319
a(I170580
I12
tp9320
a(I198785
I12
tp9321
a(I101640
I12
tp9322
a(I28268
I12
tp9323
a(I68379
I12
tp9324
a(I87242
I12
tp9325
a(I130681
I12
tp9326
a(I4384
I12
tp9327
a(I152285
I12
tp9328
a(I158724
I12
tp9329
a(I78744
I12
tp9330
a(I3831
I12
tp9331
a(I76710
I12
tp9332
a(I117278
I12
tp9333
a(I53283
I12
tp9334
a(I74811
I12
tp9335
a(I166464
I12
tp9336
a(I28277
I12
tp9337
a(I196892
I12
tp9338
a(I12316
I12
tp9339
a(I85315
I12
tp9340
a(I56210
I12
tp9341
a(I10080
I12
tp9342
a(I54820
I12
tp9343
a(I29651
I12
tp9344
a(I184930
I12
tp9345
a(I29874
I12
tp9346
a(I38205
I12
tp9347
a(I62200
I12
tp9348
a(I178101
I12
tp9349
a(I61451
I12
tp9350
a(I39885
I12
tp9351
a(I4246
I12
tp9352
a(I113221
I12
tp9353
a(I155116
I12
tp9354
a(I12561
I12
tp9355
a(I28440
I12
tp9356
a(I64119
I12
tp9357
a(I170738
I12
tp9358
a(I136616
I12
tp9359
a(I101814
I12
tp9360
a(I143871
I12
tp9361
a(I172276
I12
tp9362
a(I21182
I12
tp9363
a(I122844
I12
tp9364
a(I3784
I12
tp9365
a(I141014
I12
tp9366
a(I121166
I12
tp9367
a(I55197
I12
tp9368
a(I79192
I12
tp9369
a(I136549
I12
tp9370
a(I129481
I12
tp9371
a(I72048
I12
tp9372
a(I53214
I12
tp9373
a(I2100
I12
tp9374
a(I160842
I12
tp9375
a(I62062
I12
tp9376
a(I114877
I12
tp9377
a(I120947
I12
tp9378
a(I186050
I12
tp9379
a(I61553
I12
tp9380
a(I172262
I12
tp9381
a(I189237
I12
tp9382
a(I177552
I12
tp9383
a(I24399
I12
tp9384
a(I63742
I12
tp9385
a(I63309
I12
tp9386
a(I152584
I12
tp9387
a(I125381
I12
tp9388
a(I137593
I12
tp9389
a(I193683
I12
tp9390
a(I141815
I12
tp9391
a(I121003
I12
tp9392
a(I14767
I12
tp9393
a(I131813
I12
tp9394
a(I184123
I12
tp9395
a(I86445
I12
tp9396
a(I72622
I12
tp9397
a(I136957
I12
tp9398
a(I123315
I12
tp9399
a(I127679
I12
tp9400
a(I62923
I12
tp9401
a(I139130
I12
tp9402
a(I92082
I12
tp9403
a(I196961
I12
tp9404
a(I24236
I12
tp9405
a(I34058
I12
tp9406
a(I20064
I12
tp9407
a(I111822
I12
tp9408
a(I55161
I12
tp9409
a(I135599
I12
tp9410
a(I71528
I12
tp9411
a(I117708
I12
tp9412
a(I56281
I12
tp9413
a(I129664
I12
tp9414
a(I27204
I12
tp9415
a(I46342
I12
tp9416
a(I32348
I12
tp9417
a(I72459
I12
tp9418
a(I9402
I12
tp9419
a(I123152
I12
tp9420
a(I102612
I12
tp9421
a(I164744
I12
tp9422
a(I169387
I12
tp9423
a(I83269
I12
tp9424
a(I43850
I12
tp9425
a(I11814
I12
tp9426
a(I27516
I12
tp9427
a(I152026
I12
tp9428
a(I64137
I12
tp9429
a(I42991
I12
tp9430
a(I16542
I12
tp9431
a(I57325
I12
tp9432
a(I106796
I12
tp9433
a(I165255
I12
tp9434
a(I47803
I12
tp9435
a(I196882
I12
tp9436
a(I194350
I12
tp9437
a(I122163
I12
tp9438
a(I107320
I12
tp9439
a(I184335
I12
tp9440
a(I123659
I12
tp9441
a(I199212
I12
tp9442
a(I170553
I12
tp9443
a(I163485
I12
tp9444
a(I83106
I12
tp9445
a(I154712
I12
tp9446
a(I24549
I12
tp9447
a(I98505
I12
tp9448
a(I104158
I12
tp9449
a(I179326
I12
tp9450
a(I67493
I12
tp9451
a(I35381
I12
tp9452
a(I102458
I12
tp9453
a(I26191
I12
tp9454
a(I117844
I12
tp9455
a(I41081
I12
tp9456
a(I148256
I12
tp9457
a(I8083
I12
tp9458
a(I94455
I12
tp9459
a(I48158
I12
tp9460
a(I197155
I12
tp9461
a(I103995
I12
tp9462
a(I2227
I12
tp9463
a(I73400
I12
tp9464
a(I14022
I12
tp9465
a(I196512
I12
tp9466
a(I90832
I12
tp9467
a(I50693
I12
tp9468
a(I142346
I12
tp9469
a(I104484
I12
tp9470
a(I56785
I12
tp9471
a(I166872
I12
tp9472
a(I132663
I12
tp9473
a(I60476
I12
tp9474
a(I53914
I12
tp9475
a(I172016
I12
tp9476
a(I87670
I12
tp9477
a(I179323
I12
tp9478
a(I190861
I12
tp9479
a(I58073
I12
tp9480
a(I51005
I12
tp9481
a(I24307
I12
tp9482
a(I95985
I12
tp9483
a(I56326
I12
tp9484
a(I74251
I12
tp9485
a(I48084
I12
tp9486
a(I50307
I12
tp9487
a(I31873
I12
tp9488
a(I40953
I12
tp9489
a(I55391
I12
tp9490
a(I110180
I12
tp9491
a(I150291
I12
tp9492
a(I61270
I12
tp9493
a(I139824
I12
tp9494
a(I107824
I12
tp9495
a(I93086
I12
tp9496
a(I91885
I12
tp9497
a(I92577
I12
tp9498
a(I18344
I12
tp9499
a(I152071
I12
tp9500
a(I130998
I12
tp9501
a(I14348
I12
tp9502
a(I17851
I12
tp9503
a(I94058
I12
tp9504
a(I11200
I12
tp9505
a(I129751
I12
tp9506
a(I91187
I12
tp9507
a(I19000
I12
tp9508
a(I188998
I12
tp9509
a(I4085
I12
tp9510
a(I11932
I12
tp9511
a(I114345
I12
tp9512
a(I24144
I12
tp9513
a(I114964
I12
tp9514
a(I118567
I12
tp9515
a(I152876
I12
tp9516
a(I24991
I12
tp9517
a(I30628
I12
tp9518
a(I154614
I12
tp9519
a(I142775
I12
tp9520
a(I78302
I12
tp9521
a(I64052
I12
tp9522
a(I161863
I12
tp9523
a(I198134
I12
tp9524
a(I110245
I12
tp9525
a(I118348
I12
tp9526
a(I27643
I12
tp9527
a(I144554
I12
tp9528
a(I175210
I12
tp9529
a(I137919
I12
tp9530
a(I140398
I12
tp9531
a(I36984
I12
tp9532
a(I159447
I12
tp9533
a(I177448
I12
tp9534
a(I164175
I12
tp9535
a(I145741
I12
tp9536
a(I164891
I12
tp9537
a(I117625
I12
tp9538
a(I53390
I12
tp9539
a(I9875
I12
tp9540
a(I134296
I12
tp9541
a(I57852
I12
tp9542
a(I113263
I12
tp9543
a(I182046
I12
tp9544
a(I86637
I12
tp9545
a(I145522
I12
tp9546
a(I98695
I12
tp9547
a(I100160
I12
tp9548
a(I85422
I12
tp9549
a(I191017
I12
tp9550
a(I17494
I12
tp9551
a(I26318
I12
tp9552
a(I159388
I12
tp9553
a(I183551
I12
tp9554
a(I141040
I12
tp9555
a(I148399
I12
tp9556
a(I67006
I12
tp9557
a(I122922
I12
tp9558
a(I168942
I12
tp9559
a(I128896
I12
tp9560
a(I85259
I12
tp9561
a(I12393
I12
tp9562
a(I26130
I12
tp9563
a(I195791
I12
tp9564
a(I198270
I12
tp9565
a(I132993
I12
tp9566
a(I60822
I12
tp9567
a(I145221
I12
tp9568
a(I186116
I12
tp9569
a(I42745
I12
tp9570
a(I55712
I12
tp9571
a(I72541
I12
tp9572
a(I199185
I12
tp9573
a(I30744
I12
tp9574
a(I194423
I12
tp9575
a(I127621
I12
tp9576
a(I163828
I12
tp9577
a(I145649
I12
tp9578
a(I145002
I12
tp9579
a(I136504
I12
tp9580
a(I120565
I12
tp9581
a(I128114
I12
tp9582
a(I77758
I12
tp9583
a(I190484
I12
tp9584
a(I32786
I12
tp9585
a(I38439
I12
tp9586
a(I97324
I12
tp9587
a(I133279
I12
tp9588
a(I152142
I12
tp9589
a(I47187
I12
tp9590
a(I46754
I12
tp9591
a(I68715
I12
tp9592
a(I55085
I12
tp9593
a(I34100
I12
tp9594
a(I187837
I12
tp9595
a(I30339
I12
tp9596
a(I178453
I12
tp9597
a(I62974
I12
tp9598
a(I80999
I12
tp9599
a(I123589
I12
tp9600
a(I33388
I12
tp9601
a(I149706
I12
tp9602
a(I135801
I12
tp9603
a(I30429
I12
tp9604
a(I187618
I12
tp9605
a(I198908
I12
tp9606
a(I159844
I12
tp9607
a(I126494
I12
tp9608
a(I179934
I12
tp9609
a(I127542
I12
tp9610
a(I189437
I12
tp9611
a(I161990
I12
tp9612
a(I164469
I12
tp9613
a(I157818
I12
tp9614
a(I27021
I12
tp9615
a(I130962
I12
tp9616
a(I78795
I12
tp9617
a(I62811
I12
tp9618
a(I73226
I12
tp9619
a(I146361
I12
tp9620
a(I189471
I12
tp9621
a(I33230
I12
tp9622
a(I105501
I12
tp9623
a(I64984
I12
tp9624
a(I147093
I12
tp9625
a(I24124
I12
tp9626
a(I27311
I12
tp9627
a(I46174
I12
tp9628
a(I6755
I12
tp9629
a(I71798
I12
tp9630
a(I166698
I12
tp9631
a(I63360
I12
tp9632
a(I4415
I12
tp9633
a(I8025
I12
tp9634
a(I112881
I12
tp9635
a(I119363
I12
tp9636
a(I143802
I12
tp9637
a(I74110
I12
tp9638
a(I171144
I12
tp9639
a(I155205
I12
tp9640
a(I61932
I12
tp9641
a(I144317
I12
tp9642
a(I147961
I12
tp9643
a(I120590
I12
tp9644
a(I36964
I12
tp9645
a(I113939
I12
tp9646
a(I171639
I12
tp9647
a(I156796
I12
tp9648
a(I76506
I12
tp9649
a(I30601
I12
tp9650
asS'runtime'
p9651
F0.15412211418151855
sS'name'
p9652
S'["regex", [["single_exemp", "[4]", "OM"]]]'
p9653
s.