(dp0
S'output'
p1
(lp2
(I6
I0
tp3
a(I4
I0
tp4
a(I1
I0
tp5
a(I3
I0
tp6
a(I8
I0
tp7
a(I5
I0
tp8
a(I7
I0
tp9
a(I999
I0
tp10
a(I0
I0
tp11
a(I2
I0
tp12
asS'runtime'
p13
F0.24431504011154176
sS'name'
p14
S'["dboost", ["gaussian", "2.7"]]'
p15
s.