(dp0
S'output'
p1
(lp2
(I774
I14
tp3
a(I716
I14
tp4
a(I903
I14
tp5
a(I312
I14
tp6
a(I902
I14
tp7
a(I766
I14
tp8
a(I904
I14
tp9
a(I775
I14
tp10
a(I776
I14
tp11
a(I311
I14
tp12
asS'runtime'
p13
F0.26824029684066775
sS'name'
p14
S'["dboost", ["histogram", "0.8", "0.1"]]'
p15
s.