(dp0
S'output'
p1
(lp2
(I1008
I6
tp3
a(I1050
I6
tp4
a(I996
I6
tp5
a(I1030
I6
tp6
a(I1063
I6
tp7
a(I1049
I6
tp8
a(I1056
I6
tp9
a(I1025
I6
tp10
a(I1032
I6
tp11
a(I1047
I6
tp12
a(I1018
I6
tp13
a(I1001
I6
tp14
a(I1591
I6
tp15
a(I1054
I6
tp16
asS'runtime'
p17
F0.002043008804321289
sS'name'
p18
S'["regex", [["act_arr_time", "[C]", "OM"]]]'
p19
s.