(dp0
S'output'
p1
(lp2
(I810
I5
tp3
a(I805
I5
tp4
a(I804
I5
tp5
a(I807
I5
tp6
a(I809
I5
tp7
a(I806
I5
tp8
a(I803
I5
tp9
asS'runtime'
p10
F0.0019800662994384766
sS'name'
p11
S'["regex", [["sched_arr_time", "[h]", "OM"]]]'
p12
s.