(dp0
S'output'
p1
(lp2
(I1440
I1
tp3
a(I1438
I1
tp4
a(I1435
I1
tp5
a(I1434
I1
tp6
a(I1429
I1
tp7
a(I1443
I1
tp8
a(I1428
I1
tp9
a(I1442
I1
tp10
a(I1437
I1
tp11
a(I1436
I1
tp12
a(I1433
I1
tp13
a(I1431
I1
tp14
a(I1432
I1
tp15
a(I1430
I1
tp16
a(I1427
I1
tp17
a(I1444
I1
tp18
a(I1441
I1
tp19
a(I1426
I1
tp20
a(I1439
I1
tp21
asS'runtime'
p22
F0.002401113510131836
sS'name'
p23
S'["regex", [["src", "[C]", "OM"]]]'
p24
s.