(dp0
S'output'
p1
(lp2
(I804
I6
tp3
a(I806
I6
tp4
a(I805
I6
tp5
a(I807
I6
tp6
a(I803
I6
tp7
a(I809
I6
tp8
asS'runtime'
p9
F0.0020580291748046875
sS'name'
p10
S'["regex", [["act_arr_time", "[T]", "OM"]]]'
p11
s.