(dp0
S'output'
p1
(lp2
(I1046
I3
tp3
a(I999
I3
tp4
a(I1042
I3
tp5
a(I995
I3
tp6
a(I1622
I3
tp7
a(I1018
I3
tp8
a(I1003
I3
tp9
a(I1628
I3
tp10
a(I1045
I3
tp11
a(I1041
I3
tp12
a(I1026
I3
tp13
a(I991
I3
tp14
a(I992
I3
tp15
a(I1034
I3
tp16
a(I1058
I3
tp17
asS'runtime'
p18
F0.0019690990447998047
sS'name'
p19
S'["regex", [["sched_dep_time", "[o]", "OM"]]]'
p20
s.