(dp0
S'output'
p1
(lp2
(I994
I6
tp3
a(I1043
I6
tp4
a(I211
I6
tp5
a(I998
I6
tp6
a(I217
I6
tp7
a(I1036
I6
tp8
a(I1211
I6
tp9
a(I1038
I6
tp10
a(I1037
I6
tp11
a(I160
I6
tp12
a(I1618
I6
tp13
a(I193
I6
tp14
a(I212
I6
tp15
a(I195
I6
tp16
a(I213
I6
tp17
a(I1192
I6
tp18
a(I1623
I6
tp19
a(I1035
I6
tp20
asS'runtime'
p21
F0.0020570755004882812
sS'name'
p22
S'["regex", [["act_arr_time", "[N]", "OM"]]]'
p23
s.