(dp0
S'output'
p1
(lp2
(I400
I6
tp3
a(I113
I6
tp4
a(I1286
I6
tp5
a(I1497
I6
tp6
a(I347
I6
tp7
a(I1550
I6
tp8
a(I1233
I6
tp9
a(I60
I6
tp10
asS'runtime'
p11
F0.0019729137420654297
sS'name'
p12
S'["regex", [["act_arr_time", "[/]", "OM"]]]'
p13
s.