(dp0
S'output'
p1
(lp2
(I1047
I4
tp3
a(I1030
I4
tp4
a(I1050
I4
tp5
a(I1049
I4
tp6
a(I1008
I4
tp7
a(I996
I4
tp8
a(I1025
I4
tp9
a(I1063
I4
tp10
a(I1018
I4
tp11
a(I1001
I4
tp12
a(I1056
I4
tp13
a(I1054
I4
tp14
a(I1591
I4
tp15
a(I1032
I4
tp16
asS'runtime'
p17
F0.002035856246948242
sS'name'
p18
S'["regex", [["act_dep_time", "[C]", "OM"]]]'
p19
s.