(dp0
S'output'
p1
(lp2
(I796
I5
tp3
a(I1820
I5
tp4
a(I2111
I5
tp5
a(I1803
I5
tp6
a(I793
I5
tp7
a(I1819
I5
tp8
a(I792
I5
tp9
a(I1818
I5
tp10
a(I2060
I5
tp11
a(I794
I5
tp12
a(I871
I5
tp13
a(I2112
I5
tp14
a(I821
I5
tp15
a(I2110
I5
tp16
a(I795
I5
tp17
a(I873
I5
tp18
a(I1768
I5
tp19
a(I2095
I5
tp20
a(I872
I5
tp21
a(I856
I5
tp22
asS'runtime'
p23
F0.0020618438720703125
sS'name'
p24
S'["regex", [["sched_arr_time", "[-]", "OM"]]]'
p25
s.