(dp0
S'output'
p1
(lp2
(I796
I5
tp3
a(I1041
I5
tp4
a(I1034
I5
tp5
a(I1003
I5
tp6
a(I793
I5
tp7
a(I1042
I5
tp8
a(I991
I5
tp9
a(I1046
I5
tp10
a(I999
I5
tp11
a(I992
I5
tp12
a(I1045
I5
tp13
a(I795
I5
tp14
a(I1628
I5
tp15
a(I1026
I5
tp16
a(I1622
I5
tp17
a(I1058
I5
tp18
asS'runtime'
p19
F0.0019719600677490234
sS'name'
p20
S'["regex", [["sched_arr_time", "[A]", "OM"]]]'
p21
s.