(dp0
S'output'
p1
(lp2
(I1660
I5
tp3
a(I1643
I5
tp4
a(I409
I5
tp5
a(I383
I5
tp6
a(I737
I5
tp7
a(I1653
I5
tp8
a(I1295
I5
tp9
a(I1649
I5
tp10
a(I783
I5
tp11
a(I5
I5
tp12
a(I31
I5
tp13
a(I96
I5
tp14
a(I1642
I5
tp15
a(I772
I5
tp16
a(I1645
I5
tp17
a(I1651
I5
tp18
a(I122
I5
tp19
a(I1533
I5
tp20
a(I771
I5
tp21
a(I1559
I5
tp22
a(I1657
I5
tp23
a(I32
I5
tp24
a(I1269
I5
tp25
asS'runtime'
p26
F0.0020608901977539062
sS'name'
p27
S'["regex", [["sched_arr_time", "[/]", "OM"]]]'
p28
s.