(dp0
S'output'
p1
(lp2
(I1628
I5
tp3
a(I1041
I5
tp4
a(I1034
I5
tp5
a(I1003
I5
tp6
a(I1042
I5
tp7
a(I991
I5
tp8
a(I1046
I5
tp9
a(I999
I5
tp10
a(I992
I5
tp11
a(I1045
I5
tp12
a(I1026
I5
tp13
a(I1622
I5
tp14
a(I1058
I5
tp15
asS'runtime'
p16
F0.0019600391387939453
sS'name'
p17
S'["regex", [["sched_arr_time", "[t]", "OM"]]]'
p18
s.