(dp0
S'output'
p1
(lp2
(I1650
I3
tp3
a(I1645
I3
tp4
a(I1643
I3
tp5
a(I1660
I3
tp6
a(I1653
I3
tp7
a(I1655
I3
tp8
a(I1649
I3
tp9
a(I1651
I3
tp10
a(I1657
I3
tp11
a(I1642
I3
tp12
asS'runtime'
p13
F0.0024051666259765625
sS'name'
p14
S'["regex", [["sched_dep_time", "[/]", "OM"]]]'
p15
s.