(dp0
S'output'
p1
(lp2
(I1820
I5
tp3
a(I1744
I5
tp4
a(I1803
I5
tp5
a(I1768
I5
tp6
a(I2111
I5
tp7
a(I856
I5
tp8
a(I1747
I5
tp9
a(I2060
I5
tp10
a(I1818
I5
tp11
a(I871
I5
tp12
a(I2112
I5
tp13
a(I821
I5
tp14
a(I2110
I5
tp15
a(I1819
I5
tp16
a(I873
I5
tp17
a(I2095
I5
tp18
a(I872
I5
tp19
asS'runtime'
p20
F0.001962900161743164
sS'name'
p21
S'["regex", [["sched_arr_time", "[F]", "OM"]]]'
p22
s.