(dp0
S'output'
p1
(lp2
(I189
I6
tp3
a(I1730
I6
tp4
a(I113
I6
tp5
a(I979
I6
tp6
a(I390
I6
tp7
a(I472
I6
tp8
a(I846
I6
tp9
a(I1711
I6
tp10
a(I1362
I6
tp11
a(I1537
I6
tp12
a(I1635
I6
tp13
a(I1046
I6
tp14
a(I1128
I6
tp15
a(I119
I6
tp16
a(I1562
I6
tp17
a(I969
I6
tp18
a(I811
I6
tp19
a(I478
I6
tp20
a(I678
I6
tp21
a(I1194
I6
tp22
a(I109
I6
tp23
a(I1984
I6
tp24
a(I2232
I6
tp25
a(I136
I6
tp26
a(I668
I6
tp27
a(I766
I6
tp28
a(I1789
I6
tp29
a(I1631
I6
tp30
a(I2051
I6
tp31
a(I965
I6
tp32
a(I1816
I6
tp33
a(I731
I6
tp34
a(I2190
I6
tp35
a(I1165
I6
tp36
a(I1263
I6
tp37
a(I598
I6
tp38
a(I439
I6
tp39
a(I721
I6
tp40
a(I563
I6
tp41
a(I885
I6
tp42
a(I727
I6
tp43
a(I1951
I6
tp44
a(I2033
I6
tp45
a(I1444
I6
tp46
a(I1286
I6
tp47
a(I185
I6
tp48
a(I1900
I6
tp49
a(I1742
I6
tp50
a(I1000
I6
tp51
a(I1434
I6
tp52
a(I1865
I6
tp53
a(I2167
I6
tp54
a(I1200
I6
tp55
a(I191
I6
tp56
a(I1574
I6
tp57
a(I549
I6
tp58
a(I1497
I6
tp59
a(I2063
I6
tp60
a(I1339
I6
tp61
a(I1871
I6
tp62
a(I1522
I6
tp63
a(I1206
I6
tp64
a(I1564
I6
tp65
a(I971
I6
tp66
a(I664
I6
tp67
a(I1703
I6
tp68
a(I803
I6
tp69
a(I470
I6
tp70
a(I2344
I6
tp71
a(I1335
I6
tp72
a(I986
I6
tp73
a(I670
I6
tp74
a(I1791
I6
tp75
a(I1186
I6
tp76
a(I435
I6
tp77
a(I1325
I6
tp78
a(I584
I6
tp79
a(I2315
I6
tp80
a(I450
I6
tp81
a(I723
I6
tp82
a(I1255
I6
tp83
a(I1440
I6
tp84
a(I431
I6
tp85
a(I2305
I6
tp86
a(I1972
I6
tp87
a(I355
I6
tp88
a(I1896
I6
tp89
a(I282
I6
tp90
a(I380
I6
tp91
a(I2157
I6
tp92
a(I2311
I6
tp93
a(I1962
I6
tp94
a(I719
I6
tp95
a(I54
I6
tp96
a(I570
I6
tp97
a(I2025
I6
tp98
a(I1436
I6
tp99
a(I1534
I6
tp100
a(I509
I6
tp101
a(I1892
I6
tp102
a(I19
I6
tp103
a(I202
I6
tp104
a(I1426
I6
tp105
a(I341
I6
tp106
a(I183
I6
tp107
a(I2155
I6
tp108
a(I998
I6
tp109
a(I824
I6
tp110
a(I1689
I6
tp111
a(I15
I6
tp112
a(I97
I6
tp113
a(I1556
I6
tp114
a(I629
I6
tp115
a(I1321
I6
tp116
a(I1695
I6
tp117
a(I1188
I6
tp118
a(I1112
I6
tp119
a(I103
I6
tp120
a(I1546
I6
tp121
a(I953
I6
tp122
a(I1153
I6
tp123
a(I820
I6
tp124
a(I662
I6
tp125
a(I1609
I6
tp126
a(I1276
I6
tp127
a(I2148
I6
tp128
a(I93
I6
tp129
a(I785
I6
tp130
a(I883
I6
tp131
a(I1317
I6
tp132
a(I376
I6
tp133
a(I1241
I6
tp134
a(I1083
I6
tp135
a(I1266
I6
tp136
a(I791
I6
tp137
a(I284
I6
tp138
a(I2196
I6
tp139
a(I1405
I6
tp140
a(I208
I6
tp141
a(I642
I6
tp142
a(I740
I6
tp143
a(I582
I6
tp144
a(I1605
I6
tp145
a(I423
I6
tp146
a(I1098
I6
tp147
a(I347
I6
tp148
a(I2322
I6
tp149
a(I372
I6
tp150
a(I1079
I6
tp151
a(I730
I6
tp152
a(I2027
I6
tp153
a(I413
I6
tp154
a(I2189
I6
tp155
a(I337
I6
tp156
a(I2227
I6
tp157
a(I1894
I6
tp158
a(I869
I6
tp159
a(I537
I6
tp160
a(I1069
I6
tp161
a(I2341
I6
tp162
a(I1859
I6
tp163
a(I1526
I6
tp164
a(I2042
I6
tp165
a(I1884
I6
tp166
a(I2059
I6
tp167
a(I1726
I6
tp168
a(I701
I6
tp169
a(I543
I6
tp170
a(I625
I6
tp171
a(I2084
I6
tp172
a(I1491
I6
tp173
a(I1925
I6
tp174
a(I984
I6
tp175
a(I2023
I6
tp176
a(I1691
I6
tp177
a(I1358
I6
tp178
a(I175
I6
tp179
a(I631
I6
tp180
a(I1323
I6
tp181
a(I990
I6
tp182
a(I1681
I6
tp183
a(I2213
I6
tp184
a(I1706
I6
tp185
a(I89
I6
tp186
a(I1487
I6
tp187
a(I1104
I6
tp188
a(I945
I6
tp189
a(I787
I6
tp190
a(I1477
I6
tp191
a(I812
I6
tp192
a(I85
I6
tp193
a(I1309
I6
tp194
a(I1233
I6
tp195
a(I568
I6
tp196
a(I1258
I6
tp197
a(I2332
I6
tp198
a(I1792
I6
tp199
a(I574
I6
tp200
a(I539
I6
tp201
a(I206
I6
tp202
a(I1071
I6
tp203
a(I1430
I6
tp204
a(I2097
I6
tp205
a(I1946
I6
tp206
a(I2044
I6
tp207
a(I529
I6
tp208
a(I2168
I6
tp209
a(I1420
I6
tp210
a(I3
I6
tp211
a(I1718
I6
tp212
a(I535
I6
tp213
a(I126
I6
tp214
a(I976
I6
tp215
a(I1841
I6
tp216
a(I1683
I6
tp217
a(I325
I6
tp218
a(I2297
I6
tp219
a(I1550
I6
tp220
a(I623
I6
tp221
a(I2066
I6
tp222
a(I2164
I6
tp223
a(I1771
I6
tp224
a(I1698
I6
tp225
a(I1540
I6
tp226
a(I1479
I6
tp227
a(I972
I6
tp228
a(I1172
I6
tp229
a(I1270
I6
tp230
a(I245
I6
tp231
a(I1786
I6
tp232
a(I446
I6
tp233
a(I2320
I6
tp234
a(I2078
I6
tp235
a(I1669
I6
tp236
a(I1767
I6
tp237
a(I1162
I6
tp238
a(I1952
I6
tp239
a(I1618
I6
tp240
a(I769
I6
tp241
a(I436
I6
tp242
a(I2326
I6
tp243
a(I1757
I6
tp244
a(I1092
I6
tp245
a(I2040
I6
tp246
a(I2292
I6
tp247
a(I192
I6
tp248
a(I724
I6
tp249
a(I1416
I6
tp250
a(I1082
I6
tp251
a(I1021
I6
tp252
a(I531
I6
tp253
a(I2072
I6
tp254
a(I1145
I6
tp255
a(I556
I6
tp256
a(I397
I6
tp257
a(I495
I6
tp258
a(I163
I6
tp259
a(I30
I6
tp260
a(I112
I6
tp261
a(I1412
I6
tp262
a(I1336
I6
tp263
a(I2375
I6
tp264
a(I2299
I6
tp265
a(I527
I6
tp266
a(I609
I6
tp267
a(I20
I6
tp268
a(I1475
I6
tp269
a(I2007
I6
tp270
a(I1500
I6
tp271
a(I1168
I6
tp272
a(I1858
I6
tp273
a(I2289
I6
tp274
a(I108
I6
tp275
a(I1997
I6
tp276
a(I1665
I6
tp277
a(I149
I6
tp278
a(I1690
I6
tp279
a(I939
I6
tp280
a(I1630
I6
tp281
a(I1471
I6
tp282
a(I1395
I6
tp283
a(I1322
I6
tp284
a(I1164
I6
tp285
a(I1595
I6
tp286
a(I1262
I6
tp287
a(I2285
I6
tp288
a(I2245
I6
tp289
a(I929
I6
tp290
a(I438
I6
tp291
a(I2312
I6
tp292
a(I1227
I6
tp293
a(I894
I6
tp294
a(I1759
I6
tp295
a(I1585
I6
tp296
a(I1944
I6
tp297
a(I935
I6
tp298
a(I1017
I6
tp299
a(I428
I6
tp300
a(I786
I6
tp301
a(I884
I6
tp302
a(I1749
I6
tp303
a(I1950
I6
tp304
a(I925
I6
tp305
a(I1023
I6
tp306
a(I260
I6
tp307
a(I1381
I6
tp308
a(I184
I6
tp309
a(I1223
I6
tp310
a(I1147
I6
tp311
a(I1581
I6
tp312
a(I399
I6
tp313
a(I1864
I6
tp314
a(I2238
I6
tp315
a(I16
I6
tp316
a(I706
I6
tp317
a(I2275
I6
tp318
a(I1414
I6
tp319
a(I1930
I6
tp320
a(I2361
I6
tp321
a(I1870
I6
tp322
a(I845
I6
tp323
a(I1696
I6
tp324
a(I687
I6
tp325
a(I2228
I6
tp326
a(I104
I6
tp327
a(I1143
I6
tp328
a(I538
I6
tp329
a(I1860
I6
tp330
a(I1702
I6
tp331
a(I110
I6
tp332
a(I960
I6
tp333
a(I1999
I6
tp334
a(I1667
I6
tp335
a(I1160
I6
tp336
a(I151
I6
tp337
a(I1850
I6
tp338
a(I233
I6
tp339
a(I1692
I6
tp340
a(I2123
I6
tp341
a(I2050
I6
tp342
a(I1457
I6
tp343
a(I100
I6
tp344
a(I1299
I6
tp345
a(I1989
I6
tp346
a(I792
I6
tp347
a(I1831
I6
tp348
a(I2230
I6
tp349
a(I1324
I6
tp350
a(I141
I6
tp351
a(I1780
I6
tp352
a(I1622
I6
tp353
a(I597
I6
tp354
a(I424
I6
tp355
a(I90
I6
tp356
a(I1919
I6
tp357
a(I1314
I6
tp358
a(I2277
I6
tp359
a(I1770
I6
tp360
a(I788
I6
tp361
a(I712
I6
tp362
a(I395
I6
tp363
a(I1009
I6
tp364
a(I420
I6
tp365
a(I1285
I6
tp366
a(I778
I6
tp367
a(I544
I6
tp368
a(I350
I6
tp369
a(I1041
I6
tp370
a(I550
I6
tp371
a(I1573
I6
tp372
a(I391
I6
tp373
a(I1856
I6
tp374
a(I182
I6
tp375
a(I638
I6
tp376
a(I1661
I6
tp377
a(I479
I6
tp378
a(I1688
I6
tp379
a(I761
I6
tp380
a(I172
I6
tp381
a(I2062
I6
tp382
a(I1037
I6
tp383
a(I2144
I6
tp384
a(I1985
I6
tp385
a(I628
I6
tp386
a(I137
I6
tp387
a(I1852
I6
tp388
a(I2283
I6
tp389
a(I2372
I6
tp390
a(I162
I6
tp391
a(I4
I6
tp392
a(I1459
I6
tp393
a(I952
I6
tp394
a(I1991
I6
tp395
a(I2349
I6
tp396
a(I225
I6
tp397
a(I757
I6
tp398
a(I2140
I6
tp399
a(I1905
I6
tp400
a(I1747
I6
tp401
a(I133
I6
tp402
a(I1455
I6
tp403
a(I82
I6
tp404
a(I1281
I6
tp405
a(I1306
I6
tp406
a(I1072
I6
tp407
a(I63
I6
tp408
a(I780
I6
tp409
a(I704
I6
tp410
a(I1394
I6
tp411
a(I1236
I6
tp412
a(I387
I6
tp413
a(I1594
I6
tp414
a(I412
I6
tp415
a(I510
I6
tp416
a(I868
I6
tp417
a(I1733
I6
tp418
a(I2156
I6
tp419
a(I909
I6
tp420
a(I833
I6
tp421
a(I168
I6
tp422
a(I1207
I6
tp423
a(I858
I6
tp424
a(I2052
I6
tp425
a(I1663
I6
tp426
a(I465
I6
tp427
a(I2355
I6
tp428
a(I2022
I6
tp429
a(I1848
I6
tp430
a(I839
I6
tp431
a(I763
I6
tp432
a(I0
I6
tp433
a(I532
I6
tp434
a(I630
I6
tp435
a(I471
I6
tp436
a(I2345
I6
tp437
a(I671
I6
tp438
a(I753
I6
tp439
a(I2212
I6
tp440
a(I595
I6
tp441
a(I1127
I6
tp442
a(I2197
I6
tp443
a(I2177
I6
tp444
a(I227
I6
tp445
a(I2202
I6
tp446
a(I2300
I6
tp447
a(I2142
I6
tp448
a(I1117
I6
tp449
a(I1983
I6
tp450
a(I293
I6
tp451
a(I2183
I6
tp452
a(I2107
I6
tp453
a(I1774
I6
tp454
a(I2247
I6
tp455
a(I2290
I6
tp456
a(I1283
I6
tp457
a(I950
I6
tp458
a(I1815
I6
tp459
a(I223
I6
tp460
a(I49
I6
tp461
a(I1606
I6
tp462
a(I2122
I6
tp463
a(I1805
I6
tp464
a(I1903
I6
tp465
a(I1298
I6
tp466
a(I2261
I6
tp467
a(I1064
I6
tp468
a(I1754
I6
tp469
a(I905
I6
tp470
a(I414
I6
tp471
a(I1070
I6
tp472
a(I911
I6
tp473
a(I1586
I6
tp474
a(I1035
I6
tp475
a(I702
I6
tp476
a(I901
I6
tp477
a(I2008
I6
tp478
a(I1357
I6
tp479
a(I2133
I6
tp480
a(I1199
I6
tp481
a(I850
I6
tp482
a(I1025
I6
tp483
a(I2286
I6
tp484
a(I299
I6
tp485
a(I989
I6
tp486
a(I657
I6
tp487
a(I324
I6
tp488
a(I755
I6
tp489
a(I2296
I6
tp490
a(I663
I6
tp491
a(I2362
I6
tp492
a(I2204
I6
tp493
a(I1277
I6
tp494
a(I1119
I6
tp495
a(I514
I6
tp496
a(I377
I6
tp497
a(I1760
I6
tp498
a(I2194
I6
tp499
a(I244
I6
tp500
a(I1109
I6
tp501
a(I1310
I6
tp502
a(I2257
I6
tp503
a(I741
I6
tp504
a(I2282
I6
tp505
a(I2124
I6
tp506
a(I942
I6
tp507
a(I1889
I6
tp508
a(I1300
I6
tp509
a(I1731
I6
tp510
a(I2263
I6
tp511
a(I2089
I6
tp512
a(I573
I6
tp513
a(I400
I6
tp514
a(I932
I6
tp515
a(I1797
I6
tp516
a(I1895
I6
tp517
a(I1721
I6
tp518
a(I1563
I6
tp519
a(I2253
I6
tp520
a(I1588
I6
tp521
a(I406
I6
tp522
a(I1429
I6
tp523
a(I1527
I6
tp524
a(I1020
I6
tp525
a(I1062
I6
tp526
a(I2085
I6
tp527
a(I903
I6
tp528
a(I1578
I6
tp529
a(I396
I6
tp530
a(I827
I6
tp531
a(I494
I6
tp532
a(I1185
I6
tp533
a(I1027
I6
tp534
a(I1717
I6
tp535
a(I520
I6
tp536
a(I459
I6
tp537
a(I125
I6
tp538
a(I484
I6
tp539
a(I2048
I6
tp540
a(I152
I6
tp541
a(I842
I6
tp542
a(I1273
I6
tp543
a(I1549
I6
tp544
a(I449
I6
tp545
a(I2339
I6
tp546
a(I1832
I6
tp547
a(I823
I6
tp548
a(I158
I6
tp549
a(I240
I6
tp550
a(I1105
I6
tp551
a(I2329
I6
tp552
a(I813
I6
tp553
a(I2354
I6
tp554
a(I148
I6
tp555
a(I579
I6
tp556
a(I1111
I6
tp557
a(I604
I6
tp558
a(I369
I6
tp559
a(I2259
I6
tp560
a(I2284
I6
tp561
a(I928
I6
tp562
a(I1793
I6
tp563
a(I1891
I6
tp564
a(I2325
I6
tp565
a(I2249
I6
tp566
a(I1916
I6
tp567
a(I1758
I6
tp568
a(I575
I6
tp569
a(I68
I6
tp570
a(I1016
I6
tp571
a(I1450
I6
tp572
a(I1292
I6
tp573
a(I1723
I6
tp574
a(I2108
I6
tp575
a(I2255
I6
tp576
a(I2081
I6
tp577
a(I1748
I6
tp578
a(I1431
I6
tp579
a(I2045
I6
tp580
a(I1282
I6
tp581
a(I1380
I6
tp582
a(I197
I6
tp583
a(I1519
I6
tp584
a(I914
I6
tp585
a(I1345
I6
tp586
a(I1877
I6
tp587
a(I1370
I6
tp588
a(I1545
I6
tp589
a(I127
I6
tp590
a(I1570
I6
tp591
a(I977
I6
tp592
a(I486
I6
tp593
a(I1351
I6
tp594
a(I844
I6
tp595
a(I686
I6
tp596
a(I512
I6
tp597
a(I1142
I6
tp598
a(I1992
I6
tp599
a(I983
I6
tp600
a(I809
I6
tp601
a(I476
I6
tp602
a(I651
I6
tp603
a(I144
I6
tp604
a(I676
I6
tp605
a(I1541
I6
tp606
a(I1034
I6
tp607
a(I283
I6
tp608
a(I641
I6
tp609
a(I2356
I6
tp610
a(I739
I6
tp611
a(I150
I6
tp612
a(I1963
I6
tp613
a(I1456
I6
tp614
a(I2321
I6
tp615
a(I1830
I6
tp616
a(I729
I6
tp617
a(I2188
I6
tp618
a(I571
I6
tp619
a(I238
I6
tp620
a(I1103
I6
tp621
a(I754
I6
tp622
a(I437
I6
tp623
a(I1978
I6
tp624
a(I1918
I6
tp625
a(I1744
I6
tp626
a(I2250
I6
tp627
a(I1959
I6
tp628
a(I2317
I6
tp629
a(I2083
I6
tp630
a(I60
I6
tp631
a(I1949
I6
tp632
a(I1208
I6
tp633
a(I199
I6
tp634
a(I384
I6
tp635
a(I50
I6
tp636
a(I1505
I6
tp637
a(I1530
I6
tp638
a(I1705
I6
tp639
a(I1547
I6
tp640
asS'runtime'
p641
F0.002234935760498047
sS'name'
p642
S'["regex", [["act_arr_time", "[2]", "OM"]]]'
p643
s.