(dp0
S'output'
p1
(lp2
(I1623
I4
tp3
a(I998
I4
tp4
a(I1035
I4
tp5
a(I217
I4
tp6
a(I1192
I4
tp7
a(I1038
I4
tp8
a(I1037
I4
tp9
a(I211
I4
tp10
a(I1618
I4
tp11
a(I193
I4
tp12
a(I213
I4
tp13
a(I1036
I4
tp14
a(I1211
I4
tp15
a(I160
I4
tp16
a(I212
I4
tp17
a(I195
I4
tp18
a(I994
I4
tp19
a(I1043
I4
tp20
asS'runtime'
p21
F0.0019872188568115234
sS'name'
p22
S'["regex", [["act_dep_time", "[b]", "OM"]]]'
p23
s.