(dp0
S'output'
p1
(lp2
(I2314
I6
tp3
a(I1201
I6
tp4
a(I1201
I7
tp5
a(I2314
I7
tp6
a(I294
I6
tp7
a(I2095
I6
tp8
a(I1204
I7
tp9
a(I1204
I6
tp10
a(I294
I7
tp11
a(I2095
I7
tp12
asS'runtime'
p13
F1.016991138458252
sS'name'
p14
S'["fd_checker", [["full_cast", "actors"]]]'
p15
s.