(dp0
S'output'
p1
(lp2
(I6463
I6
tp3
a(I5297
I6
tp4
a(I6468
I6
tp5
a(I6469
I6
tp6
a(I4106
I6
tp7
a(I3929
I6
tp8
a(I6413
I6
tp9
a(I4416
I6
tp10
a(I1161
I6
tp11
a(I6460
I6
tp12
asS'runtime'
p13
F0.006298065185546875
sS'name'
p14
S'["regex", [["actors", "[\\u00f4]", "OM"]]]'
p15
s.