(dp0
S'output'
p1
(lp2
(I2640
I6
tp3
a(I7071
I6
tp4
a(I2244
I6
tp5
a(I4851
I6
tp6
a(I1895
I6
tp7
a(I3498
I6
tp8
a(I6905
I6
tp9
a(I5399
I6
tp10
a(I13
I6
tp11
a(I1408
I6
tp12
a(I3796
I6
tp13
a(I4918
I6
tp14
a(I3575
I6
tp15
a(I7230
I6
tp16
a(I2311
I6
tp17
a(I3614
I6
tp18
asS'runtime'
p19
F0.00613093376159668
sS'name'
p20
S'["regex", [["actors", "[\\u00ed]", "OM"]]]'
p21
s.