(dp0
S'output'
p1
(lp2
(I915
I8
tp3
a(I6506
I8
tp4
a(I356
I8
tp5
a(I144
I8
tp6
a(I5884
I8
tp7
a(I3292
I8
tp8
asS'runtime'
p9
F0.005875110626220703
sS'name'
p10
S'["regex", [["language", "[Z]", "OM"]]]'
p11
s.