(dp0
S'output'
p1
(lp2
(I3165
I6
tp3
a(I3167
I6
tp4
a(I13
I6
tp5
a(I5487
I6
tp6
a(I6657
I6
tp7
a(I4918
I6
tp8
a(I5801
I6
tp9
a(I3614
I6
tp10
asS'runtime'
p11
F0.006350994110107422
sS'name'
p12
S'["regex", [["actors", "[\\u00c9]", "OM"]]]'
p13
s.