(dp0
S'output'
p1
(lp2
(I2652
I5
tp3
a(I5579
I5
tp4
a(I292
I5
tp5
a(I2060
I5
tp6
a(I4545
I5
tp7
a(I4135
I5
tp8
a(I3151
I5
tp9
a(I262
I5
tp10
a(I3011
I5
tp11
asS'runtime'
p12
F0.006011009216308594
sS'name'
p13
S'["regex", [["creator", "[\\u00e8]", "OM"]]]'
p14
s.