(dp0
S'output'
p1
(lp2
(I1312
I0
tp3
a(I2182
I0
tp4
a(I4916
I0
tp5
a(I5331
I0
tp6
a(I426
I0
tp7
a(I2852
I0
tp8
asS'runtime'
p9
F0.005785942077636719
sS'name'
p10
S'["regex", [["id", "[j]", "OM"]]]'
p11
s.