(dp0
S'output'
p1
(lp2
(I3802
I15
tp3
a(I292
I15
tp4
a(I5573
I15
tp5
a(I1646
I15
tp6
a(I2027
I15
tp7
a(I1352
I15
tp8
asS'runtime'
p9
F0.006299018859863281
sS'name'
p10
S'["regex", [["filming_locations", "[\\u00e2]", "OM"]]]'
p11
s.