(dp0
S'output'
p1
(lp2
(I2346
I8
tp3
a(I1284
I8
tp4
a(I2
I8
tp5
a(I3812
I8
tp6
a(I5335
I8
tp7
a(I1404
I8
tp8
a(I1377
I8
tp9
a(I4399
I8
tp10
a(I1428
I8
tp11
a(I5980
I8
tp12
asS'runtime'
p13
F0.006067037582397461
sS'name'
p14
S'["regex", [["language", "[v]", "OM"]]]'
p15
s.