(dp0
S'output'
p1
(lp2
(I7053
I6
tp3
a(I703
I6
tp4
a(I322
I6
tp5
a(I3923
I6
tp6
a(I3609
I6
tp7
a(I4475
I6
tp8
a(I4237
I6
tp9
a(I5035
I6
tp10
a(I1417
I6
tp11
a(I1291
I6
tp12
asS'runtime'
p13
F0.006333112716674805
sS'name'
p14
S'["regex", [["actors", "[\\u00f1]", "OM"]]]'
p15
s.