(dp0
S'output'
p1
(lp2
(I1741
I1
tp3
a(I426
I1
tp4
a(I4418
I1
tp5
a(I2351
I1
tp6
a(I267
I1
tp7
a(I4714
I1
tp8
a(I6657
I1
tp9
asS'runtime'
p10
F0.006014823913574219
sS'name'
p11
S'["regex", [["name", "[\\u00e9]", "OM"]]]'
p12
s.