(dp0
S'output'
p1
(lp2
(I4461
I14
tp3
a(I6721
I14
tp4
a(I6487
I14
tp5
a(I4458
I14
tp6
a(I4171
I14
tp7
a(I6031
I14
tp8
a(I6479
I14
tp9
asS'runtime'
p10
F0.006020069122314453
sS'name'
p11
S'["regex", [["genre", "[w]", "OM"]]]'
p12
s.