(dp0
S'output'
p1
(lp2
(I168
I14
tp3
a(I4457
I14
tp4
a(I3112
I14
tp5
a(I6002
I14
tp6
a(I2497
I14
tp7
a(I2058
I14
tp8
a(I1913
I14
tp9
a(I4521
I14
tp10
a(I1809
I14
tp11
a(I2452
I14
tp12
asS'runtime'
p13
F0.006019115447998047
sS'name'
p14
S'["regex", [["genre", "[f]", "OM"]]]'
p15
s.