(dp0
S'output'
p1
(lp2
(I4278
I3
tp3
a(I3878
I3
tp4
a(I1608
I3
tp5
a(I6753
I3
tp6
a(I1667
I3
tp7
a(I6996
I3
tp8
a(I4047
I3
tp9
a(I4509
I3
tp10
a(I3846
I3
tp11
a(I2007
I3
tp12
a(I6392
I3
tp13
a(I2013
I3
tp14
a(I6326
I3
tp15
a(I2789
I3
tp16
asS'runtime'
p17
F0.006303071975708008
sS'name'
p18
S'["regex", [["release_date", "[T]", "OM"]]]'
p19
s.