(dp0
S'output'
p1
(lp2
(I5507
I3
tp3
a(I2352
I3
tp4
a(I2773
I3
tp5
a(I1572
I3
tp6
a(I4177
I3
tp7
a(I1828
I3
tp8
a(I6907
I3
tp9
asS'runtime'
p10
F0.0061528682708740234
sS'name'
p11
S'["regex", [["release_date", "[f]", "OM"]]]'
p12
s.