(dp0
S'output'
p1
(lp2
(I6301
I6
tp3
a(I2402
I6
tp4
a(I5801
I6
tp5
a(I1322
I6
tp6
a(I3993
I6
tp7
a(I5709
I6
tp8
a(I4096
I6
tp9
a(I7318
I6
tp10
a(I1910
I6
tp11
a(I1096
I6
tp12
a(I2345
I6
tp13
asS'runtime'
p14
F0.006156206130981445
sS'name'
p15
S'["regex", [["actors", "[\\u00f3]", "OM"]]]'
p16
s.