(dp0
S'output'
p1
(lp2
(I4774
I9
tp3
a(I6347
I9
tp4
a(I4725
I9
tp5
a(I6910
I9
tp6
a(I2059
I9
tp7
a(I6278
I9
tp8
a(I6967
I9
tp9
a(I6344
I9
tp10
a(I1504
I9
tp11
a(I6627
I9
tp12
a(I5281
I9
tp13
a(I4783
I9
tp14
a(I1088
I9
tp15
a(I2860
I9
tp16
asS'runtime'
p17
F0.00612187385559082
sS'name'
p18
S'["regex", [["country", "[T]", "OM"]]]'
p19
s.