(dp0
S'output'
p1
(lp2
(I5730
I7
tp3
a(I3540
I7
tp4
a(I758
I7
tp5
a(I2977
I7
tp6
a(I6426
I7
tp7
a(I5591
I7
tp8
a(I2224
I7
tp9
asS'runtime'
p10
F0.006798982620239258
sS'name'
p11
S'["regex", [["full_cast", "[\\u00e4]", "OM"]]]'
p12
s.