(dp0
S'output'
p1
(lp2
(I7224
I9
tp3
a(I4741
I9
tp4
a(I710
I9
tp5
a(I5663
I9
tp6
a(I4317
I9
tp7
a(I252
I9
tp8
a(I105
I9
tp9
a(I7226
I9
tp10
a(I6455
I9
tp11
a(I4616
I9
tp12
a(I6454
I9
tp13
a(I1042
I9
tp14
a(I2381
I9
tp15
a(I1389
I9
tp16
a(I590
I9
tp17
a(I364
I9
tp18
a(I682
I9
tp19
asS'runtime'
p20
F0.006020784378051758
sS'name'
p21
S'["regex", [["country", "[W]", "OM"]]]'
p22
s.