(dp0
S'output'
p1
(lp2
(I1215
I16
tp3
a(I5485
I16
tp4
a(I1476
I16
tp5
a(I2121
I16
tp6
a(I4224
I16
tp7
a(I1429
I16
tp8
a(I2275
I16
tp9
a(I4584
I16
tp10
a(I1190
I16
tp11
a(I2274
I16
tp12
a(I5296
I16
tp13
a(I2834
I16
tp14
a(I702
I16
tp15
a(I6049
I16
tp16
a(I1400
I16
tp17
a(I4279
I16
tp18
a(I5308
I16
tp19
a(I4417
I16
tp20
a(I292
I16
tp21
a(I603
I16
tp22
a(I3175
I16
tp23
a(I1214
I16
tp24
asS'runtime'
p25
F0.0067980289459228516
sS'name'
p26
S'["regex", [["description", "[X]", "OM"]]]'
p27
s.