(dp0
S'output'
p1
(lp2
(I4684
I5
tp3
a(I3895
I5
tp4
a(I5585
I5
tp5
a(I1484
I5
tp6
a(I6519
I5
tp7
a(I853
I5
tp8
a(I392
I5
tp9
a(I2077
I5
tp10
asS'runtime'
p11
F0.00618290901184082
sS'name'
p12
S'["regex", [["creator", "[\\u00f1]", "OM"]]]'
p13
s.