(dp0
S'output'
p1
(lp2
(I915
I8
tp3
a(I2346
I8
tp4
a(I2015
I8
tp5
a(I3812
I8
tp6
a(I1284
I8
tp7
a(I5335
I8
tp8
a(I2014
I8
tp9
a(I4399
I8
tp10
a(I3926
I8
tp11
asS'runtime'
p12
F0.005995035171508789
sS'name'
p13
S'["regex", [["language", "[j]", "OM"]]]'
p14
s.