(dp0
S'output'
p1
(lp2
(I4199
I15
tp3
a(I361
I15
tp4
a(I932
I15
tp5
a(I6879
I15
tp6
a(I856
I15
tp7
a(I3475
I15
tp8
a(I3278
I15
tp9
a(I1783
I15
tp10
a(I7000
I15
tp11
a(I2622
I15
tp12
a(I785
I15
tp13
a(I922
I15
tp14
a(I6179
I15
tp15
a(I7227
I15
tp16
a(I190
I15
tp17
a(I1144
I15
tp18
a(I2465
I15
tp19
a(I25
I15
tp20
a(I6664
I15
tp21
a(I7319
I15
tp22
a(I7354
I15
tp23
a(I1150
I15
tp24
a(I4451
I15
tp25
a(I4580
I15
tp26
a(I2829
I15
tp27
a(I5923
I15
tp28
a(I3127
I15
tp29
a(I1200
I15
tp30
a(I1832
I15
tp31
a(I2385
I15
tp32
a(I21
I15
tp33
a(I832
I15
tp34
a(I2683
I15
tp35
a(I1464
I15
tp36
a(I1267
I15
tp37
a(I3451
I15
tp38
a(I898
I15
tp39
a(I7374
I15
tp40
a(I4721
I15
tp41
a(I5566
I15
tp42
a(I7264
I15
tp43
a(I6477
I15
tp44
a(I138
I15
tp45
a(I4371
I15
tp46
a(I631
I15
tp47
a(I6571
I15
tp48
a(I1186
I15
tp49
a(I1460
I15
tp50
a(I4697
I15
tp51
a(I3311
I15
tp52
a(I3432
I15
tp53
a(I4556
I15
tp54
a(I7
I15
tp55
a(I128
I15
tp56
a(I2866
I15
tp57
a(I5199
I15
tp58
a(I5112
I15
tp59
a(I3164
I15
tp60
a(I5678
I15
tp61
a(I4230
I15
tp62
a(I945
I15
tp63
a(I6892
I15
tp64
a(I6285
I15
tp65
a(I5536
I15
tp66
a(I6697
I15
tp67
a(I1106
I15
tp68
a(I1814
I15
tp69
a(I4494
I15
tp70
a(I5047
I15
tp71
a(I875
I15
tp72
a(I559
I15
tp73
a(I6279
I15
tp74
a(I1507
I15
tp75
a(I7198
I15
tp76
a(I1728
I15
tp77
a(I4408
I15
tp78
a(I4211
I15
tp79
a(I3287
I15
tp80
a(I1734
I15
tp81
a(I5754
I15
tp82
a(I5325
I15
tp83
a(I1366
I15
tp84
a(I3219
I15
tp85
a(I503
I15
tp86
a(I5761
I15
tp87
a(I2219
I15
tp88
a(I4957
I15
tp89
a(I998
I15
tp90
a(I5452
I15
tp91
a(I1988
I15
tp92
a(I4589
I15
tp93
a(I2149
I15
tp94
a(I793
I15
tp95
a(I2644
I15
tp96
a(I3078
I15
tp97
a(I5263
I15
tp98
a(I6943
I15
tp99
a(I3521
I15
tp100
a(I586
I15
tp101
a(I1157
I15
tp102
a(I6362
I15
tp103
a(I355
I15
tp104
a(I926
I15
tp105
a(I6720
I15
tp106
a(I1403
I15
tp107
a(I2469
I15
tp108
a(I1582
I15
tp109
a(I208
I15
tp110
a(I3517
I15
tp111
a(I5507
I15
tp112
a(I7358
I15
tp113
a(I4370
I15
tp114
a(I5026
I15
tp115
a(I6853
I15
tp116
a(I1520
I15
tp117
a(I6050
I15
tp118
a(I3176
I15
tp119
a(I4497
I15
tp120
a(I6348
I15
tp121
a(I562
I15
tp122
a(I2884
I15
tp123
a(I5485
I15
tp124
a(I1194
I15
tp125
a(I4998
I15
tp126
a(I136
I15
tp127
a(I4922
I15
tp128
a(I629
I15
tp129
a(I3111
I15
tp130
a(I1184
I15
tp131
a(I1321
I15
tp132
a(I2369
I15
tp133
a(I6402
I15
tp134
a(I124
I15
tp135
a(I142
I15
tp136
a(I2162
I15
tp137
a(I2180
I15
tp138
a(I56
I15
tp139
a(I5276
I15
tp140
a(I5337
I15
tp141
a(I4932
I15
tp142
a(I6522
I15
tp143
a(I6403
I15
tp144
a(I4908
I15
tp145
a(I615
I15
tp146
a(I873
I15
tp147
a(I1110
I15
tp148
a(I1665
I15
tp149
a(I3790
I15
tp150
a(I2295
I15
tp151
a(I2416
I15
tp152
a(I2100
I15
tp153
a(I3719
I15
tp154
a(I5828
I15
tp155
a(I2090
I15
tp156
a(I2227
I15
tp157
a(I5920
I15
tp158
a(I1424
I15
tp159
a(I1090
I15
tp160
a(I3412
I15
tp161
a(I5894
I15
tp162
a(I1188
I15
tp163
a(I5758
I15
tp164
a(I1293
I15
tp165
a(I1492
I15
tp166
a(I4945
I15
tp167
a(I659
I15
tp168
a(I6334
I15
tp169
a(I1581
I15
tp170
a(I1779
I15
tp171
a(I302
I15
tp172
a(I5446
I15
tp173
a(I5583
I15
tp174
a(I650
I15
tp175
a(I4020
I15
tp176
a(I2525
I15
tp177
a(I1775
I15
tp178
a(I1896
I15
tp179
a(I4378
I15
tp180
a(I7116
I15
tp181
a(I777
I15
tp182
a(I3455
I15
tp183
a(I5624
I15
tp184
a(I3873
I15
tp185
a(I2199
I15
tp186
a(I4368
I15
tp187
a(I2457
I15
tp188
a(I5058
I15
tp189
a(I6219
I15
tp190
a(I6851
I15
tp191
a(I4000
I15
tp192
a(I1892
I15
tp193
a(I141
I15
tp194
a(I6422
I15
tp195
a(I6815
I15
tp196
a(I2821
I15
tp197
a(I1463
I15
tp198
a(I1387
I15
tp199
a(I5917
I15
tp200
a(I3240
I15
tp201
a(I6115
I15
tp202
a(I900
I15
tp203
a(I3501
I15
tp204
a(I2614
I15
tp205
a(I627
I15
tp206
a(I7240
I15
tp207
a(I1872
I15
tp208
a(I258
I15
tp209
a(I2504
I15
tp210
a(I6147
I15
tp211
a(I830
I15
tp212
a(I6034
I15
tp213
a(I3236
I15
tp214
a(I1878
I15
tp215
a(I1112
I15
tp216
a(I6332
I15
tp217
a(I2373
I15
tp218
a(I2594
I15
tp219
a(I7262
I15
tp220
a(I4214
I15
tp221
a(I2661
I15
tp222
a(I5757
I15
tp223
a(I3590
I15
tp224
a(I679
I15
tp225
a(I800
I15
tp226
a(I3538
I15
tp227
a(I4836
I15
tp228
a(I3222
I15
tp229
a(I2882
I15
tp230
a(I6576
I15
tp231
a(I5689
I15
tp232
a(I4468
I15
tp233
a(I2088
I15
tp234
a(I4963
I15
tp235
a(I1301
I15
tp236
a(I1720
I15
tp237
a(I2094
I15
tp238
a(I4695
I15
tp239
a(I3279
I15
tp240
a(I2537
I15
tp241
a(I923
I15
tp242
a(I36
I15
tp243
a(I2911
I15
tp244
a(I4514
I15
tp245
a(I4709
I15
tp246
a(I3764
I15
tp247
a(I6365
I15
tp248
a(I5736
I15
tp249
a(I6170
I15
tp250
a(I2901
I15
tp251
a(I4896
I15
tp252
a(I3259
I15
tp253
a(I4444
I15
tp254
a(I5742
I15
tp255
a(I919
I15
tp256
a(I4249
I15
tp257
a(I5076
I15
tp258
a(I4744
I15
tp259
a(I3523
I15
tp260
a(I2028
I15
tp261
a(I4434
I15
tp262
a(I2523
I15
tp263
a(I2070
I15
tp264
a(I636
I15
tp265
a(I4613
I15
tp266
a(I3513
I15
tp267
a(I465
I15
tp268
a(I960
I15
tp269
a(I1258
I15
tp270
a(I1395
I15
tp271
a(I6062
I15
tp272
a(I1753
I15
tp273
a(I2
I15
tp274
a(I4175
I15
tp275
a(I1324
I15
tp276
a(I1461
I15
tp277
a(I574
I15
tp278
a(I1248
I15
tp279
a(I5778
I15
tp280
a(I2509
I15
tp281
a(I4225
I15
tp282
a(I2314
I15
tp283
a(I2254
I15
tp284
a(I6903
I15
tp285
a(I3065
I15
tp286
a(I135
I15
tp287
a(I5042
I15
tp288
a(I6893
I15
tp289
a(I1116
I15
tp290
a(I4787
I15
tp291
a(I3429
I15
tp292
a(I399
I15
tp293
a(I7117
I15
tp294
a(I4222
I15
tp295
a(I4777
I15
tp296
a(I1805
I15
tp297
a(I4212
I15
tp298
a(I3485
I15
tp299
a(I5594
I15
tp300
a(I2093
I15
tp301
a(I2488
I15
tp302
a(I243
I15
tp303
a(I4910
I15
tp304
a(I1367
I15
tp305
a(I601
I15
tp306
a(I1035
I15
tp307
a(I5958
I15
tp308
a(I3144
I15
tp309
a(I6512
I15
tp310
a(I6240
I15
tp311
a(I7363
I15
tp312
a(I6948
I15
tp313
a(I5590
I15
tp314
a(I1852
I15
tp315
a(I3037
I15
tp316
a(I2150
I15
tp317
a(I6383
I15
tp318
a(I2645
I15
tp319
a(I6570
I15
tp320
a(I6120
I15
tp321
a(I921
I15
tp322
a(I4683
I15
tp323
a(I5512
I15
tp324
a(I5315
I15
tp325
a(I653
I15
tp326
a(I4810
I15
tp327
a(I3810
I15
tp328
a(I917
I15
tp329
a(I4679
I15
tp330
a(I3442
I15
tp331
a(I2460
I15
tp332
a(I968
I15
tp333
a(I2563
I15
tp334
a(I1129
I15
tp335
a(I3611
I15
tp336
a(I342
I15
tp337
a(I6776
I15
tp338
a(I7202
I15
tp339
a(I3304
I15
tp340
a(I4138
I15
tp341
a(I137
I15
tp342
a(I1517
I15
tp343
a(I3507
I15
tp344
a(I5358
I15
tp345
a(I7377
I15
tp346
a(I6180
I15
tp347
a(I5050
I15
tp348
a(I894
I15
tp349
a(I3472
I15
tp350
a(I3360
I15
tp351
a(I3497
I15
tp352
a(I4229
I15
tp353
a(I823
I15
tp354
a(I2658
I15
tp355
a(I7325
I15
tp356
a(I3503
I15
tp357
a(I2308
I15
tp358
a(I6957
I15
tp359
a(I558
I15
tp360
a(I3280
I15
tp361
a(I1864
I15
tp362
a(I2435
I15
tp363
a(I2238
I15
tp364
a(I1435
I15
tp365
a(I6562
I15
tp366
a(I5753
I15
tp367
a(I930
I15
tp368
a(I6324
I15
tp369
a(I733
I15
tp370
a(I6836
I15
tp371
a(I2152
I15
tp372
a(I5461
I15
tp373
a(I2163
I15
tp374
a(I1723
I15
tp375
a(I5759
I15
tp376
a(I860
I15
tp377
a(I997
I15
tp378
a(I3540
I15
tp379
a(I2087
I15
tp380
a(I160
I15
tp381
a(I297
I15
tp382
a(I4946
I15
tp383
a(I4767
I15
tp384
a(I4888
I15
tp385
a(I2643
I15
tp386
a(I5739
I15
tp387
a(I227
I15
tp388
a(I4757
I15
tp389
a(I585
I15
tp390
a(I5252
I15
tp391
a(I5942
I15
tp392
a(I5176
I15
tp393
a(I3818
I15
tp394
a(I4176
I15
tp395
a(I2562
I15
tp396
a(I1341
I15
tp397
a(I1402
I15
tp398
a(I7230
I15
tp399
a(I3687
I15
tp400
a(I5069
I15
tp401
a(I6230
I15
tp402
a(I344
I15
tp403
a(I3440
I15
tp404
a(I1903
I15
tp405
a(I2024
I15
tp406
a(I2321
I15
tp407
a(I4446
I15
tp408
a(I6912
I15
tp409
a(I4728
I15
tp410
a(I4001
I15
tp411
a(I4299
I15
tp412
a(I2609
I15
tp413
a(I1525
I15
tp414
a(I2317
I15
tp415
a(I330
I15
tp416
a(I901
I15
tp417
a(I6323
I15
tp418
a(I2736
I15
tp419
a(I5969
I15
tp420
a(I2444
I15
tp421
a(I6653
I15
tp422
a(I2247
I15
tp423
a(I2368
I15
tp424
a(I5106
I15
tp425
a(I557
I15
tp426
a(I3100
I15
tp427
a(I4048
I15
tp428
a(I2434
I15
tp429
a(I326
I15
tp430
a(I4559
I15
tp431
a(I2179
I15
tp432
a(I1811
I15
tp433
a(I2501
I15
tp434
a(I4215
I15
tp435
a(I674
I15
tp436
a(I948
I15
tp437
a(I614
I15
tp438
a(I5402
I15
tp439
a(I3157
I15
tp440
a(I3712
I15
tp441
a(I3827
I15
tp442
a(I4539
I15
tp443
a(I6253
I15
tp444
a(I504
I15
tp445
a(I1256
I15
tp446
a(I1433
I15
tp447
a(I3976
I15
tp448
a(I1731
I15
tp449
a(I4903
I15
tp450
a(I4137
I15
tp451
a(I22
I15
tp452
a(I4964
I15
tp453
a(I3350
I15
tp454
a(I3137
I15
tp455
a(I7370
I15
tp456
a(I1934
I15
tp457
a(I2487
I15
tp458
a(I3769
I15
tp459
a(I4893
I15
tp460
a(I2095
I15
tp461
a(I6312
I15
tp462
a(I429
I15
tp463
a(I4449
I15
tp464
a(I924
I15
tp465
a(I6181
I15
tp466
a(I1419
I15
tp467
a(I5181
I15
tp468
a(I4081
I15
tp469
a(I3689
I15
tp470
a(I2902
I15
tp471
a(I522
I15
tp472
a(I2707
I15
tp473
a(I3618
I15
tp474
a(I5743
I15
tp475
a(I4113
I15
tp476
a(I6988
I15
tp477
a(I5511
I15
tp478
a(I5496
I15
tp479
a(I2071
I15
tp480
a(I834
I15
tp481
a(I971
I15
tp482
a(I4180
I15
tp483
a(I4561
I15
tp484
a(I6920
I15
tp485
a(I1466
I15
tp486
a(I1703
I15
tp487
a(I1824
I15
tp488
a(I4109
I15
tp489
a(I4246
I15
tp490
a(I1335
I15
tp491
a(I5959
I15
tp492
a(I2188
I15
tp493
a(I7104
I15
tp494
a(I754
I15
tp495
a(I267
I15
tp496
a(I2167
I15
tp497
a(I5609
I15
tp498
a(I6204
I15
tp499
a(I4430
I15
tp500
a(I2740
I15
tp501
a(I3293
I15
tp502
a(I5044
I15
tp503
a(I2664
I15
tp504
a(I5146
I15
tp505
a(I877
I15
tp506
a(I1014
I15
tp507
a(I2175
I15
tp508
a(I248
I15
tp509
a(I4915
I15
tp510
a(I509
I15
tp511
a(I2438
I15
tp512
a(I3720
I15
tp513
a(I2362
I15
tp514
a(I2660
I15
tp515
a(I5203
I15
tp516
a(I5756
I15
tp517
a(I183
I15
tp518
a(I6685
I15
tp519
a(I2787
I15
tp520
a(I5760
I15
tp521
a(I3145
I15
tp522
a(I1668
I15
tp523
a(I310
I15
tp524
a(I4193
I15
tp525
a(I4467
I15
tp526
a(I3151
I15
tp527
a(I1224
I15
tp528
a(I4919
I15
tp529
asS'runtime'
p530
F0.006392002105712891
sS'name'
p531
S'["regex", [["filming_locations", "[E]", "OM"]]]'
p532
s.