(dp0
S'output'
p1
(lp2
(I2076
I5
tp3
a(I3500
I5
tp4
a(I3950
I5
tp5
a(I3662
I5
tp6
a(I5590
I5
tp7
a(I1996
I5
tp8
a(I1408
I5
tp9
a(I6134
I5
tp10
a(I3134
I5
tp11
asS'runtime'
p12
F0.0061991214752197266
sS'name'
p13
S'["regex", [["creator", "[\\u00f3]", "OM"]]]'
p14
s.