(dp0
S'output'
p1
(lp2
(I6278
I9
tp3
a(I4115
I9
tp4
a(I5540
I9
tp5
a(I5951
I9
tp6
a(I6347
I9
tp7
a(I6332
I9
tp8
a(I2435
I9
tp9
a(I6344
I9
tp10
a(I1504
I9
tp11
a(I899
I9
tp12
a(I1428
I9
tp13
a(I1377
I9
tp14
a(I6691
I9
tp15
a(I1088
I9
tp16
a(I6020
I9
tp17
a(I4460
I9
tp18
a(I6759
I9
tp19
asS'runtime'
p20
F0.005970001220703125
sS'name'
p21
S'["regex", [["country", "[k]", "OM"]]]'
p22
s.