(dp0
S'output'
p1
(lp2
(I3165
I7
tp3
a(I223
I7
tp4
a(I6921
I7
tp5
a(I6250
I7
tp6
a(I4793
I7
tp7
a(I13
I7
tp8
a(I733
I7
tp9
a(I5487
I7
tp10
a(I6657
I7
tp11
a(I4918
I7
tp12
a(I2268
I7
tp13
a(I5801
I7
tp14
a(I3614
I7
tp15
a(I3167
I7
tp16
asS'runtime'
p17
F0.0068318843841552734
sS'name'
p18
S'["regex", [["full_cast", "[\\u00c9]", "OM"]]]'
p19
s.