(dp0
S'output'
p1
(lp2
(I1637
I4
tp3
a(I3588
I4
tp4
a(I3623
I4
tp5
a(I6217
I4
tp6
a(I3677
I4
tp7
a(I3555
I4
tp8
a(I6353
I4
tp9
asS'runtime'
p10
F0.005917072296142578
sS'name'
p11
S'["regex", [["director", "[\\u00ed]", "OM"]]]'
p12
s.