(dp0
S'output'
p1
(lp2
(I1166
I16
tp3
a(I3246
I16
tp4
a(I6821
I16
tp5
a(I5212
I16
tp6
a(I6323
I16
tp7
a(I630
I16
tp8
a(I2244
I16
tp9
a(I4496
I16
tp10
a(I2782
I16
tp11
a(I7061
I16
tp12
a(I5859
I16
tp13
a(I5018
I16
tp14
a(I6545
I16
tp15
a(I2792
I16
tp16
a(I6930
I16
tp17
a(I1460
I16
tp18
a(I7083
I16
tp19
a(I3112
I16
tp20
a(I6519
I16
tp21
a(I6606
I16
tp22
a(I6674
I16
tp23
a(I2701
I16
tp24
a(I1691
I16
tp25
a(I5280
I16
tp26
a(I1703
I16
tp27
a(I2229
I16
tp28
a(I6828
I16
tp29
a(I2307
I16
tp30
a(I2234
I16
tp31
a(I5297
I16
tp32
a(I7302
I16
tp33
a(I2255
I16
tp34
a(I2246
I16
tp35
a(I5323
I16
tp36
a(I1410
I16
tp37
a(I3991
I16
tp38
a(I5870
I16
tp39
a(I1765
I16
tp40
a(I234
I16
tp41
a(I6561
I16
tp42
a(I6956
I16
tp43
a(I438
I16
tp44
a(I7090
I16
tp45
a(I460
I16
tp46
a(I2756
I16
tp47
a(I4253
I16
tp48
a(I5794
I16
tp49
a(I3568
I16
tp50
a(I5
I16
tp51
a(I3772
I16
tp52
a(I6931
I16
tp53
a(I2127
I16
tp54
a(I705
I16
tp55
a(I2328
I16
tp56
a(I717
I16
tp57
a(I1755
I16
tp58
a(I5929
I16
tp59
a(I224
I16
tp60
a(I757
I16
tp61
a(I2314
I16
tp62
a(I1786
I16
tp63
a(I5361
I16
tp64
a(I2063
I16
tp65
a(I3604
I16
tp66
a(I4107
I16
tp67
a(I6681
I16
tp68
a(I4624
I16
tp69
a(I4133
I16
tp70
a(I3548
I16
tp71
a(I1075
I16
tp72
a(I4138
I16
tp73
a(I6712
I16
tp74
a(I6134
I16
tp75
a(I7149
I16
tp76
a(I2628
I16
tp77
a(I4521
I16
tp78
a(I6217
I16
tp79
a(I1792
I16
tp80
a(I263
I16
tp81
a(I6371
I16
tp82
a(I4364
I16
tp83
a(I1318
I16
tp84
a(I7389
I16
tp85
a(I4462
I16
tp86
a(I6619
I16
tp87
a(I3173
I16
tp88
a(I5916
I16
tp89
a(I863
I16
tp90
a(I4114
I16
tp91
a(I4454
I16
tp92
a(I6183
I16
tp93
a(I3130
I16
tp94
a(I561
I16
tp95
a(I6792
I16
tp96
a(I79
I16
tp97
a(I3156
I16
tp98
a(I1616
I16
tp99
a(I613
I16
tp100
a(I5404
I16
tp101
a(I4723
I16
tp102
a(I3753
I16
tp103
a(I6271
I16
tp104
a(I1412
I16
tp105
a(I2953
I16
tp106
a(I2887
I16
tp107
a(I7013
I16
tp108
a(I1365
I16
tp109
a(I3404
I16
tp110
a(I1443
I16
tp111
a(I3460
I16
tp112
a(I870
I16
tp113
a(I1565
I16
tp114
a(I3618
I16
tp115
a(I1401
I16
tp116
a(I5192
I16
tp117
a(I6711
I16
tp118
a(I2190
I16
tp119
a(I1669
I16
tp120
a(I6716
I16
tp121
a(I6076
I16
tp122
a(I7305
I16
tp123
a(I6733
I16
tp124
a(I6918
I16
tp125
a(I6738
I16
tp126
a(I1193
I16
tp127
a(I1120
I16
tp128
a(I3687
I16
tp129
a(I1653
I16
tp130
a(I3180
I16
tp131
a(I1658
I16
tp132
a(I7326
I16
tp133
a(I921
I16
tp134
a(I1936
I16
tp135
a(I3413
I16
tp136
a(I7077
I16
tp137
a(I6922
I16
tp138
a(I5048
I16
tp139
a(I5913
I16
tp140
a(I6509
I16
tp141
a(I7075
I16
tp142
a(I4224
I16
tp143
a(I6279
I16
tp144
a(I5086
I16
tp145
a(I5781
I16
tp146
a(I488
I16
tp147
a(I3247
I16
tp148
a(I2214
I16
tp149
a(I2715
I16
tp150
a(I5544
I16
tp151
a(I1655
I16
tp152
a(I2245
I16
tp153
a(I5470
I16
tp154
a(I3786
I16
tp155
a(I1764
I16
tp156
a(I6377
I16
tp157
a(I5536
I16
tp158
a(I3495
I16
tp159
a(I4862
I16
tp160
a(I7079
I16
tp161
a(I6147
I16
tp162
a(I1978
I16
tp163
a(I1140
I16
tp164
a(I1492
I16
tp165
a(I3033
I16
tp166
a(I6126
I16
tp167
a(I4069
I16
tp168
a(I5119
I16
tp169
a(I6404
I16
tp170
a(I704
I16
tp171
a(I5406
I16
tp172
a(I3788
I16
tp173
a(I4387
I16
tp174
a(I4314
I16
tp175
a(I1745
I16
tp176
a(I5416
I16
tp177
a(I4326
I16
tp178
a(I6557
I16
tp179
a(I1678
I16
tp180
a(I2795
I16
tp181
a(I4002
I16
tp182
a(I3824
I16
tp183
a(I4485
I16
tp184
a(I1541
I16
tp185
a(I4540
I16
tp186
a(I6288
I16
tp187
a(I5590
I16
tp188
a(I4045
I16
tp189
a(I5830
I16
tp190
a(I5595
I16
tp191
a(I3113
I16
tp192
a(I4864
I16
tp193
a(I4085
I16
tp194
a(I3651
I16
tp195
a(I1608
I16
tp196
a(I1286
I16
tp197
a(I1812
I16
tp198
a(I5899
I16
tp199
a(I5835
I16
tp200
a(I793
I16
tp201
a(I805
I16
tp202
a(I732
I16
tp203
a(I819
I16
tp204
a(I3384
I16
tp205
a(I6980
I16
tp206
a(I5883
I16
tp207
a(I519
I16
tp208
a(I4941
I16
tp209
a(I3939
I16
tp210
a(I3098
I16
tp211
a(I3944
I16
tp212
a(I5158
I16
tp213
a(I6109
I16
tp214
a(I2105
I16
tp215
a(I48
I16
tp216
a(I1015
I16
tp217
a(I5605
I16
tp218
a(I1281
I16
tp219
a(I1814
I16
tp220
a(I5389
I16
tp221
a(I6182
I16
tp222
a(I5545
I16
tp223
a(I5225
I16
tp224
a(I1312
I16
tp225
a(I300
I16
tp226
a(I1923
I16
tp227
a(I5946
I16
tp228
a(I1841
I16
tp229
a(I6452
I16
tp230
a(I4422
I16
tp231
a(I4861
I16
tp232
a(I2379
I16
tp233
a(I7364
I16
tp234
a(I1390
I16
tp235
a(I6501
I16
tp236
a(I6684
I16
tp237
a(I6685
I16
tp238
a(I5540
I16
tp239
a(I3634
I16
tp240
a(I1673
I16
tp241
a(I5306
I16
tp242
a(I3669
I16
tp243
a(I7290
I16
tp244
a(I1527
I16
tp245
a(I1192
I16
tp246
a(I4710
I16
tp247
a(I1309
I16
tp248
a(I2164
I16
tp249
a(I4203
I16
tp250
a(I6946
I16
tp251
a(I1648
I16
tp252
a(I5006
I16
tp253
a(I1925
I16
tp254
a(I2968
I16
tp255
a(I415
I16
tp256
a(I3405
I16
tp257
a(I4516
I16
tp258
a(I425
I16
tp259
a(I3776
I16
tp260
a(I890
I16
tp261
a(I6088
I16
tp262
a(I5889
I16
tp263
a(I3133
I16
tp264
asS'runtime'
p265
F0.007146120071411133
sS'name'
p266
S'["regex", [["description", "[2]", "OM"]]]'
p267
s.