(dp0
S'output'
p1
(lp2
(I4739
I8
tp3
a(I3113
I8
tp4
a(I3260
I8
tp5
a(I1923
I8
tp6
a(I6497
I8
tp7
a(I5773
I8
tp8
a(I667
I8
tp9
a(I1285
I8
tp10
asS'runtime'
p11
F0.006043910980224609
sS'name'
p12
S'["regex", [["language", "[x]", "OM"]]]'
p13
s.