(dp0
S'output'
p1
(lp2
(I2572
I1
tp3
a(I6011
I1
tp4
a(I3399
I1
tp5
a(I2920
I1
tp6
a(I5877
I1
tp7
a(I38
I1
tp8
a(I419
I1
tp9
a(I980
I1
tp10
a(I4190
I1
tp11
a(I2608
I1
tp12
a(I445
I1
tp13
a(I5410
I1
tp14
a(I6218
I1
tp15
a(I6615
I1
tp16
a(I1016
I1
tp17
a(I645
I1
tp18
a(I3766
I1
tp19
a(I7219
I1
tp20
a(I5220
I1
tp21
a(I481
I1
tp22
a(I4370
I1
tp23
a(I6651
I1
tp24
a(I4908
I1
tp25
a(I4422
I1
tp26
a(I303
I1
tp27
a(I6480
I1
tp28
a(I3432
I1
tp29
a(I1468
I1
tp30
a(I3897
I1
tp31
a(I1445
I1
tp32
a(I470
I1
tp33
a(I2098
I1
tp34
a(I5567
I1
tp35
a(I6220
I1
tp36
a(I6115
I1
tp37
a(I788
I1
tp38
a(I2127
I1
tp39
a(I112
I1
tp40
a(I5291
I1
tp41
a(I2268
I1
tp42
a(I89
I1
tp43
a(I3978
I1
tp44
a(I5911
I1
tp45
a(I1336
I1
tp46
a(I709
I1
tp47
a(I5168
I1
tp48
a(I7102
I1
tp49
a(I4460
I1
tp50
a(I6682
I1
tp51
a(I3005
I1
tp52
a(I4949
I1
tp53
a(I2481
I1
tp54
a(I6652
I1
tp55
a(I6826
I1
tp56
a(I1591
I1
tp57
a(I2326
I1
tp58
a(I196
I1
tp59
a(I626
I1
tp60
a(I2782
I1
tp61
a(I6409
I1
tp62
a(I232
I1
tp63
a(I6577
I1
tp64
a(I2480
I1
tp65
a(I6684
I1
tp66
a(I6711
I1
tp67
a(I3218
I1
tp68
a(I3136
I1
tp69
a(I3472
I1
tp70
a(I1331
I1
tp71
a(I6151
I1
tp72
a(I4386
I1
tp73
a(I5601
I1
tp74
a(I2616
I1
tp75
a(I3275
I1
tp76
a(I5906
I1
tp77
a(I6775
I1
tp78
a(I293
I1
tp79
a(I6867
I1
tp80
a(I6017
I1
tp81
a(I7338
I1
tp82
a(I4941
I1
tp83
a(I1973
I1
tp84
a(I2022
I1
tp85
a(I6199
I1
tp86
a(I1980
I1
tp87
a(I7037
I1
tp88
a(I2140
I1
tp89
a(I4792
I1
tp90
a(I5619
I1
tp91
a(I722
I1
tp92
a(I5950
I1
tp93
a(I748
I1
tp94
a(I6472
I1
tp95
a(I5828
I1
tp96
a(I1923
I1
tp97
a(I2914
I1
tp98
a(I751
I1
tp99
a(I6226
I1
tp100
a(I4857
I1
tp101
a(I5782
I1
tp102
a(I5651
I1
tp103
a(I6026
I1
tp104
a(I449
I1
tp105
a(I2943
I1
tp106
a(I7213
I1
tp107
a(I606
I1
tp108
a(I3176
I1
tp109
a(I6558
I1
tp110
a(I5506
I1
tp111
a(I3855
I1
tp112
a(I5870
I1
tp113
a(I307
I1
tp114
a(I927
I1
tp115
a(I4429
I1
tp116
a(I3323
I1
tp117
a(I2618
I1
tp118
a(I4317
I1
tp119
a(I136
I1
tp120
a(I5653
I1
tp121
a(I5167
I1
tp122
a(I592
I1
tp123
a(I210
I1
tp124
a(I5132
I1
tp125
a(I2213
I1
tp126
a(I191
I1
tp127
a(I2784
I1
tp128
a(I4510
I1
tp129
a(I2869
I1
tp130
a(I1382
I1
tp131
a(I6208
I1
tp132
a(I4943
I1
tp133
a(I1392
I1
tp134
a(I46
I1
tp135
a(I6108
I1
tp136
a(I1559
I1
tp137
a(I2104
I1
tp138
a(I4260
I1
tp139
a(I2642
I1
tp140
a(I6111
I1
tp141
a(I1083
I1
tp142
a(I6121
I1
tp143
a(I3784
I1
tp144
a(I7262
I1
tp145
a(I3380
I1
tp146
a(I2448
I1
tp147
a(I6990
I1
tp148
a(I1227
I1
tp149
a(I426
I1
tp150
a(I1847
I1
tp151
a(I7000
I1
tp152
a(I2277
I1
tp153
a(I833
I1
tp154
a(I1791
I1
tp155
a(I6061
I1
tp156
a(I5129
I1
tp157
a(I570
I1
tp158
a(I6120
I1
tp159
a(I7347
I1
tp160
a(I5585
I1
tp161
a(I1794
I1
tp162
a(I655
I1
tp163
a(I2736
I1
tp164
a(I491
I1
tp165
a(I2844
I1
tp166
a(I2647
I1
tp167
a(I2870
I1
tp168
a(I5299
I1
tp169
a(I3300
I1
tp170
a(I5811
I1
tp171
a(I346
I1
tp172
a(I6813
I1
tp173
a(I5640
I1
tp174
a(I3907
I1
tp175
a(I3313
I1
tp176
a(I5039
I1
tp177
a(I976
I1
tp178
a(I6286
I1
tp179
a(I7179
I1
tp180
a(I1688
I1
tp181
a(I3250
I1
tp182
a(I4192
I1
tp183
a(I4672
I1
tp184
a(I2846
I1
tp185
a(I5341
I1
tp186
a(I1254
I1
tp187
a(I7060
I1
tp188
a(I5905
I1
tp189
a(I752
I1
tp190
a(I4475
I1
tp191
a(I2396
I1
tp192
a(I7063
I1
tp193
a(I440
I1
tp194
a(I7030
I1
tp195
a(I5199
I1
tp196
a(I6692
I1
tp197
a(I6298
I1
tp198
a(I6216
I1
tp199
a(I6101
I1
tp200
a(I5569
I1
tp201
a(I669
I1
tp202
a(I6123
I1
tp203
a(I3577
I1
tp204
a(I5303
I1
tp205
a(I6271
I1
tp206
a(I5759
I1
tp207
asS'runtime'
p208
F0.005984067916870117
sS'name'
p209
S'["regex", [["name", "[V]", "OM"]]]'
p210
s.