(dp0
S'output'
p1
(lp2
(I4177
I6
tp3
a(I6917
I6
tp4
a(I6538
I6
tp5
a(I5420
I6
tp6
a(I4411
I6
tp7
a(I5664
I6
tp8
a(I7375
I6
tp9
a(I6290
I6
tp10
a(I4321
I6
tp11
a(I4597
I6
tp12
a(I2590
I6
tp13
asS'runtime'
p14
F0.006325960159301758
sS'name'
p15
S'["regex", [["actors", "[\\u00e8]", "OM"]]]'
p16
s.