(dp0
S'output'
p1
(lp2
(I2558
I15
tp3
a(I3286
I15
tp4
a(I2454
I15
tp5
a(I3870
I15
tp6
a(I6383
I15
tp7
a(I3458
I15
tp8
a(I4718
I15
tp9
a(I6041
I15
tp10
a(I2850
I15
tp11
a(I1438
I15
tp12
a(I2895
I15
tp13
a(I81
I15
tp14
asS'runtime'
p15
F0.0061550140380859375
sS'name'
p16
S'["regex", [["filming_locations", "[\\u00e1]", "OM"]]]'
p17
s.