(dp0
S'output'
p1
(lp2
(I5026
I7
tp3
a(I6059
I7
tp4
a(I2069
I7
tp5
a(I422
I7
tp6
a(I3199
I7
tp7
a(I4935
I7
tp8
a(I6759
I7
tp9
a(I4987
I7
tp10
a(I3062
I7
tp11
a(I5987
I7
tp12
a(I5667
I7
tp13
a(I1589
I7
tp14
a(I3895
I7
tp15
a(I5951
I7
tp16
asS'runtime'
p17
F0.0068569183349609375
sS'name'
p18
S'["regex", [["full_cast", "[\\u00f8]", "OM"]]]'
p19
s.