(dp0
S'output'
p1
(lp2
(I113
I6
tp3
a(I5075
I6
tp4
a(I390
I6
tp5
a(I1869
I6
tp6
a(I3252
I6
tp7
a(I5417
I6
tp8
a(I4215
I6
tp9
a(I969
I6
tp10
a(I4291
I6
tp11
a(I6955
I6
tp12
a(I304
I6
tp13
a(I836
I6
tp14
a(I5363
I6
tp15
a(I678
I6
tp16
a(I4856
I6
tp17
a(I1194
I6
tp18
a(I2849
I6
tp19
a(I4564
I6
tp20
a(I3614
I6
tp21
a(I852
I6
tp22
a(I1789
I6
tp23
a(I592
I6
tp24
a(I6768
I6
tp25
a(I6444
I6
tp26
a(I756
I6
tp27
a(I4003
I6
tp28
a(I4616
I6
tp29
a(I3496
I6
tp30
a(I5966
I6
tp31
a(I4459
I6
tp32
a(I4996
I6
tp33
a(I4893
I6
tp34
a(I721
I6
tp35
a(I132
I6
tp36
a(I6739
I6
tp37
a(I5349
I6
tp38
a(I3143
I6
tp39
a(I4684
I6
tp40
a(I2043
I6
tp41
a(I1280
I6
tp42
a(I1970
I6
tp43
a(I195
I6
tp44
a(I824
I6
tp45
a(I5832
I6
tp46
a(I378
I6
tp47
a(I6364
I6
tp48
a(I1085
I6
tp49
a(I2960
I6
tp50
a(I3999
I6
tp51
a(I4586
I6
tp52
a(I4707
I6
tp53
a(I1875
I6
tp54
a(I359
I6
tp55
a(I5838
I6
tp56
a(I559
I6
tp57
a(I6905
I6
tp58
a(I52
I6
tp59
a(I5803
I6
tp60
a(I5470
I6
tp61
a(I5296
I6
tp62
a(I191
I6
tp63
a(I17
I6
tp64
a(I5779
I6
tp65
a(I4211
I6
tp66
a(I3017
I6
tp67
a(I5511
I6
tp68
a(I2956
I6
tp69
a(I5967
I6
tp70
a(I5618
I6
tp71
a(I4119
I6
tp72
a(I2685
I6
tp73
a(I4560
I6
tp74
a(I5599
I6
tp75
a(I3833
I6
tp76
a(I1196
I6
tp77
a(I13
I6
tp78
a(I1554
I6
tp79
a(I6670
I6
tp80
a(I7305
I6
tp81
a(I828
I6
tp82
a(I5355
I6
tp83
a(I1693
I6
tp84
a(I5887
I6
tp85
a(I7330
I6
tp86
a(I2483
I6
tp87
a(I297
I6
tp88
a(I2350
I6
tp89
a(I1325
I6
tp90
a(I2176
I6
tp91
a(I2866
I6
tp92
a(I3297
I6
tp93
a(I1091
I6
tp94
a(I2806
I6
tp95
a(I4680
I6
tp96
a(I1623
I6
tp97
a(I3164
I6
tp98
a(I2315
I6
tp99
a(I6078
I6
tp100
a(I5053
I6
tp101
a(I3242
I6
tp102
a(I3743
I6
tp103
a(I6734
I6
tp104
a(I5709
I6
tp105
a(I3154
I6
tp106
a(I257
I6
tp107
a(I1972
I6
tp108
a(I4378
I6
tp109
a(I6524
I6
tp110
a(I6192
I6
tp111
a(I6618
I6
tp112
a(I4676
I6
tp113
a(I6131
I6
tp114
a(I3494
I6
tp115
a(I6565
I6
tp116
a(I2311
I6
tp117
a(I6489
I6
tp118
a(I6331
I6
tp119
a(I2767
I6
tp120
a(I6514
I6
tp121
a(I212
I6
tp122
a(I4666
I6
tp123
a(I5456
I6
tp124
a(I4140
I6
tp125
a(I910
I6
tp126
a(I3474
I6
tp127
a(I1882
I6
tp128
a(I4105
I6
tp129
a(I1724
I6
tp130
a(I6251
I6
tp131
a(I1566
I6
tp132
a(I6605
I6
tp133
a(I6783
I6
tp134
a(I900
I6
tp135
a(I3046
I6
tp136
a(I2872
I6
tp137
a(I3911
I6
tp138
a(I3835
I6
tp139
a(I15
I6
tp140
a(I3702
I6
tp141
a(I2677
I6
tp142
a(I122
I6
tp143
a(I3369
I6
tp144
a(I6974
I6
tp145
a(I6800
I6
tp146
a(I1695
I6
tp147
a(I6371
I6
tp148
a(I5715
I6
tp149
a(I2640
I6
tp150
a(I6247
I6
tp151
a(I5049
I6
tp152
a(I4891
I6
tp153
a(I5581
I6
tp154
a(I4384
I6
tp155
a(I3375
I6
tp156
a(I5347
I6
tp157
a(I2792
I6
tp158
a(I5879
I6
tp159
a(I5705
I6
tp160
a(I5372
I6
tp161
a(I427
I6
tp162
a(I6237
I6
tp163
a(I1968
I6
tp164
a(I5730
I6
tp165
a(I6729
I6
tp166
a(I6954
I6
tp167
a(I7385
I6
tp168
a(I4748
I6
tp169
a(I1083
I6
tp170
a(I2798
I6
tp171
a(I1773
I6
tp172
a(I4523
I6
tp173
a(I791
I6
tp174
a(I6238
I6
tp175
a(I284
I6
tp176
a(I208
I6
tp177
a(I1247
I6
tp178
a(I2788
I6
tp179
a(I4678
I6
tp180
a(I4519
I6
tp181
a(I7240
I6
tp182
a(I4660
I6
tp183
a(I214
I6
tp184
a(I3127
I6
tp185
a(I6874
I6
tp186
a(I4509
I6
tp187
a(I1520
I6
tp188
a(I2559
I6
tp189
a(I7013
I6
tp190
a(I2759
I6
tp191
a(I4633
I6
tp192
a(I4731
I6
tp193
a(I2094
I6
tp194
a(I7009
I6
tp195
a(I1428
I6
tp196
a(I1526
I6
tp197
a(I3400
I6
tp198
a(I2391
I6
tp199
a(I5980
I6
tp200
a(I6257
I6
tp201
a(I2084
I6
tp202
a(I6021
I6
tp203
a(I5718
I6
tp204
a(I1849
I6
tp205
a(I3564
I6
tp206
a(I6796
I6
tp207
a(I962
I6
tp208
a(I2049
I6
tp209
a(I2147
I6
tp210
a(I3606
I6
tp211
a(I5736
I6
tp212
a(I631
I6
tp213
a(I750
I6
tp214
a(I124
I6
tp215
a(I1323
I6
tp216
a(I3038
I6
tp217
a(I4912
I6
tp218
a(I3396
I6
tp219
a(I7334
I6
tp220
a(I2213
I6
tp221
a(I3003
I6
tp222
a(I1646
I6
tp223
a(I6765
I6
tp224
a(I2496
I6
tp225
a(I1313
I6
tp226
a(I5251
I6
tp227
a(I4918
I6
tp228
a(I6792
I6
tp229
a(I1769
I6
tp230
a(I6397
I6
tp231
a(I5917
I6
tp232
a(I6239
I6
tp233
a(I1538
I6
tp234
a(I5041
I6
tp235
a(I280
I6
tp236
a(I5066
I6
tp237
a(I2860
I6
tp238
a(I7338
I6
tp239
a(I4515
I6
tp240
a(I5206
I6
tp241
a(I1309
I6
tp242
a(I3455
I6
tp243
a(I4740
I6
tp244
a(I5171
I6
tp245
a(I1607
I6
tp246
a(I3306
I6
tp247
a(I7244
I6
tp248
a(I4380
I6
tp249
a(I5037
I6
tp250
a(I1792
I6
tp251
a(I783
I6
tp252
a(I865
I6
tp253
a(I6420
I6
tp254
a(I2248
I6
tp255
a(I5335
I6
tp256
a(I7034
I6
tp257
a(I7209
I6
tp258
a(I732
I6
tp259
a(I5186
I6
tp260
a(I2821
I6
tp261
a(I7015
I6
tp262
a(I3515
I6
tp263
a(I2745
I6
tp264
a(I6176
I6
tp265
a(I564
I6
tp266
a(I1430
I6
tp267
a(I1946
I6
tp268
a(I7005
I6
tp269
a(I3760
I6
tp270
a(I2751
I6
tp271
a(I2402
I6
tp272
a(I196
I6
tp273
a(I6400
I6
tp274
a(I1851
I6
tp275
a(I2741
I6
tp276
a(I4631
I6
tp277
a(I2665
I6
tp278
a(I28
I6
tp279
a(I4884
I6
tp280
a(I4063
I6
tp281
a(I5937
I6
tp282
a(I3556
I6
tp283
a(I1683
I6
tp284
a(I6006
I6
tp285
a(I3756
I6
tp286
a(I2005
I6
tp287
a(I4904
I6
tp288
a(I1498
I6
tp289
a(I4253
I6
tp290
a(I4877
I6
tp291
a(I3746
I6
tp292
a(I1540
I6
tp293
a(I4536
I6
tp294
a(I1479
I6
tp295
a(I5401
I6
tp296
a(I3020
I6
tp297
a(I3451
I6
tp298
a(I4736
I6
tp299
a(I245
I6
tp300
a(I5192
I6
tp301
a(I937
I6
tp302
a(I3359
I6
tp303
a(I3010
I6
tp304
a(I6790
I6
tp305
a(I5689
I6
tp306
a(I4173
I6
tp307
a(I436
I6
tp308
a(I7280
I6
tp309
a(I5853
I6
tp310
a(I560
I6
tp311
a(I1599
I6
tp312
a(I3298
I6
tp313
a(I4871
I6
tp314
a(I426
I6
tp315
a(I268
I6
tp316
a(I2747
I6
tp317
a(I5327
I6
tp318
a(I2772
I6
tp319
a(I407
I6
tp320
a(I4510
I6
tp321
a(I489
I6
tp322
a(I1948
I6
tp323
a(I3920
I6
tp324
a(I2911
I6
tp325
a(I4452
I6
tp326
a(I4294
I6
tp327
a(I1221
I6
tp328
a(I556
I6
tp329
a(I4581
I6
tp330
a(I1878
I6
tp331
a(I6551
I6
tp332
a(I1053
I6
tp333
a(I5837
I6
tp334
a(I7226
I6
tp335
a(I485
I6
tp336
a(I5432
I6
tp337
a(I251
I6
tp338
a(I178
I6
tp339
a(I3523
I6
tp340
a(I6262
I6
tp341
a(I6103
I6
tp342
a(I6778
I6
tp343
a(I317
I6
tp344
a(I7312
I6
tp345
a(I3906
I6
tp346
a(I1700
I6
tp347
a(I6661
I6
tp348
a(I6154
I6
tp349
a(I1465
I6
tp350
a(I5403
I6
tp351
a(I6093
I6
tp352
a(I2848
I6
tp353
a(I5935
I6
tp354
a(I3811
I6
tp355
a(I149
I6
tp356
a(I5786
I6
tp357
a(I7266
I6
tp358
a(I2480
I6
tp359
a(I5567
I6
tp360
a(I98
I6
tp361
a(I3345
I6
tp362
a(I3012
I6
tp363
a(I3877
I6
tp364
a(I888
I6
tp365
a(I1671
I6
tp366
a(I1322
I6
tp367
a(I7055
I6
tp368
a(I3269
I6
tp369
a(I4867
I6
tp370
a(I6408
I6
tp371
a(I1385
I6
tp372
a(I6940
I6
tp373
a(I6013
I6
tp374
a(I5681
I6
tp375
a(I6320
I6
tp376
a(I935
I6
tp377
a(I428
I6
tp378
a(I2400
I6
tp379
a(I1391
I6
tp380
a(I786
I6
tp381
a(I6870
I6
tp382
a(I5845
I6
tp383
a(I2065
I6
tp384
a(I2441
I6
tp385
a(I6487
I6
tp386
a(I2973
I6
tp387
a(I6562
I6
tp388
a(I6259
I6
tp389
a(I4454
I6
tp390
a(I1408
I6
tp391
a(I399
I6
tp392
a(I5170
I6
tp393
a(I6134
I6
tp394
a(I3244
I6
tp395
a(I7281
I6
tp396
a(I5510
I6
tp397
a(I389
I6
tp398
a(I4583
I6
tp399
a(I1930
I6
tp400
a(I908
I6
tp401
a(I845
I6
tp402
a(I5792
I6
tp403
a(I6657
I6
tp404
a(I2659
I6
tp405
a(I7134
I6
tp406
a(I4200
I6
tp407
a(I4132
I6
tp408
a(I2725
I6
tp409
a(I2060
I6
tp410
a(I1467
I6
tp411
a(I1692
I6
tp412
a(I3664
I6
tp413
a(I6146
I6
tp414
a(I1299
I6
tp415
a(I4413
I6
tp416
a(I3897
I6
tp417
a(I1831
I6
tp418
a(I6009
I6
tp419
a(I5420
I6
tp420
a(I3221
I6
tp421
a(I1682
I6
tp422
a(I65
I6
tp423
a(I1780
I6
tp424
a(I3670
I6
tp425
a(I2645
I6
tp426
a(I1387
I6
tp427
a(I1821
I6
tp428
a(I7024
I6
tp429
a(I3967
I6
tp430
a(I1314
I6
tp431
a(I7300
I6
tp432
a(I3302
I6
tp433
a(I3128
I6
tp434
a(I71
I6
tp435
a(I1019
I6
tp436
a(I5549
I6
tp437
a(I256
I6
tp438
a(I3343
I6
tp439
a(I1377
I6
tp440
a(I788
I6
tp441
a(I3957
I6
tp442
a(I4808
I6
tp443
a(I1751
I6
tp444
a(I7230
I6
tp445
a(I2899
I6
tp446
a(I6608
I6
tp447
a(I3333
I6
tp448
a(I4874
I6
tp449
a(I3789
I6
tp450
a(I5290
I6
tp451
a(I6529
I6
tp452
a(I6395
I6
tp453
a(I6120
I6
tp454
a(I1015
I6
tp455
a(I2679
I6
tp456
a(I350
I6
tp457
a(I3621
I6
tp458
a(I3263
I6
tp459
a(I4962
I6
tp460
a(I4646
I6
tp461
a(I1573
I6
tp462
a(I391
I6
tp463
a(I7210
I6
tp464
a(I6268
I6
tp465
a(I3904
I6
tp466
a(I2721
I6
tp467
a(I4104
I6
tp468
a(I2746
I6
tp469
a(I4043
I6
tp470
a(I2686
I6
tp471
a(I1488
I6
tp472
a(I6595
I6
tp473
a(I6291
I6
tp474
a(I5784
I6
tp475
a(I6474
I6
tp476
a(I761
I6
tp477
a(I4699
I6
tp478
a(I14
I6
tp479
a(I2517
I6
tp480
a(I1320
I6
tp481
a(I6106
I6
tp482
a(I4331
I6
tp483
a(I3824
I6
tp484
a(I6306
I6
tp485
a(I4
I6
tp486
a(I618
I6
tp487
a(I5580
I6
tp488
a(I143
I6
tp489
a(I6795
I6
tp490
a(I6211
I6
tp491
a(I6743
I6
tp492
a(I2298
I6
tp493
a(I3339
I6
tp494
a(I6077
I6
tp495
a(I784
I6
tp496
a(I3364
I6
tp497
a(I5019
I6
tp498
a(I3662
I6
tp499
a(I6733
I6
tp500
a(I4565
I6
tp501
a(I7099
I6
tp502
a(I7216
I6
tp503
a(I6567
I6
tp504
a(I4544
I6
tp505
a(I2552
I6
tp506
a(I1369
I6
tp507
a(I2876
I6
tp508
a(I2752
I6
tp509
a(I3791
I6
tp510
a(I3617
I6
tp511
a(I4149
I6
tp512
a(I6556
I6
tp513
a(I510
I6
tp514
a(I5789
I6
tp515
a(I2916
I6
tp516
a(I7187
I6
tp517
a(I1575
I6
tp518
a(I6966
I6
tp519
a(I3705
I6
tp520
a(I1068
I6
tp521
a(I6030
I6
tp522
a(I909
I6
tp523
a(I2881
I6
tp524
a(I3413
I6
tp525
a(I2748
I6
tp526
a(I624
I6
tp527
a(I3106
I6
tp528
a(I4561
I6
tp529
a(I4403
I6
tp530
a(I2022
I6
tp531
a(I5944
I6
tp532
a(I490
I6
tp533
a(I2380
I6
tp534
a(I2222
I6
tp535
a(I6731
I6
tp536
a(I6083
I6
tp537
a(I630
I6
tp538
a(I1653
I6
tp539
a(I6615
I6
tp540
a(I2345
I6
tp541
a(I4925
I6
tp542
a(I1680
I6
tp543
a(I671
I6
tp544
a(I595
I6
tp545
a(I4184
I6
tp546
a(I4716
I6
tp547
a(I461
I6
tp548
a(I1312
I6
tp549
a(I2351
I6
tp550
a(I4225
I6
tp551
a(I4323
I6
tp552
a(I5864
I6
tp553
a(I2807
I6
tp554
a(I2202
I6
tp555
a(I4681
I6
tp556
a(I4190
I6
tp557
a(I3047
I6
tp558
a(I5905
I6
tp559
a(I1907
I6
tp560
a(I4389
I6
tp561
a(I6361
I6
tp562
a(I2797
I6
tp563
a(I3648
I6
tp564
a(I6735
I6
tp565
a(I2290
I6
tp566
a(I1441
I6
tp567
a(I3331
I6
tp568
a(I6424
I6
tp569
a(I6920
I6
tp570
a(I1466
I6
tp571
a(I5702
I6
tp572
a(I4677
I6
tp573
a(I3577
I6
tp574
a(I940
I6
tp575
a(I4960
I6
tp576
a(I7043
I6
tp577
a(I3619
I6
tp578
a(I6357
I6
tp579
a(I905
I6
tp580
a(I1596
I6
tp581
a(I5099
I6
tp582
a(I414
I6
tp583
a(I3409
I6
tp584
a(I6916
I6
tp585
a(I2744
I6
tp586
a(I7214
I6
tp587
a(I4293
I6
tp588
a(I911
I6
tp589
a(I3634
I6
tp590
a(I6411
I6
tp591
a(I6062
I6
tp592
a(I1525
I6
tp593
a(I1035
I6
tp594
a(I2750
I6
tp595
a(I528
I6
tp596
a(I1218
I6
tp597
a(I4563
I6
tp598
a(I6022
I6
tp599
a(I999
I6
tp600
a(I4588
I6
tp601
a(I850
I6
tp602
a(I692
I6
tp603
a(I5653
I6
tp604
a(I3703
I6
tp605
a(I457
I6
tp606
a(I3037
I6
tp607
a(I831
I6
tp608
a(I6626
I6
tp609
a(I7094
I6
tp610
a(I2803
I6
tp611
a(I6310
I6
tp612
a(I1472
I6
tp613
a(I6433
I6
tp614
a(I6300
I6
tp615
a(I4683
I6
tp616
a(I6398
I6
tp617
a(I1277
I6
tp618
a(I3357
I6
tp619
a(I1969
I6
tp620
a(I6597
I6
tp621
a(I1304
I6
tp622
a(I6363
I6
tp623
a(I6892
I6
tp624
a(I437
I6
tp625
a(I6429
I6
tp626
a(I6527
I6
tp627
a(I1826
I6
tp628
a(I4305
I6
tp629
a(I3716
I6
tp630
a(I51
I6
tp631
a(I1766
I6
tp632
a(I4679
I6
tp633
a(I1965
I6
tp634
a(I5202
I6
tp635
a(I5985
I6
tp636
a(I1300
I6
tp637
a(I3779
I6
tp638
a(I6401
I6
tp639
a(I6185
I6
tp640
a(I907
I6
tp641
a(I3487
I6
tp642
a(I5028
I6
tp643
a(I774
I6
tp644
a(I1895
I6
tp645
a(I3338
I6
tp646
a(I5484
I6
tp647
a(I5326
I6
tp648
a(I2253
I6
tp649
a(I5152
I6
tp650
a(I6191
I6
tp651
a(I5091
I6
tp652
a(I3840
I6
tp653
a(I2970
I6
tp654
a(I5449
I6
tp655
a(I5116
I6
tp656
a(I1195
I6
tp657
a(I4958
I6
tp658
a(I3933
I6
tp659
a(I688
I6
tp660
a(I5474
I6
tp661
a(I1651
I6
tp662
a(I1062
I6
tp663
a(I7288
I6
tp664
a(I1578
I6
tp665
a(I2368
I6
tp666
a(I2900
I6
tp667
a(I6838
I6
tp668
a(I2568
I6
tp669
a(I1559
I6
tp670
a(I3689
I6
tp671
a(I5751
I6
tp672
a(I6530
I6
tp673
a(I2707
I6
tp674
a(I5211
I6
tp675
a(I2574
I6
tp676
a(I3597
I6
tp677
a(I2522
I6
tp678
a(I2697
I6
tp679
a(I6460
I6
tp680
a(I7325
I6
tp681
a(I240
I6
tp682
a(I1971
I6
tp683
a(I6425
I6
tp684
a(I1664
I6
tp685
a(I148
I6
tp686
a(I579
I6
tp687
a(I4359
I6
tp688
a(I5899
I6
tp689
a(I3518
I6
tp690
a(I3344
I6
tp691
a(I2259
I6
tp692
a(I2693
I6
tp693
a(I1752
I6
tp694
a(I2791
I6
tp695
a(I3798
I6
tp696
a(I6380
I6
tp697
a(I1967
I6
tp698
a(I5987
I6
tp699
a(I1302
I6
tp700
a(I3432
I6
tp701
a(I2423
I6
tp702
a(I3964
I6
tp703
a(I7076
I6
tp704
a(I2623
I6
tp705
a(I4870
I6
tp706
a(I5977
I6
tp707
a(I5839
I6
tp708
a(I4869
I6
tp709
a(I4129
I6
tp710
a(I899
I6
tp711
a(I1590
I6
tp712
a(I4661
I6
tp713
a(I6051
I6
tp714
a(I3403
I6
tp715
a(I925
I6
tp716
a(I3935
I6
tp717
a(I1282
I6
tp718
a(I1713
I6
tp719
a(I3270
I6
tp720
a(I2245
I6
tp721
a(I2446
I6
tp722
a(I480
I6
tp723
a(I5615
I6
tp724
a(I4794
I6
tp725
a(I7331
I6
tp726
a(I2728
I6
tp727
a(I1719
I6
tp728
a(I3418
I6
tp729
a(I3593
I6
tp730
a(I6404
I6
tp731
a(I6173
I6
tp732
a(I1136
I6
tp733
a(I388
I6
tp734
a(I2734
I6
tp735
a(I2560
I6
tp736
a(I5298
I6
tp737
a(I5729
I6
tp738
a(I2499
I6
tp739
a(I6261
I6
tp740
a(I476
I6
tp741
a(I651
I6
tp742
a(I318
I6
tp743
a(I5437
I6
tp744
a(I3155
I6
tp745
a(I3478
I6
tp746
a(I6427
I6
tp747
a(I7117
I6
tp748
a(I1824
I6
tp749
a(I4562
I6
tp750
a(I2689
I6
tp751
a(I6452
I6
tp752
a(I2198
I6
tp753
a(I1173
I6
tp754
a(I5552
I6
tp755
a(I5018
I6
tp756
a(I273
I6
tp757
a(I5926
I6
tp758
a(I2853
I6
tp759
a(I2619
I6
tp760
a(I6382
I6
tp761
a(I4160
I6
tp762
a(I1103
I6
tp763
a(I2802
I6
tp764
a(I6049
I6
tp765
a(I3243
I6
tp766
a(I1795
I6
tp767
a(I1462
I6
tp768
a(I2485
I6
tp769
a(I6423
I6
tp770
a(I1820
I6
tp771
a(I3899
I6
tp772
a(I5840
I6
tp773
a(I6274
I6
tp774
a(I6372
I6
tp775
a(I2968
I6
tp776
a(I4682
I6
tp777
a(I1294
I6
tp778
a(I1376
I6
tp779
a(I2415
I6
tp780
a(I4289
I6
tp781
a(I1750
I6
tp782
a(I5672
I6
tp783
a(I6362
I6
tp784
a(I3465
I6
tp785
a(I6204
I6
tp786
a(I7053
I6
tp787
a(I2047
I6
tp788
a(I1284
I6
tp789
a(I5811
I6
tp790
a(I2405
I6
tp791
a(I2247
I6
tp792
a(I3788
I6
tp793
a(I4444
I6
tp794
a(I557
I6
tp795
a(I5519
I6
tp796
a(I3395
I6
tp797
a(I6133
I6
tp798
a(I3578
I6
tp799
a(I3595
I6
tp800
asS'runtime'
p801
F0.010537862777709961
sS'name'
p802
S'["regex", [["actors", "[z]", "OM"]]]'
p803
s.