(dp0
S'output'
p1
(lp2
(I1114
I15
tp3
a(I1173
I15
tp4
a(I3870
I15
tp5
a(I3657
I15
tp6
a(I5732
I15
tp7
a(I1389
I15
tp8
a(I3766
I15
tp9
a(I2399
I15
tp10
a(I7224
I15
tp11
asS'runtime'
p12
F0.006124019622802734
sS'name'
p13
S'["regex", [["filming_locations", "[\\u00fc]", "OM"]]]'
p14
s.