(dp0
S'output'
p1
(lp2
(I2411
I7
tp3
a(I4998
I7
tp4
a(I1290
I7
tp5
a(I5735
I7
tp6
a(I2226
I7
tp7
a(I7063
I7
tp8
a(I3401
I7
tp9
asS'runtime'
p10
F0.0067670345306396484
sS'name'
p11
S'["regex", [["full_cast", "[\\u00fb]", "OM"]]]'
p12
s.