(dp0
S'output'
p1
(lp2
(I4194
I6
tp3
a(I423
I6
tp4
a(I59
I6
tp5
a(I500
I6
tp6
a(I4885
I6
tp7
a(I4956
I6
tp8
a(I6996
I6
tp9
asS'runtime'
p10
F0.00632786750793457
sS'name'
p11
S'["regex", [["actors", "[\\u00e5]", "OM"]]]'
p12
s.