(dp0
S'output'
p1
(lp2
(I5464
I9
tp3
a(I2373
I9
tp4
a(I5818
I9
tp5
a(I6840
I9
tp6
a(I2914
I9
tp7
a(I354
I9
tp8
a(I351
I9
tp9
a(I4857
I9
tp10
a(I7356
I9
tp11
a(I2554
I9
tp12
a(I4087
I9
tp13
a(I180
I9
tp14
a(I346
I9
tp15
a(I4084
I9
tp16
a(I5102
I9
tp17
a(I5004
I9
tp18
a(I4121
I9
tp19
a(I3530
I9
tp20
a(I4007
I9
tp21
asS'runtime'
p22
F0.005978822708129883
sS'name'
p23
S'["regex", [["country", "[E]", "OM"]]]'
p24
s.