(dp0
S'output'
p1
(lp2
(I3704
I9
tp3
a(I5400
I9
tp4
a(I518
I9
tp5
a(I6507
I9
tp6
a(I3460
I9
tp7
a(I322
I9
tp8
a(I3957
I9
tp9
a(I720
I9
tp10
a(I6660
I9
tp11
a(I1483
I9
tp12
a(I6492
I9
tp13
a(I2281
I9
tp14
a(I1658
I9
tp15
a(I1013
I9
tp16
a(I387
I9
tp17
a(I180
I9
tp18
a(I1473
I9
tp19
a(I2098
I9
tp20
a(I864
I9
tp21
a(I4461
I9
tp22
a(I682
I9
tp23
asS'runtime'
p24
F0.00601506233215332
sS'name'
p25
S'["regex", [["country", "[P]", "OM"]]]'
p26
s.