(dp0
S'output'
p1
(lp2
(I915
I8
tp3
a(I1235
I8
tp4
a(I17
I8
tp5
a(I4120
I8
tp6
a(I4415
I8
tp7
a(I3942
I8
tp8
a(I1636
I8
tp9
a(I4905
I8
tp10
a(I2007
I8
tp11
a(I6282
I8
tp12
a(I4184
I8
tp13
a(I2163
I8
tp14
a(I1970
I8
tp15
a(I3271
I8
tp16
asS'runtime'
p17
F0.0060350894927978516
sS'name'
p18
S'["regex", [["language", "[y]", "OM"]]]'
p19
s.