(dp0
S'output'
p1
(lp2
(I1813
I15
tp3
a(I510
I15
tp4
a(I443
I15
tp5
a(I6372
I15
tp6
a(I3480
I15
tp7
a(I6364
I15
tp8
a(I3816
I15
tp9
a(I2384
I15
tp10
a(I1689
I15
tp11
a(I2310
I15
tp12
a(I392
I15
tp13
a(I6103
I15
tp14
asS'runtime'
p15
F0.005937814712524414
sS'name'
p16
S'["regex", [["filming_locations", "[\\u00ed]", "OM"]]]'
p17
s.