(dp0
S'output'
p1
(lp2
(I6086
I3
tp3
a(I3649
I3
tp4
a(I3378
I3
tp5
a(I5690
I3
tp6
a(I5109
I3
tp7
a(I294
I3
tp8
a(I3640
I3
tp9
a(I3697
I3
tp10
a(I6114
I3
tp11
a(I3699
I3
tp12
a(I6193
I3
tp13
a(I1746
I3
tp14
a(I6346
I3
tp15
a(I3355
I3
tp16
asS'runtime'
p17
F0.006052970886230469
sS'name'
p18
S'["regex", [["release_date", "[H]", "OM"]]]'
p19
s.