(dp0
S'output'
p1
(lp2
(I1781
I15
tp3
a(I3460
I15
tp4
a(I2454
I15
tp5
a(I1747
I15
tp6
a(I3257
I15
tp7
a(I3458
I15
tp8
a(I6100
I15
tp9
a(I3549
I15
tp10
a(I2248
I15
tp11
asS'runtime'
p12
F0.006021022796630859
sS'name'
p13
S'["regex", [["filming_locations", "[\\u00f3]", "OM"]]]'
p14
s.