(dp0
S'output'
p1
(lp2
(I2528
I1
tp3
a(I2752
I1
tp4
a(I2270
I1
tp5
a(I1947
I1
tp6
a(I5673
I1
tp7
a(I3917
I1
tp8
a(I1653
I1
tp9
a(I4963
I1
tp10
a(I881
I1
tp11
a(I6063
I1
tp12
a(I6672
I1
tp13
a(I6550
I1
tp14
a(I761
I1
tp15
a(I1943
I1
tp16
a(I4050
I1
tp17
a(I4886
I1
tp18
a(I1875
I1
tp19
a(I6209
I1
tp20
a(I2066
I1
tp21
asS'runtime'
p22
F0.011876106262207031
sS'name'
p23
S'["regex", [["name", "[6]", "OM"]]]'
p24
s.