(dp0
S'output'
p1
(lp2
(I2128
I8
tp3
a(I6566
I8
tp4
a(I5949
I8
tp5
a(I2274
I8
tp6
a(I1780
I8
tp7
a(I1077
I8
tp8
a(I1404
I8
tp9
a(I3131
I8
tp10
a(I1377
I8
tp11
a(I2136
I8
tp12
a(I2125
I8
tp13
a(I1428
I8
tp14
a(I2459
I8
tp15
a(I4210
I8
tp16
a(I1248
I8
tp17
a(I5159
I8
tp18
asS'runtime'
p19
F0.006041049957275391
sS'name'
p20
S'["regex", [["language", "[z]", "OM"]]]'
p21
s.