(dp0
S'output'
p1
(lp2
(I1306
I0
tp3
a(I1745
I0
tp4
a(I4806
I0
tp5
a(I7275
I0
tp6
a(I6146
I0
tp7
a(I7365
I0
tp8
a(I1400
I0
tp9
asS'runtime'
p10
F0.0058400630950927734
sS'name'
p11
S'["regex", [["id", "[x]", "OM"]]]'
p12
s.