(dp0
S'output'
p1
(lp2
(I1636
I8
tp3
a(I4299
I8
tp4
a(I538
I8
tp5
a(I3432
I8
tp6
a(I4210
I8
tp7
a(I1970
I8
tp8
a(I4110
I8
tp9
a(I5797
I8
tp10
asS'runtime'
p11
F0.006042003631591797
sS'name'
p12
S'["regex", [["language", "[-]", "OM"]]]'
p13
s.