(dp0
S'output'
p1
(lp2
(I3895
I4
tp3
a(I4134
I4
tp4
a(I1637
I4
tp5
a(I5556
I4
tp6
a(I6360
I4
tp7
a(I3519
I4
tp8
a(I2244
I4
tp9
a(I4914
I4
tp10
a(I3128
I4
tp11
a(I2069
I4
tp12
a(I6364
I4
tp13
a(I6353
I4
tp14
a(I6845
I4
tp15
a(I1408
I4
tp16
a(I3983
I4
tp17
a(I6519
I4
tp18
a(I3796
I4
tp19
a(I2243
I4
tp20
a(I4898
I4
tp21
a(I5585
I4
tp22
a(I1480
I4
tp23
asS'runtime'
p24
F0.005940914154052734
sS'name'
p25
S'["regex", [["director", "[\\u00e1]", "OM"]]]'
p26
s.