(dp0
S'output'
p1
(lp2
(I6278
I9
tp3
a(I4115
I9
tp4
a(I5540
I9
tp5
a(I5951
I9
tp6
a(I6691
I9
tp7
a(I6332
I9
tp8
a(I2435
I9
tp9
a(I899
I9
tp10
a(I1504
I9
tp11
a(I6020
I9
tp12
a(I4460
I9
tp13
a(I6759
I9
tp14
asS'runtime'
p15
F0.006036996841430664
sS'name'
p16
S'["regex", [["country", "[D]", "OM"]]]'
p17
s.