(dp0
S'output'
p1
(lp2
(I6833
I6
tp3
a(I179
I6
tp4
a(I6253
I6
tp5
a(I4437
I6
tp6
a(I7233
I6
tp7
a(I4022
I6
tp8
a(I1045
I6
tp9
a(I1547
I6
tp10
asS'runtime'
p11
F0.006087064743041992
sS'name'
p12
S'["regex", [["actors", "[\\u00fc]", "OM"]]]'
p13
s.