(dp0
S'output'
p1
(lp2
(I3959
I4
tp3
a(I5975
I4
tp4
a(I4764
I4
tp5
a(I842
I4
tp6
a(I5145
I4
tp7
a(I255
I4
tp8
a(I5070
I4
tp9
a(I6948
I4
tp10
a(I3155
I4
tp11
a(I4834
I4
tp12
a(I1735
I4
tp13
a(I629
I4
tp14
a(I1548
I4
tp15
a(I4283
I4
tp16
a(I6554
I4
tp17
a(I6217
I4
tp18
a(I2991
I4
tp19
a(I1086
I4
tp20
a(I3709
I4
tp21
a(I1090
I4
tp22
a(I3869
I4
tp23
asS'runtime'
p24
F0.005937814712524414
sS'name'
p25
S'["regex", [["director", "[U]", "OM"]]]'
p26
s.