(dp0
S'output'
p1
(lp2
(I2963
I8
tp3
a(I5949
I8
tp4
a(I1245
I8
tp5
a(I2244
I8
tp6
a(I4252
I8
tp7
a(I3674
I8
tp8
a(I257
I8
tp9
a(I5934
I8
tp10
a(I6063
I8
tp11
a(I1293
I8
tp12
a(I6318
I8
tp13
a(I2158
I8
tp14
a(I5445
I8
tp15
asS'runtime'
p16
F0.0059261322021484375
sS'name'
p17
S'["regex", [["language", "[B]", "OM"]]]'
p18
s.