(dp0
S'output'
p1
(lp2
(I2076
I5
tp3
a(I5585
I5
tp4
a(I3895
I5
tp5
a(I7262
I5
tp6
a(I3662
I5
tp7
a(I3897
I5
tp8
a(I3519
I5
tp9
a(I3500
I5
tp10
a(I6519
I5
tp11
a(I1408
I5
tp12
a(I3134
I5
tp13
a(I2740
I5
tp14
a(I585
I5
tp15
a(I4898
I5
tp16
a(I392
I5
tp17
a(I6845
I5
tp18
asS'runtime'
p19
F0.006070852279663086
sS'name'
p20
S'["regex", [["creator", "[\\u00e1]", "OM"]]]'
p21
s.