(dp0
S'output'
p1
(lp2
(I3219
I9
tp3
a(I1886
I9
tp4
a(I6507
I9
tp5
a(I5397
I9
tp6
a(I1331
I9
tp7
a(I7028
I9
tp8
a(I1923
I9
tp9
asS'runtime'
p10
F0.0059850215911865234
sS'name'
p11
S'["regex", [["country", "[L]", "OM"]]]'
p12
s.