(dp0
S'output'
p1
(lp2
(I5700
I5
tp3
a(I461
I5
tp4
a(I1613
I5
tp5
a(I7303
I5
tp6
a(I5915
I5
tp7
a(I2772
I5
tp8
a(I3229
I5
tp9
a(I5094
I5
tp10
asS'runtime'
p11
F0.0060122013092041016
sS'name'
p12
S'["regex", [["creator", "[X]", "OM"]]]'
p13
s.