(dp0
S'output'
p1
(lp2
(I243
I8
tp3
a(I3601
I8
tp4
a(I3672
I8
tp5
a(I351
I8
tp6
a(I1892
I8
tp7
a(I2155
I8
tp8
a(I6012
I8
tp9
a(I311
I8
tp10
a(I4892
I8
tp11
a(I5057
I8
tp12
a(I4991
I8
tp13
a(I256
I8
tp14
a(I6985
I8
tp15
a(I3372
I8
tp16
asS'runtime'
p17
F0.005898952484130859
sS'name'
p18
S'["regex", [["language", "[U]", "OM"]]]'
p19
s.