(dp0
S'output'
p1
(lp2
(I1795
I15
tp3
a(I4199
I15
tp4
a(I2904
I15
tp5
a(I427
I15
tp6
a(I785
I15
tp7
a(I922
I15
tp8
a(I6058
I15
tp9
a(I3328
I15
tp10
a(I5869
I15
tp11
a(I3958
I15
tp12
a(I2268
I15
tp13
a(I6638
I15
tp14
a(I552
I15
tp15
a(I6052
I15
tp16
a(I6670
I15
tp17
a(I2461
I15
tp18
a(I5670
I15
tp19
a(I337
I15
tp20
a(I2522
I15
tp21
a(I21
I15
tp22
a(I4254
I15
tp23
a(I5618
I15
tp24
a(I3512
I15
tp25
a(I3886
I15
tp26
a(I898
I15
tp27
a(I2196
I15
tp28
a(I838
I15
tp29
a(I1470
I15
tp30
a(I5727
I15
tp31
a(I4174
I15
tp32
a(I2475
I15
tp33
a(I1460
I15
tp34
a(I1955
I15
tp35
a(I3003
I15
tp36
a(I4164
I15
tp37
a(I2943
I15
tp38
a(I7260
I15
tp39
a(I6041
I15
tp40
a(I6594
I15
tp41
a(I2833
I15
tp42
a(I4230
I15
tp43
a(I7012
I15
tp44
a(I2440
I15
tp45
a(I3488
I15
tp46
a(I6179
I15
tp47
a(I7250
I15
tp48
a(I1243
I15
tp49
a(I2446
I15
tp50
a(I4834
I15
tp51
a(I4971
I15
tp52
a(I3418
I15
tp53
a(I7009
I15
tp54
a(I5130
I15
tp55
a(I5267
I15
tp56
a(I3833
I15
tp57
a(I2909
I15
tp58
a(I6023
I15
tp59
a(I6364
I15
tp60
a(I4394
I15
tp61
a(I6418
I15
tp62
a(I4334
I15
tp63
a(I2326
I15
tp64
a(I2336
I15
tp65
a(I228
I15
tp66
a(I2968
I15
tp67
a(I723
I15
tp68
a(I5390
I15
tp69
a(I3956
I15
tp70
a(I294
I15
tp71
a(I5672
I15
tp72
a(I81
I15
tp73
a(I355
I15
tp74
a(I926
I15
tp75
a(I5575
I15
tp76
a(I1284
I15
tp77
a(I3885
I15
tp78
a(I208
I15
tp79
a(I2322
I15
tp80
a(I6221
I15
tp81
a(I6495
I15
tp82
a(I6853
I15
tp83
a(I6777
I15
tp84
a(I3115
I15
tp85
a(I4079
I15
tp86
a(I3176
I15
tp87
a(I6545
I15
tp88
a(I6485
I15
tp89
a(I4992
I15
tp90
a(I562
I15
tp91
a(I2021
I15
tp92
a(I6571
I15
tp93
a(I2242
I15
tp94
a(I2184
I15
tp95
a(I5059
I15
tp96
a(I5612
I15
tp97
a(I629
I15
tp98
a(I6107
I15
tp99
a(I3241
I15
tp100
a(I3606
I15
tp101
a(I2369
I15
tp102
a(I4554
I15
tp103
a(I124
I15
tp104
a(I5049
I15
tp105
a(I756
I15
tp106
a(I5423
I15
tp107
a(I2496
I15
tp108
a(I2299
I15
tp109
a(I4842
I15
tp110
a(I4979
I15
tp111
a(I62
I15
tp112
a(I873
I15
tp113
a(I5206
I15
tp114
a(I1247
I15
tp115
a(I5464
I15
tp116
a(I1802
I15
tp117
a(I4975
I15
tp118
a(I2285
I15
tp119
a(I6518
I15
tp120
a(I511
I15
tp121
a(I4069
I15
tp122
a(I1090
I15
tp123
a(I6866
I15
tp124
a(I2591
I15
tp125
a(I5313
I15
tp126
a(I158
I15
tp127
a(I5942
I15
tp128
a(I2344
I15
tp129
a(I4629
I15
tp130
a(I6625
I15
tp131
a(I6280
I15
tp132
a(I4185
I15
tp133
a(I1350
I15
tp134
a(I1274
I15
tp135
a(I3203
I15
tp136
a(I2535
I15
tp137
a(I5728
I15
tp138
a(I4345
I15
tp139
a(I6360
I15
tp140
a(I2698
I15
tp141
a(I1972
I15
tp142
a(I6621
I15
tp143
a(I3823
I15
tp144
a(I4515
I15
tp145
a(I6229
I15
tp146
a(I4873
I15
tp147
a(I3455
I15
tp148
a(I1962
I15
tp149
a(I1075
I15
tp150
a(I151
I15
tp151
a(I409
I15
tp152
a(I5630
I15
tp153
a(I7209
I15
tp154
a(I1892
I15
tp155
a(I278
I15
tp156
a(I6483
I15
tp157
a(I6841
I15
tp158
a(I3393
I15
tp159
a(I1958
I15
tp160
a(I2119
I15
tp161
a(I1019
I15
tp162
a(I900
I15
tp163
a(I5549
I15
tp164
a(I2614
I15
tp165
a(I627
I15
tp166
a(I3996
I15
tp167
a(I5652
I15
tp168
a(I198
I15
tp169
a(I1009
I15
tp170
a(I7256
I15
tp171
a(I2433
I15
tp172
a(I2373
I15
tp173
a(I2297
I15
tp174
a(I1510
I15
tp175
a(I6322
I15
tp176
a(I3053
I15
tp177
a(I2721
I15
tp178
a(I424
I15
tp179
a(I5757
I15
tp180
a(I1679
I15
tp181
a(I5896
I15
tp182
a(I6449
I15
tp183
a(I4478
I15
tp184
a(I2848
I15
tp185
a(I937
I15
tp186
a(I603
I15
tp187
a(I7087
I15
tp188
a(I593
I15
tp189
a(I7011
I15
tp190
a(I4534
I15
tp191
a(I5029
I15
tp192
a(I4695
I15
tp193
a(I4953
I15
tp194
a(I4029
I15
tp195
a(I6001
I15
tp196
a(I1923
I15
tp197
a(I4327
I15
tp198
a(I6496
I15
tp199
a(I2834
I15
tp200
a(I923
I15
tp201
a(I6180
I15
tp202
a(I4627
I15
tp203
a(I3269
I15
tp204
a(I3627
I15
tp205
a(I6307
I15
tp206
a(I4896
I15
tp207
a(I3949
I15
tp208
a(I2341
I15
tp209
a(I6160
I15
tp210
a(I6574
I15
tp211
a(I5076
I15
tp212
a(I5434
I15
tp213
a(I3326
I15
tp214
a(I6051
I15
tp215
a(I2957
I15
tp216
a(I22
I15
tp217
a(I3513
I15
tp218
a(I6114
I15
tp219
a(I3316
I15
tp220
a(I6056
I15
tp221
a(I3674
I15
tp222
a(I1763
I15
tp223
a(I2246
I15
tp224
a(I1471
I15
tp225
a(I7265
I15
tp226
a(I1258
I15
tp227
a(I1616
I15
tp228
a(I6973
I15
tp229
a(I6223
I15
tp230
a(I6897
I15
tp231
a(I4004
I15
tp232
a(I5718
I15
tp233
a(I2314
I15
tp234
a(I3499
I15
tp235
a(I564
I15
tp236
a(I3560
I15
tp237
a(I3660
I15
tp238
a(I6203
I15
tp239
a(I2797
I15
tp240
a(I5145
I15
tp241
a(I2310
I15
tp242
a(I4972
I15
tp243
a(I4222
I15
tp244
a(I5467
I15
tp245
a(I3990
I15
tp246
a(I1866
I15
tp247
a(I55
I15
tp248
a(I176
I15
tp249
a(I4212
I15
tp250
a(I5533
I15
tp251
a(I4904
I15
tp252
a(I1182
I15
tp253
a(I6642
I15
tp254
a(I4141
I15
tp255
a(I5463
I15
tp256
a(I4697
I15
tp257
a(I3910
I15
tp258
a(I1786
I15
tp259
a(I2357
I15
tp260
a(I5095
I15
tp261
a(I4626
I15
tp262
a(I3824
I15
tp263
a(I6504
I15
tp264
a(I3532
I15
tp265
a(I1979
I15
tp266
a(I3130
I15
tp267
a(I295
I15
tp268
a(I2464
I15
tp269
a(I4178
I15
tp270
a(I219
I15
tp271
a(I577
I15
tp272
a(I3470
I15
tp273
a(I1209
I15
tp274
a(I3810
I15
tp275
a(I285
I15
tp276
a(I422
I15
tp277
a(I4442
I15
tp278
a(I6174
I15
tp279
a(I4679
I15
tp280
a(I4800
I15
tp281
a(I6985
I15
tp282
a(I1336
I15
tp283
a(I847
I15
tp284
a(I3569
I15
tp285
a(I4611
I15
tp286
a(I1895
I15
tp287
a(I6112
I15
tp288
a(I3177
I15
tp289
a(I6546
I15
tp290
a(I2058
I15
tp291
a(I1527
I15
tp292
a(I3738
I15
tp293
a(I5446
I15
tp294
a(I5726
I15
tp295
a(I0
I15
tp296
a(I7269
I15
tp297
a(I3310
I15
tp298
a(I2507
I15
tp299
a(I6
I15
tp300
a(I894
I15
tp301
a(I5211
I15
tp302
a(I5645
I15
tp303
a(I1610
I15
tp304
a(I5186
I15
tp305
a(I4229
I15
tp306
a(I2318
I15
tp307
a(I4919
I15
tp308
a(I2658
I15
tp309
a(I7325
I15
tp310
a(I2600
I15
tp311
a(I2427
I15
tp312
a(I4970
I15
tp313
a(I7366
I15
tp314
a(I2912
I15
tp315
a(I1793
I15
tp316
a(I1733
I15
tp317
a(I4634
I15
tp318
a(I3276
I15
tp319
a(I3413
I15
tp320
a(I1920
I15
tp321
a(I365
I15
tp322
a(I5759
I15
tp323
a(I3045
I15
tp324
a(I528
I15
tp325
a(I1218
I15
tp326
a(I6636
I15
tp327
a(I2087
I15
tp328
a(I160
I15
tp329
a(I4630
I15
tp330
a(I6815
I15
tp331
a(I543
I15
tp332
a(I7310
I15
tp333
a(I2472
I15
tp334
a(I90
I15
tp335
a(I5568
I15
tp336
a(I1846
I15
tp337
a(I4389
I15
tp338
a(I430
I15
tp339
a(I4313
I15
tp340
a(I788
I15
tp341
a(I1521
I15
tp342
a(I2760
I15
tp343
a(I7021
I15
tp344
a(I5375
I15
tp345
a(I4242
I15
tp346
a(I86
I15
tp347
a(I6367
I15
tp348
a(I2392
I15
tp349
a(I641
I15
tp350
a(I2963
I15
tp351
a(I1468
I15
tp352
a(I1271
I15
tp353
a(I3814
I15
tp354
a(I2261
I15
tp355
a(I3309
I15
tp356
a(I4728
I15
tp357
a(I7343
I15
tp358
a(I6629
I15
tp359
a(I2114
I15
tp360
a(I4299
I15
tp361
a(I2388
I15
tp362
a(I1193
I15
tp363
a(I3794
I15
tp364
a(I6116
I15
tp365
a(I901
I15
tp366
a(I567
I15
tp367
a(I980
I15
tp368
a(I396
I15
tp369
a(I1557
I15
tp370
a(I2247
I15
tp371
a(I5106
I15
tp372
a(I2171
I15
tp373
a(I4790
I15
tp374
a(I3237
I15
tp375
a(I2434
I15
tp376
a(I5643
I15
tp377
a(I6458
I15
tp378
a(I5633
I15
tp379
a(I6460
I15
tp380
a(I4215
I15
tp381
a(I674
I15
tp382
a(I4907
I15
tp383
a(I751
I15
tp384
a(I7016
I15
tp385
a(I4600
I15
tp386
a(I5332
I15
tp387
a(I3976
I15
tp388
a(I7211
I15
tp389
a(I2610
I15
tp390
a(I4606
I15
tp391
a(I5923
I15
tp392
a(I4827
I15
tp393
a(I2916
I15
tp394
a(I1363
I15
tp395
a(I5817
I15
tp396
a(I6941
I15
tp397
a(I6312
I15
tp398
a(I4817
I15
tp399
a(I5388
I15
tp400
a(I7360
I15
tp401
a(I2043
I15
tp402
a(I1924
I15
tp403
a(I1590
I15
tp404
a(I6497
I15
tp405
a(I2538
I15
tp406
a(I924
I15
tp407
a(I3467
I15
tp408
a(I6676
I15
tp409
a(I5318
I15
tp410
a(I5455
I15
tp411
a(I3528
I15
tp412
a(I4081
I15
tp413
a(I5561
I15
tp414
a(I2902
I15
tp415
a(I1707
I15
tp416
a(I2397
I15
tp417
a(I4608
I15
tp418
a(I6579
I15
tp419
a(I997
I15
tp420
a(I5733
I15
tp421
a(I2192
I15
tp422
a(I4180
I15
tp423
a(I637
I15
tp424
a(I4751
I15
tp425
a(I5562
I15
tp426
a(I5722
I15
tp427
a(I5365
I15
tp428
a(I5799
I15
tp429
a(I2061
I15
tp430
a(I5057
I15
tp431
a(I6908
I15
tp432
a(I6713
I15
tp433
a(I5355
I15
tp434
a(I5926
I15
tp435
a(I5160
I15
tp436
a(I6284
I15
tp437
a(I2315
I15
tp438
a(I3005
I15
tp439
a(I4424
I15
tp440
a(I4977
I15
tp441
a(I3066
I15
tp442
a(I899
I15
tp443
a(I3798
I15
tp444
a(I2008
I15
tp445
a(I2722
I15
tp446
a(I4651
I15
tp447
a(I6033
I15
tp448
a(I1187
I15
tp449
a(I2311
I15
tp450
a(I877
I15
tp451
a(I1014
I15
tp452
a(I1372
I15
tp453
a(I4718
I15
tp454
a(I4605
I15
tp455
a(I2225
I15
tp456
a(I314
I15
tp457
a(I2599
I15
tp458
a(I4708
I15
tp459
a(I5142
I15
tp460
a(I6090
I15
tp461
a(I5203
I15
tp462
a(I3708
I15
tp463
a(I6685
I15
tp464
a(I5132
I15
tp465
a(I5949
I15
tp466
a(I5959
I15
tp467
a(I3145
I15
tp468
a(I5764
I15
tp469
a(I4764
I15
tp470
a(I2990
I15
tp471
a(I1853
I15
tp472
asS'runtime'
p473
F0.0064160823822021484
sS'name'
p474
S'["regex", [["filming_locations", "[x]", "OM"]]]'
p475
s.