(dp0
S'output'
p1
(lp2
(I939
I7
tp3
a(I1408
I7
tp4
a(I3476
I7
tp5
a(I7230
I7
tp6
a(I5766
I7
tp7
a(I974
I7
tp8
a(I3367
I7
tp9
a(I1165
I7
tp10
a(I7318
I7
tp11
a(I2881
I7
tp12
a(I2074
I7
tp13
a(I1955
I7
tp14
a(I4784
I7
tp15
a(I3950
I7
tp16
a(I921
I7
tp17
a(I1590
I7
tp18
a(I6150
I7
tp19
a(I5801
I7
tp20
a(I3428
I7
tp21
a(I4839
I7
tp22
a(I3355
I7
tp23
a(I1557
I7
tp24
asS'runtime'
p25
F0.00652003288269043
sS'name'
p26
S'["regex", [["full_cast", "[\\u00c1]", "OM"]]]'
p27
s.