(dp0
S'output'
p1
(lp2
(I4355
I9
tp3
a(I595
I9
tp4
a(I6466
I9
tp5
a(I5493
I9
tp6
a(I6037
I9
tp7
a(I6909
I9
tp8
a(I3292
I9
tp9
a(I1750
I9
tp10
a(I6490
I9
tp11
a(I3945
I9
tp12
a(I6536
I9
tp13
a(I2773
I9
tp14
a(I342
I9
tp15
a(I915
I9
tp16
a(I6487
I9
tp17
a(I864
I9
tp18
a(I5325
I9
tp19
a(I6907
I9
tp20
a(I2971
I9
tp21
a(I6506
I9
tp22
a(I6023
I9
tp23
asS'runtime'
p24
F0.006001949310302734
sS'name'
p25
S'["regex", [["country", "[f]", "OM"]]]'
p26
s.