(dp0
S'output'
p1
(lp2
(I1280
I1
tp3
a(I734
I1
tp4
a(I1545
I1
tp5
a(I2650
I1
tp6
a(I6823
I1
tp7
a(I2664
I1
tp8
a(I3078
I1
tp9
a(I4899
I1
tp10
a(I5054
I1
tp11
a(I7055
I1
tp12
a(I4368
I1
tp13
a(I4203
I1
tp14
a(I5130
I1
tp15
a(I3863
I1
tp16
a(I5189
I1
tp17
a(I4563
I1
tp18
a(I5906
I1
tp19
a(I4191
I1
tp20
asS'runtime'
p21
F0.006052970886230469
sS'name'
p22
S'["regex", [["name", "[8]", "OM"]]]'
p23
s.