(dp0
S'output'
p1
(lp2
(I3895
I4
tp3
a(I6519
I4
tp4
a(I6364
I4
tp5
a(I2244
I4
tp6
a(I2243
I4
tp7
a(I6818
I4
tp8
a(I5585
I4
tp9
asS'runtime'
p10
F0.0059261322021484375
sS'name'
p11
S'["regex", [["director", "[\\u00f1]", "OM"]]]'
p12
s.