(dp0
S'output'
p1
(lp2
(I4017
I5
tp3
a(I1701
I5
tp4
a(I5297
I5
tp5
a(I4895
I5
tp6
a(I577
I5
tp7
a(I5448
I5
tp8
a(I3397
I5
tp9
asS'runtime'
p10
F0.006026029586791992
sS'name'
p11
S'["regex", [["creator", "[\\u00f4]", "OM"]]]'
p12
s.