(dp0
S'output'
p1
(lp2
(I595
I8
tp3
a(I915
I8
tp4
a(I356
I8
tp5
a(I107
I8
tp6
a(I1192
I8
tp7
a(I2459
I8
tp8
a(I6506
I8
tp9
a(I4928
I8
tp10
asS'runtime'
p11
F0.00613093376159668
sS'name'
p12
S'["regex", [["language", "[f]", "OM"]]]'
p13
s.