(dp0
S'output'
p1
(lp2
(I4127
I6
tp3
a(I2659
I6
tp4
a(I6734
I6
tp5
a(I6733
I6
tp6
a(I5152
I6
tp7
a(I5347
I6
tp8
a(I3703
I6
tp9
a(I350
I6
tp10
a(I294
I6
tp11
a(I1646
I6
tp12
a(I3617
I6
tp13
a(I4104
I6
tp14
a(I23
I6
tp15
a(I3453
I6
tp16
a(I5599
I6
tp17
a(I5999
I6
tp18
a(I6004
I6
tp19
a(I3619
I6
tp20
a(I7325
I6
tp21
a(I6000
I6
tp22
a(I1607
I6
tp23
a(I4736
I6
tp24
a(I6083
I6
tp25
asS'runtime'
p26
F0.010104179382324219
sS'name'
p27
S'["regex", [["actors", "[\\u00eb]", "OM"]]]'
p28
s.