(dp0
S'output'
p1
(lp2
(I4181
I14
tp3
a(I6824
I14
tp4
a(I1658
I14
tp5
a(I4457
I14
tp6
a(I4172
I14
tp7
a(I6718
I14
tp8
a(I6175
I14
tp9
a(I5700
I14
tp10
a(I6547
I14
tp11
a(I1925
I14
tp12
a(I1066
I14
tp13
a(I1913
I14
tp14
a(I2255
I14
tp15
asS'runtime'
p16
F0.006025075912475586
sS'name'
p17
S'["regex", [["genre", "[I]", "OM"]]]'
p18
s.