(dp0
S'output'
p1
(lp2
(I5606
I4
tp3
a(I3397
I4
tp4
a(I6048
I4
tp5
a(I2704
I4
tp6
a(I6047
I4
tp7
a(I5235
I4
tp8
a(I3789
I4
tp9
a(I4164
I4
tp10
a(I4307
I4
tp11
a(I3493
I4
tp12
a(I5234
I4
tp13
a(I6284
I4
tp14
a(I1883
I4
tp15
a(I256
I4
tp16
a(I2159
I4
tp17
a(I6840
I4
tp18
a(I4931
I4
tp19
a(I2664
I4
tp20
asS'runtime'
p21
F0.005944013595581055
sS'name'
p22
S'["regex", [["director", "[\\u00f6]", "OM"]]]'
p23
s.