(dp0
S'output'
p1
(lp2
(I6064
I6
tp3
a(I7362
I6
tp4
a(I5395
I6
tp5
a(I3846
I6
tp6
a(I1642
I6
tp7
a(I687
I6
tp8
a(I1302
I6
tp9
a(I4584
I6
tp10
asS'runtime'
p11
F0.0060901641845703125
sS'name'
p12
S'["regex", [["actors", "[X]", "OM"]]]'
p13
s.