(dp0
S'output'
p1
(lp2
(I1154
I9
tp3
a(I1245
I9
tp4
a(I1943
I9
tp5
a(I1013
I9
tp6
a(I1428
I9
tp7
a(I1377
I9
tp8
a(I5977
I9
tp9
asS'runtime'
p10
F0.006161928176879883
sS'name'
p11
S'["regex", [["country", "[v]", "OM"]]]'
p12
s.