(dp0
S'output'
p1
(lp2
(I1910
I3
tp3
a(I5970
I3
tp4
a(I3476
I3
tp5
a(I3185
I3
tp6
a(I1999
I3
tp7
a(I6449
I3
tp8
a(I5549
I3
tp9
a(I3467
I3
tp10
a(I2908
I3
tp11
a(I6001
I3
tp12
a(I7206
I3
tp13
a(I535
I3
tp14
a(I3089
I3
tp15
a(I4655
I3
tp16
a(I2944
I3
tp17
a(I6513
I3
tp18
a(I219
I3
tp19
a(I6309
I3
tp20
asS'runtime'
p21
F0.00606989860534668
sS'name'
p22
S'["regex", [["release_date", "[x]", "OM"]]]'
p23
s.