(dp0
S'output'
p1
(lp2
(I1948
I8
tp3
a(I380
I8
tp4
a(I5804
I8
tp5
a(I1698
I8
tp6
a(I702
I8
tp7
a(I5013
I8
tp8
a(I6810
I8
tp9
a(I3250
I8
tp10
a(I1614
I8
tp11
a(I6719
I8
tp12
a(I4208
I8
tp13
a(I1886
I8
tp14
a(I4154
I8
tp15
a(I3446
I8
tp16
a(I1330
I8
tp17
a(I1106
I8
tp18
a(I1784
I8
tp19
a(I6406
I8
tp20
a(I6910
I8
tp21
a(I6908
I8
tp22
a(I1283
I8
tp23
a(I6895
I8
tp24
a(I6043
I8
tp25
asS'runtime'
p26
F0.0059468746185302734
sS'name'
p27
S'["regex", [["language", "[V]", "OM"]]]'
p28
s.