(dp0
S'output'
p1
(lp2
(I6488
I7
tp3
a(I942
I7
tp4
a(I4174
I7
tp5
a(I256
I7
tp6
a(I6329
I7
tp7
a(I7304
I7
tp8
asS'runtime'
p9
F0.006676197052001953
sS'name'
p10
S'["regex", [["full_cast", "[5]", "OM"]]]'
p11
s.