(dp0
S'output'
p1
(lp2
(I3802
I15
tp3
a(I4250
I15
tp4
a(I286
I15
tp5
a(I2025
I15
tp6
a(I5755
I15
tp7
a(I3512
I15
tp8
a(I5748
I15
tp9
a(I4358
I15
tp10
a(I5640
I15
tp11
asS'runtime'
p12
F0.005978822708129883
sS'name'
p13
S'["regex", [["filming_locations", "[\\u00f4]", "OM"]]]'
p14
s.