(dp0
S'output'
p1
(lp2
(I2560
I15
tp3
a(I580
I15
tp4
a(I4196
I15
tp5
a(I1308
I15
tp6
a(I4
I15
tp7
a(I1809
I15
tp8
asS'runtime'
p9
F0.006208181381225586
sS'name'
p10
S'["regex", [["filming_locations", "[\\u00e8]", "OM"]]]'
p11
s.