(dp0
S'output'
p1
(lp2
(I2827
I7
tp3
a(I5508
I7
tp4
a(I3291
I7
tp5
a(I5773
I7
tp6
a(I2568
I7
tp7
a(I6241
I7
tp8
a(I4218
I7
tp9
a(I6595
I7
tp10
a(I2268
I7
tp11
a(I1173
I7
tp12
asS'runtime'
p13
F0.011023998260498047
sS'name'
p14
S'["regex", [["full_cast", "[\\u00ef]", "OM"]]]'
p15
s.