(dp0
S'output'
p1
(lp2
(I2694
I4
tp3
a(I6250
I4
tp4
a(I3134
I4
tp5
a(I142
I4
tp6
a(I3950
I4
tp7
a(I6208
I4
tp8
a(I6134
I4
tp9
a(I6146
I4
tp10
a(I1479
I4
tp11
a(I1590
I4
tp12
a(I5590
I4
tp13
a(I1408
I4
tp14
a(I1470
I4
tp15
a(I322
I4
tp16
asS'runtime'
p17
F0.006020069122314453
sS'name'
p18
S'["regex", [["director", "[\\u00f3]", "OM"]]]'
p19
s.