(dp0
S'output'
p1
(lp2
(I6938
I15
tp3
a(I1804
I15
tp4
a(I3826
I15
tp5
a(I1764
I15
tp6
a(I4374
I15
tp7
a(I3137
I15
tp8
a(I7154
I15
tp9
a(I92
I15
tp10
a(I1125
I15
tp11
a(I2350
I15
tp12
a(I503
I15
tp13
a(I2000
I15
tp14
a(I34
I15
tp15
a(I2045
I15
tp16
asS'runtime'
p17
F0.0062808990478515625
sS'name'
p18
S'["regex", [["filming_locations", "[/]", "OM"]]]'
p19
s.