(dp0
S'output'
p1
(lp2
(I1083
I1
tp3
a(I2503
I1
tp4
a(I4198
I1
tp5
a(I6627
I1
tp6
a(I5585
I1
tp7
a(I6326
I1
tp8
a(I6323
I1
tp9
asS'runtime'
p10
F0.006078004837036133
sS'name'
p11
S'["regex", [["name", "[)]", "OM"]]]'
p12
s.