(dp0
S'output'
p1
(lp2
(I3776
I1
tp3
a(I5950
I1
tp4
a(I6536
I1
tp5
a(I1321
I1
tp6
a(I6216
I1
tp7
a(I6218
I1
tp8
a(I1379
I1
tp9
a(I4041
I1
tp10
a(I6525
I1
tp11
a(I2254
I1
tp12
a(I2236
I1
tp13
a(I6738
I1
tp14
a(I490
I1
tp15
a(I5509
I1
tp16
a(I3653
I1
tp17
a(I6591
I1
tp18
a(I5074
I1
tp19
a(I2495
I1
tp20
asS'runtime'
p21
F0.0059909820556640625
sS'name'
p22
S'["regex", [["name", "[/]", "OM"]]]'
p23
s.