(dp0
S'output'
p1
(lp2
(I5016
I8
tp3
a(I5702
I8
tp4
a(I4188
I8
tp5
a(I110
I8
tp6
a(I2814
I8
tp7
a(I926
I8
tp8
a(I988
I8
tp9
a(I993
I8
tp10
a(I6920
I8
tp11
a(I1903
I8
tp12
a(I3926
I8
tp13
a(I7168
I8
tp14
a(I5076
I8
tp15
a(I2044
I8
tp16
a(I974
I8
tp17
a(I7164
I8
tp18
a(I5302
I8
tp19
asS'runtime'
p20
F0.005961894989013672
sS'name'
p21
S'["regex", [["language", "[Y]", "OM"]]]'
p22
s.