(dp0
S'output'
p1
(lp2
(I3286
I3
tp3
a(I1064
I3
tp4
a(I2866
I3
tp5
a(I4297
I3
tp6
a(I3322
I3
tp7
a(I43
I3
tp8
a(I870
I3
tp9
a(I3735
I3
tp10
a(I6840
I3
tp11
a(I2498
I3
tp12
a(I4746
I3
tp13
a(I5819
I3
tp14
a(I3525
I3
tp15
a(I4598
I3
tp16
a(I6406
I3
tp17
a(I7250
I3
tp18
a(I2947
I3
tp19
a(I1677
I3
tp20
a(I3823
I3
tp21
a(I4624
I3
tp22
a(I1513
I3
tp23
a(I6058
I3
tp24
a(I3035
I3
tp25
a(I5900
I3
tp26
a(I3813
I3
tp27
a(I3393
I3
tp28
a(I4466
I3
tp29
a(I941
I3
tp30
a(I3888
I3
tp31
a(I6868
I3
tp32
a(I3445
I3
tp33
a(I6310
I3
tp34
a(I248
I3
tp35
a(I4915
I3
tp36
a(I622
I3
tp37
a(I5371
I3
tp38
a(I44
I3
tp39
a(I773
I3
tp40
a(I3720
I3
tp41
a(I4340
I3
tp42
a(I5620
I3
tp43
a(I2302
I3
tp44
a(I6795
I3
tp45
a(I5574
I3
tp46
a(I4599
I3
tp47
a(I1107
I3
tp48
a(I7005
I3
tp49
a(I7269
I3
tp50
a(I1514
I3
tp51
a(I4182
I3
tp52
a(I1927
I3
tp53
a(I2541
I3
tp54
a(I5193
I3
tp55
a(I4631
I3
tp56
a(I2990
I3
tp57
a(I4063
I3
tp58
a(I768
I3
tp59
a(I4825
I3
tp60
a(I5000
I3
tp61
a(I7366
I3
tp62
a(I4001
I3
tp63
a(I5421
I3
tp64
a(I3226
I3
tp65
a(I6347
I3
tp66
a(I4870
I3
tp67
a(I3475
I3
tp68
a(I452
I3
tp69
a(I6946
I3
tp70
a(I5152
I3
tp71
a(I2041
I3
tp72
a(I5979
I3
tp73
a(I6646
I3
tp74
a(I193
I3
tp75
a(I1837
I3
tp76
a(I862
I3
tp77
a(I1679
I3
tp78
a(I4538
I3
tp79
a(I1515
I3
tp80
a(I2135
I3
tp81
a(I5240
I3
tp82
a(I740
I3
tp83
a(I494
I3
tp84
a(I6464
I3
tp85
a(I7242
I3
tp86
a(I520
I3
tp87
a(I6096
I3
tp88
a(I3725
I3
tp89
a(I5643
I3
tp90
a(I4422
I3
tp91
a(I3447
I3
tp92
a(I2200
I3
tp93
a(I113
I3
tp94
a(I526
I3
tp95
a(I1599
I3
tp96
a(I5794
I3
tp97
a(I7323
I3
tp98
a(I204
I3
tp99
a(I158
I3
tp100
a(I5065
I3
tp101
a(I1589
I3
tp102
a(I6758
I3
tp103
a(I407
I3
tp104
a(I6423
I3
tp105
a(I1169
I3
tp106
a(I1021
I3
tp107
a(I5721
I3
tp108
a(I4539
I3
tp109
a(I2120
I3
tp110
a(I6787
I3
tp111
a(I26
I3
tp112
a(I3147
I3
tp113
a(I853
I3
tp114
a(I2743
I3
tp115
a(I6238
I3
tp116
a(I2323
I3
tp117
a(I2126
I3
tp118
a(I2976
I3
tp119
a(I2937
I3
tp120
a(I1706
I3
tp121
a(I4827
I3
tp122
a(I4423
I3
tp123
a(I114
I3
tp124
a(I4781
I3
tp125
a(I2575
I3
tp126
a(I5893
I3
tp127
a(I6409
I3
tp128
a(I5276
I3
tp129
a(I6053
I3
tp130
a(I5852
I3
tp131
a(I4413
I3
tp132
a(I159
I3
tp133
a(I3993
I3
tp134
a(I6139
I3
tp135
a(I3638
I3
tp136
a(I3218
I3
tp137
a(I4045
I3
tp138
a(I6992
I3
tp139
a(I5281
I3
tp140
a(I5432
I3
tp141
a(I3270
I3
tp142
a(I4343
I3
tp143
a(I4898
I3
tp144
a(I5971
I3
tp145
a(I644
I3
tp146
a(I6575
I3
tp147
a(I6329
I3
tp148
a(I854
I3
tp149
a(I276
I3
tp150
a(I7198
I3
tp151
a(I2938
I3
tp152
a(I6259
I3
tp153
a(I4004
I3
tp154
a(I2734
I3
tp155
a(I3807
I3
tp156
a(I2560
I3
tp157
a(I2837
I3
tp158
a(I4608
I3
tp159
a(I4460
I3
tp160
a(I6088
I3
tp161
a(I6866
I3
tp162
a(I4660
I3
tp163
a(I4414
I3
tp164
a(I6288
I3
tp165
a(I4013
I3
tp166
a(I5067
I3
tp167
a(I4411
I3
tp168
a(I1591
I3
tp169
a(I7053
I3
tp170
a(I4292
I3
tp171
a(I3009
I3
tp172
a(I4082
I3
tp173
a(I6947
I3
tp174
a(I4495
I3
tp175
a(I7389
I3
tp176
a(I186
I3
tp177
a(I6172
I3
tp178
a(I1830
I3
tp179
a(I1617
I3
tp180
a(I3458
I3
tp181
a(I2483
I3
tp182
a(I5846
I3
tp183
a(I5183
I3
tp184
a(I238
I3
tp185
a(I1055
I3
tp186
a(I1397
I3
tp187
a(I5962
I3
tp188
a(I2939
I3
tp189
a(I3756
I3
tp190
a(I2535
I3
tp191
a(I1249
I3
tp192
a(I5187
I3
tp193
a(I2893
I3
tp194
a(I6831
I3
tp195
a(I2296
I3
tp196
a(I3388
I3
tp197
a(I3191
I3
tp198
a(I2968
I3
tp199
a(I1698
I3
tp200
a(I4819
I3
tp201
a(I2525
I3
tp202
a(I3493
I3
tp203
a(I6821
I3
tp204
a(I1750
I3
tp205
a(I6249
I3
tp206
a(I7152
I3
tp207
a(I5882
I3
tp208
a(I4392
I3
tp209
a(I309
I3
tp210
a(I5258
I3
tp211
a(I1831
I3
tp212
a(I6984
I3
tp213
a(I5714
I3
tp214
a(I6938
I3
tp215
a(I6321
I3
tp216
a(I1250
I3
tp217
a(I3869
I3
tp218
a(I2720
I3
tp219
a(I4729
I3
tp220
a(I3176
I3
tp221
a(I4978
I3
tp222
a(I724
I3
tp223
a(I5391
I3
tp224
a(I1082
I3
tp225
a(I6005
I3
tp226
a(I7278
I3
tp227
a(I6080
I3
tp228
a(I6944
I3
tp229
a(I3011
I3
tp230
a(I5837
I3
tp231
a(I6086
I3
tp232
a(I6398
I3
tp233
a(I3825
I3
tp234
a(I5508
I3
tp235
a(I953
I3
tp236
a(I6939
I3
tp237
a(I1573
I3
tp238
a(I4644
I3
tp239
a(I3053
I3
tp240
a(I4730
I3
tp241
a(I5596
I3
tp242
a(I3723
I3
tp243
a(I7001
I3
tp244
a(I5011
I3
tp245
a(I3748
I3
tp246
a(I1241
I3
tp247
a(I108
I3
tp248
a(I5832
I3
tp249
a(I259
I3
tp250
a(I1690
I3
tp251
a(I6424
I3
tp252
a(I5464
I3
tp253
a(I2146
I3
tp254
a(I6035
I3
tp255
a(I1322
I3
tp256
a(I347
I3
tp257
a(I5221
I3
tp258
a(I918
I3
tp259
a(I1000
I3
tp260
a(I5050
I3
tp261
a(I4643
I3
tp262
a(I3422
I3
tp263
a(I3002
I3
tp264
a(I6379
I3
tp265
a(I3622
I3
tp266
a(I2647
I3
tp267
a(I4433
I3
tp268
a(I6323
I3
tp269
a(I3054
I3
tp270
a(I5302
I3
tp271
a(I2637
I3
tp272
a(I5610
I3
tp273
a(I464
I3
tp274
a(I4265
I3
tp275
a(I4934
I3
tp276
a(I4760
I3
tp277
a(I435
I3
tp278
a(I1287
I3
tp279
a(I296
I3
tp280
a(I5170
I3
tp281
a(I5839
I3
tp282
a(I2800
I3
tp283
a(I1481
I3
tp284
a(I2554
I3
tp285
a(I548
I3
tp286
a(I5471
I3
tp287
a(I5176
I3
tp288
a(I758
I3
tp289
a(I1575
I3
tp290
a(I6728
I3
tp291
a(I5005
I3
tp292
a(I6078
I3
tp293
a(I1611
I3
tp294
a(I134
I3
tp295
a(I5041
I3
tp296
a(I6114
I3
tp297
a(I2835
I3
tp298
a(I6170
I3
tp299
a(I4686
I3
tp300
a(I5697
I3
tp301
a(I6314
I3
tp302
a(I787
I3
tp303
a(I5910
I3
tp304
a(I6556
I3
tp305
a(I3649
I3
tp306
a(I3540
I3
tp307
a(I1850
I3
tp308
a(I5749
I3
tp309
a(I3576
I3
tp310
a(I2
I3
tp311
a(I4196
I3
tp312
a(I2877
I3
tp313
a(I3950
I3
tp314
a(I4767
I3
tp315
a(I2555
I3
tp316
a(I4150
I3
tp317
a(I2952
I3
tp318
a(I865
I3
tp319
a(I6679
I3
tp320
a(I1065
I3
tp321
a(I90
I3
tp322
a(I4664
I3
tp323
a(I5052
I3
tp324
a(I759
I3
tp325
a(I5656
I3
tp326
a(I4593
I3
tp327
a(I3759
I3
tp328
a(I4753
I3
tp329
a(I5755
I3
tp330
a(I4389
I3
tp331
a(I1366
I3
tp332
a(I1192
I3
tp333
a(I7090
I3
tp334
a(I329
I3
tp335
a(I6968
I3
tp336
a(I2577
I3
tp337
a(I5698
I3
tp338
a(I627
I3
tp339
a(I4477
I3
tp340
a(I6030
I3
tp341
a(I1851
I3
tp342
a(I3495
I3
tp343
a(I2504
I3
tp344
a(I7378
I3
tp345
a(I5588
I3
tp346
a(I3951
I3
tp347
a(I5868
I3
tp348
a(I2665
I3
tp349
a(I410
I3
tp350
a(I2556
I3
tp351
a(I4309
I3
tp352
a(I3160
I3
tp353
a(I6852
I3
tp354
a(I1535
I3
tp355
a(I288
I3
tp356
a(I6235
I3
tp357
a(I6867
I3
tp358
a(I662
I3
tp359
a(I4840
I3
tp360
a(I340
I3
tp361
a(I2588
I3
tp362
a(I3573
I3
tp363
a(I1367
I3
tp364
a(I6225
I3
tp365
a(I6720
I3
tp366
a(I999
I3
tp367
a(I5857
I3
tp368
a(I1603
I3
tp369
a(I4724
I3
tp370
a(I2985
I3
tp371
a(I4600
I3
tp372
a(I1655
I3
tp373
a(I4258
I3
tp374
a(I4
I3
tp375
a(I2879
I3
tp376
a(I1593
I3
tp377
a(I411
I3
tp378
a(I5127
I3
tp379
a(I6184
I3
tp380
a(I769
I3
tp381
a(I5780
I3
tp382
a(I5816
I3
tp383
a(I401
I3
tp384
a(I2905
I3
tp385
a(I3820
I3
tp386
a(I453
I3
tp387
a(I7201
I3
tp388
a(I2799
I3
tp389
a(I3600
I3
tp390
a(I5077
I3
tp391
a(I3157
I3
tp392
a(I4998
I3
tp393
a(I6833
I3
tp394
a(I2579
I3
tp395
a(I1604
I3
tp396
a(I285
I3
tp397
a(I1184
I3
tp398
a(I2986
I3
tp399
a(I4417
I3
tp400
a(I5332
I3
tp401
a(I1965
I3
tp402
a(I2569
I3
tp403
a(I904
I3
tp404
a(I412
I3
tp405
a(I373
I3
tp406
a(I2263
I3
tp407
a(I6297
I3
tp408
a(I3274
I3
tp409
a(I1797
I3
tp410
a(I6502
I3
tp411
a(I2657
I3
tp412
a(I500
I3
tp413
a(I1675
I3
tp414
a(I5525
I3
tp415
a(I4376
I3
tp416
a(I2131
I3
tp417
a(I1924
I3
tp418
a(I2085
I3
tp419
a(I4008
I3
tp420
a(I1665
I3
tp421
a(I4786
I3
tp422
a(I1517
I3
tp423
a(I6258
I3
tp424
a(I3407
I3
tp425
a(I368
I3
tp426
a(I7083
I3
tp427
a(I2616
I3
tp428
a(I5393
I3
tp429
a(I125
I3
tp430
a(I5849
I3
tp431
a(I7203
I3
tp432
a(I7335
I3
tp433
a(I5025
I3
tp434
a(I4050
I3
tp435
a(I3695
I3
tp436
a(I1211
I3
tp437
a(I4919
I3
tp438
a(I5681
I3
tp439
a(I3727
I3
tp440
a(I1279
I3
tp441
a(I3882
I3
tp442
a(I4955
I3
tp443
a(I2503
I3
tp444
a(I3107
I3
tp445
a(I4587
I3
tp446
a(I1308
I3
tp447
a(I3159
I3
tp448
a(I2168
I3
tp449
a(I1666
I3
tp450
a(I4787
I3
tp451
a(I5440
I3
tp452
a(I5145
I3
tp453
a(I2122
I3
tp454
a(I7084
I3
tp455
a(I4741
I3
tp456
a(I4419
I3
tp457
a(I3149
I3
tp458
a(I1477
I3
tp459
a(I6264
I3
tp460
a(I1596
I3
tp461
a(I2978
I3
tp462
a(I4051
I3
tp463
a(I1550
I3
tp464
a(I2623
I3
tp465
a(I5482
I3
tp466
a(I4005
I3
tp467
a(I6548
I3
tp468
a(I3883
I3
tp469
a(I2613
I3
tp470
a(I4590
I3
tp471
a(I2291
I3
tp472
a(I394
I3
tp473
a(I3515
I3
tp474
a(I3144
I3
tp475
a(I7193
I3
tp476
a(I6994
I3
tp477
a(I1667
I3
tp478
a(I6218
I3
tp479
a(I4368
I3
tp480
a(I5973
I3
tp481
a(I5815
I3
tp482
a(I482
I3
tp483
a(I5198
I3
tp484
a(I127
I3
tp485
a(I3961
I3
tp486
a(I4778
I3
tp487
a(I3557
I3
tp488
a(I278
I3
tp489
a(I1351
I3
tp490
a(I7049
I3
tp491
a(I6704
I3
tp492
a(I5917
I3
tp493
a(I6458
I3
tp494
a(I5483
I3
tp495
a(I1958
I3
tp496
a(I5966
I3
tp497
a(I4316
I3
tp498
a(I6756
I3
tp499
a(I5437
I3
tp500
a(I366
I3
tp501
a(I4288
I3
tp502
a(I6467
I3
tp503
a(I3687
I3
tp504
a(I6777
I3
tp505
a(I244
I3
tp506
a(I6142
I3
tp507
a(I2863
I3
tp508
a(I1468
I3
tp509
a(I7317
I3
tp510
a(I198
I3
tp511
a(I3716
I3
tp512
a(I1629
I3
tp513
a(I6949
I3
tp514
a(I5974
I3
tp515
a(I4743
I3
tp516
a(I3752
I3
tp517
a(I1444
I3
tp518
a(I4126
I3
tp519
a(I5199
I3
tp520
a(I6256
I3
tp521
a(I6010
I3
tp522
a(I3804
I3
tp523
a(I2327
I3
tp524
a(I1336
I3
tp525
a(I5137
I3
tp526
a(I7026
I3
tp527
a(I1536
I3
tp528
a(I3338
I3
tp529
a(I315
I3
tp530
a(I4007
I3
tp531
a(I6808
I3
tp532
a(I6659
I3
tp533
a(I6511
I3
tp534
a(I1168
I3
tp535
a(I4043
I3
tp536
a(I4821
I3
tp537
a(I4663
I3
tp538
a(I800
I3
tp539
a(I1578
I3
tp540
a(I357
I3
tp541
a(I1174
I3
tp542
a(I4653
I3
tp543
a(I7226
I3
tp544
a(I4331
I3
tp545
a(I6670
I3
tp546
a(I888
I3
tp547
a(I2641
I3
tp548
a(I386
I3
tp549
a(I5195
I3
tp550
a(I4127
I3
tp551
a(I4360
I3
tp552
a(I7284
I3
tp553
a(I6989
I3
tp554
a(I2942
I3
tp555
a(I1711
I3
tp556
a(I6864
I3
tp557
a(I1449
I3
tp558
a(I1291
I3
tp559
a(I6165
I3
tp560
a(I5190
I3
tp561
a(I119
I3
tp562
a(I4300
I3
tp563
a(I2564
I3
tp564
a(I3549
I3
tp565
a(I1282
I3
tp566
a(I4153
I3
tp567
a(I5639
I3
tp568
a(I4648
I3
tp569
a(I4402
I3
tp570
a(I4454
I3
tp571
a(I5271
I3
tp572
a(I508
I3
tp573
a(I3837
I3
tp574
a(I3456
I3
tp575
a(I3259
I3
tp576
a(I7109
I3
tp577
a(I2855
I3
tp578
a(I2642
I3
tp579
a(I5556
I3
tp580
a(I6334
I3
tp581
a(I2064
I3
tp582
a(I3866
I3
tp583
a(I1621
I3
tp584
a(I7345
I3
tp585
a(I2274
I3
tp586
a(I6212
I3
tp587
a(I1870
I3
tp588
a(I7039
I3
tp589
a(I4571
I3
tp590
a(I6166
I3
tp591
a(I4200
I3
tp592
a(I6977
I3
tp593
a(I1906
I3
tp594
a(I4154
I3
tp595
a(I1702
I3
tp596
a(I3330
I3
tp597
a(I6936
I3
tp598
a(I4661
I3
tp599
a(I5834
I3
tp600
a(I2336
I3
tp601
a(I6405
I3
tp602
a(I1334
I3
tp603
a(I3208
I3
tp604
a(I3169
I3
tp605
a(I6392
I3
tp606
a(I5886
I3
tp607
a(I5712
I3
tp608
a(I4393
I3
tp609
a(I3418
I3
tp610
a(I5308
I3
tp611
a(I1941
I3
tp612
a(I4888
I3
tp613
a(I6897
I3
tp614
a(I349
I3
tp615
a(I1977
I3
tp616
a(I1819
I3
tp617
a(I2892
I3
tp618
a(I5718
I3
tp619
a(I5511
I3
tp620
a(I1044
I3
tp621
a(I3499
I3
tp622
a(I4277
I3
tp623
a(I3302
I3
tp624
a(I3128
I3
tp625
a(I2882
I3
tp626
a(I676
I3
tp627
a(I2685
I3
tp628
a(I1503
I3
tp629
a(I4155
I3
tp630
a(I3180
I3
tp631
a(I5957
I3
tp632
a(I1703
I3
tp633
a(I712
I3
tp634
a(I3331
I3
tp635
a(I6337
I3
tp636
a(I13
I3
tp637
a(I3787
I3
tp638
a(I1493
I3
tp639
a(I4358
I3
tp640
a(I3383
I3
tp641
a(I6488
I3
tp642
a(I6193
I3
tp643
a(I5218
I3
tp644
a(I915
I3
tp645
a(I4814
I3
tp646
a(I2592
I3
tp647
a(I5467
I3
tp648
a(I6120
I3
tp649
a(I1729
I3
tp650
a(I1325
I3
tp651
a(I4445
I3
tp652
a(I4322
I3
tp653
a(I1361
I3
tp654
a(I5299
I3
tp655
a(I957
I3
tp656
a(I2030
I3
tp657
a(I5657
I3
tp658
a(I3707
I3
tp659
a(I1452
I3
tp660
a(I7301
I3
tp661
a(I2883
I3
tp662
a(I4527
I3
tp663
a(I1488
I3
tp664
a(I789
I3
tp665
a(I3490
I3
tp666
a(I6988
I3
tp667
a(I1284
I3
tp668
a(I5341
I3
tp669
a(I3135
I3
tp670
a(I4192
I3
tp671
a(I2873
I3
tp672
a(I5994
I3
tp673
a(I4517
I3
tp674
a(I2311
I3
tp675
a(I4815
I3
tp676
a(I6443
I3
tp677
a(I5173
I3
tp678
a(I657
I3
tp679
a(I755
I3
tp680
a(I5668
I3
tp681
a(I7296
I3
tp682
a(I4949
I3
tp683
a(I6853
I3
tp684
a(I4647
I3
tp685
a(I6433
I3
tp686
a(I6275
I3
tp687
a(I6029
I3
tp688
a(I3006
I3
tp689
a(I6928
I3
tp690
a(I3610
I3
tp691
a(I6731
I3
tp692
a(I6327
I3
tp693
a(I541
I3
tp694
a(I4269
I3
tp695
a(I6778
I3
tp696
a(I1495
I3
tp697
a(I2552
I3
tp698
a(I3074
I3
tp699
a(I5791
I3
tp700
a(I928
I3
tp701
a(I4101
I3
tp702
a(I7222
I3
tp703
a(I6802
I3
tp704
a(I5748
I3
tp705
a(I2804
I3
tp706
a(I6654
I3
tp707
a(I1080
I3
tp708
a(I6854
I3
tp709
a(I4617
I3
tp710
a(I5459
I3
tp711
a(I3982
I3
tp712
a(I5659
I3
tp713
a(I4684
I3
tp714
a(I2326
I3
tp715
a(I4264
I3
tp716
a(I4993
I3
tp717
a(I5091
I3
tp718
a(I6686
I3
tp719
a(I5082
I3
tp720
a(I2672
I3
tp721
a(I220
I3
tp722
a(I6118
I3
tp723
a(I5944
I3
tp724
a(I3492
I3
tp725
a(I5599
I3
tp726
a(I1247
I3
tp727
a(I1480
I3
tp728
a(I3233
I3
tp729
a(I5776
I3
tp730
a(I6603
I3
tp731
a(I4102
I3
tp732
a(I2461
I3
tp733
a(I5582
I3
tp734
a(I2956
I3
tp735
a(I7225
I3
tp736
a(I711
I3
tp737
a(I5165
I3
tp738
a(I94
I3
tp739
a(I944
I3
tp740
a(I4061
I3
tp741
a(I343
I3
tp742
a(I3448
I3
tp743
a(I7324
I3
tp744
a(I5696
I3
tp745
a(I281
I3
tp746
a(I4355
I3
tp747
a(I4675
I3
tp748
a(I3700
I3
tp749
a(I175
I3
tp750
a(I6057
I3
tp751
a(I986
I3
tp752
a(I1803
I3
tp753
a(I7081
I3
tp754
a(I2679
I3
tp755
a(I6552
I3
tp756
a(I2013
I3
tp757
a(I2912
I3
tp758
asS'runtime'
p759
F0.006211042404174805
sS'name'
p760
S'["regex", [["release_date", "[s]", "OM"]]]'
p761
s.