(dp0
S'output'
p1
(lp2
(I3253
I15
tp3
a(I1127
I15
tp4
a(I3146
I15
tp5
a(I6101
I15
tp6
a(I2222
I15
tp7
a(I4624
I15
tp8
a(I2827
I15
tp9
a(I1885
I15
tp10
a(I2319
I15
tp11
a(I5671
I15
tp12
asS'runtime'
p13
F0.006165027618408203
sS'name'
p14
S'["regex", [["filming_locations", "[\\u00e0]", "OM"]]]'
p15
s.