(dp0
S'output'
p1
(lp2
(I6756
I7
tp3
a(I2094
I7
tp4
a(I3566
I7
tp5
a(I3335
I7
tp6
a(I3641
I7
tp7
a(I4914
I7
tp8
a(I6996
I7
tp9
asS'runtime'
p10
F0.011031866073608398
sS'name'
p11
S'["regex", [["full_cast", "[\\u00d3]", "OM"]]]'
p12
s.