(dp0
S'output'
p1
(lp2
(I3618
I7
tp3
a(I6050
I7
tp4
a(I1080
I7
tp5
a(I6282
I7
tp6
a(I4851
I7
tp7
a(I2124
I7
tp8
a(I4224
I7
tp9
a(I3899
I7
tp10
a(I1997
I7
tp11
a(I732
I7
tp12
a(I1973
I7
tp13
a(I3440
I7
tp14
asS'runtime'
p15
F0.00696110725402832
sS'name'
p16
S'["regex", [["full_cast", "[\\u00e0]", "OM"]]]'
p17
s.